
led.elf:     file format elf32-littlearm


Disassembly of section .text:

00000000 <_start>:
   0:	e5bd0004 	ldr	r0, [sp, #4]!
   4:	e28d1004 	add	r1, sp, #4
   8:	eb00001d 	bl	84 <main>
   c:	eb000000 	bl	14 <_exit>

00000010 <halt>:
  10:	eafffffe 	b	10 <halt>

00000014 <_exit>:
  14:	e52d4004 	push	{r4}		; (str r4, [sp, #-4]!)
  18:	e24dd014 	sub	sp, sp, #20
  1c:	e58d0004 	str	r0, [sp, #4]
  20:	e59d3004 	ldr	r3, [sp, #4]
  24:	e1a00004 	mov	r0, r4
  28:	ef000000 	svc	0x00000000
  2c:	e1a04000 	mov	r4, r0
  30:	e58d400c 	str	r4, [sp, #12]
  34:	e59d300c 	ldr	r3, [sp, #12]
  38:	e1a00003 	mov	r0, r3
  3c:	e28dd014 	add	sp, sp, #20
  40:	e8bd0010 	ldmfd	sp!, {r4}
  44:	e12fff1e 	bx	lr

00000048 <sleep>:
  48:	e24dd008 	sub	sp, sp, #8
  4c:	e58d0004 	str	r0, [sp, #4]
  50:	e59d3004 	ldr	r3, [sp, #4]
  54:	e1a00003 	mov	r0, r3
  58:	ef000001 	svc	0x00000001
  5c:	e3a03000 	mov	r3, #0
  60:	e1a00003 	mov	r0, r3
  64:	e28dd008 	add	sp, sp, #8
  68:	e12fff1e 	bx	lr

0000006c <leds_on>:
  6c:	ef000003 	svc	0x00000003
  70:	e1a00000 	nop			; (mov r0, r0)
  74:	e12fff1e 	bx	lr

00000078 <leds_off>:
  78:	ef000004 	svc	0x00000004
  7c:	e1a00000 	nop			; (mov r0, r0)
  80:	e12fff1e 	bx	lr

00000084 <main>:
  84:	e52de004 	push	{lr}		; (str lr, [sp, #-4]!)
  88:	e24dd00c 	sub	sp, sp, #12
  8c:	e58d0004 	str	r0, [sp, #4]
  90:	e58d1000 	str	r1, [sp]
  94:	ebfffff4 	bl	6c <leds_on>
  98:	e3a00064 	mov	r0, #100	; 0x64
  9c:	ebffffe9 	bl	48 <sleep>
  a0:	ebfffff4 	bl	78 <leds_off>
  a4:	e3a00064 	mov	r0, #100	; 0x64
  a8:	ebffffe6 	bl	48 <sleep>
  ac:	eafffff8 	b	94 <main+0x10>
