
led.elf:     file format elf32-littlearm


Disassembly of section .text:

00000000 <_start>:
   0:	e5bd0004 	ldr	r0, [sp, #4]!
   4:	e28d1004 	add	r1, sp, #4
   8:	eb00001d 	bl	84 <main>
   c:	eb000000 	bl	14 <_exit>

00000010 <halt>:
  10:	eafffffe 	b	10 <halt>

00000014 <_exit>:
  14:	e52d4004 	push	{r4}		; (str r4, [sp, #-4]!)
  18:	e24dd014 	sub	sp, sp, #20
  1c:	e58d0004 	str	r0, [sp, #4]
  20:	e59d3004 	ldr	r3, [sp, #4]
  24:	e1a00004 	mov	r0, r4
  28:	ef000000 	svc	0x00000000
  2c:	e1a04000 	mov	r4, r0
  30:	e58d400c 	str	r4, [sp, #12]
  34:	e59d300c 	ldr	r3, [sp, #12]
  38:	e1a00003 	mov	r0, r3
  3c:	e28dd014 	add	sp, sp, #20
  40:	e8bd0010 	ldmfd	sp!, {r4}
  44:	e12fff1e 	bx	lr

00000048 <sleep>:
  48:	e24dd008 	sub	sp, sp, #8
  4c:	e58d0004 	str	r0, [sp, #4]
  50:	e59d3004 	ldr	r3, [sp, #4]
  54:	e1a00003 	mov	r0, r3
  58:	ef000001 	svc	0x00000001
  5c:	e3a03000 	mov	r3, #0
  60:	e1a00003 	mov	r0, r3
  64:	e28dd008 	add	sp, sp, #8
  68:	e12fff1e 	bx	lr

0000006c <leds_on>:
  6c:	ef000003 	svc	0x00000003
  70:	e1a00000 	nop			; (mov r0, r0)
  74:	e12fff1e 	bx	lr

00000078 <leds_off>:
  78:	ef000004 	svc	0x00000004
  7c:	e1a00000 	nop			; (mov r0, r0)
  80:	e12fff1e 	bx	lr

00000084 <main>:
  84:	e52de004 	push	{lr}		; (str lr, [sp, #-4]!)
  88:	e24dd00c 	sub	sp, sp, #12
  8c:	e58d0004 	str	r0, [sp, #4]
  90:	e58d1000 	str	r1, [sp]
  94:	ebfffff4 	bl	6c <leds_on>
  98:	e3a00064 	mov	r0, #100	; 0x64
  9c:	ebffffe9 	bl	48 <sleep>
  a0:	ebfffff4 	bl	78 <leds_off>
  a4:	e3a00064 	mov	r0, #100	; 0x64
  a8:	ebffffe6 	bl	48 <sleep>
  ac:	eafffff8 	b	94 <main+0x10>

Disassembly of section .comment:

00000000 <.comment>:
   0:	3a434347 	bcc	10d0d24 <__bss_end__+0x10c8c74>
   4:	6f532820 	svcvs	0x00532820
   8:	65637275 	strbvs	r7, [r3, #-629]!	; 0xfffffd8b
   c:	43207972 	teqmi	r0, #1867776	; 0x1c8000
  10:	4265646f 	rsbmi	r6, r5, #1862270976	; 0x6f000000
  14:	68636e65 	stmdavs	r3!, {r0, r2, r5, r6, r9, sl, fp, sp, lr}^
  18:	74694c20 	strbtvc	r4, [r9], #-3104	; 0xfffff3e0
  1c:	30322065 	eorscc	r2, r2, r5, rrx
  20:	302e3331 	eorcc	r3, lr, r1, lsr r3
  24:	34322d35 	ldrtcc	r2, [r2], #-3381	; 0xfffff2cb
  28:	2e342029 	cdpcs	0, 3, cr2, cr4, cr9, {1}
  2c:	00332e37 	eorseq	r2, r3, r7, lsr lr

Disassembly of section .ARM.attributes:

00000000 <.ARM.attributes>:
   0:	00002641 	andeq	r2, r0, r1, asr #12
   4:	61656100 	cmnvs	r5, r0, lsl #2
   8:	01006962 	tsteq	r0, r2, ror #18
   c:	0000001c 	andeq	r0, r0, ip, lsl r0
  10:	45543505 	ldrbmi	r3, [r4, #-1285]	; 0xfffffafb
  14:	08040600 	stmdaeq	r4, {r9, sl}
  18:	12010901 	andne	r0, r1, #16384	; 0x4000
  1c:	15011404 	strne	r1, [r1, #-1028]	; 0xfffffbfc
  20:	18031701 	stmdane	r3, {r0, r8, r9, sl, ip}
  24:	Address 0x00000024 is out of bounds.

