
miniOS.elf:     file format elf32-littlearm


Disassembly of section .text:

50000000 <_start>:
50000000:	ea000006 	b	50000020 <reset>
50000004:	e59ff130 	ldr	pc, [pc, #304]	; 5000013c <fiq+0x10>
50000008:	e59ff130 	ldr	pc, [pc, #304]	; 50000140 <fiq+0x14>
5000000c:	e59ff130 	ldr	pc, [pc, #304]	; 50000144 <fiq+0x18>
50000010:	e59ff130 	ldr	pc, [pc, #304]	; 50000148 <fiq+0x1c>
50000014:	e1a00000 	nop			; (mov r0, r0)
50000018:	e59ff12c 	ldr	pc, [pc, #300]	; 5000014c <fiq+0x20>
5000001c:	e59ff12c 	ldr	pc, [pc, #300]	; 50000150 <fiq+0x24>

50000020 <reset>:
50000020:	e321f0d3 	msr	CPSR_c, #211	; 0xd3
50000024:	e3a00207 	mov	r0, #1879048192	; 0x70000000
50000028:	e3800013 	orr	r0, r0, #19
5000002c:	ee0f0f92 	mcr	15, 0, r0, cr15, cr2, {4}
50000030:	e59f011c 	ldr	r0, [pc, #284]	; 50000154 <fiq+0x28>
50000034:	e3a01000 	mov	r1, #0
50000038:	e5801000 	str	r1, [r0]
5000003c:	e3a0db07 	mov	sp, #7168	; 0x1c00
50000040:	eb000057 	bl	500001a4 <init_clock>
50000044:	eb0000a2 	bl	500002d4 <init_sdram>
50000048:	eb000175 	bl	50000624 <init_nand>
5000004c:	e24f0054 	sub	r0, pc, #84	; 0x54
50000050:	e59f1100 	ldr	r1, [pc, #256]	; 50000158 <fiq+0x2c>
50000054:	e59f2100 	ldr	r2, [pc, #256]	; 5000015c <fiq+0x30>
50000058:	e0422001 	sub	r2, r2, r1
5000005c:	e1500001 	cmp	r0, r1
50000060:	0a000000 	beq	50000068 <clean_bss>
50000064:	eb0001a2 	bl	500006f4 <copy_nand_to_sdram>

50000068 <clean_bss>:
50000068:	e59f00ec 	ldr	r0, [pc, #236]	; 5000015c <fiq+0x30>
5000006c:	e59f10ec 	ldr	r1, [pc, #236]	; 50000160 <fiq+0x34>
50000070:	e3a02000 	mov	r2, #0

50000074 <clean_loop>:
50000074:	e1500001 	cmp	r0, r1
50000078:	14802004 	strne	r2, [r0], #4
5000007c:	1afffffc 	bne	50000074 <clean_loop>
50000080:	e321f0d3 	msr	CPSR_c, #211	; 0xd3
50000084:	e3e002fa 	mvn	r0, #-1610612721	; 0xa000000f
50000088:	e1a0d000 	mov	sp, r0
5000008c:	e321f0d7 	msr	CPSR_c, #215	; 0xd7
50000090:	e59f00cc 	ldr	r0, [pc, #204]	; 50000164 <fiq+0x38>
50000094:	e1a0d000 	mov	sp, r0
50000098:	e321f0d8 	msr	CPSR_c, #216	; 0xd8
5000009c:	e59f00c4 	ldr	r0, [pc, #196]	; 50000168 <fiq+0x3c>
500000a0:	e1a0d000 	mov	sp, r0
500000a4:	e321f0d2 	msr	CPSR_c, #210	; 0xd2
500000a8:	e59f00bc 	ldr	r0, [pc, #188]	; 5000016c <fiq+0x40>
500000ac:	e1a0d000 	mov	sp, r0
500000b0:	e321f0d1 	msr	CPSR_c, #209	; 0xd1
500000b4:	e59f00b4 	ldr	r0, [pc, #180]	; 50000170 <fiq+0x44>
500000b8:	e1a0d000 	mov	sp, r0
500000bc:	e321f0df 	msr	CPSR_c, #223	; 0xdf
500000c0:	e59f00ac 	ldr	r0, [pc, #172]	; 50000174 <fiq+0x48>
500000c4:	e1a0d000 	mov	sp, r0
500000c8:	e59fe0a8 	ldr	lr, [pc, #168]	; 50000178 <fiq+0x4c>
500000cc:	e59ff0a8 	ldr	pc, [pc, #168]	; 5000017c <fiq+0x50>

500000d0 <halt>:
500000d0:	eafffffe 	b	500000d0 <halt>

500000d4 <undefined_instruction>:
500000d4:	e92d5fff 	push	{r0, r1, r2, r3, r4, r5, r6, r7, r8, r9, sl, fp, ip, lr}
500000d8:	eb0006f9 	bl	50001cc4 <handle_und>
500000dc:	e8fd9fff 	ldm	sp!, {r0, r1, r2, r3, r4, r5, r6, r7, r8, r9, sl, fp, ip, pc}^

500000e0 <software_interrupt>:
500000e0:	e92d5fff 	push	{r0, r1, r2, r3, r4, r5, r6, r7, r8, r9, sl, fp, ip, lr}
500000e4:	e51e4004 	ldr	r4, [lr, #-4]
500000e8:	e3c444ff 	bic	r4, r4, #-16777216	; 0xff000000
500000ec:	e59f508c 	ldr	r5, [pc, #140]	; 50000180 <fiq+0x54>
500000f0:	e59fe08c 	ldr	lr, [pc, #140]	; 50000184 <fiq+0x58>
500000f4:	e795f104 	ldr	pc, [r5, r4, lsl #2]

500000f8 <swi_end>:
500000f8:	e8fd9fff 	ldm	sp!, {r0, r1, r2, r3, r4, r5, r6, r7, r8, r9, sl, fp, ip, pc}^

500000fc <prefetch_abort>:
500000fc:	e24ee004 	sub	lr, lr, #4
50000100:	e92d5fff 	push	{r0, r1, r2, r3, r4, r5, r6, r7, r8, r9, sl, fp, ip, lr}
50000104:	eb0006f5 	bl	50001ce0 <handle_pabt>
50000108:	e8fd9fff 	ldm	sp!, {r0, r1, r2, r3, r4, r5, r6, r7, r8, r9, sl, fp, ip, pc}^

5000010c <data_abort>:
5000010c:	e24ee008 	sub	lr, lr, #8
50000110:	e92d5fff 	push	{r0, r1, r2, r3, r4, r5, r6, r7, r8, r9, sl, fp, ip, lr}
50000114:	eb0006f6 	bl	50001cf4 <handle_dabt>
50000118:	e8fd9fff 	ldm	sp!, {r0, r1, r2, r3, r4, r5, r6, r7, r8, r9, sl, fp, ip, pc}^

5000011c <irq>:
5000011c:	e24ee004 	sub	lr, lr, #4
50000120:	e92d5fff 	push	{r0, r1, r2, r3, r4, r5, r6, r7, r8, r9, sl, fp, ip, lr}
50000124:	eb0006f7 	bl	50001d08 <handle_irq>
50000128:	e8fd9fff 	ldm	sp!, {r0, r1, r2, r3, r4, r5, r6, r7, r8, r9, sl, fp, ip, pc}^

5000012c <fiq>:
5000012c:	e24ee004 	sub	lr, lr, #4
50000130:	e92d5fff 	push	{r0, r1, r2, r3, r4, r5, r6, r7, r8, r9, sl, fp, ip, lr}
50000134:	eb0006fe 	bl	50001d34 <handle_fiq>
50000138:	e8fd9fff 	ldm	sp!, {r0, r1, r2, r3, r4, r5, r6, r7, r8, r9, sl, fp, ip, pc}^
5000013c:	500000d4 	ldrdpl	r0, [r0], -r4
50000140:	500000e0 	andpl	r0, r0, r0, ror #1
50000144:	500000fc 	strdpl	r0, [r0], -ip
50000148:	5000010c 	andpl	r0, r0, ip, lsl #2
5000014c:	5000011c 	andpl	r0, r0, ip, lsl r1
50000150:	5000012c 	andpl	r0, r0, ip, lsr #2
50000154:	7e004000 	cdpvc	0, 0, cr4, cr0, cr0, {0}
50000158:	50000000 	andpl	r0, r0, r0
5000015c:	50004d38 	andpl	r4, r0, r8, lsr sp
50000160:	50007c80 	andpl	r7, r0, r0, lsl #25
50000164:	5fff7ff0 	svcpl	0x00ff7ff0
50000168:	5fff6ff0 	svcpl	0x00ff6ff0
5000016c:	5fff5ff0 	svcpl	0x00ff5ff0
50000170:	5ffedff0 	svcpl	0x00fedff0
50000174:	5ffe9ff0 	svcpl	0x00fe9ff0
50000178:	500000d0 	ldrdpl	r0, [r0], -r0	; <UNPREDICTABLE>
5000017c:	500022d4 	ldrdpl	r2, [r0], -r4
50000180:	50004d18 	andpl	r4, r0, r8, lsl sp
50000184:	500000f8 	strdpl	r0, [r0], -r8
50000188:	00001a41 	andeq	r1, r0, r1, asr #20
5000018c:	61656100 	cmnvs	r5, r0, lsl #2
50000190:	01006962 	tsteq	r0, r2, ror #18
50000194:	00000010 	andeq	r0, r0, r0, lsl r0
50000198:	45543505 	ldrbmi	r3, [r4, #-1285]	; 0xfffffafb
5000019c:	08040600 	stmdaeq	r4, {r9, sl}
500001a0:	00010901 	andeq	r0, r1, r1, lsl #18

500001a4 <init_clock>:
500001a4:	e59f309c 	ldr	r3, [pc, #156]	; 50000248 <init_clock+0xa4>
500001a8:	e59f209c 	ldr	r2, [pc, #156]	; 5000024c <init_clock+0xa8>
500001ac:	e5832000 	str	r2, [r3]
500001b0:	e59f3098 	ldr	r3, [pc, #152]	; 50000250 <init_clock+0xac>
500001b4:	e59f2090 	ldr	r2, [pc, #144]	; 5000024c <init_clock+0xa8>
500001b8:	e5832000 	str	r2, [r3]
500001bc:	e59f3090 	ldr	r3, [pc, #144]	; 50000254 <init_clock+0xb0>
500001c0:	e59f2084 	ldr	r2, [pc, #132]	; 5000024c <init_clock+0xa8>
500001c4:	e5832000 	str	r2, [r3]
500001c8:	e59f3088 	ldr	r3, [pc, #136]	; 50000258 <init_clock+0xb4>
500001cc:	e59f2084 	ldr	r2, [pc, #132]	; 50000258 <init_clock+0xb4>
500001d0:	e5922000 	ldr	r2, [r2]
500001d4:	e3c220c0 	bic	r2, r2, #192	; 0xc0
500001d8:	e5832000 	str	r2, [r3]
500001dc:	ea000000 	b	500001e4 <init_clock+0x40>
500001e0:	e1a00000 	nop			; (mov r0, r0)
500001e4:	e59f306c 	ldr	r3, [pc, #108]	; 50000258 <init_clock+0xb4>
500001e8:	e5933000 	ldr	r3, [r3]
500001ec:	e2033c0f 	and	r3, r3, #3840	; 0xf00
500001f0:	e3530000 	cmp	r3, #0
500001f4:	1afffff9 	bne	500001e0 <init_clock+0x3c>
500001f8:	e1a00000 	nop			; (mov r0, r0)
500001fc:	e59f3058 	ldr	r3, [pc, #88]	; 5000025c <init_clock+0xb8>
50000200:	e59f2058 	ldr	r2, [pc, #88]	; 50000260 <init_clock+0xbc>
50000204:	e5832000 	str	r2, [r3]
50000208:	e59f3054 	ldr	r3, [pc, #84]	; 50000264 <init_clock+0xc0>
5000020c:	e59f2054 	ldr	r2, [pc, #84]	; 50000268 <init_clock+0xc4>
50000210:	e5832000 	str	r2, [r3]
50000214:	e59f2050 	ldr	r2, [pc, #80]	; 5000026c <init_clock+0xc8>
50000218:	e59f304c 	ldr	r3, [pc, #76]	; 5000026c <init_clock+0xc8>
5000021c:	e5931000 	ldr	r1, [r3]
50000220:	e59f3048 	ldr	r3, [pc, #72]	; 50000270 <init_clock+0xcc>
50000224:	e0013003 	and	r3, r1, r3
50000228:	e38337c3 	orr	r3, r3, #51118080	; 0x30c0000
5000022c:	e3833c31 	orr	r3, r3, #12544	; 0x3100
50000230:	e5823000 	str	r3, [r2]
50000234:	e59f3038 	ldr	r3, [pc, #56]	; 50000274 <init_clock+0xd0>
50000238:	e3a02003 	mov	r2, #3
5000023c:	e5832000 	str	r2, [r3]
50000240:	e1a00000 	nop			; (mov r0, r0)
50000244:	e12fff1e 	bx	lr
50000248:	7e00f000 	cdpvc	0, 0, cr15, cr0, cr0, {0}
5000024c:	0000ffff 	strdeq	pc, [r0], -pc	; <UNPREDICTABLE>
50000250:	7e00f004 	cdpvc	0, 0, cr15, cr0, cr4, {0}
50000254:	7e00f008 	cdpvc	0, 0, cr15, cr0, cr8, {0}
50000258:	7e00f900 	cdpvc	9, 0, cr15, cr0, cr0, {0}
5000025c:	7e00f00c 	cdpvc	0, 0, cr15, cr0, cr12, {0}
50000260:	810a0301 	tsthi	sl, r1, lsl #6
50000264:	7e00f010 	mcrvc	0, 0, pc, cr0, cr0, {0}	; <UNPREDICTABLE>
50000268:	810a0302 	tsthi	sl, r2, lsl #6
5000026c:	7e00f020 	cdpvc	0, 0, cr15, cr0, cr0, {1}
50000270:	f0f30000 			; <UNDEFINED> instruction: 0xf0f30000
50000274:	7e00f01c 	mcrvc	0, 0, pc, cr0, cr12, {0}	; <UNPREDICTABLE>
50000278:	3a434347 	bcc	510d0f9c <bss_end+0x10c931c>
5000027c:	6f532820 	svcvs	0x00532820
50000280:	65637275 	strbvs	r7, [r3, #-629]!	; 0xfffffd8b
50000284:	43207972 	teqmi	r0, #1867776	; 0x1c8000
50000288:	4265646f 	rsbmi	r6, r5, #1862270976	; 0x6f000000
5000028c:	68636e65 	stmdavs	r3!, {r0, r2, r5, r6, r9, sl, fp, sp, lr}^
50000290:	74694c20 	strbtvc	r4, [r9], #-3104	; 0xfffff3e0
50000294:	30322065 	eorscc	r2, r2, r5, rrx
50000298:	302e3331 	eorcc	r3, lr, r1, lsr r3
5000029c:	34322d35 	ldrtcc	r2, [r2], #-3381	; 0xfffff2cb
500002a0:	2e342029 	cdpcs	0, 3, cr2, cr4, cr9, {1}
500002a4:	00332e37 	eorseq	r2, r3, r7, lsr lr
500002a8:	00002a41 	andeq	r2, r0, r1, asr #20
500002ac:	61656100 	cmnvs	r5, r0, lsl #2
500002b0:	01006962 	tsteq	r0, r2, ror #18
500002b4:	00000020 	andeq	r0, r0, r0, lsr #32
500002b8:	45543505 	ldrbmi	r3, [r4, #-1285]	; 0xfffffafb
500002bc:	08040600 	stmdaeq	r4, {r9, sl}
500002c0:	12010901 	andne	r0, r1, #16384	; 0x4000
500002c4:	15011404 	strne	r1, [r1, #-1028]	; 0xfffffbfc
500002c8:	18031701 	stmdane	r3, {r0, r8, r9, sl, ip}
500002cc:	1a011901 	bne	500466d8 <bss_end+0x3ea58>
500002d0:	00061e02 	andeq	r1, r6, r2, lsl #28

500002d4 <init_sdram>:
500002d4:	e59f3178 	ldr	r3, [pc, #376]	; 50000454 <init_sdram+0x180>
500002d8:	e3a02004 	mov	r2, #4
500002dc:	e5832000 	str	r2, [r3]
500002e0:	e59f3170 	ldr	r3, [pc, #368]	; 50000458 <init_sdram+0x184>
500002e4:	e59f2170 	ldr	r2, [pc, #368]	; 5000045c <init_sdram+0x188>
500002e8:	e5832000 	str	r2, [r3]
500002ec:	e59f316c 	ldr	r3, [pc, #364]	; 50000460 <init_sdram+0x18c>
500002f0:	e3a02006 	mov	r2, #6
500002f4:	e5832000 	str	r2, [r3]
500002f8:	e59f3164 	ldr	r3, [pc, #356]	; 50000464 <init_sdram+0x190>
500002fc:	e3a02001 	mov	r2, #1
50000300:	e5832000 	str	r2, [r3]
50000304:	e59f315c 	ldr	r3, [pc, #348]	; 50000468 <init_sdram+0x194>
50000308:	e3a02002 	mov	r2, #2
5000030c:	e5832000 	str	r2, [r3]
50000310:	e59f3154 	ldr	r3, [pc, #340]	; 5000046c <init_sdram+0x198>
50000314:	e3a02007 	mov	r2, #7
50000318:	e5832000 	str	r2, [r3]
5000031c:	e59f314c 	ldr	r3, [pc, #332]	; 50000470 <init_sdram+0x19c>
50000320:	e3a0200a 	mov	r2, #10
50000324:	e5832000 	str	r2, [r3]
50000328:	e59f3144 	ldr	r3, [pc, #324]	; 50000474 <init_sdram+0x1a0>
5000032c:	e3a0200c 	mov	r2, #12
50000330:	e5832000 	str	r2, [r3]
50000334:	e59f313c 	ldr	r3, [pc, #316]	; 50000478 <init_sdram+0x1a4>
50000338:	e59f213c 	ldr	r2, [pc, #316]	; 5000047c <init_sdram+0x1a8>
5000033c:	e5832000 	str	r2, [r3]
50000340:	e59f3138 	ldr	r3, [pc, #312]	; 50000480 <init_sdram+0x1ac>
50000344:	e3a0200c 	mov	r2, #12
50000348:	e5832000 	str	r2, [r3]
5000034c:	e59f3130 	ldr	r3, [pc, #304]	; 50000484 <init_sdram+0x1b0>
50000350:	e3a02003 	mov	r2, #3
50000354:	e5832000 	str	r2, [r3]
50000358:	e59f3128 	ldr	r3, [pc, #296]	; 50000488 <init_sdram+0x1b4>
5000035c:	e3a02003 	mov	r2, #3
50000360:	e5832000 	str	r2, [r3]
50000364:	e59f3120 	ldr	r3, [pc, #288]	; 5000048c <init_sdram+0x1b8>
50000368:	e3a02002 	mov	r2, #2
5000036c:	e5832000 	str	r2, [r3]
50000370:	e59f3118 	ldr	r3, [pc, #280]	; 50000490 <init_sdram+0x1bc>
50000374:	e3a02001 	mov	r2, #1
50000378:	e5832000 	str	r2, [r3]
5000037c:	e59f3110 	ldr	r3, [pc, #272]	; 50000494 <init_sdram+0x1c0>
50000380:	e3a02011 	mov	r2, #17
50000384:	e5832000 	str	r2, [r3]
50000388:	e59f3108 	ldr	r3, [pc, #264]	; 50000498 <init_sdram+0x1c4>
5000038c:	e3a02011 	mov	r2, #17
50000390:	e5832000 	str	r2, [r3]
50000394:	e59f3100 	ldr	r3, [pc, #256]	; 5000049c <init_sdram+0x1c8>
50000398:	e59f20fc 	ldr	r2, [pc, #252]	; 5000049c <init_sdram+0x1c8>
5000039c:	e5922000 	ldr	r2, [r2]
500003a0:	e3c2203f 	bic	r2, r2, #63	; 0x3f
500003a4:	e382201a 	orr	r2, r2, #26
500003a8:	e5832000 	str	r2, [r3]
500003ac:	e59f30ec 	ldr	r3, [pc, #236]	; 500004a0 <init_sdram+0x1cc>
500003b0:	e59f20ec 	ldr	r2, [pc, #236]	; 500004a4 <init_sdram+0x1d0>
500003b4:	e5832000 	str	r2, [r3]
500003b8:	e59f30e8 	ldr	r3, [pc, #232]	; 500004a8 <init_sdram+0x1d4>
500003bc:	e59f20e4 	ldr	r2, [pc, #228]	; 500004a8 <init_sdram+0x1d4>
500003c0:	e5922000 	ldr	r2, [r2]
500003c4:	e3822801 	orr	r2, r2, #65536	; 0x10000
500003c8:	e5832000 	str	r2, [r3]
500003cc:	e59f30d8 	ldr	r3, [pc, #216]	; 500004ac <init_sdram+0x1d8>
500003d0:	e3a02703 	mov	r2, #786432	; 0xc0000
500003d4:	e5832000 	str	r2, [r3]
500003d8:	e59f30cc 	ldr	r3, [pc, #204]	; 500004ac <init_sdram+0x1d8>
500003dc:	e3a02000 	mov	r2, #0
500003e0:	e5832000 	str	r2, [r3]
500003e4:	e59f30c0 	ldr	r3, [pc, #192]	; 500004ac <init_sdram+0x1d8>
500003e8:	e3a02701 	mov	r2, #262144	; 0x40000
500003ec:	e5832000 	str	r2, [r3]
500003f0:	e59f30b4 	ldr	r3, [pc, #180]	; 500004ac <init_sdram+0x1d8>
500003f4:	e3a02701 	mov	r2, #262144	; 0x40000
500003f8:	e5832000 	str	r2, [r3]
500003fc:	e59f30a8 	ldr	r3, [pc, #168]	; 500004ac <init_sdram+0x1d8>
50000400:	e59f20a8 	ldr	r2, [pc, #168]	; 500004b0 <init_sdram+0x1dc>
50000404:	e5832000 	str	r2, [r3]
50000408:	e59f309c 	ldr	r3, [pc, #156]	; 500004ac <init_sdram+0x1d8>
5000040c:	e3a0280a 	mov	r2, #655360	; 0xa0000
50000410:	e5832000 	str	r2, [r3]
50000414:	e59f3098 	ldr	r3, [pc, #152]	; 500004b4 <init_sdram+0x1e0>
50000418:	e3a02000 	mov	r2, #0
5000041c:	e5832000 	str	r2, [r3]
50000420:	e59f302c 	ldr	r3, [pc, #44]	; 50000454 <init_sdram+0x180>
50000424:	e3a02000 	mov	r2, #0
50000428:	e5832000 	str	r2, [r3]
5000042c:	ea000000 	b	50000434 <init_sdram+0x160>
50000430:	e1a00000 	nop			; (mov r0, r0)
50000434:	e59f307c 	ldr	r3, [pc, #124]	; 500004b8 <init_sdram+0x1e4>
50000438:	e5933000 	ldr	r3, [r3]
5000043c:	e2033003 	and	r3, r3, #3
50000440:	e3530001 	cmp	r3, #1
50000444:	1afffff9 	bne	50000430 <init_sdram+0x15c>
50000448:	e1a00000 	nop			; (mov r0, r0)
5000044c:	e1a00000 	nop			; (mov r0, r0)
50000450:	e12fff1e 	bx	lr
50000454:	7e001004 	cdpvc	0, 0, cr1, cr0, cr4, {0}
50000458:	7e001010 	mcrvc	0, 0, r1, cr0, cr0, {0}
5000045c:	0000040d 	andeq	r0, r0, sp, lsl #8
50000460:	7e001014 	mcrvc	0, 0, r1, cr0, cr4, {0}
50000464:	7e001018 	mcrvc	0, 0, r1, cr0, cr8, {0}
50000468:	7e00101c 	mcrvc	0, 0, r1, cr0, cr12, {0}
5000046c:	7e001020 	cdpvc	0, 0, cr1, cr0, cr0, {1}
50000470:	7e001024 	cdpvc	0, 0, cr1, cr0, cr4, {1}
50000474:	7e001028 	cdpvc	0, 0, cr1, cr0, cr8, {1}
50000478:	7e00102c 	cdpvc	0, 0, cr1, cr0, cr12, {1}
5000047c:	0000010b 	andeq	r0, r0, fp, lsl #2
50000480:	7e001030 	mcrvc	0, 0, r1, cr0, cr0, {1}
50000484:	7e001034 	mcrvc	0, 0, r1, cr0, cr4, {1}
50000488:	7e001038 	mcrvc	0, 0, r1, cr0, cr8, {1}
5000048c:	7e00103c 	mcrvc	0, 0, r1, cr0, cr12, {1}
50000490:	7e001040 	cdpvc	0, 0, cr1, cr0, cr0, {2}
50000494:	7e001044 	cdpvc	0, 0, cr1, cr0, cr4, {2}
50000498:	7e001048 	cdpvc	0, 0, cr1, cr0, cr8, {2}
5000049c:	7e00100c 	cdpvc	0, 0, cr1, cr0, cr12, {0}
500004a0:	7e00104c 	cdpvc	0, 0, cr1, cr0, cr12, {2}
500004a4:	00000b45 	andeq	r0, r0, r5, asr #22
500004a8:	7e001200 	cdpvc	2, 0, cr1, cr0, cr0, {0}
500004ac:	7e001008 	cdpvc	0, 0, cr1, cr0, cr8, {0}
500004b0:	00080032 	andeq	r0, r8, r2, lsr r0
500004b4:	7e00f120 	mvfvcsp	f7, f0
500004b8:	7e001000 	cdpvc	0, 0, cr1, cr0, cr0, {0}

500004bc <copy_to_sdram>:
500004bc:	e24dd010 	sub	sp, sp, #16
500004c0:	e3a03205 	mov	r3, #1342177280	; 0x50000000
500004c4:	e58d300c 	str	r3, [sp, #12]
500004c8:	e3a03000 	mov	r3, #0
500004cc:	e58d3008 	str	r3, [sp, #8]
500004d0:	e3a03a02 	mov	r3, #8192	; 0x2000
500004d4:	e58d3004 	str	r3, [sp, #4]
500004d8:	ea000009 	b	50000504 <copy_to_sdram+0x48>
500004dc:	e59d3008 	ldr	r3, [sp, #8]
500004e0:	e5932000 	ldr	r2, [r3]
500004e4:	e59d300c 	ldr	r3, [sp, #12]
500004e8:	e5832000 	str	r2, [r3]
500004ec:	e59d300c 	ldr	r3, [sp, #12]
500004f0:	e2833004 	add	r3, r3, #4
500004f4:	e58d300c 	str	r3, [sp, #12]
500004f8:	e59d3008 	ldr	r3, [sp, #8]
500004fc:	e2833004 	add	r3, r3, #4
50000500:	e58d3008 	str	r3, [sp, #8]
50000504:	e59d2008 	ldr	r2, [sp, #8]
50000508:	e59d3004 	ldr	r3, [sp, #4]
5000050c:	e1520003 	cmp	r2, r3
50000510:	3afffff1 	bcc	500004dc <copy_to_sdram+0x20>
50000514:	e1a00000 	nop			; (mov r0, r0)
50000518:	e28dd010 	add	sp, sp, #16
5000051c:	e12fff1e 	bx	lr

50000520 <sdram_read>:
50000520:	e52de004 	push	{lr}		; (str lr, [sp, #-4]!)
50000524:	e24dd014 	sub	sp, sp, #20
50000528:	e58d0004 	str	r0, [sp, #4]
5000052c:	e58d1000 	str	r1, [sp]
50000530:	e59d3004 	ldr	r3, [sp, #4]
50000534:	e58d300c 	str	r3, [sp, #12]
50000538:	e3a03000 	mov	r3, #0
5000053c:	e58d3008 	str	r3, [sp, #8]
50000540:	e59d2004 	ldr	r2, [sp, #4]
50000544:	e59d3000 	ldr	r3, [sp]
50000548:	e1520003 	cmp	r2, r3
5000054c:	2a00001d 	bcs	500005c8 <sdram_read+0xa8>
50000550:	e59d3008 	ldr	r3, [sp, #8]
50000554:	e3530000 	cmp	r3, #0
50000558:	0a000002 	beq	50000568 <sdram_read+0x48>
5000055c:	e59d3008 	ldr	r3, [sp, #8]
50000560:	e3530004 	cmp	r3, #4
50000564:	1a000007 	bne	50000588 <sdram_read+0x68>
50000568:	e59f0070 	ldr	r0, [pc, #112]	; 500005e0 <sdram_read+0xc0>
5000056c:	eb000338 	bl	50001254 <uart_puts>
50000570:	e59d0004 	ldr	r0, [sp, #4]
50000574:	eb0003a3 	bl	50001408 <uart_print_hex>
50000578:	e59f0064 	ldr	r0, [pc, #100]	; 500005e4 <sdram_read+0xc4>
5000057c:	eb00034e 	bl	500012bc <uart_printf>
50000580:	e3a03000 	mov	r3, #0
50000584:	e58d3008 	str	r3, [sp, #8]
50000588:	e59d300c 	ldr	r3, [sp, #12]
5000058c:	e5933000 	ldr	r3, [r3]
50000590:	e59d200c 	ldr	r2, [sp, #12]
50000594:	e2822004 	add	r2, r2, #4
50000598:	e58d200c 	str	r2, [sp, #12]
5000059c:	e1a00003 	mov	r0, r3
500005a0:	eb0003b2 	bl	50001470 <uart_print_addr>
500005a4:	e59f003c 	ldr	r0, [pc, #60]	; 500005e8 <sdram_read+0xc8>
500005a8:	eb000343 	bl	500012bc <uart_printf>
500005ac:	e59d3008 	ldr	r3, [sp, #8]
500005b0:	e2833001 	add	r3, r3, #1
500005b4:	e58d3008 	str	r3, [sp, #8]
500005b8:	e59d3004 	ldr	r3, [sp, #4]
500005bc:	e2833004 	add	r3, r3, #4
500005c0:	e58d3004 	str	r3, [sp, #4]
500005c4:	eaffffdd 	b	50000540 <sdram_read+0x20>
500005c8:	e1a00000 	nop			; (mov r0, r0)
500005cc:	e59f000c 	ldr	r0, [pc, #12]	; 500005e0 <sdram_read+0xc0>
500005d0:	eb00031f 	bl	50001254 <uart_puts>
500005d4:	e1a00000 	nop			; (mov r0, r0)
500005d8:	e28dd014 	add	sp, sp, #20
500005dc:	e8bd8000 	ldmfd	sp!, {pc}
500005e0:	500005ec 	andpl	r0, r0, ip, ror #11
500005e4:	500005f0 	strdpl	r0, [r0], -r0	; <UNPREDICTABLE>
500005e8:	500005f4 	strdpl	r0, [r0], -r4
500005ec:	00000000 	andeq	r0, r0, r0
500005f0:	00203a20 	eoreq	r3, r0, r0, lsr #20
500005f4:	00002020 	andeq	r2, r0, r0, lsr #32
500005f8:	00002a41 	andeq	r2, r0, r1, asr #20
500005fc:	61656100 	cmnvs	r5, r0, lsl #2
50000600:	01006962 	tsteq	r0, r2, ror #18
50000604:	00000020 	andeq	r0, r0, r0, lsr #32
50000608:	45543505 	ldrbmi	r3, [r4, #-1285]	; 0xfffffafb
5000060c:	08040600 	stmdaeq	r4, {r9, sl}
50000610:	12010901 	andne	r0, r1, #16384	; 0x4000
50000614:	15011404 	strne	r1, [r1, #-1028]	; 0xfffffbfc
50000618:	18031701 	stmdane	r3, {r0, r8, r9, sl, ip}
5000061c:	1a011901 	bne	50046a28 <bss_end+0x3eda8>
50000620:	00061e02 	andeq	r1, r6, r2, lsl #28

50000624 <init_nand>:
50000624:	e92d4008 	push	{r3, lr}
50000628:	e59f304c 	ldr	r3, [pc, #76]	; 5000067c <init_nand+0x58>
5000062c:	e3a02000 	mov	r2, #0
50000630:	e5832000 	str	r2, [r3]
50000634:	e59f2044 	ldr	r2, [pc, #68]	; 50000680 <init_nand+0x5c>
50000638:	e59f3040 	ldr	r3, [pc, #64]	; 50000680 <init_nand+0x5c>
5000063c:	e5931000 	ldr	r1, [r3]
50000640:	e59f303c 	ldr	r3, [pc, #60]	; 50000684 <init_nand+0x60>
50000644:	e0013003 	and	r3, r1, r3
50000648:	e3833401 	orr	r3, r3, #16777216	; 0x1000000
5000064c:	e3833e31 	orr	r3, r3, #784	; 0x310
50000650:	e5823000 	str	r3, [r2]
50000654:	e59f202c 	ldr	r2, [pc, #44]	; 50000688 <init_nand+0x64>
50000658:	e59f3028 	ldr	r3, [pc, #40]	; 50000688 <init_nand+0x64>
5000065c:	e5933000 	ldr	r3, [r3]
50000660:	e3c33803 	bic	r3, r3, #196608	; 0x30000
50000664:	e3c330f7 	bic	r3, r3, #247	; 0xf7
50000668:	e38330f7 	orr	r3, r3, #247	; 0xf7
5000066c:	e5823000 	str	r3, [r2]
50000670:	eb000005 	bl	5000068c <nand_reset>
50000674:	e1a00000 	nop			; (mov r0, r0)
50000678:	e8bd8008 	pop	{r3, pc}
5000067c:	7e00f120 	mvfvcsp	f7, f0
50000680:	70200000 	eorvc	r0, r0, r0
50000684:	bc7f888f 	ldcllt	8, cr8, [pc], #-572	; 50000450 <init_sdram+0x17c>
50000688:	70200004 	eorvc	r0, r0, r4

5000068c <nand_reset>:
5000068c:	e59f3054 	ldr	r3, [pc, #84]	; 500006e8 <nand_reset+0x5c>
50000690:	e59f2050 	ldr	r2, [pc, #80]	; 500006e8 <nand_reset+0x5c>
50000694:	e5922000 	ldr	r2, [r2]
50000698:	e3c22002 	bic	r2, r2, #2
5000069c:	e5832000 	str	r2, [r3]
500006a0:	e59f3044 	ldr	r3, [pc, #68]	; 500006ec <nand_reset+0x60>
500006a4:	e3a020ff 	mov	r2, #255	; 0xff
500006a8:	e5832000 	str	r2, [r3]
500006ac:	ea000000 	b	500006b4 <nand_reset+0x28>
500006b0:	e1a00000 	nop			; (mov r0, r0)
500006b4:	e59f3034 	ldr	r3, [pc, #52]	; 500006f0 <nand_reset+0x64>
500006b8:	e5933000 	ldr	r3, [r3]
500006bc:	e2033001 	and	r3, r3, #1
500006c0:	e3530000 	cmp	r3, #0
500006c4:	0afffff9 	beq	500006b0 <nand_reset+0x24>
500006c8:	e1a00000 	nop			; (mov r0, r0)
500006cc:	e59f3014 	ldr	r3, [pc, #20]	; 500006e8 <nand_reset+0x5c>
500006d0:	e59f2010 	ldr	r2, [pc, #16]	; 500006e8 <nand_reset+0x5c>
500006d4:	e5922000 	ldr	r2, [r2]
500006d8:	e3822002 	orr	r2, r2, #2
500006dc:	e5832000 	str	r2, [r3]
500006e0:	e1a00000 	nop			; (mov r0, r0)
500006e4:	e12fff1e 	bx	lr
500006e8:	70200004 	eorvc	r0, r0, r4
500006ec:	70200008 	eorvc	r0, r0, r8
500006f0:	70200028 	eorvc	r0, r0, r8, lsr #32

500006f4 <copy_nand_to_sdram>:
500006f4:	e24dd028 	sub	sp, sp, #40	; 0x28
500006f8:	e58d000c 	str	r0, [sp, #12]
500006fc:	e58d1008 	str	r1, [sp, #8]
50000700:	e58d2004 	str	r2, [sp, #4]
50000704:	e3a03000 	mov	r3, #0
50000708:	e58d3024 	str	r3, [sp, #36]	; 0x24
5000070c:	e3a03000 	mov	r3, #0
50000710:	e58d3020 	str	r3, [sp, #32]
50000714:	e3a03000 	mov	r3, #0
50000718:	e58d301c 	str	r3, [sp, #28]
5000071c:	e3a03000 	mov	r3, #0
50000720:	e58d3018 	str	r3, [sp, #24]
50000724:	e59d300c 	ldr	r3, [sp, #12]
50000728:	e1a03623 	lsr	r3, r3, #12
5000072c:	e58d3020 	str	r3, [sp, #32]
50000730:	e59d3020 	ldr	r3, [sp, #32]
50000734:	e1a03603 	lsl	r3, r3, #12
50000738:	e59d200c 	ldr	r2, [sp, #12]
5000073c:	e0633002 	rsb	r3, r3, r2
50000740:	e58d301c 	str	r3, [sp, #28]
50000744:	e59f3184 	ldr	r3, [pc, #388]	; 500008d0 <copy_nand_to_sdram+0x1dc>
50000748:	e59f2180 	ldr	r2, [pc, #384]	; 500008d0 <copy_nand_to_sdram+0x1dc>
5000074c:	e5922000 	ldr	r2, [r2]
50000750:	e3c22002 	bic	r2, r2, #2
50000754:	e5832000 	str	r2, [r3]
50000758:	e3a03a01 	mov	r3, #4096	; 0x1000
5000075c:	e58d3018 	str	r3, [sp, #24]
50000760:	e59d3020 	ldr	r3, [sp, #32]
50000764:	e3530003 	cmp	r3, #3
50000768:	8a000001 	bhi	50000774 <copy_nand_to_sdram+0x80>
5000076c:	e3a03b02 	mov	r3, #2048	; 0x800
50000770:	e58d3018 	str	r3, [sp, #24]
50000774:	e59d201c 	ldr	r2, [sp, #28]
50000778:	e59d3018 	ldr	r3, [sp, #24]
5000077c:	e1520003 	cmp	r2, r3
50000780:	3a000002 	bcc	50000790 <copy_nand_to_sdram+0x9c>
50000784:	e59d3020 	ldr	r3, [sp, #32]
50000788:	e2833001 	add	r3, r3, #1
5000078c:	e58d3020 	str	r3, [sp, #32]
50000790:	e59f313c 	ldr	r3, [pc, #316]	; 500008d4 <copy_nand_to_sdram+0x1e0>
50000794:	e3a02000 	mov	r2, #0
50000798:	e5832000 	str	r2, [r3]
5000079c:	e59f3134 	ldr	r3, [pc, #308]	; 500008d8 <copy_nand_to_sdram+0x1e4>
500007a0:	e59d201c 	ldr	r2, [sp, #28]
500007a4:	e20220ff 	and	r2, r2, #255	; 0xff
500007a8:	e5832000 	str	r2, [r3]
500007ac:	e59f3124 	ldr	r3, [pc, #292]	; 500008d8 <copy_nand_to_sdram+0x1e4>
500007b0:	e59d201c 	ldr	r2, [sp, #28]
500007b4:	e1a02422 	lsr	r2, r2, #8
500007b8:	e202201f 	and	r2, r2, #31
500007bc:	e5832000 	str	r2, [r3]
500007c0:	e59f3110 	ldr	r3, [pc, #272]	; 500008d8 <copy_nand_to_sdram+0x1e4>
500007c4:	e59d2020 	ldr	r2, [sp, #32]
500007c8:	e20220ff 	and	r2, r2, #255	; 0xff
500007cc:	e5832000 	str	r2, [r3]
500007d0:	e59f3100 	ldr	r3, [pc, #256]	; 500008d8 <copy_nand_to_sdram+0x1e4>
500007d4:	e59d2020 	ldr	r2, [sp, #32]
500007d8:	e1a02422 	lsr	r2, r2, #8
500007dc:	e20220ff 	and	r2, r2, #255	; 0xff
500007e0:	e5832000 	str	r2, [r3]
500007e4:	e59f30ec 	ldr	r3, [pc, #236]	; 500008d8 <copy_nand_to_sdram+0x1e4>
500007e8:	e59d2020 	ldr	r2, [sp, #32]
500007ec:	e1a02822 	lsr	r2, r2, #16
500007f0:	e20220ff 	and	r2, r2, #255	; 0xff
500007f4:	e5832000 	str	r2, [r3]
500007f8:	e59f30d4 	ldr	r3, [pc, #212]	; 500008d4 <copy_nand_to_sdram+0x1e0>
500007fc:	e3a02030 	mov	r2, #48	; 0x30
50000800:	e5832000 	str	r2, [r3]
50000804:	ea000000 	b	5000080c <copy_nand_to_sdram+0x118>
50000808:	e1a00000 	nop			; (mov r0, r0)
5000080c:	e59f30c8 	ldr	r3, [pc, #200]	; 500008dc <copy_nand_to_sdram+0x1e8>
50000810:	e5933000 	ldr	r3, [r3]
50000814:	e2033001 	and	r3, r3, #1
50000818:	e3530000 	cmp	r3, #0
5000081c:	0afffff9 	beq	50000808 <copy_nand_to_sdram+0x114>
50000820:	e1a00000 	nop			; (mov r0, r0)
50000824:	e59d301c 	ldr	r3, [sp, #28]
50000828:	e58d3014 	str	r3, [sp, #20]
5000082c:	ea00000c 	b	50000864 <copy_nand_to_sdram+0x170>
50000830:	e59f30a8 	ldr	r3, [pc, #168]	; 500008e0 <copy_nand_to_sdram+0x1ec>
50000834:	e5932000 	ldr	r2, [r3]
50000838:	e59d3008 	ldr	r3, [sp, #8]
5000083c:	e5832000 	str	r2, [r3]
50000840:	e59d3008 	ldr	r3, [sp, #8]
50000844:	e2833004 	add	r3, r3, #4
50000848:	e58d3008 	str	r3, [sp, #8]
5000084c:	e59d3024 	ldr	r3, [sp, #36]	; 0x24
50000850:	e2833004 	add	r3, r3, #4
50000854:	e58d3024 	str	r3, [sp, #36]	; 0x24
50000858:	e59d3014 	ldr	r3, [sp, #20]
5000085c:	e2833004 	add	r3, r3, #4
50000860:	e58d3014 	str	r3, [sp, #20]
50000864:	e59d2014 	ldr	r2, [sp, #20]
50000868:	e59d3018 	ldr	r3, [sp, #24]
5000086c:	e1520003 	cmp	r2, r3
50000870:	2a000003 	bcs	50000884 <copy_nand_to_sdram+0x190>
50000874:	e59d2024 	ldr	r2, [sp, #36]	; 0x24
50000878:	e59d3004 	ldr	r3, [sp, #4]
5000087c:	e1520003 	cmp	r2, r3
50000880:	3affffea 	bcc	50000830 <copy_nand_to_sdram+0x13c>
50000884:	e59d2024 	ldr	r2, [sp, #36]	; 0x24
50000888:	e59d3004 	ldr	r3, [sp, #4]
5000088c:	e1520003 	cmp	r2, r3
50000890:	2a000005 	bcs	500008ac <copy_nand_to_sdram+0x1b8>
50000894:	e59d3020 	ldr	r3, [sp, #32]
50000898:	e2833001 	add	r3, r3, #1
5000089c:	e58d3020 	str	r3, [sp, #32]
500008a0:	e3a03000 	mov	r3, #0
500008a4:	e58d301c 	str	r3, [sp, #28]
500008a8:	eaffffaa 	b	50000758 <copy_nand_to_sdram+0x64>
500008ac:	e1a00000 	nop			; (mov r0, r0)
500008b0:	e59f3018 	ldr	r3, [pc, #24]	; 500008d0 <copy_nand_to_sdram+0x1dc>
500008b4:	e59f2014 	ldr	r2, [pc, #20]	; 500008d0 <copy_nand_to_sdram+0x1dc>
500008b8:	e5922000 	ldr	r2, [r2]
500008bc:	e3822002 	orr	r2, r2, #2
500008c0:	e5832000 	str	r2, [r3]
500008c4:	e1a00000 	nop			; (mov r0, r0)
500008c8:	e28dd028 	add	sp, sp, #40	; 0x28
500008cc:	e12fff1e 	bx	lr
500008d0:	70200004 	eorvc	r0, r0, r4
500008d4:	70200008 	eorvc	r0, r0, r8
500008d8:	7020000c 	eorvc	r0, r0, ip
500008dc:	70200028 	eorvc	r0, r0, r8, lsr #32
500008e0:	70200010 	eorvc	r0, r0, r0, lsl r0

500008e4 <nand_read_ID>:
500008e4:	e52de004 	push	{lr}		; (str lr, [sp, #-4]!)
500008e8:	e24dd014 	sub	sp, sp, #20
500008ec:	e59f30b8 	ldr	r3, [pc, #184]	; 500009ac <nand_read_ID+0xc8>
500008f0:	e59f20b4 	ldr	r2, [pc, #180]	; 500009ac <nand_read_ID+0xc8>
500008f4:	e5922000 	ldr	r2, [r2]
500008f8:	e3c22002 	bic	r2, r2, #2
500008fc:	e5832000 	str	r2, [r3]
50000900:	e59f30a8 	ldr	r3, [pc, #168]	; 500009b0 <nand_read_ID+0xcc>
50000904:	e3a02090 	mov	r2, #144	; 0x90
50000908:	e5832000 	str	r2, [r3]
5000090c:	e59f30a0 	ldr	r3, [pc, #160]	; 500009b4 <nand_read_ID+0xd0>
50000910:	e3a02000 	mov	r2, #0
50000914:	e5832000 	str	r2, [r3]
50000918:	ea000000 	b	50000920 <nand_read_ID+0x3c>
5000091c:	e1a00000 	nop			; (mov r0, r0)
50000920:	e59f3090 	ldr	r3, [pc, #144]	; 500009b8 <nand_read_ID+0xd4>
50000924:	e5933000 	ldr	r3, [r3]
50000928:	e2033001 	and	r3, r3, #1
5000092c:	e3530000 	cmp	r3, #0
50000930:	0afffff9 	beq	5000091c <nand_read_ID+0x38>
50000934:	e1a00000 	nop			; (mov r0, r0)
50000938:	e59f307c 	ldr	r3, [pc, #124]	; 500009bc <nand_read_ID+0xd8>
5000093c:	e5933000 	ldr	r3, [r3]
50000940:	e58d3004 	str	r3, [sp, #4]
50000944:	e59f3070 	ldr	r3, [pc, #112]	; 500009bc <nand_read_ID+0xd8>
50000948:	e5933000 	ldr	r3, [r3]
5000094c:	e58d3008 	str	r3, [sp, #8]
50000950:	e59f3064 	ldr	r3, [pc, #100]	; 500009bc <nand_read_ID+0xd8>
50000954:	e5933000 	ldr	r3, [r3]
50000958:	e58d300c 	str	r3, [sp, #12]
5000095c:	e59f3048 	ldr	r3, [pc, #72]	; 500009ac <nand_read_ID+0xc8>
50000960:	e59f2044 	ldr	r2, [pc, #68]	; 500009ac <nand_read_ID+0xc8>
50000964:	e5922000 	ldr	r2, [r2]
50000968:	e3822002 	orr	r2, r2, #2
5000096c:	e5832000 	str	r2, [r3]
50000970:	e59f0048 	ldr	r0, [pc, #72]	; 500009c0 <nand_read_ID+0xdc>
50000974:	eb000250 	bl	500012bc <uart_printf>
50000978:	e59d300c 	ldr	r3, [sp, #12]
5000097c:	e1a00003 	mov	r0, r3
50000980:	eb0002a0 	bl	50001408 <uart_print_hex>
50000984:	e59d3008 	ldr	r3, [sp, #8]
50000988:	e1a00003 	mov	r0, r3
5000098c:	eb00029d 	bl	50001408 <uart_print_hex>
50000990:	e59d3004 	ldr	r3, [sp, #4]
50000994:	e1a00003 	mov	r0, r3
50000998:	eb00029a 	bl	50001408 <uart_print_hex>
5000099c:	e59f0020 	ldr	r0, [pc, #32]	; 500009c4 <nand_read_ID+0xe0>
500009a0:	eb00022b 	bl	50001254 <uart_puts>
500009a4:	e28dd014 	add	sp, sp, #20
500009a8:	e8bd8000 	ldmfd	sp!, {pc}
500009ac:	70200004 	eorvc	r0, r0, r4
500009b0:	70200008 	eorvc	r0, r0, r8
500009b4:	7020000c 	eorvc	r0, r0, ip
500009b8:	70200028 	eorvc	r0, r0, r8, lsr #32
500009bc:	70200010 	eorvc	r0, r0, r0, lsl r0
500009c0:	500010b0 	strhpl	r1, [r0], -r0
500009c4:	500010bc 	strhpl	r1, [r0], -ip

500009c8 <nand_read>:
500009c8:	e52de004 	push	{lr}		; (str lr, [sp, #-4]!)
500009cc:	e24dd02c 	sub	sp, sp, #44	; 0x2c
500009d0:	e58d0004 	str	r0, [sp, #4]
500009d4:	e58d1000 	str	r1, [sp]
500009d8:	e59d2000 	ldr	r2, [sp]
500009dc:	e59d3004 	ldr	r3, [sp, #4]
500009e0:	e0633002 	rsb	r3, r3, r2
500009e4:	e58d3018 	str	r3, [sp, #24]
500009e8:	e3a03000 	mov	r3, #0
500009ec:	e58d3024 	str	r3, [sp, #36]	; 0x24
500009f0:	e3a03000 	mov	r3, #0
500009f4:	e58d3014 	str	r3, [sp, #20]
500009f8:	e3a03000 	mov	r3, #0
500009fc:	e58d3010 	str	r3, [sp, #16]
50000a00:	e3a03000 	mov	r3, #0
50000a04:	e58d300c 	str	r3, [sp, #12]
50000a08:	e59f31ec 	ldr	r3, [pc, #492]	; 50000bfc <nand_read+0x234>
50000a0c:	e59f21e8 	ldr	r2, [pc, #488]	; 50000bfc <nand_read+0x234>
50000a10:	e5922000 	ldr	r2, [r2]
50000a14:	e3c22002 	bic	r2, r2, #2
50000a18:	e5832000 	str	r2, [r3]
50000a1c:	ea000000 	b	50000a24 <nand_read+0x5c>
50000a20:	e1a00000 	nop			; (mov r0, r0)
50000a24:	e59d3004 	ldr	r3, [sp, #4]
50000a28:	e1a03623 	lsr	r3, r3, #12
50000a2c:	e58d3014 	str	r3, [sp, #20]
50000a30:	e59d3014 	ldr	r3, [sp, #20]
50000a34:	e1a03603 	lsl	r3, r3, #12
50000a38:	e59d2004 	ldr	r2, [sp, #4]
50000a3c:	e0633002 	rsb	r3, r3, r2
50000a40:	e58d3010 	str	r3, [sp, #16]
50000a44:	e59f01b4 	ldr	r0, [pc, #436]	; 50000c00 <nand_read+0x238>
50000a48:	eb000201 	bl	50001254 <uart_puts>
50000a4c:	e59f01b0 	ldr	r0, [pc, #432]	; 50000c04 <nand_read+0x23c>
50000a50:	eb000219 	bl	500012bc <uart_printf>
50000a54:	e59d0004 	ldr	r0, [sp, #4]
50000a58:	eb00026a 	bl	50001408 <uart_print_hex>
50000a5c:	e59f01a4 	ldr	r0, [pc, #420]	; 50000c08 <nand_read+0x240>
50000a60:	eb000215 	bl	500012bc <uart_printf>
50000a64:	e59d0014 	ldr	r0, [sp, #20]
50000a68:	eb000266 	bl	50001408 <uart_print_hex>
50000a6c:	e59f0198 	ldr	r0, [pc, #408]	; 50000c0c <nand_read+0x244>
50000a70:	eb000211 	bl	500012bc <uart_printf>
50000a74:	e59d0010 	ldr	r0, [sp, #16]
50000a78:	eb000262 	bl	50001408 <uart_print_hex>
50000a7c:	e59f017c 	ldr	r0, [pc, #380]	; 50000c00 <nand_read+0x238>
50000a80:	eb0001f3 	bl	50001254 <uart_puts>
50000a84:	e59f3184 	ldr	r3, [pc, #388]	; 50000c10 <nand_read+0x248>
50000a88:	e3a02000 	mov	r2, #0
50000a8c:	e5832000 	str	r2, [r3]
50000a90:	e59f317c 	ldr	r3, [pc, #380]	; 50000c14 <nand_read+0x24c>
50000a94:	e59d2010 	ldr	r2, [sp, #16]
50000a98:	e20220ff 	and	r2, r2, #255	; 0xff
50000a9c:	e5832000 	str	r2, [r3]
50000aa0:	e59f316c 	ldr	r3, [pc, #364]	; 50000c14 <nand_read+0x24c>
50000aa4:	e59d2010 	ldr	r2, [sp, #16]
50000aa8:	e1a02422 	lsr	r2, r2, #8
50000aac:	e202201f 	and	r2, r2, #31
50000ab0:	e5832000 	str	r2, [r3]
50000ab4:	e59f3158 	ldr	r3, [pc, #344]	; 50000c14 <nand_read+0x24c>
50000ab8:	e59d2014 	ldr	r2, [sp, #20]
50000abc:	e20220ff 	and	r2, r2, #255	; 0xff
50000ac0:	e5832000 	str	r2, [r3]
50000ac4:	e59f3148 	ldr	r3, [pc, #328]	; 50000c14 <nand_read+0x24c>
50000ac8:	e59d2014 	ldr	r2, [sp, #20]
50000acc:	e1a02422 	lsr	r2, r2, #8
50000ad0:	e20220ff 	and	r2, r2, #255	; 0xff
50000ad4:	e5832000 	str	r2, [r3]
50000ad8:	e59f3134 	ldr	r3, [pc, #308]	; 50000c14 <nand_read+0x24c>
50000adc:	e59d2014 	ldr	r2, [sp, #20]
50000ae0:	e1a02822 	lsr	r2, r2, #16
50000ae4:	e20220ff 	and	r2, r2, #255	; 0xff
50000ae8:	e5832000 	str	r2, [r3]
50000aec:	e59f311c 	ldr	r3, [pc, #284]	; 50000c10 <nand_read+0x248>
50000af0:	e3a02030 	mov	r2, #48	; 0x30
50000af4:	e5832000 	str	r2, [r3]
50000af8:	ea000000 	b	50000b00 <nand_read+0x138>
50000afc:	e1a00000 	nop			; (mov r0, r0)
50000b00:	e59f3110 	ldr	r3, [pc, #272]	; 50000c18 <nand_read+0x250>
50000b04:	e5933000 	ldr	r3, [r3]
50000b08:	e2033001 	and	r3, r3, #1
50000b0c:	e3530000 	cmp	r3, #0
50000b10:	0afffff9 	beq	50000afc <nand_read+0x134>
50000b14:	e1a00000 	nop			; (mov r0, r0)
50000b18:	e59d3010 	ldr	r3, [sp, #16]
50000b1c:	e58d3020 	str	r3, [sp, #32]
50000b20:	e3a03000 	mov	r3, #0
50000b24:	e58d301c 	str	r3, [sp, #28]
50000b28:	ea00001c 	b	50000ba0 <nand_read+0x1d8>
50000b2c:	e59f30e8 	ldr	r3, [pc, #232]	; 50000c1c <nand_read+0x254>
50000b30:	e5933000 	ldr	r3, [r3]
50000b34:	e58d300c 	str	r3, [sp, #12]
50000b38:	e59d301c 	ldr	r3, [sp, #28]
50000b3c:	e2033003 	and	r3, r3, #3
50000b40:	e3530000 	cmp	r3, #0
50000b44:	1a000005 	bne	50000b60 <nand_read+0x198>
50000b48:	e59f00b0 	ldr	r0, [pc, #176]	; 50000c00 <nand_read+0x238>
50000b4c:	eb0001c0 	bl	50001254 <uart_puts>
50000b50:	e59d0004 	ldr	r0, [sp, #4]
50000b54:	eb00022b 	bl	50001408 <uart_print_hex>
50000b58:	e59f00c0 	ldr	r0, [pc, #192]	; 50000c20 <nand_read+0x258>
50000b5c:	eb0001d6 	bl	500012bc <uart_printf>
50000b60:	e59d000c 	ldr	r0, [sp, #12]
50000b64:	eb000241 	bl	50001470 <uart_print_addr>
50000b68:	e59f00b4 	ldr	r0, [pc, #180]	; 50000c24 <nand_read+0x25c>
50000b6c:	eb0001d2 	bl	500012bc <uart_printf>
50000b70:	e59d3004 	ldr	r3, [sp, #4]
50000b74:	e2833004 	add	r3, r3, #4
50000b78:	e58d3004 	str	r3, [sp, #4]
50000b7c:	e59d3024 	ldr	r3, [sp, #36]	; 0x24
50000b80:	e2833004 	add	r3, r3, #4
50000b84:	e58d3024 	str	r3, [sp, #36]	; 0x24
50000b88:	e59d3020 	ldr	r3, [sp, #32]
50000b8c:	e2833004 	add	r3, r3, #4
50000b90:	e58d3020 	str	r3, [sp, #32]
50000b94:	e59d301c 	ldr	r3, [sp, #28]
50000b98:	e2833001 	add	r3, r3, #1
50000b9c:	e58d301c 	str	r3, [sp, #28]
50000ba0:	e59d2020 	ldr	r2, [sp, #32]
50000ba4:	e59f307c 	ldr	r3, [pc, #124]	; 50000c28 <nand_read+0x260>
50000ba8:	e1520003 	cmp	r2, r3
50000bac:	ca000003 	bgt	50000bc0 <nand_read+0x1f8>
50000bb0:	e59d2024 	ldr	r2, [sp, #36]	; 0x24
50000bb4:	e59d3018 	ldr	r3, [sp, #24]
50000bb8:	e1520003 	cmp	r2, r3
50000bbc:	3affffda 	bcc	50000b2c <nand_read+0x164>
50000bc0:	e59f0038 	ldr	r0, [pc, #56]	; 50000c00 <nand_read+0x238>
50000bc4:	eb0001a2 	bl	50001254 <uart_puts>
50000bc8:	e59d2024 	ldr	r2, [sp, #36]	; 0x24
50000bcc:	e59d3018 	ldr	r3, [sp, #24]
50000bd0:	e1520003 	cmp	r2, r3
50000bd4:	3affff91 	bcc	50000a20 <nand_read+0x58>
50000bd8:	e1a00000 	nop			; (mov r0, r0)
50000bdc:	e59f3018 	ldr	r3, [pc, #24]	; 50000bfc <nand_read+0x234>
50000be0:	e59f2014 	ldr	r2, [pc, #20]	; 50000bfc <nand_read+0x234>
50000be4:	e5922000 	ldr	r2, [r2]
50000be8:	e3822002 	orr	r2, r2, #2
50000bec:	e5832000 	str	r2, [r3]
50000bf0:	e1a00000 	nop			; (mov r0, r0)
50000bf4:	e28dd02c 	add	sp, sp, #44	; 0x2c
50000bf8:	e8bd8000 	ldmfd	sp!, {pc}
50000bfc:	70200004 	eorvc	r0, r0, r4
50000c00:	500010bc 	strhpl	r1, [r0], -ip
50000c04:	500010c0 	andpl	r1, r0, r0, asr #1
50000c08:	500010d0 	ldrdpl	r1, [r0], -r0
50000c0c:	500010dc 	ldrdpl	r1, [r0], -ip
50000c10:	70200008 	eorvc	r0, r0, r8
50000c14:	7020000c 	eorvc	r0, r0, ip
50000c18:	70200028 	eorvc	r0, r0, r8, lsr #32
50000c1c:	70200010 	eorvc	r0, r0, r0, lsl r0
50000c20:	500010e8 	andpl	r1, r0, r8, ror #1
50000c24:	500010ec 	andpl	r1, r0, ip, ror #1
50000c28:	00000fff 	strdeq	r0, [r0], -pc	; <UNPREDICTABLE>

50000c2c <nand_erase_block>:
50000c2c:	e24dd010 	sub	sp, sp, #16
50000c30:	e58d0004 	str	r0, [sp, #4]
50000c34:	e59f30a8 	ldr	r3, [pc, #168]	; 50000ce4 <nand_erase_block+0xb8>
50000c38:	e59f20a4 	ldr	r2, [pc, #164]	; 50000ce4 <nand_erase_block+0xb8>
50000c3c:	e5922000 	ldr	r2, [r2]
50000c40:	e3c22002 	bic	r2, r2, #2
50000c44:	e5832000 	str	r2, [r3]
50000c48:	e59f3098 	ldr	r3, [pc, #152]	; 50000ce8 <nand_erase_block+0xbc>
50000c4c:	e3a02060 	mov	r2, #96	; 0x60
50000c50:	e5832000 	str	r2, [r3]
50000c54:	e59d3004 	ldr	r3, [sp, #4]
50000c58:	e1a03623 	lsr	r3, r3, #12
50000c5c:	e58d300c 	str	r3, [sp, #12]
50000c60:	e59f3084 	ldr	r3, [pc, #132]	; 50000cec <nand_erase_block+0xc0>
50000c64:	e59d200c 	ldr	r2, [sp, #12]
50000c68:	e20220ff 	and	r2, r2, #255	; 0xff
50000c6c:	e5832000 	str	r2, [r3]
50000c70:	e59f3074 	ldr	r3, [pc, #116]	; 50000cec <nand_erase_block+0xc0>
50000c74:	e59d200c 	ldr	r2, [sp, #12]
50000c78:	e1a02442 	asr	r2, r2, #8
50000c7c:	e20220ff 	and	r2, r2, #255	; 0xff
50000c80:	e5832000 	str	r2, [r3]
50000c84:	e59f3060 	ldr	r3, [pc, #96]	; 50000cec <nand_erase_block+0xc0>
50000c88:	e59d200c 	ldr	r2, [sp, #12]
50000c8c:	e1a02842 	asr	r2, r2, #16
50000c90:	e20220ff 	and	r2, r2, #255	; 0xff
50000c94:	e5832000 	str	r2, [r3]
50000c98:	e59f3048 	ldr	r3, [pc, #72]	; 50000ce8 <nand_erase_block+0xbc>
50000c9c:	e3a020d0 	mov	r2, #208	; 0xd0
50000ca0:	e5832000 	str	r2, [r3]
50000ca4:	ea000000 	b	50000cac <nand_erase_block+0x80>
50000ca8:	e1a00000 	nop			; (mov r0, r0)
50000cac:	e59f303c 	ldr	r3, [pc, #60]	; 50000cf0 <nand_erase_block+0xc4>
50000cb0:	e5933000 	ldr	r3, [r3]
50000cb4:	e2033001 	and	r3, r3, #1
50000cb8:	e3530000 	cmp	r3, #0
50000cbc:	0afffff9 	beq	50000ca8 <nand_erase_block+0x7c>
50000cc0:	e1a00000 	nop			; (mov r0, r0)
50000cc4:	e59f3018 	ldr	r3, [pc, #24]	; 50000ce4 <nand_erase_block+0xb8>
50000cc8:	e59f2014 	ldr	r2, [pc, #20]	; 50000ce4 <nand_erase_block+0xb8>
50000ccc:	e5922000 	ldr	r2, [r2]
50000cd0:	e3822002 	orr	r2, r2, #2
50000cd4:	e5832000 	str	r2, [r3]
50000cd8:	e1a00000 	nop			; (mov r0, r0)
50000cdc:	e28dd010 	add	sp, sp, #16
50000ce0:	e12fff1e 	bx	lr
50000ce4:	70200004 	eorvc	r0, r0, r4
50000ce8:	70200008 	eorvc	r0, r0, r8
50000cec:	7020000c 	eorvc	r0, r0, ip
50000cf0:	70200028 	eorvc	r0, r0, r8, lsr #32

50000cf4 <write_to_boot>:
50000cf4:	e52de004 	push	{lr}		; (str lr, [sp, #-4]!)
50000cf8:	e24dd01c 	sub	sp, sp, #28
50000cfc:	e58d0004 	str	r0, [sp, #4]
50000d00:	e58d1000 	str	r1, [sp]
50000d04:	e3a03000 	mov	r3, #0
50000d08:	e58d3014 	str	r3, [sp, #20]
50000d0c:	e3a03000 	mov	r3, #0
50000d10:	e58d3010 	str	r3, [sp, #16]
50000d14:	e3a03000 	mov	r3, #0
50000d18:	e58d3008 	str	r3, [sp, #8]
50000d1c:	e59f31a4 	ldr	r3, [pc, #420]	; 50000ec8 <write_to_boot+0x1d4>
50000d20:	e59f21a0 	ldr	r2, [pc, #416]	; 50000ec8 <write_to_boot+0x1d4>
50000d24:	e5922000 	ldr	r2, [r2]
50000d28:	e3c22002 	bic	r2, r2, #2
50000d2c:	e5832000 	str	r2, [r3]
50000d30:	e59d3010 	ldr	r3, [sp, #16]
50000d34:	e3530000 	cmp	r3, #0
50000d38:	0a000005 	beq	50000d54 <write_to_boot+0x60>
50000d3c:	e59d3010 	ldr	r3, [sp, #16]
50000d40:	e3530004 	cmp	r3, #4
50000d44:	8a000002 	bhi	50000d54 <write_to_boot+0x60>
50000d48:	e59d3004 	ldr	r3, [sp, #4]
50000d4c:	e2433b02 	sub	r3, r3, #2048	; 0x800
50000d50:	e58d3004 	str	r3, [sp, #4]
50000d54:	e59f0170 	ldr	r0, [pc, #368]	; 50000ecc <write_to_boot+0x1d8>
50000d58:	eb000157 	bl	500012bc <uart_printf>
50000d5c:	e59d0004 	ldr	r0, [sp, #4]
50000d60:	eb0001a8 	bl	50001408 <uart_print_hex>
50000d64:	e59f0164 	ldr	r0, [pc, #356]	; 50000ed0 <write_to_boot+0x1dc>
50000d68:	eb000153 	bl	500012bc <uart_printf>
50000d6c:	e59d3014 	ldr	r3, [sp, #20]
50000d70:	e1a00003 	mov	r0, r3
50000d74:	eb00034c 	bl	50001aac <uart_print_int>
50000d78:	e59f0154 	ldr	r0, [pc, #340]	; 50000ed4 <write_to_boot+0x1e0>
50000d7c:	eb000134 	bl	50001254 <uart_puts>
50000d80:	e59f3150 	ldr	r3, [pc, #336]	; 50000ed8 <write_to_boot+0x1e4>
50000d84:	e3a02080 	mov	r2, #128	; 0x80
50000d88:	e5832000 	str	r2, [r3]
50000d8c:	e59f3148 	ldr	r3, [pc, #328]	; 50000edc <write_to_boot+0x1e8>
50000d90:	e59d2008 	ldr	r2, [sp, #8]
50000d94:	e20220ff 	and	r2, r2, #255	; 0xff
50000d98:	e5832000 	str	r2, [r3]
50000d9c:	e59f3138 	ldr	r3, [pc, #312]	; 50000edc <write_to_boot+0x1e8>
50000da0:	e59d2008 	ldr	r2, [sp, #8]
50000da4:	e1a02422 	lsr	r2, r2, #8
50000da8:	e202201f 	and	r2, r2, #31
50000dac:	e5832000 	str	r2, [r3]
50000db0:	e59f3124 	ldr	r3, [pc, #292]	; 50000edc <write_to_boot+0x1e8>
50000db4:	e59d2010 	ldr	r2, [sp, #16]
50000db8:	e20220ff 	and	r2, r2, #255	; 0xff
50000dbc:	e5832000 	str	r2, [r3]
50000dc0:	e59f3114 	ldr	r3, [pc, #276]	; 50000edc <write_to_boot+0x1e8>
50000dc4:	e59d2010 	ldr	r2, [sp, #16]
50000dc8:	e1a02422 	lsr	r2, r2, #8
50000dcc:	e20220ff 	and	r2, r2, #255	; 0xff
50000dd0:	e5832000 	str	r2, [r3]
50000dd4:	e59f3100 	ldr	r3, [pc, #256]	; 50000edc <write_to_boot+0x1e8>
50000dd8:	e59d2010 	ldr	r2, [sp, #16]
50000ddc:	e1a02822 	lsr	r2, r2, #16
50000de0:	e20220ff 	and	r2, r2, #255	; 0xff
50000de4:	e5832000 	str	r2, [r3]
50000de8:	e59d3008 	ldr	r3, [sp, #8]
50000dec:	e58d300c 	str	r3, [sp, #12]
50000df0:	ea000010 	b	50000e38 <write_to_boot+0x144>
50000df4:	e59f30e4 	ldr	r3, [pc, #228]	; 50000ee0 <write_to_boot+0x1ec>
50000df8:	e59d2004 	ldr	r2, [sp, #4]
50000dfc:	e5922000 	ldr	r2, [r2]
50000e00:	e5832000 	str	r2, [r3]
50000e04:	e59d3004 	ldr	r3, [sp, #4]
50000e08:	e2833004 	add	r3, r3, #4
50000e0c:	e58d3004 	str	r3, [sp, #4]
50000e10:	e59d200c 	ldr	r2, [sp, #12]
50000e14:	e59f30c8 	ldr	r3, [pc, #200]	; 50000ee4 <write_to_boot+0x1f0>
50000e18:	e1520003 	cmp	r2, r3
50000e1c:	ca000002 	bgt	50000e2c <write_to_boot+0x138>
50000e20:	e59d3014 	ldr	r3, [sp, #20]
50000e24:	e2833004 	add	r3, r3, #4
50000e28:	e58d3014 	str	r3, [sp, #20]
50000e2c:	e59d300c 	ldr	r3, [sp, #12]
50000e30:	e2833004 	add	r3, r3, #4
50000e34:	e58d300c 	str	r3, [sp, #12]
50000e38:	e59d200c 	ldr	r2, [sp, #12]
50000e3c:	e59f30a4 	ldr	r3, [pc, #164]	; 50000ee8 <write_to_boot+0x1f4>
50000e40:	e1520003 	cmp	r2, r3
50000e44:	ca000003 	bgt	50000e58 <write_to_boot+0x164>
50000e48:	e59d2014 	ldr	r2, [sp, #20]
50000e4c:	e59d3000 	ldr	r3, [sp]
50000e50:	e1520003 	cmp	r2, r3
50000e54:	3affffe6 	bcc	50000df4 <write_to_boot+0x100>
50000e58:	e59f3078 	ldr	r3, [pc, #120]	; 50000ed8 <write_to_boot+0x1e4>
50000e5c:	e3a02010 	mov	r2, #16
50000e60:	e5832000 	str	r2, [r3]
50000e64:	ea000000 	b	50000e6c <write_to_boot+0x178>
50000e68:	e1a00000 	nop			; (mov r0, r0)
50000e6c:	e59f3078 	ldr	r3, [pc, #120]	; 50000eec <write_to_boot+0x1f8>
50000e70:	e5933000 	ldr	r3, [r3]
50000e74:	e2033001 	and	r3, r3, #1
50000e78:	e3530000 	cmp	r3, #0
50000e7c:	0afffff9 	beq	50000e68 <write_to_boot+0x174>
50000e80:	e1a00000 	nop			; (mov r0, r0)
50000e84:	e59d2014 	ldr	r2, [sp, #20]
50000e88:	e59d3000 	ldr	r3, [sp]
50000e8c:	e1520003 	cmp	r2, r3
50000e90:	2a000003 	bcs	50000ea4 <write_to_boot+0x1b0>
50000e94:	e59d3010 	ldr	r3, [sp, #16]
50000e98:	e2833001 	add	r3, r3, #1
50000e9c:	e58d3010 	str	r3, [sp, #16]
50000ea0:	eaffffa2 	b	50000d30 <write_to_boot+0x3c>
50000ea4:	e1a00000 	nop			; (mov r0, r0)
50000ea8:	e59f3018 	ldr	r3, [pc, #24]	; 50000ec8 <write_to_boot+0x1d4>
50000eac:	e59f2014 	ldr	r2, [pc, #20]	; 50000ec8 <write_to_boot+0x1d4>
50000eb0:	e5922000 	ldr	r2, [r2]
50000eb4:	e3822002 	orr	r2, r2, #2
50000eb8:	e5832000 	str	r2, [r3]
50000ebc:	e1a00000 	nop			; (mov r0, r0)
50000ec0:	e28dd01c 	add	sp, sp, #28
50000ec4:	e8bd8000 	ldmfd	sp!, {pc}
50000ec8:	70200004 	eorvc	r0, r0, r4
50000ecc:	500010f0 	strdpl	r1, [r0], -r0
50000ed0:	50001100 	andpl	r1, r0, r0, lsl #2
50000ed4:	500010bc 	strhpl	r1, [r0], -ip
50000ed8:	70200008 	eorvc	r0, r0, r8
50000edc:	7020000c 	eorvc	r0, r0, ip
50000ee0:	70200010 	eorvc	r0, r0, r0, lsl r0
50000ee4:	000007ff 	strdeq	r0, [r0], -pc	; <UNPREDICTABLE>
50000ee8:	00000fff 	strdeq	r0, [r0], -pc	; <UNPREDICTABLE>
50000eec:	70200028 	eorvc	r0, r0, r8, lsr #32

50000ef0 <write_to_nand>:
50000ef0:	e52de004 	push	{lr}		; (str lr, [sp, #-4]!)
50000ef4:	e24dd024 	sub	sp, sp, #36	; 0x24
50000ef8:	e58d000c 	str	r0, [sp, #12]
50000efc:	e58d1008 	str	r1, [sp, #8]
50000f00:	e58d2004 	str	r2, [sp, #4]
50000f04:	e3a03000 	mov	r3, #0
50000f08:	e58d301c 	str	r3, [sp, #28]
50000f0c:	e59d3008 	ldr	r3, [sp, #8]
50000f10:	e1a03623 	lsr	r3, r3, #12
50000f14:	e58d3018 	str	r3, [sp, #24]
50000f18:	e59d3018 	ldr	r3, [sp, #24]
50000f1c:	e1a03603 	lsl	r3, r3, #12
50000f20:	e59d2008 	ldr	r2, [sp, #8]
50000f24:	e0633002 	rsb	r3, r3, r2
50000f28:	e58d3010 	str	r3, [sp, #16]
50000f2c:	e59f315c 	ldr	r3, [pc, #348]	; 50001090 <write_to_nand+0x1a0>
50000f30:	e59f2158 	ldr	r2, [pc, #344]	; 50001090 <write_to_nand+0x1a0>
50000f34:	e5922000 	ldr	r2, [r2]
50000f38:	e3c22002 	bic	r2, r2, #2
50000f3c:	e5832000 	str	r2, [r3]
50000f40:	e59f014c 	ldr	r0, [pc, #332]	; 50001094 <write_to_nand+0x1a4>
50000f44:	eb0000dc 	bl	500012bc <uart_printf>
50000f48:	e59d0018 	ldr	r0, [sp, #24]
50000f4c:	eb00012d 	bl	50001408 <uart_print_hex>
50000f50:	e59f0140 	ldr	r0, [pc, #320]	; 50001098 <write_to_nand+0x1a8>
50000f54:	eb0000be 	bl	50001254 <uart_puts>
50000f58:	e59f313c 	ldr	r3, [pc, #316]	; 5000109c <write_to_nand+0x1ac>
50000f5c:	e3a02080 	mov	r2, #128	; 0x80
50000f60:	e5832000 	str	r2, [r3]
50000f64:	e59f3134 	ldr	r3, [pc, #308]	; 500010a0 <write_to_nand+0x1b0>
50000f68:	e59d2010 	ldr	r2, [sp, #16]
50000f6c:	e20220ff 	and	r2, r2, #255	; 0xff
50000f70:	e5832000 	str	r2, [r3]
50000f74:	e59f3124 	ldr	r3, [pc, #292]	; 500010a0 <write_to_nand+0x1b0>
50000f78:	e59d2010 	ldr	r2, [sp, #16]
50000f7c:	e1a02422 	lsr	r2, r2, #8
50000f80:	e202201f 	and	r2, r2, #31
50000f84:	e5832000 	str	r2, [r3]
50000f88:	e59f3110 	ldr	r3, [pc, #272]	; 500010a0 <write_to_nand+0x1b0>
50000f8c:	e59d2018 	ldr	r2, [sp, #24]
50000f90:	e20220ff 	and	r2, r2, #255	; 0xff
50000f94:	e5832000 	str	r2, [r3]
50000f98:	e59f3100 	ldr	r3, [pc, #256]	; 500010a0 <write_to_nand+0x1b0>
50000f9c:	e59d2018 	ldr	r2, [sp, #24]
50000fa0:	e1a02422 	lsr	r2, r2, #8
50000fa4:	e20220ff 	and	r2, r2, #255	; 0xff
50000fa8:	e5832000 	str	r2, [r3]
50000fac:	e59f30ec 	ldr	r3, [pc, #236]	; 500010a0 <write_to_nand+0x1b0>
50000fb0:	e59d2018 	ldr	r2, [sp, #24]
50000fb4:	e1a02822 	lsr	r2, r2, #16
50000fb8:	e20220ff 	and	r2, r2, #255	; 0xff
50000fbc:	e5832000 	str	r2, [r3]
50000fc0:	e59d3010 	ldr	r3, [sp, #16]
50000fc4:	e58d3014 	str	r3, [sp, #20]
50000fc8:	ea00000c 	b	50001000 <write_to_nand+0x110>
50000fcc:	e59f30d0 	ldr	r3, [pc, #208]	; 500010a4 <write_to_nand+0x1b4>
50000fd0:	e59d200c 	ldr	r2, [sp, #12]
50000fd4:	e5922000 	ldr	r2, [r2]
50000fd8:	e5832000 	str	r2, [r3]
50000fdc:	e59d300c 	ldr	r3, [sp, #12]
50000fe0:	e2833004 	add	r3, r3, #4
50000fe4:	e58d300c 	str	r3, [sp, #12]
50000fe8:	e59d301c 	ldr	r3, [sp, #28]
50000fec:	e2833004 	add	r3, r3, #4
50000ff0:	e58d301c 	str	r3, [sp, #28]
50000ff4:	e59d3014 	ldr	r3, [sp, #20]
50000ff8:	e2833004 	add	r3, r3, #4
50000ffc:	e58d3014 	str	r3, [sp, #20]
50001000:	e59d2014 	ldr	r2, [sp, #20]
50001004:	e59f309c 	ldr	r3, [pc, #156]	; 500010a8 <write_to_nand+0x1b8>
50001008:	e1520003 	cmp	r2, r3
5000100c:	ca000003 	bgt	50001020 <write_to_nand+0x130>
50001010:	e59d201c 	ldr	r2, [sp, #28]
50001014:	e59d3004 	ldr	r3, [sp, #4]
50001018:	e1520003 	cmp	r2, r3
5000101c:	3affffea 	bcc	50000fcc <write_to_nand+0xdc>
50001020:	e59f3074 	ldr	r3, [pc, #116]	; 5000109c <write_to_nand+0x1ac>
50001024:	e3a02010 	mov	r2, #16
50001028:	e5832000 	str	r2, [r3]
5000102c:	ea000000 	b	50001034 <write_to_nand+0x144>
50001030:	e1a00000 	nop			; (mov r0, r0)
50001034:	e59f3070 	ldr	r3, [pc, #112]	; 500010ac <write_to_nand+0x1bc>
50001038:	e5933000 	ldr	r3, [r3]
5000103c:	e2033001 	and	r3, r3, #1
50001040:	e3530000 	cmp	r3, #0
50001044:	0afffff9 	beq	50001030 <write_to_nand+0x140>
50001048:	e1a00000 	nop			; (mov r0, r0)
5000104c:	e59d201c 	ldr	r2, [sp, #28]
50001050:	e59d3004 	ldr	r3, [sp, #4]
50001054:	e1520003 	cmp	r2, r3
50001058:	2a000003 	bcs	5000106c <write_to_nand+0x17c>
5000105c:	e59d3018 	ldr	r3, [sp, #24]
50001060:	e2833001 	add	r3, r3, #1
50001064:	e58d3018 	str	r3, [sp, #24]
50001068:	eaffffb4 	b	50000f40 <write_to_nand+0x50>
5000106c:	e1a00000 	nop			; (mov r0, r0)
50001070:	e59f3018 	ldr	r3, [pc, #24]	; 50001090 <write_to_nand+0x1a0>
50001074:	e59f2014 	ldr	r2, [pc, #20]	; 50001090 <write_to_nand+0x1a0>
50001078:	e5922000 	ldr	r2, [r2]
5000107c:	e3822002 	orr	r2, r2, #2
50001080:	e5832000 	str	r2, [r3]
50001084:	e1a00000 	nop			; (mov r0, r0)
50001088:	e28dd024 	add	sp, sp, #36	; 0x24
5000108c:	e8bd8000 	ldmfd	sp!, {pc}
50001090:	70200004 	eorvc	r0, r0, r4
50001094:	5000110c 	andpl	r1, r0, ip, lsl #2
50001098:	500010bc 	strhpl	r1, [r0], -ip
5000109c:	70200008 	eorvc	r0, r0, r8
500010a0:	7020000c 	eorvc	r0, r0, ip
500010a4:	70200010 	eorvc	r0, r0, r0, lsl r0
500010a8:	00000fff 	strdeq	r0, [r0], -pc	; <UNPREDICTABLE>
500010ac:	70200028 	eorvc	r0, r0, r8, lsr #32
500010b0:	20656854 	rsbcs	r6, r5, r4, asr r8
500010b4:	69204449 	stmdbvs	r0!, {r0, r3, r6, sl, lr}
500010b8:	00203a73 	eoreq	r3, r0, r3, ror sl
500010bc:	00000000 	andeq	r0, r0, r0
500010c0:	72617473 	rsbvc	r7, r1, #1929379840	; 0x73000000
500010c4:	64615f74 	strbtvs	r5, [r1], #-3956	; 0xfffff08c
500010c8:	3d207264 	sfmcc	f7, 4, [r0, #-400]!	; 0xfffffe70
500010cc:	00000020 	andeq	r0, r0, r0, lsr #32
500010d0:	61702020 	cmnvs	r0, r0, lsr #32
500010d4:	3d206567 	cfstr32cc	mvfx6, [r0, #-412]!	; 0xfffffe64
500010d8:	00000020 	andeq	r0, r0, r0, lsr #32
500010dc:	6f632020 	svcvs	0x00632020
500010e0:	6e6d756c 	cdpvs	5, 6, cr7, cr13, cr12, {3}
500010e4:	00203d20 	eoreq	r3, r0, r0, lsr #26
500010e8:	00203a20 	eoreq	r3, r0, r0, lsr #20
500010ec:	00002020 	andeq	r2, r0, r0, lsr #32
500010f0:	7365640a 	cmnvc	r5, #167772160	; 0xa000000
500010f4:	64615f74 	strbtvs	r5, [r1], #-3956	; 0xfffff08c
500010f8:	3d207264 	sfmcc	f7, 4, [r0, #-400]!	; 0xfffffe70
500010fc:	00783020 	rsbseq	r3, r8, r0, lsr #32
50001100:	6f632020 	svcvs	0x00632020
50001104:	20746e75 	rsbscs	r6, r4, r5, ror lr
50001108:	0000203d 	andeq	r2, r0, sp, lsr r0
5000110c:	6761700a 	strbvs	r7, [r1, -sl]!
50001110:	203d2065 	eorscs	r2, sp, r5, rrx
50001114:	00000000 	andeq	r0, r0, r0
50001118:	00002a41 	andeq	r2, r0, r1, asr #20
5000111c:	61656100 	cmnvs	r5, r0, lsl #2
50001120:	01006962 	tsteq	r0, r2, ror #18
50001124:	00000020 	andeq	r0, r0, r0, lsr #32
50001128:	45543505 	ldrbmi	r3, [r4, #-1285]	; 0xfffffafb
5000112c:	08040600 	stmdaeq	r4, {r9, sl}
50001130:	12010901 	andne	r0, r1, #16384	; 0x4000
50001134:	15011404 	strne	r1, [r1, #-1028]	; 0xfffffbfc
50001138:	18031701 	stmdane	r3, {r0, r8, r9, sl, ip}
5000113c:	1a011901 	bne	50047548 <bss_end+0x3f8c8>
50001140:	00061e02 	andeq	r1, r6, r2, lsl #28

50001144 <init_uart>:
50001144:	e92d4008 	push	{r3, lr}
50001148:	e59f307c 	ldr	r3, [pc, #124]	; 500011cc <init_uart+0x88>
5000114c:	e59f2078 	ldr	r2, [pc, #120]	; 500011cc <init_uart+0x88>
50001150:	e5922000 	ldr	r2, [r2]
50001154:	e3c220ff 	bic	r2, r2, #255	; 0xff
50001158:	e3822022 	orr	r2, r2, #34	; 0x22
5000115c:	e5832000 	str	r2, [r3]
50001160:	e59f3068 	ldr	r3, [pc, #104]	; 500011d0 <init_uart+0x8c>
50001164:	e3a02022 	mov	r2, #34	; 0x22
50001168:	e5832000 	str	r2, [r3]
5000116c:	e59f3060 	ldr	r3, [pc, #96]	; 500011d4 <init_uart+0x90>
50001170:	e59f2060 	ldr	r2, [pc, #96]	; 500011d8 <init_uart+0x94>
50001174:	e5832000 	str	r2, [r3]
50001178:	e59f305c 	ldr	r3, [pc, #92]	; 500011dc <init_uart+0x98>
5000117c:	e3a02003 	mov	r2, #3
50001180:	e5832000 	str	r2, [r3]
50001184:	e59f2054 	ldr	r2, [pc, #84]	; 500011e0 <init_uart+0x9c>
50001188:	e59f3050 	ldr	r3, [pc, #80]	; 500011e0 <init_uart+0x9c>
5000118c:	e5933000 	ldr	r3, [r3]
50001190:	e3c33eff 	bic	r3, r3, #4080	; 0xff0
50001194:	e3c3300f 	bic	r3, r3, #15
50001198:	e3833c0b 	orr	r3, r3, #2816	; 0xb00
5000119c:	e3833005 	orr	r3, r3, #5
500011a0:	e5823000 	str	r3, [r2]
500011a4:	e59f3038 	ldr	r3, [pc, #56]	; 500011e4 <init_uart+0xa0>
500011a8:	e3a02000 	mov	r2, #0
500011ac:	e5832000 	str	r2, [r3]
500011b0:	e59f3030 	ldr	r3, [pc, #48]	; 500011e8 <init_uart+0xa4>
500011b4:	e3a02000 	mov	r2, #0
500011b8:	e5832000 	str	r2, [r3]
500011bc:	e59f0028 	ldr	r0, [pc, #40]	; 500011ec <init_uart+0xa8>
500011c0:	eb000023 	bl	50001254 <uart_puts>
500011c4:	e1a00000 	nop			; (mov r0, r0)
500011c8:	e8bd8008 	pop	{r3, pc}
500011cc:	7f008000 	svcvc	0x00008000
500011d0:	7f005028 	svcvc	0x00005028
500011d4:	7f00502c 	svcvc	0x0000502c
500011d8:	0000dfdd 	ldrdeq	sp, [r0], -sp	; <UNPREDICTABLE>
500011dc:	7f005000 	svcvc	0x00005000
500011e0:	7f005004 	svcvc	0x00005004
500011e4:	7f005008 	svcvc	0x00005008
500011e8:	7f00500c 	svcvc	0x0000500c
500011ec:	50001c08 	andpl	r1, r0, r8, lsl #24

500011f0 <uart_putc>:
500011f0:	e52de004 	push	{lr}		; (str lr, [sp, #-4]!)
500011f4:	e24dd00c 	sub	sp, sp, #12
500011f8:	e1a03000 	mov	r3, r0
500011fc:	e5cd3007 	strb	r3, [sp, #7]
50001200:	ea000000 	b	50001208 <uart_putc+0x18>
50001204:	e1a00000 	nop			; (mov r0, r0)
50001208:	e59f303c 	ldr	r3, [pc, #60]	; 5000124c <uart_putc+0x5c>
5000120c:	e5933000 	ldr	r3, [r3]
50001210:	e2033006 	and	r3, r3, #6
50001214:	e3530006 	cmp	r3, #6
50001218:	1afffff9 	bne	50001204 <uart_putc+0x14>
5000121c:	e1a00000 	nop			; (mov r0, r0)
50001220:	e59f3028 	ldr	r3, [pc, #40]	; 50001250 <uart_putc+0x60>
50001224:	e5dd2007 	ldrb	r2, [sp, #7]
50001228:	e5832000 	str	r2, [r3]
5000122c:	e5dd3007 	ldrb	r3, [sp, #7]
50001230:	e353000a 	cmp	r3, #10
50001234:	1a000001 	bne	50001240 <uart_putc+0x50>
50001238:	e3a0000d 	mov	r0, #13
5000123c:	ebffffeb 	bl	500011f0 <uart_putc>
50001240:	e1a00000 	nop			; (mov r0, r0)
50001244:	e28dd00c 	add	sp, sp, #12
50001248:	e8bd8000 	ldmfd	sp!, {pc}
5000124c:	7f005010 	svcvc	0x00005010
50001250:	7f005020 	svcvc	0x00005020

50001254 <uart_puts>:
50001254:	e52de004 	push	{lr}		; (str lr, [sp, #-4]!)
50001258:	e24dd014 	sub	sp, sp, #20
5000125c:	e58d0004 	str	r0, [sp, #4]
50001260:	e3a03000 	mov	r3, #0
50001264:	e58d300c 	str	r3, [sp, #12]
50001268:	ea000008 	b	50001290 <uart_puts+0x3c>
5000126c:	e59d300c 	ldr	r3, [sp, #12]
50001270:	e59d2004 	ldr	r2, [sp, #4]
50001274:	e0823003 	add	r3, r2, r3
50001278:	e5d33000 	ldrb	r3, [r3]
5000127c:	e1a00003 	mov	r0, r3
50001280:	ebffffda 	bl	500011f0 <uart_putc>
50001284:	e59d300c 	ldr	r3, [sp, #12]
50001288:	e2833001 	add	r3, r3, #1
5000128c:	e58d300c 	str	r3, [sp, #12]
50001290:	e59d300c 	ldr	r3, [sp, #12]
50001294:	e59d2004 	ldr	r2, [sp, #4]
50001298:	e0823003 	add	r3, r2, r3
5000129c:	e5d33000 	ldrb	r3, [r3]
500012a0:	e3530000 	cmp	r3, #0
500012a4:	1afffff0 	bne	5000126c <uart_puts+0x18>
500012a8:	e3a0000a 	mov	r0, #10
500012ac:	ebffffcf 	bl	500011f0 <uart_putc>
500012b0:	e1a00000 	nop			; (mov r0, r0)
500012b4:	e28dd014 	add	sp, sp, #20
500012b8:	e8bd8000 	ldmfd	sp!, {pc}

500012bc <uart_printf>:
500012bc:	e52de004 	push	{lr}		; (str lr, [sp, #-4]!)
500012c0:	e24dd014 	sub	sp, sp, #20
500012c4:	e58d0004 	str	r0, [sp, #4]
500012c8:	e3a03000 	mov	r3, #0
500012cc:	e58d300c 	str	r3, [sp, #12]
500012d0:	ea000008 	b	500012f8 <uart_printf+0x3c>
500012d4:	e59d300c 	ldr	r3, [sp, #12]
500012d8:	e59d2004 	ldr	r2, [sp, #4]
500012dc:	e0823003 	add	r3, r2, r3
500012e0:	e5d33000 	ldrb	r3, [r3]
500012e4:	e1a00003 	mov	r0, r3
500012e8:	ebffffc0 	bl	500011f0 <uart_putc>
500012ec:	e59d300c 	ldr	r3, [sp, #12]
500012f0:	e2833001 	add	r3, r3, #1
500012f4:	e58d300c 	str	r3, [sp, #12]
500012f8:	e59d300c 	ldr	r3, [sp, #12]
500012fc:	e59d2004 	ldr	r2, [sp, #4]
50001300:	e0823003 	add	r3, r2, r3
50001304:	e5d33000 	ldrb	r3, [r3]
50001308:	e3530000 	cmp	r3, #0
5000130c:	1afffff0 	bne	500012d4 <uart_printf+0x18>
50001310:	e1a00000 	nop			; (mov r0, r0)
50001314:	e28dd014 	add	sp, sp, #20
50001318:	e8bd8000 	ldmfd	sp!, {pc}

5000131c <int_to_hex>:
5000131c:	e24dd010 	sub	sp, sp, #16
50001320:	e58d0004 	str	r0, [sp, #4]
50001324:	e58d1000 	str	r1, [sp]
50001328:	e3a03000 	mov	r3, #0
5000132c:	e58d300c 	str	r3, [sp, #12]
50001330:	e3a03000 	mov	r3, #0
50001334:	e58d3008 	str	r3, [sp, #8]
50001338:	ea000000 	b	50001340 <int_to_hex+0x24>
5000133c:	e1a00000 	nop			; (mov r0, r0)
50001340:	e59d3004 	ldr	r3, [sp, #4]
50001344:	e203300f 	and	r3, r3, #15
50001348:	e58d3008 	str	r3, [sp, #8]
5000134c:	e59d3004 	ldr	r3, [sp, #4]
50001350:	e1a03223 	lsr	r3, r3, #4
50001354:	e58d3004 	str	r3, [sp, #4]
50001358:	e59d3008 	ldr	r3, [sp, #8]
5000135c:	e3530009 	cmp	r3, #9
50001360:	da00000e 	ble	500013a0 <int_to_hex+0x84>
50001364:	e59d3008 	ldr	r3, [sp, #8]
50001368:	e353000f 	cmp	r3, #15
5000136c:	ca00000b 	bgt	500013a0 <int_to_hex+0x84>
50001370:	e59d300c 	ldr	r3, [sp, #12]
50001374:	e59d2000 	ldr	r2, [sp]
50001378:	e0823003 	add	r3, r2, r3
5000137c:	e59d2008 	ldr	r2, [sp, #8]
50001380:	e20220ff 	and	r2, r2, #255	; 0xff
50001384:	e2822037 	add	r2, r2, #55	; 0x37
50001388:	e20220ff 	and	r2, r2, #255	; 0xff
5000138c:	e5c32000 	strb	r2, [r3]
50001390:	e59d300c 	ldr	r3, [sp, #12]
50001394:	e2833001 	add	r3, r3, #1
50001398:	e58d300c 	str	r3, [sp, #12]
5000139c:	ea00000a 	b	500013cc <int_to_hex+0xb0>
500013a0:	e59d300c 	ldr	r3, [sp, #12]
500013a4:	e59d2000 	ldr	r2, [sp]
500013a8:	e0823003 	add	r3, r2, r3
500013ac:	e59d2008 	ldr	r2, [sp, #8]
500013b0:	e20220ff 	and	r2, r2, #255	; 0xff
500013b4:	e2822030 	add	r2, r2, #48	; 0x30
500013b8:	e20220ff 	and	r2, r2, #255	; 0xff
500013bc:	e5c32000 	strb	r2, [r3]
500013c0:	e59d300c 	ldr	r3, [sp, #12]
500013c4:	e2833001 	add	r3, r3, #1
500013c8:	e58d300c 	str	r3, [sp, #12]
500013cc:	e59d3004 	ldr	r3, [sp, #4]
500013d0:	e3530000 	cmp	r3, #0
500013d4:	1affffd8 	bne	5000133c <int_to_hex+0x20>
500013d8:	e59d300c 	ldr	r3, [sp, #12]
500013dc:	e3530008 	cmp	r3, #8
500013e0:	1affffd5 	bne	5000133c <int_to_hex+0x20>
500013e4:	e1a00000 	nop			; (mov r0, r0)
500013e8:	e59d300c 	ldr	r3, [sp, #12]
500013ec:	e59d2000 	ldr	r2, [sp]
500013f0:	e0823003 	add	r3, r2, r3
500013f4:	e3a02000 	mov	r2, #0
500013f8:	e5c32000 	strb	r2, [r3]
500013fc:	e1a00000 	nop			; (mov r0, r0)
50001400:	e28dd010 	add	sp, sp, #16
50001404:	e12fff1e 	bx	lr

50001408 <uart_print_hex>:
50001408:	e52de004 	push	{lr}		; (str lr, [sp, #-4]!)
5000140c:	e24dd01c 	sub	sp, sp, #28
50001410:	e58d0004 	str	r0, [sp, #4]
50001414:	e28d3008 	add	r3, sp, #8
50001418:	e59d0004 	ldr	r0, [sp, #4]
5000141c:	e1a01003 	mov	r1, r3
50001420:	ebffffbd 	bl	5000131c <int_to_hex>
50001424:	e3a03007 	mov	r3, #7
50001428:	e58d3014 	str	r3, [sp, #20]
5000142c:	ea00000a 	b	5000145c <uart_print_hex+0x54>
50001430:	e3e0300f 	mvn	r3, #15
50001434:	e59d2014 	ldr	r2, [sp, #20]
50001438:	e28d1018 	add	r1, sp, #24
5000143c:	e0812002 	add	r2, r1, r2
50001440:	e0823003 	add	r3, r2, r3
50001444:	e5d33000 	ldrb	r3, [r3]
50001448:	e1a00003 	mov	r0, r3
5000144c:	ebffff67 	bl	500011f0 <uart_putc>
50001450:	e59d3014 	ldr	r3, [sp, #20]
50001454:	e2433001 	sub	r3, r3, #1
50001458:	e58d3014 	str	r3, [sp, #20]
5000145c:	e59d3014 	ldr	r3, [sp, #20]
50001460:	e3530000 	cmp	r3, #0
50001464:	aafffff1 	bge	50001430 <uart_print_hex+0x28>
50001468:	e28dd01c 	add	sp, sp, #28
5000146c:	e8bd8000 	ldmfd	sp!, {pc}

50001470 <uart_print_addr>:
50001470:	e52de004 	push	{lr}		; (str lr, [sp, #-4]!)
50001474:	e24dd01c 	sub	sp, sp, #28
50001478:	e58d0004 	str	r0, [sp, #4]
5000147c:	e28d300c 	add	r3, sp, #12
50001480:	e59d0004 	ldr	r0, [sp, #4]
50001484:	e1a01003 	mov	r1, r3
50001488:	ebffffa3 	bl	5000131c <int_to_hex>
5000148c:	e5dd300d 	ldrb	r3, [sp, #13]
50001490:	e1a00003 	mov	r0, r3
50001494:	ebffff55 	bl	500011f0 <uart_putc>
50001498:	e5dd300c 	ldrb	r3, [sp, #12]
5000149c:	e1a00003 	mov	r0, r3
500014a0:	ebffff52 	bl	500011f0 <uart_putc>
500014a4:	e5dd300f 	ldrb	r3, [sp, #15]
500014a8:	e1a00003 	mov	r0, r3
500014ac:	ebffff4f 	bl	500011f0 <uart_putc>
500014b0:	e5dd300e 	ldrb	r3, [sp, #14]
500014b4:	e1a00003 	mov	r0, r3
500014b8:	ebffff4c 	bl	500011f0 <uart_putc>
500014bc:	e5dd3011 	ldrb	r3, [sp, #17]
500014c0:	e1a00003 	mov	r0, r3
500014c4:	ebffff49 	bl	500011f0 <uart_putc>
500014c8:	e5dd3010 	ldrb	r3, [sp, #16]
500014cc:	e1a00003 	mov	r0, r3
500014d0:	ebffff46 	bl	500011f0 <uart_putc>
500014d4:	e5dd3013 	ldrb	r3, [sp, #19]
500014d8:	e1a00003 	mov	r0, r3
500014dc:	ebffff43 	bl	500011f0 <uart_putc>
500014e0:	e5dd3012 	ldrb	r3, [sp, #18]
500014e4:	e1a00003 	mov	r0, r3
500014e8:	ebffff40 	bl	500011f0 <uart_putc>
500014ec:	e28dd01c 	add	sp, sp, #28
500014f0:	e8bd8000 	ldmfd	sp!, {pc}

500014f4 <uart_getc>:
500014f4:	e52de004 	push	{lr}		; (str lr, [sp, #-4]!)
500014f8:	e24dd05c 	sub	sp, sp, #92	; 0x5c
500014fc:	e3a03000 	mov	r3, #0
50001500:	e58d3054 	str	r3, [sp, #84]	; 0x54
50001504:	ea000002 	b	50001514 <uart_getc+0x20>
50001508:	e1a00000 	nop			; (mov r0, r0)
5000150c:	ea000000 	b	50001514 <uart_getc+0x20>
50001510:	e1a00000 	nop			; (mov r0, r0)
50001514:	e59f321c 	ldr	r3, [pc, #540]	; 50001738 <uart_getc+0x244>
50001518:	e5933000 	ldr	r3, [r3]
5000151c:	e2033001 	and	r3, r3, #1
50001520:	e3530000 	cmp	r3, #0
50001524:	0afffff7 	beq	50001508 <uart_getc+0x14>
50001528:	e1a00000 	nop			; (mov r0, r0)
5000152c:	e59f3208 	ldr	r3, [pc, #520]	; 5000173c <uart_getc+0x248>
50001530:	e5933000 	ldr	r3, [r3]
50001534:	e20320ff 	and	r2, r3, #255	; 0xff
50001538:	e3e03053 	mvn	r3, #83	; 0x53
5000153c:	e59d1054 	ldr	r1, [sp, #84]	; 0x54
50001540:	e28d0058 	add	r0, sp, #88	; 0x58
50001544:	e0801001 	add	r1, r0, r1
50001548:	e0813003 	add	r3, r1, r3
5000154c:	e5c32000 	strb	r2, [r3]
50001550:	e3e03053 	mvn	r3, #83	; 0x53
50001554:	e59d2054 	ldr	r2, [sp, #84]	; 0x54
50001558:	e28d1058 	add	r1, sp, #88	; 0x58
5000155c:	e0812002 	add	r2, r1, r2
50001560:	e0823003 	add	r3, r2, r3
50001564:	e5d33000 	ldrb	r3, [r3]
50001568:	e3530008 	cmp	r3, #8
5000156c:	1a00001f 	bne	500015f0 <uart_getc+0xfc>
50001570:	e59d3054 	ldr	r3, [sp, #84]	; 0x54
50001574:	e3530000 	cmp	r3, #0
50001578:	da00001c 	ble	500015f0 <uart_getc+0xfc>
5000157c:	e3e03053 	mvn	r3, #83	; 0x53
50001580:	e59d2054 	ldr	r2, [sp, #84]	; 0x54
50001584:	e28d0058 	add	r0, sp, #88	; 0x58
50001588:	e0802002 	add	r2, r0, r2
5000158c:	e0823003 	add	r3, r2, r3
50001590:	e5d33000 	ldrb	r3, [r3]
50001594:	e59d2054 	ldr	r2, [sp, #84]	; 0x54
50001598:	e2422001 	sub	r2, r2, #1
5000159c:	e58d2054 	str	r2, [sp, #84]	; 0x54
500015a0:	e1a00003 	mov	r0, r3
500015a4:	ebffff11 	bl	500011f0 <uart_putc>
500015a8:	e3e03053 	mvn	r3, #83	; 0x53
500015ac:	e59d2054 	ldr	r2, [sp, #84]	; 0x54
500015b0:	e28d1058 	add	r1, sp, #88	; 0x58
500015b4:	e0812002 	add	r2, r1, r2
500015b8:	e0823003 	add	r3, r2, r3
500015bc:	e3a02020 	mov	r2, #32
500015c0:	e5c32000 	strb	r2, [r3]
500015c4:	e3e03053 	mvn	r3, #83	; 0x53
500015c8:	e59d2054 	ldr	r2, [sp, #84]	; 0x54
500015cc:	e28d0058 	add	r0, sp, #88	; 0x58
500015d0:	e0802002 	add	r2, r0, r2
500015d4:	e0823003 	add	r3, r2, r3
500015d8:	e5d33000 	ldrb	r3, [r3]
500015dc:	e1a00003 	mov	r0, r3
500015e0:	ebffff02 	bl	500011f0 <uart_putc>
500015e4:	e3a00008 	mov	r0, #8
500015e8:	ebffff00 	bl	500011f0 <uart_putc>
500015ec:	ea00004d 	b	50001728 <uart_getc+0x234>
500015f0:	e3e03053 	mvn	r3, #83	; 0x53
500015f4:	e59d2054 	ldr	r2, [sp, #84]	; 0x54
500015f8:	e28d1058 	add	r1, sp, #88	; 0x58
500015fc:	e0812002 	add	r2, r1, r2
50001600:	e0823003 	add	r3, r2, r3
50001604:	e5d33000 	ldrb	r3, [r3]
50001608:	e3530008 	cmp	r3, #8
5000160c:	1a000002 	bne	5000161c <uart_getc+0x128>
50001610:	e59d3054 	ldr	r3, [sp, #84]	; 0x54
50001614:	e3530000 	cmp	r3, #0
50001618:	0a000041 	beq	50001724 <uart_getc+0x230>
5000161c:	e59d3054 	ldr	r3, [sp, #84]	; 0x54
50001620:	e353004f 	cmp	r3, #79	; 0x4f
50001624:	0a000008 	beq	5000164c <uart_getc+0x158>
50001628:	e3e03053 	mvn	r3, #83	; 0x53
5000162c:	e59d2054 	ldr	r2, [sp, #84]	; 0x54
50001630:	e28d0058 	add	r0, sp, #88	; 0x58
50001634:	e0802002 	add	r2, r0, r2
50001638:	e0823003 	add	r3, r2, r3
5000163c:	e5d33000 	ldrb	r3, [r3]
50001640:	e1a00003 	mov	r0, r3
50001644:	ebfffee9 	bl	500011f0 <uart_putc>
50001648:	ea00000e 	b	50001688 <uart_getc+0x194>
5000164c:	e59d3054 	ldr	r3, [sp, #84]	; 0x54
50001650:	e353004f 	cmp	r3, #79	; 0x4f
50001654:	1a00000b 	bne	50001688 <uart_getc+0x194>
50001658:	e3e03053 	mvn	r3, #83	; 0x53
5000165c:	e59d2054 	ldr	r2, [sp, #84]	; 0x54
50001660:	e28d1058 	add	r1, sp, #88	; 0x58
50001664:	e0812002 	add	r2, r1, r2
50001668:	e0823003 	add	r3, r2, r3
5000166c:	e5d33000 	ldrb	r3, [r3]
50001670:	e353000d 	cmp	r3, #13
50001674:	1a000003 	bne	50001688 <uart_getc+0x194>
50001678:	e59f00c0 	ldr	r0, [pc, #192]	; 50001740 <uart_getc+0x24c>
5000167c:	ebfffef4 	bl	50001254 <uart_puts>
50001680:	e5dd3004 	ldrb	r3, [sp, #4]
50001684:	ea000028 	b	5000172c <uart_getc+0x238>
50001688:	e59d3054 	ldr	r3, [sp, #84]	; 0x54
5000168c:	e3530000 	cmp	r3, #0
50001690:	1a00000b 	bne	500016c4 <uart_getc+0x1d0>
50001694:	e3e03053 	mvn	r3, #83	; 0x53
50001698:	e59d2054 	ldr	r2, [sp, #84]	; 0x54
5000169c:	e28d0058 	add	r0, sp, #88	; 0x58
500016a0:	e0802002 	add	r2, r0, r2
500016a4:	e0823003 	add	r3, r2, r3
500016a8:	e5d33000 	ldrb	r3, [r3]
500016ac:	e353000d 	cmp	r3, #13
500016b0:	1a000003 	bne	500016c4 <uart_getc+0x1d0>
500016b4:	e59f0084 	ldr	r0, [pc, #132]	; 50001740 <uart_getc+0x24c>
500016b8:	ebfffee5 	bl	50001254 <uart_puts>
500016bc:	e3a03000 	mov	r3, #0
500016c0:	ea000019 	b	5000172c <uart_getc+0x238>
500016c4:	e59d3054 	ldr	r3, [sp, #84]	; 0x54
500016c8:	e3530000 	cmp	r3, #0
500016cc:	da00000b 	ble	50001700 <uart_getc+0x20c>
500016d0:	e3e03053 	mvn	r3, #83	; 0x53
500016d4:	e59d2054 	ldr	r2, [sp, #84]	; 0x54
500016d8:	e28d1058 	add	r1, sp, #88	; 0x58
500016dc:	e0812002 	add	r2, r1, r2
500016e0:	e0823003 	add	r3, r2, r3
500016e4:	e5d33000 	ldrb	r3, [r3]
500016e8:	e353000d 	cmp	r3, #13
500016ec:	1a000003 	bne	50001700 <uart_getc+0x20c>
500016f0:	e59f0048 	ldr	r0, [pc, #72]	; 50001740 <uart_getc+0x24c>
500016f4:	ebfffed6 	bl	50001254 <uart_puts>
500016f8:	e5dd3004 	ldrb	r3, [sp, #4]
500016fc:	ea00000a 	b	5000172c <uart_getc+0x238>
50001700:	e59d3054 	ldr	r3, [sp, #84]	; 0x54
50001704:	e2833001 	add	r3, r3, #1
50001708:	e58d3054 	str	r3, [sp, #84]	; 0x54
5000170c:	e59d3054 	ldr	r3, [sp, #84]	; 0x54
50001710:	e3530050 	cmp	r3, #80	; 0x50
50001714:	1affff7d 	bne	50001510 <uart_getc+0x1c>
50001718:	e3a0304f 	mov	r3, #79	; 0x4f
5000171c:	e58d3054 	str	r3, [sp, #84]	; 0x54
50001720:	eaffff7a 	b	50001510 <uart_getc+0x1c>
50001724:	e1a00000 	nop			; (mov r0, r0)
50001728:	eaffff78 	b	50001510 <uart_getc+0x1c>
5000172c:	e1a00003 	mov	r0, r3
50001730:	e28dd05c 	add	sp, sp, #92	; 0x5c
50001734:	e8bd8000 	ldmfd	sp!, {pc}
50001738:	7f005010 	svcvc	0x00005010
5000173c:	7f005024 	svcvc	0x00005024
50001740:	50001c08 	andpl	r1, r0, r8, lsl #24

50001744 <uart_gets>:
50001744:	e52de004 	push	{lr}		; (str lr, [sp, #-4]!)
50001748:	e24dd014 	sub	sp, sp, #20
5000174c:	e58d0004 	str	r0, [sp, #4]
50001750:	e3a03000 	mov	r3, #0
50001754:	e58d300c 	str	r3, [sp, #12]
50001758:	ea000002 	b	50001768 <uart_gets+0x24>
5000175c:	e1a00000 	nop			; (mov r0, r0)
50001760:	ea000000 	b	50001768 <uart_gets+0x24>
50001764:	e1a00000 	nop			; (mov r0, r0)
50001768:	e59f31fc 	ldr	r3, [pc, #508]	; 5000196c <uart_gets+0x228>
5000176c:	e5933000 	ldr	r3, [r3]
50001770:	e2033001 	and	r3, r3, #1
50001774:	e3530000 	cmp	r3, #0
50001778:	0afffff7 	beq	5000175c <uart_gets+0x18>
5000177c:	e1a00000 	nop			; (mov r0, r0)
50001780:	e59d300c 	ldr	r3, [sp, #12]
50001784:	e59d2004 	ldr	r2, [sp, #4]
50001788:	e0823003 	add	r3, r2, r3
5000178c:	e59f21dc 	ldr	r2, [pc, #476]	; 50001970 <uart_gets+0x22c>
50001790:	e5922000 	ldr	r2, [r2]
50001794:	e20220ff 	and	r2, r2, #255	; 0xff
50001798:	e5c32000 	strb	r2, [r3]
5000179c:	e59d300c 	ldr	r3, [sp, #12]
500017a0:	e59d2004 	ldr	r2, [sp, #4]
500017a4:	e0823003 	add	r3, r2, r3
500017a8:	e5d33000 	ldrb	r3, [r3]
500017ac:	e3530008 	cmp	r3, #8
500017b0:	1a000019 	bne	5000181c <uart_gets+0xd8>
500017b4:	e59d300c 	ldr	r3, [sp, #12]
500017b8:	e3530000 	cmp	r3, #0
500017bc:	da000016 	ble	5000181c <uart_gets+0xd8>
500017c0:	e59d300c 	ldr	r3, [sp, #12]
500017c4:	e59d2004 	ldr	r2, [sp, #4]
500017c8:	e0823003 	add	r3, r2, r3
500017cc:	e5d33000 	ldrb	r3, [r3]
500017d0:	e59d200c 	ldr	r2, [sp, #12]
500017d4:	e2422001 	sub	r2, r2, #1
500017d8:	e58d200c 	str	r2, [sp, #12]
500017dc:	e1a00003 	mov	r0, r3
500017e0:	ebfffe82 	bl	500011f0 <uart_putc>
500017e4:	e59d300c 	ldr	r3, [sp, #12]
500017e8:	e59d2004 	ldr	r2, [sp, #4]
500017ec:	e0823003 	add	r3, r2, r3
500017f0:	e3a02020 	mov	r2, #32
500017f4:	e5c32000 	strb	r2, [r3]
500017f8:	e59d300c 	ldr	r3, [sp, #12]
500017fc:	e59d2004 	ldr	r2, [sp, #4]
50001800:	e0823003 	add	r3, r2, r3
50001804:	e5d33000 	ldrb	r3, [r3]
50001808:	e1a00003 	mov	r0, r3
5000180c:	ebfffe77 	bl	500011f0 <uart_putc>
50001810:	e3a00008 	mov	r0, #8
50001814:	ebfffe75 	bl	500011f0 <uart_putc>
50001818:	ea000050 	b	50001960 <uart_gets+0x21c>
5000181c:	e59d300c 	ldr	r3, [sp, #12]
50001820:	e59d2004 	ldr	r2, [sp, #4]
50001824:	e0823003 	add	r3, r2, r3
50001828:	e5d33000 	ldrb	r3, [r3]
5000182c:	e3530008 	cmp	r3, #8
50001830:	1a000002 	bne	50001840 <uart_gets+0xfc>
50001834:	e59d300c 	ldr	r3, [sp, #12]
50001838:	e3530000 	cmp	r3, #0
5000183c:	0a000046 	beq	5000195c <uart_gets+0x218>
50001840:	e59d300c 	ldr	r3, [sp, #12]
50001844:	e353004f 	cmp	r3, #79	; 0x4f
50001848:	0a000006 	beq	50001868 <uart_gets+0x124>
5000184c:	e59d300c 	ldr	r3, [sp, #12]
50001850:	e59d2004 	ldr	r2, [sp, #4]
50001854:	e0823003 	add	r3, r2, r3
50001858:	e5d33000 	ldrb	r3, [r3]
5000185c:	e1a00003 	mov	r0, r3
50001860:	ebfffe62 	bl	500011f0 <uart_putc>
50001864:	ea000010 	b	500018ac <uart_gets+0x168>
50001868:	e59d300c 	ldr	r3, [sp, #12]
5000186c:	e353004f 	cmp	r3, #79	; 0x4f
50001870:	1a00000d 	bne	500018ac <uart_gets+0x168>
50001874:	e59d300c 	ldr	r3, [sp, #12]
50001878:	e59d2004 	ldr	r2, [sp, #4]
5000187c:	e0823003 	add	r3, r2, r3
50001880:	e5d33000 	ldrb	r3, [r3]
50001884:	e353000d 	cmp	r3, #13
50001888:	1a000007 	bne	500018ac <uart_gets+0x168>
5000188c:	e59f00e0 	ldr	r0, [pc, #224]	; 50001974 <uart_gets+0x230>
50001890:	ebfffe6f 	bl	50001254 <uart_puts>
50001894:	e59d300c 	ldr	r3, [sp, #12]
50001898:	e59d2004 	ldr	r2, [sp, #4]
5000189c:	e0823003 	add	r3, r2, r3
500018a0:	e3a02000 	mov	r2, #0
500018a4:	e5c32000 	strb	r2, [r3]
500018a8:	ea00002d 	b	50001964 <uart_gets+0x220>
500018ac:	e59d300c 	ldr	r3, [sp, #12]
500018b0:	e3530000 	cmp	r3, #0
500018b4:	1a00000d 	bne	500018f0 <uart_gets+0x1ac>
500018b8:	e59d300c 	ldr	r3, [sp, #12]
500018bc:	e59d2004 	ldr	r2, [sp, #4]
500018c0:	e0823003 	add	r3, r2, r3
500018c4:	e5d33000 	ldrb	r3, [r3]
500018c8:	e353000d 	cmp	r3, #13
500018cc:	1a000007 	bne	500018f0 <uart_gets+0x1ac>
500018d0:	e59d300c 	ldr	r3, [sp, #12]
500018d4:	e59d2004 	ldr	r2, [sp, #4]
500018d8:	e0823003 	add	r3, r2, r3
500018dc:	e3a02000 	mov	r2, #0
500018e0:	e5c32000 	strb	r2, [r3]
500018e4:	e59f0088 	ldr	r0, [pc, #136]	; 50001974 <uart_gets+0x230>
500018e8:	ebfffe59 	bl	50001254 <uart_puts>
500018ec:	ea00001c 	b	50001964 <uart_gets+0x220>
500018f0:	e59d300c 	ldr	r3, [sp, #12]
500018f4:	e3530000 	cmp	r3, #0
500018f8:	da00000e 	ble	50001938 <uart_gets+0x1f4>
500018fc:	e59d300c 	ldr	r3, [sp, #12]
50001900:	e59d2004 	ldr	r2, [sp, #4]
50001904:	e0823003 	add	r3, r2, r3
50001908:	e5d33000 	ldrb	r3, [r3]
5000190c:	e353000d 	cmp	r3, #13
50001910:	1a000008 	bne	50001938 <uart_gets+0x1f4>
50001914:	e59f0058 	ldr	r0, [pc, #88]	; 50001974 <uart_gets+0x230>
50001918:	ebfffe4d 	bl	50001254 <uart_puts>
5000191c:	e59d300c 	ldr	r3, [sp, #12]
50001920:	e59d2004 	ldr	r2, [sp, #4]
50001924:	e0823003 	add	r3, r2, r3
50001928:	e3a02000 	mov	r2, #0
5000192c:	e5c32000 	strb	r2, [r3]
50001930:	e1a00000 	nop			; (mov r0, r0)
50001934:	ea00000a 	b	50001964 <uart_gets+0x220>
50001938:	e59d300c 	ldr	r3, [sp, #12]
5000193c:	e2833001 	add	r3, r3, #1
50001940:	e58d300c 	str	r3, [sp, #12]
50001944:	e59d300c 	ldr	r3, [sp, #12]
50001948:	e3530050 	cmp	r3, #80	; 0x50
5000194c:	1affff84 	bne	50001764 <uart_gets+0x20>
50001950:	e3a0304f 	mov	r3, #79	; 0x4f
50001954:	e58d300c 	str	r3, [sp, #12]
50001958:	eaffff81 	b	50001764 <uart_gets+0x20>
5000195c:	e1a00000 	nop			; (mov r0, r0)
50001960:	eaffff7f 	b	50001764 <uart_gets+0x20>
50001964:	e28dd014 	add	sp, sp, #20
50001968:	e8bd8000 	ldmfd	sp!, {pc}
5000196c:	7f005010 	svcvc	0x00005010
50001970:	7f005024 	svcvc	0x00005024
50001974:	50001c08 	andpl	r1, r0, r8, lsl #24

50001978 <uart_scanf>:
50001978:	e24dd008 	sub	sp, sp, #8
5000197c:	e58d0004 	str	r0, [sp, #4]
50001980:	e58d1000 	str	r1, [sp]
50001984:	e28dd008 	add	sp, sp, #8
50001988:	e12fff1e 	bx	lr

5000198c <uart_get_int>:
5000198c:	e52de004 	push	{lr}		; (str lr, [sp, #-4]!)
50001990:	e24dd064 	sub	sp, sp, #100	; 0x64
50001994:	e28d3004 	add	r3, sp, #4
50001998:	e1a00003 	mov	r0, r3
5000199c:	ebffff68 	bl	50001744 <uart_gets>
500019a0:	e3a03000 	mov	r3, #0
500019a4:	e58d305c 	str	r3, [sp, #92]	; 0x5c
500019a8:	e3a03000 	mov	r3, #0
500019ac:	e58d3058 	str	r3, [sp, #88]	; 0x58
500019b0:	e3a03001 	mov	r3, #1
500019b4:	e58d3054 	str	r3, [sp, #84]	; 0x54
500019b8:	e5dd3004 	ldrb	r3, [sp, #4]
500019bc:	e353002d 	cmp	r3, #45	; 0x2d
500019c0:	1a00002a 	bne	50001a70 <uart_get_int+0xe4>
500019c4:	e59d3058 	ldr	r3, [sp, #88]	; 0x58
500019c8:	e2833001 	add	r3, r3, #1
500019cc:	e58d3058 	str	r3, [sp, #88]	; 0x58
500019d0:	e3e03000 	mvn	r3, #0
500019d4:	e58d3054 	str	r3, [sp, #84]	; 0x54
500019d8:	ea000024 	b	50001a70 <uart_get_int+0xe4>
500019dc:	e3e0305b 	mvn	r3, #91	; 0x5b
500019e0:	e59d2058 	ldr	r2, [sp, #88]	; 0x58
500019e4:	e28d0060 	add	r0, sp, #96	; 0x60
500019e8:	e0802002 	add	r2, r0, r2
500019ec:	e0823003 	add	r3, r2, r3
500019f0:	e5d33000 	ldrb	r3, [r3]
500019f4:	e353002f 	cmp	r3, #47	; 0x2f
500019f8:	9a000007 	bls	50001a1c <uart_get_int+0x90>
500019fc:	e3e0305b 	mvn	r3, #91	; 0x5b
50001a00:	e59d2058 	ldr	r2, [sp, #88]	; 0x58
50001a04:	e28d1060 	add	r1, sp, #96	; 0x60
50001a08:	e0812002 	add	r2, r1, r2
50001a0c:	e0823003 	add	r3, r2, r3
50001a10:	e5d33000 	ldrb	r3, [r3]
50001a14:	e3530039 	cmp	r3, #57	; 0x39
50001a18:	9a000001 	bls	50001a24 <uart_get_int+0x98>
50001a1c:	e3a03000 	mov	r3, #0
50001a20:	ea00001e 	b	50001aa0 <uart_get_int+0x114>
50001a24:	e59d205c 	ldr	r2, [sp, #92]	; 0x5c
50001a28:	e1a03002 	mov	r3, r2
50001a2c:	e1a03103 	lsl	r3, r3, #2
50001a30:	e0833002 	add	r3, r3, r2
50001a34:	e1a03083 	lsl	r3, r3, #1
50001a38:	e1a02003 	mov	r2, r3
50001a3c:	e3e0305b 	mvn	r3, #91	; 0x5b
50001a40:	e59d1058 	ldr	r1, [sp, #88]	; 0x58
50001a44:	e28d0060 	add	r0, sp, #96	; 0x60
50001a48:	e0801001 	add	r1, r0, r1
50001a4c:	e0813003 	add	r3, r1, r3
50001a50:	e5d33000 	ldrb	r3, [r3]
50001a54:	e0823003 	add	r3, r2, r3
50001a58:	e2433030 	sub	r3, r3, #48	; 0x30
50001a5c:	e58d305c 	str	r3, [sp, #92]	; 0x5c
50001a60:	e59d3058 	ldr	r3, [sp, #88]	; 0x58
50001a64:	e2833001 	add	r3, r3, #1
50001a68:	e58d3058 	str	r3, [sp, #88]	; 0x58
50001a6c:	ea000000 	b	50001a74 <uart_get_int+0xe8>
50001a70:	e1a00000 	nop			; (mov r0, r0)
50001a74:	e3e0305b 	mvn	r3, #91	; 0x5b
50001a78:	e59d2058 	ldr	r2, [sp, #88]	; 0x58
50001a7c:	e28d1060 	add	r1, sp, #96	; 0x60
50001a80:	e0812002 	add	r2, r1, r2
50001a84:	e0823003 	add	r3, r2, r3
50001a88:	e5d33000 	ldrb	r3, [r3]
50001a8c:	e3530000 	cmp	r3, #0
50001a90:	1affffd1 	bne	500019dc <uart_get_int+0x50>
50001a94:	e59d3054 	ldr	r3, [sp, #84]	; 0x54
50001a98:	e59d205c 	ldr	r2, [sp, #92]	; 0x5c
50001a9c:	e0030392 	mul	r3, r2, r3
50001aa0:	e1a00003 	mov	r0, r3
50001aa4:	e28dd064 	add	sp, sp, #100	; 0x64
50001aa8:	e8bd8000 	ldmfd	sp!, {pc}

50001aac <uart_print_int>:
50001aac:	e52de004 	push	{lr}		; (str lr, [sp, #-4]!)
50001ab0:	e24dd064 	sub	sp, sp, #100	; 0x64
50001ab4:	e58d0004 	str	r0, [sp, #4]
50001ab8:	e3a03000 	mov	r3, #0
50001abc:	e58d305c 	str	r3, [sp, #92]	; 0x5c
50001ac0:	ea000000 	b	50001ac8 <uart_print_int+0x1c>
50001ac4:	e1a00000 	nop			; (mov r0, r0)
50001ac8:	e59d1004 	ldr	r1, [sp, #4]
50001acc:	e59f30e0 	ldr	r3, [pc, #224]	; 50001bb4 <uart_print_int+0x108>
50001ad0:	e0c30391 	smull	r0, r3, r1, r3
50001ad4:	e1a02143 	asr	r2, r3, #2
50001ad8:	e1a03fc1 	asr	r3, r1, #31
50001adc:	e0632002 	rsb	r2, r3, r2
50001ae0:	e1a03002 	mov	r3, r2
50001ae4:	e1a03103 	lsl	r3, r3, #2
50001ae8:	e0833002 	add	r3, r3, r2
50001aec:	e1a03083 	lsl	r3, r3, #1
50001af0:	e0632001 	rsb	r2, r3, r1
50001af4:	e20230ff 	and	r3, r2, #255	; 0xff
50001af8:	e2833030 	add	r3, r3, #48	; 0x30
50001afc:	e20320ff 	and	r2, r3, #255	; 0xff
50001b00:	e3e03053 	mvn	r3, #83	; 0x53
50001b04:	e59d105c 	ldr	r1, [sp, #92]	; 0x5c
50001b08:	e28d0060 	add	r0, sp, #96	; 0x60
50001b0c:	e0801001 	add	r1, r0, r1
50001b10:	e0813003 	add	r3, r1, r3
50001b14:	e5c32000 	strb	r2, [r3]
50001b18:	e59d305c 	ldr	r3, [sp, #92]	; 0x5c
50001b1c:	e2833001 	add	r3, r3, #1
50001b20:	e58d305c 	str	r3, [sp, #92]	; 0x5c
50001b24:	e59d3004 	ldr	r3, [sp, #4]
50001b28:	e59f2084 	ldr	r2, [pc, #132]	; 50001bb4 <uart_print_int+0x108>
50001b2c:	e0c21293 	smull	r1, r2, r3, r2
50001b30:	e1a02142 	asr	r2, r2, #2
50001b34:	e1a03fc3 	asr	r3, r3, #31
50001b38:	e0633002 	rsb	r3, r3, r2
50001b3c:	e58d3004 	str	r3, [sp, #4]
50001b40:	e59d3004 	ldr	r3, [sp, #4]
50001b44:	e3530000 	cmp	r3, #0
50001b48:	1affffdd 	bne	50001ac4 <uart_print_int+0x18>
50001b4c:	e1a00000 	nop			; (mov r0, r0)
50001b50:	e59d3004 	ldr	r3, [sp, #4]
50001b54:	e3530000 	cmp	r3, #0
50001b58:	aa000001 	bge	50001b64 <uart_print_int+0xb8>
50001b5c:	e3a0002d 	mov	r0, #45	; 0x2d
50001b60:	ebfffda2 	bl	500011f0 <uart_putc>
50001b64:	e59d305c 	ldr	r3, [sp, #92]	; 0x5c
50001b68:	e2433001 	sub	r3, r3, #1
50001b6c:	e58d305c 	str	r3, [sp, #92]	; 0x5c
50001b70:	ea00000a 	b	50001ba0 <uart_print_int+0xf4>
50001b74:	e3e03053 	mvn	r3, #83	; 0x53
50001b78:	e59d205c 	ldr	r2, [sp, #92]	; 0x5c
50001b7c:	e28d0060 	add	r0, sp, #96	; 0x60
50001b80:	e0802002 	add	r2, r0, r2
50001b84:	e0823003 	add	r3, r2, r3
50001b88:	e5d33000 	ldrb	r3, [r3]
50001b8c:	e1a00003 	mov	r0, r3
50001b90:	ebfffd96 	bl	500011f0 <uart_putc>
50001b94:	e59d305c 	ldr	r3, [sp, #92]	; 0x5c
50001b98:	e2433001 	sub	r3, r3, #1
50001b9c:	e58d305c 	str	r3, [sp, #92]	; 0x5c
50001ba0:	e59d305c 	ldr	r3, [sp, #92]	; 0x5c
50001ba4:	e3530000 	cmp	r3, #0
50001ba8:	aafffff1 	bge	50001b74 <uart_print_int+0xc8>
50001bac:	e28dd064 	add	sp, sp, #100	; 0x64
50001bb0:	e8bd8000 	ldmfd	sp!, {pc}
50001bb4:	66666667 	strbtvs	r6, [r6], -r7, ror #12

50001bb8 <uart_get_file>:
50001bb8:	e24dd008 	sub	sp, sp, #8
50001bbc:	e58d0004 	str	r0, [sp, #4]
50001bc0:	e59f3038 	ldr	r3, [pc, #56]	; 50001c00 <uart_get_file+0x48>
50001bc4:	e5933000 	ldr	r3, [r3]
50001bc8:	e2033001 	and	r3, r3, #1
50001bcc:	e3530000 	cmp	r3, #0
50001bd0:	0a000006 	beq	50001bf0 <uart_get_file+0x38>
50001bd4:	e59f3028 	ldr	r3, [pc, #40]	; 50001c04 <uart_get_file+0x4c>
50001bd8:	e5933000 	ldr	r3, [r3]
50001bdc:	e20320ff 	and	r2, r3, #255	; 0xff
50001be0:	e59d3004 	ldr	r3, [sp, #4]
50001be4:	e5c32000 	strb	r2, [r3]
50001be8:	e3a03001 	mov	r3, #1
50001bec:	ea000000 	b	50001bf4 <uart_get_file+0x3c>
50001bf0:	e3a03000 	mov	r3, #0
50001bf4:	e1a00003 	mov	r0, r3
50001bf8:	e28dd008 	add	sp, sp, #8
50001bfc:	e12fff1e 	bx	lr
50001c00:	7f005010 	svcvc	0x00005010
50001c04:	7f005024 	svcvc	0x00005024
50001c08:	00000000 	andeq	r0, r0, r0
50001c0c:	00002a41 	andeq	r2, r0, r1, asr #20
50001c10:	61656100 	cmnvs	r5, r0, lsl #2
50001c14:	01006962 	tsteq	r0, r2, ror #18
50001c18:	00000020 	andeq	r0, r0, r0, lsr #32
50001c1c:	45543505 	ldrbmi	r3, [r4, #-1285]	; 0xfffffafb
50001c20:	08040600 	stmdaeq	r4, {r9, sl}
50001c24:	12010901 	andne	r0, r1, #16384	; 0x4000
50001c28:	15011404 	strne	r1, [r1, #-1028]	; 0xfffffbfc
50001c2c:	18031701 	stmdane	r3, {r0, r8, r9, sl, ip}
50001c30:	1a011901 	bne	5004803c <bss_end+0x403bc>
50001c34:	00061e02 	andeq	r1, r6, r2, lsl #28

50001c38 <init_buzzer>:
50001c38:	e59f303c 	ldr	r3, [pc, #60]	; 50001c7c <init_buzzer+0x44>
50001c3c:	e59f2038 	ldr	r2, [pc, #56]	; 50001c7c <init_buzzer+0x44>
50001c40:	e5922000 	ldr	r2, [r2]
50001c44:	e3c22103 	bic	r2, r2, #-1073741824	; 0xc0000000
50001c48:	e5832000 	str	r2, [r3]
50001c4c:	e59f3028 	ldr	r3, [pc, #40]	; 50001c7c <init_buzzer+0x44>
50001c50:	e59f2024 	ldr	r2, [pc, #36]	; 50001c7c <init_buzzer+0x44>
50001c54:	e5922000 	ldr	r2, [r2]
50001c58:	e3822101 	orr	r2, r2, #1073741824	; 0x40000000
50001c5c:	e5832000 	str	r2, [r3]
50001c60:	e59f3018 	ldr	r3, [pc, #24]	; 50001c80 <init_buzzer+0x48>
50001c64:	e59f2014 	ldr	r2, [pc, #20]	; 50001c80 <init_buzzer+0x48>
50001c68:	e5922000 	ldr	r2, [r2]
50001c6c:	e3c22103 	bic	r2, r2, #-1073741824	; 0xc0000000
50001c70:	e5832000 	str	r2, [r3]
50001c74:	e1a00000 	nop			; (mov r0, r0)
50001c78:	e12fff1e 	bx	lr
50001c7c:	7f0080a0 	svcvc	0x000080a0
50001c80:	7f0080a8 	svcvc	0x000080a8

50001c84 <turn_on_buzzer>:
50001c84:	e59f3014 	ldr	r3, [pc, #20]	; 50001ca0 <turn_on_buzzer+0x1c>
50001c88:	e59f2010 	ldr	r2, [pc, #16]	; 50001ca0 <turn_on_buzzer+0x1c>
50001c8c:	e5922000 	ldr	r2, [r2]
50001c90:	e3822902 	orr	r2, r2, #32768	; 0x8000
50001c94:	e5832000 	str	r2, [r3]
50001c98:	e1a00000 	nop			; (mov r0, r0)
50001c9c:	e12fff1e 	bx	lr
50001ca0:	7f0080a4 	svcvc	0x000080a4

50001ca4 <turn_off_buzzer>:
50001ca4:	e59f3014 	ldr	r3, [pc, #20]	; 50001cc0 <turn_off_buzzer+0x1c>
50001ca8:	e59f2010 	ldr	r2, [pc, #16]	; 50001cc0 <turn_off_buzzer+0x1c>
50001cac:	e5922000 	ldr	r2, [r2]
50001cb0:	e3c22902 	bic	r2, r2, #32768	; 0x8000
50001cb4:	e5832000 	str	r2, [r3]
50001cb8:	e1a00000 	nop			; (mov r0, r0)
50001cbc:	e12fff1e 	bx	lr
50001cc0:	7f0080a4 	svcvc	0x000080a4

50001cc4 <handle_und>:
50001cc4:	e92d4008 	push	{r3, lr}
50001cc8:	e59f0004 	ldr	r0, [pc, #4]	; 50001cd4 <handle_und+0x10>
50001ccc:	ebfffd60 	bl	50001254 <uart_puts>
50001cd0:	eafffffe 	b	50001cd0 <handle_und+0xc>
50001cd4:	50004764 	andpl	r4, r0, r4, ror #14

50001cd8 <handle_swi>:
50001cd8:	e1a00000 	nop			; (mov r0, r0)
50001cdc:	e12fff1e 	bx	lr

50001ce0 <handle_pabt>:
50001ce0:	e92d4008 	push	{r3, lr}
50001ce4:	e59f0004 	ldr	r0, [pc, #4]	; 50001cf0 <handle_pabt+0x10>
50001ce8:	ebfffd59 	bl	50001254 <uart_puts>
50001cec:	eafffffe 	b	50001cec <handle_pabt+0xc>
50001cf0:	5000477c 	andpl	r4, r0, ip, ror r7

50001cf4 <handle_dabt>:
50001cf4:	e92d4008 	push	{r3, lr}
50001cf8:	e59f0004 	ldr	r0, [pc, #4]	; 50001d04 <handle_dabt+0x10>
50001cfc:	ebfffd54 	bl	50001254 <uart_puts>
50001d00:	eafffffe 	b	50001d00 <handle_dabt+0xc>
50001d04:	5000478c 	andpl	r4, r0, ip, lsl #15

50001d08 <handle_irq>:
50001d08:	e52de004 	push	{lr}		; (str lr, [sp, #-4]!)
50001d0c:	e24dd00c 	sub	sp, sp, #12
50001d10:	e59f3018 	ldr	r3, [pc, #24]	; 50001d30 <handle_irq+0x28>
50001d14:	e5933000 	ldr	r3, [r3]
50001d18:	e58d3004 	str	r3, [sp, #4]
50001d1c:	e59d3004 	ldr	r3, [sp, #4]
50001d20:	e12fff33 	blx	r3
50001d24:	e1a00000 	nop			; (mov r0, r0)
50001d28:	e28dd00c 	add	sp, sp, #12
50001d2c:	e8bd8000 	ldmfd	sp!, {pc}
50001d30:	71200f00 	teqvc	r0, r0, lsl #30

50001d34 <handle_fiq>:
50001d34:	e92d4008 	push	{r3, lr}
50001d38:	e59f0004 	ldr	r0, [pc, #4]	; 50001d44 <handle_fiq+0x10>
50001d3c:	ebfffd44 	bl	50001254 <uart_puts>
50001d40:	eafffffe 	b	50001d40 <handle_fiq+0xc>
50001d44:	50004798 	mulpl	r0, r8, r7

50001d48 <init_key>:
50001d48:	e59f20b8 	ldr	r2, [pc, #184]	; 50001e08 <init_key+0xc0>
50001d4c:	e59f30b4 	ldr	r3, [pc, #180]	; 50001e08 <init_key+0xc0>
50001d50:	e5933000 	ldr	r3, [r3]
50001d54:	e3c33eff 	bic	r3, r3, #4080	; 0xff0
50001d58:	e3c3300f 	bic	r3, r3, #15
50001d5c:	e5823000 	str	r3, [r2]
50001d60:	e59f20a0 	ldr	r2, [pc, #160]	; 50001e08 <init_key+0xc0>
50001d64:	e59f309c 	ldr	r3, [pc, #156]	; 50001e08 <init_key+0xc0>
50001d68:	e5933000 	ldr	r3, [r3]
50001d6c:	e3833eaa 	orr	r3, r3, #2720	; 0xaa0
50001d70:	e383300a 	orr	r3, r3, #10
50001d74:	e5823000 	str	r3, [r2]
50001d78:	e59f208c 	ldr	r2, [pc, #140]	; 50001e0c <init_key+0xc4>
50001d7c:	e59f3088 	ldr	r3, [pc, #136]	; 50001e0c <init_key+0xc4>
50001d80:	e5933000 	ldr	r3, [r3]
50001d84:	e3c33eff 	bic	r3, r3, #4080	; 0xff0
50001d88:	e3c3300f 	bic	r3, r3, #15
50001d8c:	e5823000 	str	r3, [r2]
50001d90:	e59f2078 	ldr	r2, [pc, #120]	; 50001e10 <init_key+0xc8>
50001d94:	e59f3074 	ldr	r3, [pc, #116]	; 50001e10 <init_key+0xc8>
50001d98:	e5933000 	ldr	r3, [r3]
50001d9c:	e3c33eff 	bic	r3, r3, #4080	; 0xff0
50001da0:	e3c3300f 	bic	r3, r3, #15
50001da4:	e5823000 	str	r3, [r2]
50001da8:	e59f2060 	ldr	r2, [pc, #96]	; 50001e10 <init_key+0xc8>
50001dac:	e59f305c 	ldr	r3, [pc, #92]	; 50001e10 <init_key+0xc8>
50001db0:	e5933000 	ldr	r3, [r3]
50001db4:	e3833d11 	orr	r3, r3, #1088	; 0x440
50001db8:	e3833004 	orr	r3, r3, #4
50001dbc:	e5823000 	str	r3, [r2]
50001dc0:	e59f304c 	ldr	r3, [pc, #76]	; 50001e14 <init_key+0xcc>
50001dc4:	e59f2048 	ldr	r2, [pc, #72]	; 50001e14 <init_key+0xcc>
50001dc8:	e5922000 	ldr	r2, [r2]
50001dcc:	e3c2203f 	bic	r2, r2, #63	; 0x3f
50001dd0:	e5832000 	str	r2, [r3]
50001dd4:	e59f303c 	ldr	r3, [pc, #60]	; 50001e18 <init_key+0xd0>
50001dd8:	e59f2038 	ldr	r2, [pc, #56]	; 50001e18 <init_key+0xd0>
50001ddc:	e5922000 	ldr	r2, [r2]
50001de0:	e3822003 	orr	r2, r2, #3
50001de4:	e5832000 	str	r2, [r3]
50001de8:	e59f302c 	ldr	r3, [pc, #44]	; 50001e1c <init_key+0xd4>
50001dec:	e59f202c 	ldr	r2, [pc, #44]	; 50001e20 <init_key+0xd8>
50001df0:	e5832000 	str	r2, [r3]
50001df4:	e59f3028 	ldr	r3, [pc, #40]	; 50001e24 <init_key+0xdc>
50001df8:	e59f2020 	ldr	r2, [pc, #32]	; 50001e20 <init_key+0xd8>
50001dfc:	e5832000 	str	r2, [r3]
50001e00:	e1a00000 	nop			; (mov r0, r0)
50001e04:	e12fff1e 	bx	lr
50001e08:	7f008830 	svcvc	0x00008830
50001e0c:	7f008838 	svcvc	0x00008838
50001e10:	7f008900 	svcvc	0x00008900
50001e14:	7f008920 	svcvc	0x00008920
50001e18:	71200010 	teqvc	r0, r0, lsl r0
50001e1c:	71200100 	teqvc	r0, r0, lsl #2
50001e20:	50001e28 	andpl	r1, r0, r8, lsr #28
50001e24:	71200104 	teqvc	r0, r4, lsl #2

50001e28 <key_isr>:
50001e28:	e52de004 	push	{lr}		; (str lr, [sp, #-4]!)
50001e2c:	e24dd00c 	sub	sp, sp, #12
50001e30:	e59f313c 	ldr	r3, [pc, #316]	; 50001f74 <key_isr+0x14c>
50001e34:	e5933000 	ldr	r3, [r3]
50001e38:	e203303f 	and	r3, r3, #63	; 0x3f
50001e3c:	e58d3004 	str	r3, [sp, #4]
50001e40:	e59d3004 	ldr	r3, [sp, #4]
50001e44:	e2433001 	sub	r3, r3, #1
50001e48:	e353002f 	cmp	r3, #47	; 0x2f
50001e4c:	979ff103 	ldrls	pc, [pc, r3, lsl #2]
50001e50:	ea00003b 	b	50001f44 <key_isr+0x11c>
50001e54:	50001f14 	andpl	r1, r0, r4, lsl pc
50001e58:	50001f1c 	andpl	r1, r0, ip, lsl pc
50001e5c:	50001f44 	andpl	r1, r0, r4, asr #30
50001e60:	50001f24 	andpl	r1, r0, r4, lsr #30
50001e64:	50001f44 	andpl	r1, r0, r4, asr #30
50001e68:	50001f44 	andpl	r1, r0, r4, asr #30
50001e6c:	50001f44 	andpl	r1, r0, r4, asr #30
50001e70:	50001f2c 	andpl	r1, r0, ip, lsr #30
50001e74:	50001f44 	andpl	r1, r0, r4, asr #30
50001e78:	50001f44 	andpl	r1, r0, r4, asr #30
50001e7c:	50001f44 	andpl	r1, r0, r4, asr #30
50001e80:	50001f44 	andpl	r1, r0, r4, asr #30
50001e84:	50001f44 	andpl	r1, r0, r4, asr #30
50001e88:	50001f44 	andpl	r1, r0, r4, asr #30
50001e8c:	50001f44 	andpl	r1, r0, r4, asr #30
50001e90:	50001f34 	andpl	r1, r0, r4, lsr pc
50001e94:	50001f44 	andpl	r1, r0, r4, asr #30
50001e98:	50001f44 	andpl	r1, r0, r4, asr #30
50001e9c:	50001f44 	andpl	r1, r0, r4, asr #30
50001ea0:	50001f44 	andpl	r1, r0, r4, asr #30
50001ea4:	50001f44 	andpl	r1, r0, r4, asr #30
50001ea8:	50001f44 	andpl	r1, r0, r4, asr #30
50001eac:	50001f44 	andpl	r1, r0, r4, asr #30
50001eb0:	50001f44 	andpl	r1, r0, r4, asr #30
50001eb4:	50001f44 	andpl	r1, r0, r4, asr #30
50001eb8:	50001f44 	andpl	r1, r0, r4, asr #30
50001ebc:	50001f44 	andpl	r1, r0, r4, asr #30
50001ec0:	50001f44 	andpl	r1, r0, r4, asr #30
50001ec4:	50001f44 	andpl	r1, r0, r4, asr #30
50001ec8:	50001f44 	andpl	r1, r0, r4, asr #30
50001ecc:	50001f44 	andpl	r1, r0, r4, asr #30
50001ed0:	50001f44 	andpl	r1, r0, r4, asr #30
50001ed4:	50001f44 	andpl	r1, r0, r4, asr #30
50001ed8:	50001f44 	andpl	r1, r0, r4, asr #30
50001edc:	50001f44 	andpl	r1, r0, r4, asr #30
50001ee0:	50001f44 	andpl	r1, r0, r4, asr #30
50001ee4:	50001f44 	andpl	r1, r0, r4, asr #30
50001ee8:	50001f44 	andpl	r1, r0, r4, asr #30
50001eec:	50001f44 	andpl	r1, r0, r4, asr #30
50001ef0:	50001f44 	andpl	r1, r0, r4, asr #30
50001ef4:	50001f44 	andpl	r1, r0, r4, asr #30
50001ef8:	50001f44 	andpl	r1, r0, r4, asr #30
50001efc:	50001f44 	andpl	r1, r0, r4, asr #30
50001f00:	50001f44 	andpl	r1, r0, r4, asr #30
50001f04:	50001f44 	andpl	r1, r0, r4, asr #30
50001f08:	50001f44 	andpl	r1, r0, r4, asr #30
50001f0c:	50001f44 	andpl	r1, r0, r4, asr #30
50001f10:	50001f3c 	andpl	r1, r0, ip, lsr pc
50001f14:	eb000018 	bl	50001f7c <key_1_handler>
50001f18:	ea00000a 	b	50001f48 <key_isr+0x120>
50001f1c:	eb000029 	bl	50001fc8 <key_2_handler>
50001f20:	ea000008 	b	50001f48 <key_isr+0x120>
50001f24:	eb00003a 	bl	50002014 <key_3_handler>
50001f28:	ea000006 	b	50001f48 <key_isr+0x120>
50001f2c:	eb00004b 	bl	50002060 <key_4_handler>
50001f30:	ea000004 	b	50001f48 <key_isr+0x120>
50001f34:	eb00005c 	bl	500020ac <key_5_handler>
50001f38:	ea000002 	b	50001f48 <key_isr+0x120>
50001f3c:	eb000067 	bl	500020e0 <key_6_handler>
50001f40:	ea000000 	b	50001f48 <key_isr+0x120>
50001f44:	e1a00000 	nop			; (mov r0, r0)
50001f48:	e59f3024 	ldr	r3, [pc, #36]	; 50001f74 <key_isr+0x14c>
50001f4c:	e59f2020 	ldr	r2, [pc, #32]	; 50001f74 <key_isr+0x14c>
50001f50:	e5922000 	ldr	r2, [r2]
50001f54:	e382203f 	orr	r2, r2, #63	; 0x3f
50001f58:	e5832000 	str	r2, [r3]
50001f5c:	e59f3014 	ldr	r3, [pc, #20]	; 50001f78 <key_isr+0x150>
50001f60:	e3a02000 	mov	r2, #0
50001f64:	e5832000 	str	r2, [r3]
50001f68:	e1a00000 	nop			; (mov r0, r0)
50001f6c:	e28dd00c 	add	sp, sp, #12
50001f70:	e8bd8000 	ldmfd	sp!, {pc}
50001f74:	7f008924 	svcvc	0x00008924
50001f78:	71200f00 	teqvc	r0, r0, lsl #30

50001f7c <key_1_handler>:
50001f7c:	e59f3040 	ldr	r3, [pc, #64]	; 50001fc4 <key_1_handler+0x48>
50001f80:	e5933000 	ldr	r3, [r3]
50001f84:	e2033001 	and	r3, r3, #1
50001f88:	e3530000 	cmp	r3, #0
50001f8c:	0a000005 	beq	50001fa8 <key_1_handler+0x2c>
50001f90:	e59f302c 	ldr	r3, [pc, #44]	; 50001fc4 <key_1_handler+0x48>
50001f94:	e59f2028 	ldr	r2, [pc, #40]	; 50001fc4 <key_1_handler+0x48>
50001f98:	e5922000 	ldr	r2, [r2]
50001f9c:	e3c22001 	bic	r2, r2, #1
50001fa0:	e5832000 	str	r2, [r3]
50001fa4:	ea000004 	b	50001fbc <key_1_handler+0x40>
50001fa8:	e59f3014 	ldr	r3, [pc, #20]	; 50001fc4 <key_1_handler+0x48>
50001fac:	e59f2010 	ldr	r2, [pc, #16]	; 50001fc4 <key_1_handler+0x48>
50001fb0:	e5922000 	ldr	r2, [r2]
50001fb4:	e3822001 	orr	r2, r2, #1
50001fb8:	e5832000 	str	r2, [r3]
50001fbc:	e1a00000 	nop			; (mov r0, r0)
50001fc0:	e12fff1e 	bx	lr
50001fc4:	7f008824 	svcvc	0x00008824

50001fc8 <key_2_handler>:
50001fc8:	e59f3040 	ldr	r3, [pc, #64]	; 50002010 <key_2_handler+0x48>
50001fcc:	e5933000 	ldr	r3, [r3]
50001fd0:	e2033002 	and	r3, r3, #2
50001fd4:	e3530000 	cmp	r3, #0
50001fd8:	0a000005 	beq	50001ff4 <key_2_handler+0x2c>
50001fdc:	e59f302c 	ldr	r3, [pc, #44]	; 50002010 <key_2_handler+0x48>
50001fe0:	e59f2028 	ldr	r2, [pc, #40]	; 50002010 <key_2_handler+0x48>
50001fe4:	e5922000 	ldr	r2, [r2]
50001fe8:	e3c22002 	bic	r2, r2, #2
50001fec:	e5832000 	str	r2, [r3]
50001ff0:	ea000004 	b	50002008 <key_2_handler+0x40>
50001ff4:	e59f3014 	ldr	r3, [pc, #20]	; 50002010 <key_2_handler+0x48>
50001ff8:	e59f2010 	ldr	r2, [pc, #16]	; 50002010 <key_2_handler+0x48>
50001ffc:	e5922000 	ldr	r2, [r2]
50002000:	e3822002 	orr	r2, r2, #2
50002004:	e5832000 	str	r2, [r3]
50002008:	e1a00000 	nop			; (mov r0, r0)
5000200c:	e12fff1e 	bx	lr
50002010:	7f008824 	svcvc	0x00008824

50002014 <key_3_handler>:
50002014:	e59f3040 	ldr	r3, [pc, #64]	; 5000205c <key_3_handler+0x48>
50002018:	e5933000 	ldr	r3, [r3]
5000201c:	e2033004 	and	r3, r3, #4
50002020:	e3530000 	cmp	r3, #0
50002024:	0a000005 	beq	50002040 <key_3_handler+0x2c>
50002028:	e59f302c 	ldr	r3, [pc, #44]	; 5000205c <key_3_handler+0x48>
5000202c:	e59f2028 	ldr	r2, [pc, #40]	; 5000205c <key_3_handler+0x48>
50002030:	e5922000 	ldr	r2, [r2]
50002034:	e3c22004 	bic	r2, r2, #4
50002038:	e5832000 	str	r2, [r3]
5000203c:	ea000004 	b	50002054 <key_3_handler+0x40>
50002040:	e59f3014 	ldr	r3, [pc, #20]	; 5000205c <key_3_handler+0x48>
50002044:	e59f2010 	ldr	r2, [pc, #16]	; 5000205c <key_3_handler+0x48>
50002048:	e5922000 	ldr	r2, [r2]
5000204c:	e3822004 	orr	r2, r2, #4
50002050:	e5832000 	str	r2, [r3]
50002054:	e1a00000 	nop			; (mov r0, r0)
50002058:	e12fff1e 	bx	lr
5000205c:	7f008824 	svcvc	0x00008824

50002060 <key_4_handler>:
50002060:	e59f3040 	ldr	r3, [pc, #64]	; 500020a8 <key_4_handler+0x48>
50002064:	e5933000 	ldr	r3, [r3]
50002068:	e2033008 	and	r3, r3, #8
5000206c:	e3530000 	cmp	r3, #0
50002070:	0a000005 	beq	5000208c <key_4_handler+0x2c>
50002074:	e59f302c 	ldr	r3, [pc, #44]	; 500020a8 <key_4_handler+0x48>
50002078:	e59f2028 	ldr	r2, [pc, #40]	; 500020a8 <key_4_handler+0x48>
5000207c:	e5922000 	ldr	r2, [r2]
50002080:	e3c22008 	bic	r2, r2, #8
50002084:	e5832000 	str	r2, [r3]
50002088:	ea000004 	b	500020a0 <key_4_handler+0x40>
5000208c:	e59f3014 	ldr	r3, [pc, #20]	; 500020a8 <key_4_handler+0x48>
50002090:	e59f2010 	ldr	r2, [pc, #16]	; 500020a8 <key_4_handler+0x48>
50002094:	e5922000 	ldr	r2, [r2]
50002098:	e3822008 	orr	r2, r2, #8
5000209c:	e5832000 	str	r2, [r3]
500020a0:	e1a00000 	nop			; (mov r0, r0)
500020a4:	e12fff1e 	bx	lr
500020a8:	7f008824 	svcvc	0x00008824

500020ac <key_5_handler>:
500020ac:	e92d4008 	push	{r3, lr}
500020b0:	e59f3024 	ldr	r3, [pc, #36]	; 500020dc <key_5_handler+0x30>
500020b4:	e5933000 	ldr	r3, [r3]
500020b8:	e1a037a3 	lsr	r3, r3, #15
500020bc:	e2033001 	and	r3, r3, #1
500020c0:	e3530000 	cmp	r3, #0
500020c4:	0a000001 	beq	500020d0 <key_5_handler+0x24>
500020c8:	ebfffef5 	bl	50001ca4 <turn_off_buzzer>
500020cc:	ea000000 	b	500020d4 <key_5_handler+0x28>
500020d0:	ebfffeeb 	bl	50001c84 <turn_on_buzzer>
500020d4:	e1a00000 	nop			; (mov r0, r0)
500020d8:	e8bd8008 	pop	{r3, pc}
500020dc:	7f0080a4 	svcvc	0x000080a4

500020e0 <key_6_handler>:
500020e0:	e1a00000 	nop			; (mov r0, r0)
500020e4:	e12fff1e 	bx	lr

500020e8 <init_led>:
500020e8:	e59f2058 	ldr	r2, [pc, #88]	; 50002148 <init_led+0x60>
500020ec:	e59f3054 	ldr	r3, [pc, #84]	; 50002148 <init_led+0x60>
500020f0:	e5933000 	ldr	r3, [r3]
500020f4:	e1a03823 	lsr	r3, r3, #16
500020f8:	e1a03803 	lsl	r3, r3, #16
500020fc:	e5823000 	str	r3, [r2]
50002100:	e59f2040 	ldr	r2, [pc, #64]	; 50002148 <init_led+0x60>
50002104:	e59f303c 	ldr	r3, [pc, #60]	; 50002148 <init_led+0x60>
50002108:	e5933000 	ldr	r3, [r3]
5000210c:	e3833c11 	orr	r3, r3, #4352	; 0x1100
50002110:	e3833011 	orr	r3, r3, #17
50002114:	e5823000 	str	r3, [r2]
50002118:	e59f302c 	ldr	r3, [pc, #44]	; 5000214c <init_led+0x64>
5000211c:	e59f2028 	ldr	r2, [pc, #40]	; 5000214c <init_led+0x64>
50002120:	e5922000 	ldr	r2, [r2]
50002124:	e3c220ff 	bic	r2, r2, #255	; 0xff
50002128:	e5832000 	str	r2, [r3]
5000212c:	e59f301c 	ldr	r3, [pc, #28]	; 50002150 <init_led+0x68>
50002130:	e59f2018 	ldr	r2, [pc, #24]	; 50002150 <init_led+0x68>
50002134:	e5922000 	ldr	r2, [r2]
50002138:	e382200f 	orr	r2, r2, #15
5000213c:	e5832000 	str	r2, [r3]
50002140:	e1a00000 	nop			; (mov r0, r0)
50002144:	e12fff1e 	bx	lr
50002148:	7f008820 	svcvc	0x00008820
5000214c:	7f008828 	svcvc	0x00008828
50002150:	7f008824 	svcvc	0x00008824

50002154 <all_leds_on>:
50002154:	e59f3014 	ldr	r3, [pc, #20]	; 50002170 <all_leds_on+0x1c>
50002158:	e59f2010 	ldr	r2, [pc, #16]	; 50002170 <all_leds_on+0x1c>
5000215c:	e5922000 	ldr	r2, [r2]
50002160:	e3c2200f 	bic	r2, r2, #15
50002164:	e5832000 	str	r2, [r3]
50002168:	e1a00000 	nop			; (mov r0, r0)
5000216c:	e12fff1e 	bx	lr
50002170:	7f008824 	svcvc	0x00008824

50002174 <all_leds_off>:
50002174:	e59f3014 	ldr	r3, [pc, #20]	; 50002190 <all_leds_off+0x1c>
50002178:	e59f2010 	ldr	r2, [pc, #16]	; 50002190 <all_leds_off+0x1c>
5000217c:	e5922000 	ldr	r2, [r2]
50002180:	e382200f 	orr	r2, r2, #15
50002184:	e5832000 	str	r2, [r3]
50002188:	e1a00000 	nop			; (mov r0, r0)
5000218c:	e12fff1e 	bx	lr
50002190:	7f008824 	svcvc	0x00008824

50002194 <set_led_1>:
50002194:	e24dd008 	sub	sp, sp, #8
50002198:	e58d0004 	str	r0, [sp, #4]
5000219c:	e59d3004 	ldr	r3, [sp, #4]
500021a0:	e3530000 	cmp	r3, #0
500021a4:	1a000005 	bne	500021c0 <set_led_1+0x2c>
500021a8:	e59f3030 	ldr	r3, [pc, #48]	; 500021e0 <set_led_1+0x4c>
500021ac:	e59f202c 	ldr	r2, [pc, #44]	; 500021e0 <set_led_1+0x4c>
500021b0:	e5922000 	ldr	r2, [r2]
500021b4:	e3c22001 	bic	r2, r2, #1
500021b8:	e5832000 	str	r2, [r3]
500021bc:	ea000004 	b	500021d4 <set_led_1+0x40>
500021c0:	e59f3018 	ldr	r3, [pc, #24]	; 500021e0 <set_led_1+0x4c>
500021c4:	e59f2014 	ldr	r2, [pc, #20]	; 500021e0 <set_led_1+0x4c>
500021c8:	e5922000 	ldr	r2, [r2]
500021cc:	e3822001 	orr	r2, r2, #1
500021d0:	e5832000 	str	r2, [r3]
500021d4:	e1a00000 	nop			; (mov r0, r0)
500021d8:	e28dd008 	add	sp, sp, #8
500021dc:	e12fff1e 	bx	lr
500021e0:	7f008824 	svcvc	0x00008824

500021e4 <set_led_2>:
500021e4:	e24dd008 	sub	sp, sp, #8
500021e8:	e58d0004 	str	r0, [sp, #4]
500021ec:	e59d3004 	ldr	r3, [sp, #4]
500021f0:	e3530000 	cmp	r3, #0
500021f4:	1a000005 	bne	50002210 <set_led_2+0x2c>
500021f8:	e59f3030 	ldr	r3, [pc, #48]	; 50002230 <set_led_2+0x4c>
500021fc:	e59f202c 	ldr	r2, [pc, #44]	; 50002230 <set_led_2+0x4c>
50002200:	e5922000 	ldr	r2, [r2]
50002204:	e3c22002 	bic	r2, r2, #2
50002208:	e5832000 	str	r2, [r3]
5000220c:	ea000004 	b	50002224 <set_led_2+0x40>
50002210:	e59f3018 	ldr	r3, [pc, #24]	; 50002230 <set_led_2+0x4c>
50002214:	e59f2014 	ldr	r2, [pc, #20]	; 50002230 <set_led_2+0x4c>
50002218:	e5922000 	ldr	r2, [r2]
5000221c:	e3822002 	orr	r2, r2, #2
50002220:	e5832000 	str	r2, [r3]
50002224:	e1a00000 	nop			; (mov r0, r0)
50002228:	e28dd008 	add	sp, sp, #8
5000222c:	e12fff1e 	bx	lr
50002230:	7f008824 	svcvc	0x00008824

50002234 <set_led_3>:
50002234:	e24dd008 	sub	sp, sp, #8
50002238:	e58d0004 	str	r0, [sp, #4]
5000223c:	e59d3004 	ldr	r3, [sp, #4]
50002240:	e3530000 	cmp	r3, #0
50002244:	1a000005 	bne	50002260 <set_led_3+0x2c>
50002248:	e59f3030 	ldr	r3, [pc, #48]	; 50002280 <set_led_3+0x4c>
5000224c:	e59f202c 	ldr	r2, [pc, #44]	; 50002280 <set_led_3+0x4c>
50002250:	e5922000 	ldr	r2, [r2]
50002254:	e3c22004 	bic	r2, r2, #4
50002258:	e5832000 	str	r2, [r3]
5000225c:	ea000004 	b	50002274 <set_led_3+0x40>
50002260:	e59f3018 	ldr	r3, [pc, #24]	; 50002280 <set_led_3+0x4c>
50002264:	e59f2014 	ldr	r2, [pc, #20]	; 50002280 <set_led_3+0x4c>
50002268:	e5922000 	ldr	r2, [r2]
5000226c:	e3822004 	orr	r2, r2, #4
50002270:	e5832000 	str	r2, [r3]
50002274:	e1a00000 	nop			; (mov r0, r0)
50002278:	e28dd008 	add	sp, sp, #8
5000227c:	e12fff1e 	bx	lr
50002280:	7f008824 	svcvc	0x00008824

50002284 <set_led_4>:
50002284:	e24dd008 	sub	sp, sp, #8
50002288:	e58d0004 	str	r0, [sp, #4]
5000228c:	e59d3004 	ldr	r3, [sp, #4]
50002290:	e3530000 	cmp	r3, #0
50002294:	1a000005 	bne	500022b0 <set_led_4+0x2c>
50002298:	e59f3030 	ldr	r3, [pc, #48]	; 500022d0 <set_led_4+0x4c>
5000229c:	e59f202c 	ldr	r2, [pc, #44]	; 500022d0 <set_led_4+0x4c>
500022a0:	e5922000 	ldr	r2, [r2]
500022a4:	e3c22008 	bic	r2, r2, #8
500022a8:	e5832000 	str	r2, [r3]
500022ac:	ea000004 	b	500022c4 <set_led_4+0x40>
500022b0:	e59f3018 	ldr	r3, [pc, #24]	; 500022d0 <set_led_4+0x4c>
500022b4:	e59f2014 	ldr	r2, [pc, #20]	; 500022d0 <set_led_4+0x4c>
500022b8:	e5922000 	ldr	r2, [r2]
500022bc:	e3822008 	orr	r2, r2, #8
500022c0:	e5832000 	str	r2, [r3]
500022c4:	e1a00000 	nop			; (mov r0, r0)
500022c8:	e28dd008 	add	sp, sp, #8
500022cc:	e12fff1e 	bx	lr
500022d0:	7f008824 	svcvc	0x00008824

500022d4 <main>:
500022d4:	e92d4010 	push	{r4, lr}
500022d8:	e24dd058 	sub	sp, sp, #88	; 0x58
500022dc:	eb0001a8 	bl	50002984 <create_page_table>
500022e0:	eb00021f 	bl	50002b64 <enable_mmu>
500022e4:	ebfffb96 	bl	50001144 <init_uart>
500022e8:	ebfffe96 	bl	50001d48 <init_key>
500022ec:	ebffff7d 	bl	500020e8 <init_led>
500022f0:	ebfffe50 	bl	50001c38 <init_buzzer>
500022f4:	eb00059d 	bl	50003970 <init_pwm>
500022f8:	eb00023b 	bl	50002bec <init_schedule>
500022fc:	e321f01f 	msr	CPSR_c, #31
50002300:	e321f010 	msr	CPSR_c, #16
50002304:	e59f0168 	ldr	r0, [pc, #360]	; 50002474 <main+0x1a0>
50002308:	ebfffbd1 	bl	50001254 <uart_puts>
5000230c:	e59f0164 	ldr	r0, [pc, #356]	; 50002478 <main+0x1a4>
50002310:	ebfffbcf 	bl	50001254 <uart_puts>
50002314:	e59f0160 	ldr	r0, [pc, #352]	; 5000247c <main+0x1a8>
50002318:	ebfffbcd 	bl	50001254 <uart_puts>
5000231c:	e59f015c 	ldr	r0, [pc, #348]	; 50002480 <main+0x1ac>
50002320:	ebfffbcb 	bl	50001254 <uart_puts>
50002324:	e59f0158 	ldr	r0, [pc, #344]	; 50002484 <main+0x1b0>
50002328:	ebfffbc9 	bl	50001254 <uart_puts>
5000232c:	e59f0154 	ldr	r0, [pc, #340]	; 50002488 <main+0x1b4>
50002330:	ebfffbc7 	bl	50001254 <uart_puts>
50002334:	e59f0150 	ldr	r0, [pc, #336]	; 5000248c <main+0x1b8>
50002338:	ebfffbc5 	bl	50001254 <uart_puts>
5000233c:	e59f014c 	ldr	r0, [pc, #332]	; 50002490 <main+0x1bc>
50002340:	ebfffbc3 	bl	50001254 <uart_puts>
50002344:	e59f0148 	ldr	r0, [pc, #328]	; 50002494 <main+0x1c0>
50002348:	ebfffbc1 	bl	50001254 <uart_puts>
5000234c:	e59f0144 	ldr	r0, [pc, #324]	; 50002498 <main+0x1c4>
50002350:	ebfffbbf 	bl	50001254 <uart_puts>
50002354:	e59f011c 	ldr	r0, [pc, #284]	; 50002478 <main+0x1a4>
50002358:	ebfffbbd 	bl	50001254 <uart_puts>
5000235c:	e59f0138 	ldr	r0, [pc, #312]	; 5000249c <main+0x1c8>
50002360:	ebfffbd5 	bl	500012bc <uart_printf>
50002364:	ebfffc62 	bl	500014f4 <uart_getc>
50002368:	e1a03000 	mov	r3, r0
5000236c:	e5cd3057 	strb	r3, [sp, #87]	; 0x57
50002370:	e59f0128 	ldr	r0, [pc, #296]	; 500024a0 <main+0x1cc>
50002374:	ebfffbb6 	bl	50001254 <uart_puts>
50002378:	e5dd3057 	ldrb	r3, [sp, #87]	; 0x57
5000237c:	e2433061 	sub	r3, r3, #97	; 0x61
50002380:	e3530019 	cmp	r3, #25
50002384:	979ff103 	ldrls	pc, [pc, r3, lsl #2]
50002388:	ea000037 	b	5000246c <main+0x198>
5000238c:	500023f4 	strdpl	r2, [r0], -r4
50002390:	500023fc 	strdpl	r2, [r0], -ip
50002394:	50002420 	andpl	r2, r0, r0, lsr #8
50002398:	50002428 	andpl	r2, r0, r8, lsr #8
5000239c:	5000246c 	andpl	r2, r0, ip, ror #8
500023a0:	5000246c 	andpl	r2, r0, ip, ror #8
500023a4:	5000246c 	andpl	r2, r0, ip, ror #8
500023a8:	5000246c 	andpl	r2, r0, ip, ror #8
500023ac:	5000246c 	andpl	r2, r0, ip, ror #8
500023b0:	5000246c 	andpl	r2, r0, ip, ror #8
500023b4:	5000246c 	andpl	r2, r0, ip, ror #8
500023b8:	5000246c 	andpl	r2, r0, ip, ror #8
500023bc:	5000246c 	andpl	r2, r0, ip, ror #8
500023c0:	5000246c 	andpl	r2, r0, ip, ror #8
500023c4:	5000246c 	andpl	r2, r0, ip, ror #8
500023c8:	5000246c 	andpl	r2, r0, ip, ror #8
500023cc:	5000246c 	andpl	r2, r0, ip, ror #8
500023d0:	5000246c 	andpl	r2, r0, ip, ror #8
500023d4:	5000246c 	andpl	r2, r0, ip, ror #8
500023d8:	5000246c 	andpl	r2, r0, ip, ror #8
500023dc:	5000246c 	andpl	r2, r0, ip, ror #8
500023e0:	5000246c 	andpl	r2, r0, ip, ror #8
500023e4:	50002430 	andpl	r2, r0, r0, lsr r4
500023e8:	50002438 	andpl	r2, r0, r8, lsr r4
500023ec:	50002440 	andpl	r2, r0, r0, asr #8
500023f0:	50002464 	andpl	r2, r0, r4, ror #8
500023f4:	eb00002b 	bl	500024a8 <update_program>
500023f8:	ea00001c 	b	50002470 <main+0x19c>
500023fc:	e59f0098 	ldr	r0, [pc, #152]	; 5000249c <main+0x1c8>
50002400:	ebfffbad 	bl	500012bc <uart_printf>
50002404:	e1a0300d 	mov	r3, sp
50002408:	e1a00003 	mov	r0, r3
5000240c:	ebfffccc 	bl	50001744 <uart_gets>
50002410:	e1a0300d 	mov	r3, sp
50002414:	e1a00003 	mov	r0, r3
50002418:	eb00036c 	bl	500031d0 <create_process>
5000241c:	ea000013 	b	50002470 <main+0x19c>
50002420:	eb0001ed 	bl	50002bdc <leds_on>
50002424:	ea000011 	b	50002470 <main+0x19c>
50002428:	eb0001ed 	bl	50002be4 <leds_off>
5000242c:	ea00000f 	b	50002470 <main+0x19c>
50002430:	eb00013d 	bl	5000292c <read_nand>
50002434:	ea00000d 	b	50002470 <main+0x19c>
50002438:	eb00012d 	bl	500028f4 <test_nand>
5000243c:	ea00000b 	b	50002470 <main+0x19c>
50002440:	e10f0000 	mrs	r0, CPSR
50002444:	e1a04000 	mov	r4, r0
50002448:	e58d4050 	str	r4, [sp, #80]	; 0x50
5000244c:	e59f0050 	ldr	r0, [pc, #80]	; 500024a4 <main+0x1d0>
50002450:	ebfffb99 	bl	500012bc <uart_printf>
50002454:	e59d3050 	ldr	r3, [sp, #80]	; 0x50
50002458:	e1a00003 	mov	r0, r3
5000245c:	ebfffbe9 	bl	50001408 <uart_print_hex>
50002460:	ea000002 	b	50002470 <main+0x19c>
50002464:	eb0008b3 	bl	50004738 <reboot>
50002468:	ea000000 	b	50002470 <main+0x19c>
5000246c:	e1a00000 	nop			; (mov r0, r0)
50002470:	eaffffa3 	b	50002304 <main+0x30>
50002474:	500047a0 	andpl	r4, r0, r0, lsr #15
50002478:	500047a4 	andpl	r4, r0, r4, lsr #15
5000247c:	500047b8 			; <UNDEFINED> instruction: 0x500047b8
50002480:	500047cc 	andpl	r4, r0, ip, asr #15
50002484:	500047e4 	andpl	r4, r0, r4, ror #15
50002488:	500047f0 	strdpl	r4, [r0], -r0
5000248c:	50004800 	andpl	r4, r0, r0, lsl #16
50002490:	50004810 	andpl	r4, r0, r0, lsl r8
50002494:	50004820 	andpl	r4, r0, r0, lsr #16
50002498:	50004834 	andpl	r4, r0, r4, lsr r8
5000249c:	50004840 	andpl	r4, r0, r0, asr #16
500024a0:	50004848 	andpl	r4, r0, r8, asr #16
500024a4:	5000484c 	andpl	r4, r0, ip, asr #16

500024a8 <update_program>:
500024a8:	e52de004 	push	{lr}		; (str lr, [sp, #-4]!)
500024ac:	e24dd01c 	sub	sp, sp, #28
500024b0:	eb0001c3 	bl	50002bc4 <OS_ENTER_CRITICAL>
500024b4:	e59f31e8 	ldr	r3, [pc, #488]	; 500026a4 <update_program+0x1fc>
500024b8:	e58d3008 	str	r3, [sp, #8]
500024bc:	e59d3008 	ldr	r3, [sp, #8]
500024c0:	e58d3004 	str	r3, [sp, #4]
500024c4:	e3a03000 	mov	r3, #0
500024c8:	e58d3014 	str	r3, [sp, #20]
500024cc:	e3a03000 	mov	r3, #0
500024d0:	e58d3010 	str	r3, [sp, #16]
500024d4:	e3a03000 	mov	r3, #0
500024d8:	e58d300c 	str	r3, [sp, #12]
500024dc:	e59f01c4 	ldr	r0, [pc, #452]	; 500026a8 <update_program+0x200>
500024e0:	ebfffb5b 	bl	50001254 <uart_puts>
500024e4:	ea000000 	b	500024ec <update_program+0x44>
500024e8:	e1a00000 	nop			; (mov r0, r0)
500024ec:	e59d300c 	ldr	r3, [sp, #12]
500024f0:	e59d2004 	ldr	r2, [sp, #4]
500024f4:	e0823003 	add	r3, r2, r3
500024f8:	e1a00003 	mov	r0, r3
500024fc:	ebfffdad 	bl	50001bb8 <uart_get_file>
50002500:	e1a03000 	mov	r3, r0
50002504:	e3530000 	cmp	r3, #0
50002508:	0a000007 	beq	5000252c <update_program+0x84>
5000250c:	e3a03001 	mov	r3, #1
50002510:	e58d3010 	str	r3, [sp, #16]
50002514:	e3a03000 	mov	r3, #0
50002518:	e58d3014 	str	r3, [sp, #20]
5000251c:	e59d300c 	ldr	r3, [sp, #12]
50002520:	e2833001 	add	r3, r3, #1
50002524:	e58d300c 	str	r3, [sp, #12]
50002528:	ea000005 	b	50002544 <update_program+0x9c>
5000252c:	e59d3010 	ldr	r3, [sp, #16]
50002530:	e3530000 	cmp	r3, #0
50002534:	0a000002 	beq	50002544 <update_program+0x9c>
50002538:	e59d3014 	ldr	r3, [sp, #20]
5000253c:	e2833001 	add	r3, r3, #1
50002540:	e58d3014 	str	r3, [sp, #20]
50002544:	e59d2014 	ldr	r2, [sp, #20]
50002548:	e3e034ff 	mvn	r3, #-16777216	; 0xff000000
5000254c:	e1520003 	cmp	r2, r3
50002550:	1affffe4 	bne	500024e8 <update_program+0x40>
50002554:	e1a00000 	nop			; (mov r0, r0)
50002558:	e59d300c 	ldr	r3, [sp, #12]
5000255c:	e3530000 	cmp	r3, #0
50002560:	1a000003 	bne	50002574 <update_program+0xcc>
50002564:	e59f0140 	ldr	r0, [pc, #320]	; 500026ac <update_program+0x204>
50002568:	ebfffb39 	bl	50001254 <uart_puts>
5000256c:	e3e03000 	mvn	r3, #0
50002570:	ea000048 	b	50002698 <update_program+0x1f0>
50002574:	e59f0134 	ldr	r0, [pc, #308]	; 500026b0 <update_program+0x208>
50002578:	ebfffb4f 	bl	500012bc <uart_printf>
5000257c:	e59d000c 	ldr	r0, [sp, #12]
50002580:	ebfffd49 	bl	50001aac <uart_print_int>
50002584:	e59f0128 	ldr	r0, [pc, #296]	; 500026b4 <update_program+0x20c>
50002588:	ebfffb4b 	bl	500012bc <uart_printf>
5000258c:	e59f0124 	ldr	r0, [pc, #292]	; 500026b8 <update_program+0x210>
50002590:	ebfffb49 	bl	500012bc <uart_printf>
50002594:	e59d3008 	ldr	r3, [sp, #8]
50002598:	e283300f 	add	r3, r3, #15
5000259c:	e59d0008 	ldr	r0, [sp, #8]
500025a0:	e1a01003 	mov	r1, r3
500025a4:	ebfff7dd 	bl	50000520 <sdram_read>
500025a8:	e59f010c 	ldr	r0, [pc, #268]	; 500026bc <update_program+0x214>
500025ac:	ebfffb42 	bl	500012bc <uart_printf>
500025b0:	e59d200c 	ldr	r2, [sp, #12]
500025b4:	e59d3008 	ldr	r3, [sp, #8]
500025b8:	e0823003 	add	r3, r2, r3
500025bc:	e2432010 	sub	r2, r3, #16
500025c0:	e59d100c 	ldr	r1, [sp, #12]
500025c4:	e59d3008 	ldr	r3, [sp, #8]
500025c8:	e0813003 	add	r3, r1, r3
500025cc:	e2433001 	sub	r3, r3, #1
500025d0:	e1a00002 	mov	r0, r2
500025d4:	e1a01003 	mov	r1, r3
500025d8:	ebfff7d0 	bl	50000520 <sdram_read>
500025dc:	e59f00dc 	ldr	r0, [pc, #220]	; 500026c0 <update_program+0x218>
500025e0:	ebfffb1b 	bl	50001254 <uart_puts>
500025e4:	e59f00d8 	ldr	r0, [pc, #216]	; 500026c4 <update_program+0x21c>
500025e8:	ebfffb33 	bl	500012bc <uart_printf>
500025ec:	ebfffbc0 	bl	500014f4 <uart_getc>
500025f0:	e1a03000 	mov	r3, r0
500025f4:	e5cd3003 	strb	r3, [sp, #3]
500025f8:	e59f00c8 	ldr	r0, [pc, #200]	; 500026c8 <update_program+0x220>
500025fc:	ebfffb14 	bl	50001254 <uart_puts>
50002600:	e5dd3003 	ldrb	r3, [sp, #3]
50002604:	e3530059 	cmp	r3, #89	; 0x59
50002608:	0a000006 	beq	50002628 <update_program+0x180>
5000260c:	e5dd3003 	ldrb	r3, [sp, #3]
50002610:	e3530079 	cmp	r3, #121	; 0x79
50002614:	0a000003 	beq	50002628 <update_program+0x180>
50002618:	e59f00ac 	ldr	r0, [pc, #172]	; 500026cc <update_program+0x224>
5000261c:	ebfffb0c 	bl	50001254 <uart_puts>
50002620:	e3e03000 	mvn	r3, #0
50002624:	ea00001b 	b	50002698 <update_program+0x1f0>
50002628:	e59f00a0 	ldr	r0, [pc, #160]	; 500026d0 <update_program+0x228>
5000262c:	ebfffb08 	bl	50001254 <uart_puts>
50002630:	e3a00000 	mov	r0, #0
50002634:	ebfff97c 	bl	50000c2c <nand_erase_block>
50002638:	e59d300c 	ldr	r3, [sp, #12]
5000263c:	e59d0008 	ldr	r0, [sp, #8]
50002640:	e1a01003 	mov	r1, r3
50002644:	ebfff9aa 	bl	50000cf4 <write_to_boot>
50002648:	e59f0084 	ldr	r0, [pc, #132]	; 500026d4 <update_program+0x22c>
5000264c:	ebfffb00 	bl	50001254 <uart_puts>
50002650:	e59f0080 	ldr	r0, [pc, #128]	; 500026d8 <update_program+0x230>
50002654:	ebfffafe 	bl	50001254 <uart_puts>
50002658:	e59f0064 	ldr	r0, [pc, #100]	; 500026c4 <update_program+0x21c>
5000265c:	ebfffb16 	bl	500012bc <uart_printf>
50002660:	ebfffba3 	bl	500014f4 <uart_getc>
50002664:	e1a03000 	mov	r3, r0
50002668:	e5cd3003 	strb	r3, [sp, #3]
5000266c:	e5dd3003 	ldrb	r3, [sp, #3]
50002670:	e3530059 	cmp	r3, #89	; 0x59
50002674:	0a000002 	beq	50002684 <update_program+0x1dc>
50002678:	e5dd3003 	ldrb	r3, [sp, #3]
5000267c:	e3530079 	cmp	r3, #121	; 0x79
50002680:	1a000002 	bne	50002690 <update_program+0x1e8>
50002684:	e3a00000 	mov	r0, #0
50002688:	e3a01a05 	mov	r1, #20480	; 0x5000
5000268c:	ebfff8cd 	bl	500009c8 <nand_read>
50002690:	eb00014d 	bl	50002bcc <OS_EXIT_CRITICAL>
50002694:	e3a03000 	mov	r3, #0
50002698:	e1a00003 	mov	r0, r3
5000269c:	e28dd01c 	add	sp, sp, #28
500026a0:	e8bd8000 	ldmfd	sp!, {pc}
500026a4:	5fc00000 	svcpl	0x00c00000
500026a8:	50004858 	andpl	r4, r0, r8, asr r8
500026ac:	50004880 	andpl	r4, r0, r0, lsl #17
500026b0:	50004894 	mulpl	r0, r4, r8
500026b4:	500048a0 	andpl	r4, r0, r0, lsr #17
500026b8:	500048b0 			; <UNDEFINED> instruction: 0x500048b0
500026bc:	500048c8 	andpl	r4, r0, r8, asr #17
500026c0:	500048e0 	andpl	r4, r0, r0, ror #17
500026c4:	50004840 	andpl	r4, r0, r0, asr #16
500026c8:	50004848 	andpl	r4, r0, r8, asr #16
500026cc:	50004908 	andpl	r4, r0, r8, lsl #18
500026d0:	50004920 	andpl	r4, r0, r0, lsr #18
500026d4:	50004930 	andpl	r4, r0, r0, lsr r9
500026d8:	50004940 	andpl	r4, r0, r0, asr #18

500026dc <copy_program>:
500026dc:	e52de004 	push	{lr}		; (str lr, [sp, #-4]!)
500026e0:	e24dd02c 	sub	sp, sp, #44	; 0x2c
500026e4:	e58d0004 	str	r0, [sp, #4]
500026e8:	e59f31d4 	ldr	r3, [pc, #468]	; 500028c4 <copy_program+0x1e8>
500026ec:	e58d3010 	str	r3, [sp, #16]
500026f0:	e59d3010 	ldr	r3, [sp, #16]
500026f4:	e58d300c 	str	r3, [sp, #12]
500026f8:	e3a03000 	mov	r3, #0
500026fc:	e58d3024 	str	r3, [sp, #36]	; 0x24
50002700:	e3a03000 	mov	r3, #0
50002704:	e58d3020 	str	r3, [sp, #32]
50002708:	e3a03000 	mov	r3, #0
5000270c:	e58d301c 	str	r3, [sp, #28]
50002710:	e59f01b0 	ldr	r0, [pc, #432]	; 500028c8 <copy_program+0x1ec>
50002714:	ebffface 	bl	50001254 <uart_puts>
50002718:	ea000000 	b	50002720 <copy_program+0x44>
5000271c:	e1a00000 	nop			; (mov r0, r0)
50002720:	e59d301c 	ldr	r3, [sp, #28]
50002724:	e59d200c 	ldr	r2, [sp, #12]
50002728:	e0823003 	add	r3, r2, r3
5000272c:	e1a00003 	mov	r0, r3
50002730:	ebfffd20 	bl	50001bb8 <uart_get_file>
50002734:	e1a03000 	mov	r3, r0
50002738:	e3530000 	cmp	r3, #0
5000273c:	0a000007 	beq	50002760 <copy_program+0x84>
50002740:	e3a03001 	mov	r3, #1
50002744:	e58d3020 	str	r3, [sp, #32]
50002748:	e3a03000 	mov	r3, #0
5000274c:	e58d3024 	str	r3, [sp, #36]	; 0x24
50002750:	e59d301c 	ldr	r3, [sp, #28]
50002754:	e2833001 	add	r3, r3, #1
50002758:	e58d301c 	str	r3, [sp, #28]
5000275c:	ea000005 	b	50002778 <copy_program+0x9c>
50002760:	e59d3020 	ldr	r3, [sp, #32]
50002764:	e3530000 	cmp	r3, #0
50002768:	0a000002 	beq	50002778 <copy_program+0x9c>
5000276c:	e59d3024 	ldr	r3, [sp, #36]	; 0x24
50002770:	e2833001 	add	r3, r3, #1
50002774:	e58d3024 	str	r3, [sp, #36]	; 0x24
50002778:	e59d2024 	ldr	r2, [sp, #36]	; 0x24
5000277c:	e3e034ff 	mvn	r3, #-16777216	; 0xff000000
50002780:	e1520003 	cmp	r2, r3
50002784:	1affffe4 	bne	5000271c <copy_program+0x40>
50002788:	e1a00000 	nop			; (mov r0, r0)
5000278c:	e59d301c 	ldr	r3, [sp, #28]
50002790:	e3530000 	cmp	r3, #0
50002794:	1a000002 	bne	500027a4 <copy_program+0xc8>
50002798:	e59f012c 	ldr	r0, [pc, #300]	; 500028cc <copy_program+0x1f0>
5000279c:	ebfffaac 	bl	50001254 <uart_puts>
500027a0:	ea000045 	b	500028bc <copy_program+0x1e0>
500027a4:	e59f0124 	ldr	r0, [pc, #292]	; 500028d0 <copy_program+0x1f4>
500027a8:	ebfffac3 	bl	500012bc <uart_printf>
500027ac:	e59d001c 	ldr	r0, [sp, #28]
500027b0:	ebfffcbd 	bl	50001aac <uart_print_int>
500027b4:	e59f0118 	ldr	r0, [pc, #280]	; 500028d4 <copy_program+0x1f8>
500027b8:	ebfffabf 	bl	500012bc <uart_printf>
500027bc:	e59f0114 	ldr	r0, [pc, #276]	; 500028d8 <copy_program+0x1fc>
500027c0:	ebfffabd 	bl	500012bc <uart_printf>
500027c4:	e59d3010 	ldr	r3, [sp, #16]
500027c8:	e283300f 	add	r3, r3, #15
500027cc:	e59d0010 	ldr	r0, [sp, #16]
500027d0:	e1a01003 	mov	r1, r3
500027d4:	ebfff751 	bl	50000520 <sdram_read>
500027d8:	e59f00fc 	ldr	r0, [pc, #252]	; 500028dc <copy_program+0x200>
500027dc:	ebfffab6 	bl	500012bc <uart_printf>
500027e0:	e59d201c 	ldr	r2, [sp, #28]
500027e4:	e59d3010 	ldr	r3, [sp, #16]
500027e8:	e0823003 	add	r3, r2, r3
500027ec:	e2432010 	sub	r2, r3, #16
500027f0:	e59d101c 	ldr	r1, [sp, #28]
500027f4:	e59d3010 	ldr	r3, [sp, #16]
500027f8:	e0813003 	add	r3, r1, r3
500027fc:	e2433001 	sub	r3, r3, #1
50002800:	e1a00002 	mov	r0, r2
50002804:	e1a01003 	mov	r1, r3
50002808:	ebfff744 	bl	50000520 <sdram_read>
5000280c:	e59f00cc 	ldr	r0, [pc, #204]	; 500028e0 <copy_program+0x204>
50002810:	ebfffa8f 	bl	50001254 <uart_puts>
50002814:	e59f00c8 	ldr	r0, [pc, #200]	; 500028e4 <copy_program+0x208>
50002818:	ebfffaa7 	bl	500012bc <uart_printf>
5000281c:	ebfffb34 	bl	500014f4 <uart_getc>
50002820:	e1a03000 	mov	r3, r0
50002824:	e5cd300b 	strb	r3, [sp, #11]
50002828:	e59f00b8 	ldr	r0, [pc, #184]	; 500028e8 <copy_program+0x20c>
5000282c:	ebfffa88 	bl	50001254 <uart_puts>
50002830:	e5dd300b 	ldrb	r3, [sp, #11]
50002834:	e3530059 	cmp	r3, #89	; 0x59
50002838:	0a000005 	beq	50002854 <copy_program+0x178>
5000283c:	e5dd300b 	ldrb	r3, [sp, #11]
50002840:	e3530079 	cmp	r3, #121	; 0x79
50002844:	0a000002 	beq	50002854 <copy_program+0x178>
50002848:	e59f009c 	ldr	r0, [pc, #156]	; 500028ec <copy_program+0x210>
5000284c:	ebfffa80 	bl	50001254 <uart_puts>
50002850:	ea000019 	b	500028bc <copy_program+0x1e0>
50002854:	e59f0094 	ldr	r0, [pc, #148]	; 500028f0 <copy_program+0x214>
50002858:	ebfffa7d 	bl	50001254 <uart_puts>
5000285c:	e59d3010 	ldr	r3, [sp, #16]
50002860:	e58d3018 	str	r3, [sp, #24]
50002864:	e3a03000 	mov	r3, #0
50002868:	e58d3014 	str	r3, [sp, #20]
5000286c:	e59d201c 	ldr	r2, [sp, #28]
50002870:	e59d3014 	ldr	r3, [sp, #20]
50002874:	e1520003 	cmp	r2, r3
50002878:	9a00000d 	bls	500028b4 <copy_program+0x1d8>
5000287c:	e59d3018 	ldr	r3, [sp, #24]
50002880:	e5932000 	ldr	r2, [r3]
50002884:	e59d3004 	ldr	r3, [sp, #4]
50002888:	e5832000 	str	r2, [r3]
5000288c:	e59d3004 	ldr	r3, [sp, #4]
50002890:	e2833004 	add	r3, r3, #4
50002894:	e58d3004 	str	r3, [sp, #4]
50002898:	e59d3018 	ldr	r3, [sp, #24]
5000289c:	e2833004 	add	r3, r3, #4
500028a0:	e58d3018 	str	r3, [sp, #24]
500028a4:	e59d3014 	ldr	r3, [sp, #20]
500028a8:	e2833004 	add	r3, r3, #4
500028ac:	e58d3014 	str	r3, [sp, #20]
500028b0:	eaffffed 	b	5000286c <copy_program+0x190>
500028b4:	e1a00000 	nop			; (mov r0, r0)
500028b8:	e1a00000 	nop			; (mov r0, r0)
500028bc:	e28dd02c 	add	sp, sp, #44	; 0x2c
500028c0:	e8bd8000 	ldmfd	sp!, {pc}
500028c4:	5fc00000 	svcpl	0x00c00000
500028c8:	50004968 	andpl	r4, r0, r8, ror #18
500028cc:	50004998 	mulpl	r0, r8, r9
500028d0:	50004894 	mulpl	r0, r4, r8
500028d4:	500048a0 	andpl	r4, r0, r0, lsr #17
500028d8:	500048b0 			; <UNDEFINED> instruction: 0x500048b0
500028dc:	500048c8 	andpl	r4, r0, r8, asr #17
500028e0:	500049ac 	andpl	r4, r0, ip, lsr #19
500028e4:	50004840 	andpl	r4, r0, r0, asr #16
500028e8:	50004848 	andpl	r4, r0, r8, asr #16
500028ec:	50004908 	andpl	r4, r0, r8, lsl #18
500028f0:	500049d4 	ldrdpl	r4, [r0], -r4	; <UNPREDICTABLE>

500028f4 <test_nand>:
500028f4:	e52de004 	push	{lr}		; (str lr, [sp, #-4]!)
500028f8:	e24dd00c 	sub	sp, sp, #12
500028fc:	e59f3024 	ldr	r3, [pc, #36]	; 50002928 <test_nand+0x34>
50002900:	e58d3004 	str	r3, [sp, #4]
50002904:	e59d0004 	ldr	r0, [sp, #4]
50002908:	ebfff8c7 	bl	50000c2c <nand_erase_block>
5000290c:	e3a00205 	mov	r0, #1342177280	; 0x50000000
50002910:	e59d1004 	ldr	r1, [sp, #4]
50002914:	e3a02a01 	mov	r2, #4096	; 0x1000
50002918:	ebfff974 	bl	50000ef0 <write_to_nand>
5000291c:	e1a00000 	nop			; (mov r0, r0)
50002920:	e28dd00c 	add	sp, sp, #12
50002924:	e8bd8000 	ldmfd	sp!, {pc}
50002928:	fffff000 			; <UNDEFINED> instruction: 0xfffff000

5000292c <read_nand>:
5000292c:	e52de004 	push	{lr}		; (str lr, [sp, #-4]!)
50002930:	e24dd00c 	sub	sp, sp, #12
50002934:	e59f0040 	ldr	r0, [pc, #64]	; 5000297c <read_nand+0x50>
50002938:	ebfffa5f 	bl	500012bc <uart_printf>
5000293c:	ebfffc12 	bl	5000198c <uart_get_int>
50002940:	e58d0004 	str	r0, [sp, #4]
50002944:	e59f0034 	ldr	r0, [pc, #52]	; 50002980 <read_nand+0x54>
50002948:	ebfffa41 	bl	50001254 <uart_puts>
5000294c:	e59d3004 	ldr	r3, [sp, #4]
50002950:	e1a03603 	lsl	r3, r3, #12
50002954:	e1a02003 	mov	r2, r3
50002958:	e59d3004 	ldr	r3, [sp, #4]
5000295c:	e2833001 	add	r3, r3, #1
50002960:	e1a03603 	lsl	r3, r3, #12
50002964:	e1a00002 	mov	r0, r2
50002968:	e1a01003 	mov	r1, r3
5000296c:	ebfff815 	bl	500009c8 <nand_read>
50002970:	e1a00000 	nop			; (mov r0, r0)
50002974:	e28dd00c 	add	sp, sp, #12
50002978:	e8bd8000 	ldmfd	sp!, {pc}
5000297c:	500049e8 	andpl	r4, r0, r8, ror #19
50002980:	50004848 	andpl	r4, r0, r8, asr #16

50002984 <create_page_table>:
50002984:	e24dd018 	sub	sp, sp, #24
50002988:	e59f31cc 	ldr	r3, [pc, #460]	; 50002b5c <create_page_table+0x1d8>
5000298c:	e58d3000 	str	r3, [sp]
50002990:	e59d3000 	ldr	r3, [sp]
50002994:	e59f21c4 	ldr	r2, [pc, #452]	; 50002b60 <create_page_table+0x1dc>
50002998:	e5832000 	str	r2, [r3]
5000299c:	e3a03205 	mov	r3, #1342177280	; 0x50000000
500029a0:	e58d3014 	str	r3, [sp, #20]
500029a4:	ea00000d 	b	500029e0 <create_page_table+0x5c>
500029a8:	e59d3014 	ldr	r3, [sp, #20]
500029ac:	e1a03a23 	lsr	r3, r3, #20
500029b0:	e1a03103 	lsl	r3, r3, #2
500029b4:	e59d2000 	ldr	r2, [sp]
500029b8:	e0822003 	add	r2, r2, r3
500029bc:	e59d3014 	ldr	r3, [sp, #20]
500029c0:	e1a03a23 	lsr	r3, r3, #20
500029c4:	e1a03a03 	lsl	r3, r3, #20
500029c8:	e3833ec3 	orr	r3, r3, #3120	; 0xc30
500029cc:	e383300e 	orr	r3, r3, #14
500029d0:	e5823000 	str	r3, [r2]
500029d4:	e59d3014 	ldr	r3, [sp, #20]
500029d8:	e2833601 	add	r3, r3, #1048576	; 0x100000
500029dc:	e58d3014 	str	r3, [sp, #20]
500029e0:	e59d3014 	ldr	r3, [sp, #20]
500029e4:	e373021a 	cmn	r3, #-1610612735	; 0xa0000001
500029e8:	9affffee 	bls	500029a8 <create_page_table+0x24>
500029ec:	e3a03207 	mov	r3, #1879048192	; 0x70000000
500029f0:	e58d3010 	str	r3, [sp, #16]
500029f4:	ea00000d 	b	50002a30 <create_page_table+0xac>
500029f8:	e59d3010 	ldr	r3, [sp, #16]
500029fc:	e1a03a23 	lsr	r3, r3, #20
50002a00:	e1a03103 	lsl	r3, r3, #2
50002a04:	e59d2000 	ldr	r2, [sp]
50002a08:	e0822003 	add	r2, r2, r3
50002a0c:	e59d3010 	ldr	r3, [sp, #16]
50002a10:	e1a03a23 	lsr	r3, r3, #20
50002a14:	e1a03a03 	lsl	r3, r3, #20
50002a18:	e3833ec3 	orr	r3, r3, #3120	; 0xc30
50002a1c:	e3833002 	orr	r3, r3, #2
50002a20:	e5823000 	str	r3, [r2]
50002a24:	e59d3010 	ldr	r3, [sp, #16]
50002a28:	e2833601 	add	r3, r3, #1048576	; 0x100000
50002a2c:	e58d3010 	str	r3, [sp, #16]
50002a30:	e59d3010 	ldr	r3, [sp, #16]
50002a34:	e3530000 	cmp	r3, #0
50002a38:	aaffffee 	bge	500029f8 <create_page_table+0x74>
50002a3c:	e3a03001 	mov	r3, #1
50002a40:	e58d300c 	str	r3, [sp, #12]
50002a44:	ea000010 	b	50002a8c <create_page_table+0x108>
50002a48:	e59d300c 	ldr	r3, [sp, #12]
50002a4c:	e1a03c83 	lsl	r3, r3, #25
50002a50:	e1a03a43 	asr	r3, r3, #20
50002a54:	e1a03103 	lsl	r3, r3, #2
50002a58:	e59d2000 	ldr	r2, [sp]
50002a5c:	e0822003 	add	r2, r2, r3
50002a60:	e59d300c 	ldr	r3, [sp, #12]
50002a64:	e2833fa1 	add	r3, r3, #644	; 0x284
50002a68:	e1a03a83 	lsl	r3, r3, #21
50002a6c:	e1a03a23 	lsr	r3, r3, #20
50002a70:	e1a03a03 	lsl	r3, r3, #20
50002a74:	e3833ec3 	orr	r3, r3, #3120	; 0xc30
50002a78:	e383300e 	orr	r3, r3, #14
50002a7c:	e5823000 	str	r3, [r2]
50002a80:	e59d300c 	ldr	r3, [sp, #12]
50002a84:	e2833001 	add	r3, r3, #1
50002a88:	e58d300c 	str	r3, [sp, #12]
50002a8c:	e59d300c 	ldr	r3, [sp, #12]
50002a90:	e3530027 	cmp	r3, #39	; 0x27
50002a94:	daffffeb 	ble	50002a48 <create_page_table+0xc4>
50002a98:	e3a03030 	mov	r3, #48	; 0x30
50002a9c:	e58d3008 	str	r3, [sp, #8]
50002aa0:	ea000010 	b	50002ae8 <create_page_table+0x164>
50002aa4:	e59d3008 	ldr	r3, [sp, #8]
50002aa8:	e1a03c83 	lsl	r3, r3, #25
50002aac:	e1a03a43 	asr	r3, r3, #20
50002ab0:	e1a03103 	lsl	r3, r3, #2
50002ab4:	e59d2000 	ldr	r2, [sp]
50002ab8:	e0822003 	add	r2, r2, r3
50002abc:	e59d3008 	ldr	r3, [sp, #8]
50002ac0:	e2833fa1 	add	r3, r3, #644	; 0x284
50002ac4:	e1a03a83 	lsl	r3, r3, #21
50002ac8:	e1a03a23 	lsr	r3, r3, #20
50002acc:	e1a03a03 	lsl	r3, r3, #20
50002ad0:	e3833ec3 	orr	r3, r3, #3120	; 0xc30
50002ad4:	e383300e 	orr	r3, r3, #14
50002ad8:	e5823000 	str	r3, [r2]
50002adc:	e59d3008 	ldr	r3, [sp, #8]
50002ae0:	e2833001 	add	r3, r3, #1
50002ae4:	e58d3008 	str	r3, [sp, #8]
50002ae8:	e59d3008 	ldr	r3, [sp, #8]
50002aec:	e3530037 	cmp	r3, #55	; 0x37
50002af0:	daffffeb 	ble	50002aa4 <create_page_table+0x120>
50002af4:	e3a03040 	mov	r3, #64	; 0x40
50002af8:	e58d3004 	str	r3, [sp, #4]
50002afc:	ea000010 	b	50002b44 <create_page_table+0x1c0>
50002b00:	e59d3004 	ldr	r3, [sp, #4]
50002b04:	e1a03c83 	lsl	r3, r3, #25
50002b08:	e1a03a43 	asr	r3, r3, #20
50002b0c:	e1a03103 	lsl	r3, r3, #2
50002b10:	e59d2000 	ldr	r2, [sp]
50002b14:	e0822003 	add	r2, r2, r3
50002b18:	e59d3004 	ldr	r3, [sp, #4]
50002b1c:	e2833fa1 	add	r3, r3, #644	; 0x284
50002b20:	e1a03a83 	lsl	r3, r3, #21
50002b24:	e1a03a23 	lsr	r3, r3, #20
50002b28:	e1a03a03 	lsl	r3, r3, #20
50002b2c:	e3833ec3 	orr	r3, r3, #3120	; 0xc30
50002b30:	e383300e 	orr	r3, r3, #14
50002b34:	e5823000 	str	r3, [r2]
50002b38:	e59d3004 	ldr	r3, [sp, #4]
50002b3c:	e2833001 	add	r3, r3, #1
50002b40:	e58d3004 	str	r3, [sp, #4]
50002b44:	e59d3004 	ldr	r3, [sp, #4]
50002b48:	e3530078 	cmp	r3, #120	; 0x78
50002b4c:	daffffeb 	ble	50002b00 <create_page_table+0x17c>
50002b50:	e1a00000 	nop			; (mov r0, r0)
50002b54:	e28dd018 	add	sp, sp, #24
50002b58:	e12fff1e 	bx	lr
50002b5c:	50900000 	addspl	r0, r0, r0
50002b60:	00000c3e 	andeq	r0, r0, lr, lsr ip

50002b64 <enable_mmu>:
50002b64:	e24dd008 	sub	sp, sp, #8
50002b68:	e59f3050 	ldr	r3, [pc, #80]	; 50002bc0 <enable_mmu+0x5c>
50002b6c:	e58d3004 	str	r3, [sp, #4]
50002b70:	e59d3004 	ldr	r3, [sp, #4]
50002b74:	e3a00000 	mov	r0, #0
50002b78:	ee070f17 	mcr	15, 0, r0, cr7, cr7, {0}
50002b7c:	ee070f9a 	mcr	15, 0, r0, cr7, cr10, {4}
50002b80:	ee080f17 	mcr	15, 0, r0, cr8, cr7, {0}
50002b84:	ee023f10 	mcr	15, 0, r3, cr2, cr0, {0}
50002b88:	e3e00002 	mvn	r0, #2
50002b8c:	ee030f10 	mcr	15, 0, r0, cr3, cr0, {0}
50002b90:	ee110f10 	mrc	15, 0, r0, cr1, cr0, {0}
50002b94:	e3c00a03 	bic	r0, r0, #12288	; 0x3000
50002b98:	e3c00c03 	bic	r0, r0, #768	; 0x300
50002b9c:	e3c00087 	bic	r0, r0, #135	; 0x87
50002ba0:	e3800002 	orr	r0, r0, #2
50002ba4:	e3800004 	orr	r0, r0, #4
50002ba8:	e3800a01 	orr	r0, r0, #4096	; 0x1000
50002bac:	e3800001 	orr	r0, r0, #1
50002bb0:	ee010f10 	mcr	15, 0, r0, cr1, cr0, {0}
50002bb4:	e1a00000 	nop			; (mov r0, r0)
50002bb8:	e28dd008 	add	sp, sp, #8
50002bbc:	e12fff1e 	bx	lr
50002bc0:	50900000 	addspl	r0, r0, r0

50002bc4 <OS_ENTER_CRITICAL>:
50002bc4:	ef000000 	svc	0x00000000
50002bc8:	e1a0f00e 	mov	pc, lr

50002bcc <OS_EXIT_CRITICAL>:
50002bcc:	ef000001 	svc	0x00000001
50002bd0:	e1a0f00e 	mov	pc, lr

50002bd4 <sleep>:
50002bd4:	ef000003 	svc	0x00000003
50002bd8:	e1a0f00e 	mov	pc, lr

50002bdc <leds_on>:
50002bdc:	ef000005 	svc	0x00000005
50002be0:	e1a0f00e 	mov	pc, lr

50002be4 <leds_off>:
50002be4:	ef000006 	svc	0x00000006
50002be8:	e1a0f00e 	mov	pc, lr

50002bec <init_schedule>:
50002bec:	e24dd008 	sub	sp, sp, #8
50002bf0:	e59f30e0 	ldr	r3, [pc, #224]	; 50002cd8 <init_schedule+0xec>
50002bf4:	e58d3004 	str	r3, [sp, #4]
50002bf8:	e3a03000 	mov	r3, #0
50002bfc:	e58d3000 	str	r3, [sp]
50002c00:	ea000011 	b	50002c4c <init_schedule+0x60>
50002c04:	e59d3004 	ldr	r3, [sp, #4]
50002c08:	e3e02000 	mvn	r2, #0
50002c0c:	e5832000 	str	r2, [r3]
50002c10:	e59d3004 	ldr	r3, [sp, #4]
50002c14:	e3e02000 	mvn	r2, #0
50002c18:	e5832004 	str	r2, [r3, #4]
50002c1c:	e59d3004 	ldr	r3, [sp, #4]
50002c20:	e3a02000 	mov	r2, #0
50002c24:	e5832008 	str	r2, [r3, #8]
50002c28:	e59d3004 	ldr	r3, [sp, #4]
50002c2c:	e3a02000 	mov	r2, #0
50002c30:	e5832010 	str	r2, [r3, #16]
50002c34:	e59d3000 	ldr	r3, [sp]
50002c38:	e2833001 	add	r3, r3, #1
50002c3c:	e58d3000 	str	r3, [sp]
50002c40:	e59d3004 	ldr	r3, [sp, #4]
50002c44:	e2833064 	add	r3, r3, #100	; 0x64
50002c48:	e58d3004 	str	r3, [sp, #4]
50002c4c:	e59d3000 	ldr	r3, [sp]
50002c50:	e3530078 	cmp	r3, #120	; 0x78
50002c54:	daffffea 	ble	50002c04 <init_schedule+0x18>
50002c58:	e59f3078 	ldr	r3, [pc, #120]	; 50002cd8 <init_schedule+0xec>
50002c5c:	e58d3004 	str	r3, [sp, #4]
50002c60:	e59d3004 	ldr	r3, [sp, #4]
50002c64:	e3a02000 	mov	r2, #0
50002c68:	e5832000 	str	r2, [r3]
50002c6c:	e59d3004 	ldr	r3, [sp, #4]
50002c70:	e3a02000 	mov	r2, #0
50002c74:	e5832004 	str	r2, [r3, #4]
50002c78:	e59d3004 	ldr	r3, [sp, #4]
50002c7c:	e3a02005 	mov	r2, #5
50002c80:	e5832008 	str	r2, [r3, #8]
50002c84:	e59d3004 	ldr	r3, [sp, #4]
50002c88:	e3a02005 	mov	r2, #5
50002c8c:	e5832010 	str	r2, [r3, #16]
50002c90:	e59d3004 	ldr	r3, [sp, #4]
50002c94:	e3a02010 	mov	r2, #16
50002c98:	e5832014 	str	r2, [r3, #20]
50002c9c:	e59d3004 	ldr	r3, [sp, #4]
50002ca0:	e59f2034 	ldr	r2, [pc, #52]	; 50002cdc <init_schedule+0xf0>
50002ca4:	e5832018 	str	r2, [r3, #24]
50002ca8:	e59d3004 	ldr	r3, [sp, #4]
50002cac:	e3a02000 	mov	r2, #0
50002cb0:	e583201c 	str	r2, [r3, #28]
50002cb4:	e59d3004 	ldr	r3, [sp, #4]
50002cb8:	e3a02000 	mov	r2, #0
50002cbc:	e5832054 	str	r2, [r3, #84]	; 0x54
50002cc0:	e59f3018 	ldr	r3, [pc, #24]	; 50002ce0 <init_schedule+0xf4>
50002cc4:	e59f200c 	ldr	r2, [pc, #12]	; 50002cd8 <init_schedule+0xec>
50002cc8:	e5832000 	str	r2, [r3]
50002ccc:	e1a00000 	nop			; (mov r0, r0)
50002cd0:	e28dd008 	add	sp, sp, #8
50002cd4:	e12fff1e 	bx	lr
50002cd8:	50004d3c 	andpl	r4, r0, ip, lsr sp
50002cdc:	5ffe9ff0 	svcpl	0x00fe9ff0
50002ce0:	50004d38 	andpl	r4, r0, r8, lsr sp

50002ce4 <kill_task>:
50002ce4:	e52de004 	push	{lr}		; (str lr, [sp, #-4]!)
50002ce8:	e24dd014 	sub	sp, sp, #20
50002cec:	e58d0004 	str	r0, [sp, #4]
50002cf0:	e59d3004 	ldr	r3, [sp, #4]
50002cf4:	e3530000 	cmp	r3, #0
50002cf8:	0a000037 	beq	50002ddc <kill_task+0xf8>
50002cfc:	e3a03000 	mov	r3, #0
50002d00:	e58d300c 	str	r3, [sp, #12]
50002d04:	ea00002e 	b	50002dc4 <kill_task+0xe0>
50002d08:	e59f20d8 	ldr	r2, [pc, #216]	; 50002de8 <kill_task+0x104>
50002d0c:	e59d300c 	ldr	r3, [sp, #12]
50002d10:	e3a01064 	mov	r1, #100	; 0x64
50002d14:	e0030391 	mul	r3, r1, r3
50002d18:	e0823003 	add	r3, r2, r3
50002d1c:	e5932000 	ldr	r2, [r3]
50002d20:	e59d3004 	ldr	r3, [sp, #4]
50002d24:	e1520003 	cmp	r2, r3
50002d28:	1a000022 	bne	50002db8 <kill_task+0xd4>
50002d2c:	e59f20b4 	ldr	r2, [pc, #180]	; 50002de8 <kill_task+0x104>
50002d30:	e59d300c 	ldr	r3, [sp, #12]
50002d34:	e3a01064 	mov	r1, #100	; 0x64
50002d38:	e0030391 	mul	r3, r1, r3
50002d3c:	e0823003 	add	r3, r2, r3
50002d40:	e3e02000 	mvn	r2, #0
50002d44:	e5832000 	str	r2, [r3]
50002d48:	e59f1098 	ldr	r1, [pc, #152]	; 50002de8 <kill_task+0x104>
50002d4c:	e59d200c 	ldr	r2, [sp, #12]
50002d50:	e3a03004 	mov	r3, #4
50002d54:	e3a00064 	mov	r0, #100	; 0x64
50002d58:	e0020290 	mul	r2, r0, r2
50002d5c:	e0812002 	add	r2, r1, r2
50002d60:	e0823003 	add	r3, r2, r3
50002d64:	e3e02000 	mvn	r2, #0
50002d68:	e5832000 	str	r2, [r3]
50002d6c:	e59f1074 	ldr	r1, [pc, #116]	; 50002de8 <kill_task+0x104>
50002d70:	e59d200c 	ldr	r2, [sp, #12]
50002d74:	e3a03008 	mov	r3, #8
50002d78:	e3a00064 	mov	r0, #100	; 0x64
50002d7c:	e0020290 	mul	r2, r0, r2
50002d80:	e0812002 	add	r2, r1, r2
50002d84:	e0823003 	add	r3, r2, r3
50002d88:	e3a02000 	mov	r2, #0
50002d8c:	e5832000 	str	r2, [r3]
50002d90:	e59f1050 	ldr	r1, [pc, #80]	; 50002de8 <kill_task+0x104>
50002d94:	e59d200c 	ldr	r2, [sp, #12]
50002d98:	e3a03010 	mov	r3, #16
50002d9c:	e3a00064 	mov	r0, #100	; 0x64
50002da0:	e0020290 	mul	r2, r0, r2
50002da4:	e0812002 	add	r2, r1, r2
50002da8:	e0823003 	add	r3, r2, r3
50002dac:	e3a02000 	mov	r2, #0
50002db0:	e5832000 	str	r2, [r3]
50002db4:	ea000005 	b	50002dd0 <kill_task+0xec>
50002db8:	e59d300c 	ldr	r3, [sp, #12]
50002dbc:	e2833001 	add	r3, r3, #1
50002dc0:	e58d300c 	str	r3, [sp, #12]
50002dc4:	e59d300c 	ldr	r3, [sp, #12]
50002dc8:	e3530078 	cmp	r3, #120	; 0x78
50002dcc:	daffffcd 	ble	50002d08 <kill_task+0x24>
50002dd0:	eb000005 	bl	50002dec <schedule>
50002dd4:	e1a00000 	nop			; (mov r0, r0)
50002dd8:	ea000000 	b	50002de0 <kill_task+0xfc>
50002ddc:	e1a00000 	nop			; (mov r0, r0)
50002de0:	e28dd014 	add	sp, sp, #20
50002de4:	e8bd8000 	ldmfd	sp!, {pc}
50002de8:	50004d3c 	andpl	r4, r0, ip, lsr sp

50002dec <schedule>:
50002dec:	e52de004 	push	{lr}		; (str lr, [sp, #-4]!)
50002df0:	e24dd01c 	sub	sp, sp, #28
50002df4:	e3e03000 	mvn	r3, #0
50002df8:	e58d3014 	str	r3, [sp, #20]
50002dfc:	e3a03000 	mov	r3, #0
50002e00:	e58d3010 	str	r3, [sp, #16]
50002e04:	e3a03000 	mov	r3, #0
50002e08:	e58d3004 	str	r3, [sp, #4]
50002e0c:	e3a03000 	mov	r3, #0
50002e10:	e58d300c 	str	r3, [sp, #12]
50002e14:	ea000023 	b	50002ea8 <schedule+0xbc>
50002e18:	e59f11a8 	ldr	r1, [pc, #424]	; 50002fc8 <schedule+0x1dc>
50002e1c:	e59d200c 	ldr	r2, [sp, #12]
50002e20:	e3a03004 	mov	r3, #4
50002e24:	e3a00064 	mov	r0, #100	; 0x64
50002e28:	e0020290 	mul	r2, r0, r2
50002e2c:	e0812002 	add	r2, r1, r2
50002e30:	e0823003 	add	r3, r2, r3
50002e34:	e5933000 	ldr	r3, [r3]
50002e38:	e3530000 	cmp	r3, #0
50002e3c:	1a000016 	bne	50002e9c <schedule+0xb0>
50002e40:	e59f1180 	ldr	r1, [pc, #384]	; 50002fc8 <schedule+0x1dc>
50002e44:	e59d200c 	ldr	r2, [sp, #12]
50002e48:	e3a03008 	mov	r3, #8
50002e4c:	e3a00064 	mov	r0, #100	; 0x64
50002e50:	e0020290 	mul	r2, r0, r2
50002e54:	e0812002 	add	r2, r1, r2
50002e58:	e0823003 	add	r3, r2, r3
50002e5c:	e5933000 	ldr	r3, [r3]
50002e60:	e1a02003 	mov	r2, r3
50002e64:	e59d3014 	ldr	r3, [sp, #20]
50002e68:	e1520003 	cmp	r2, r3
50002e6c:	da00000a 	ble	50002e9c <schedule+0xb0>
50002e70:	e59f1150 	ldr	r1, [pc, #336]	; 50002fc8 <schedule+0x1dc>
50002e74:	e59d200c 	ldr	r2, [sp, #12]
50002e78:	e3a03008 	mov	r3, #8
50002e7c:	e3a00064 	mov	r0, #100	; 0x64
50002e80:	e0020290 	mul	r2, r0, r2
50002e84:	e0812002 	add	r2, r1, r2
50002e88:	e0823003 	add	r3, r2, r3
50002e8c:	e5933000 	ldr	r3, [r3]
50002e90:	e58d3014 	str	r3, [sp, #20]
50002e94:	e59d300c 	ldr	r3, [sp, #12]
50002e98:	e58d3010 	str	r3, [sp, #16]
50002e9c:	e59d300c 	ldr	r3, [sp, #12]
50002ea0:	e2833001 	add	r3, r3, #1
50002ea4:	e58d300c 	str	r3, [sp, #12]
50002ea8:	e59d300c 	ldr	r3, [sp, #12]
50002eac:	e3530078 	cmp	r3, #120	; 0x78
50002eb0:	daffffd8 	ble	50002e18 <schedule+0x2c>
50002eb4:	e59d3014 	ldr	r3, [sp, #20]
50002eb8:	e3530000 	cmp	r3, #0
50002ebc:	1a000023 	bne	50002f50 <schedule+0x164>
50002ec0:	e3a03000 	mov	r3, #0
50002ec4:	e58d3008 	str	r3, [sp, #8]
50002ec8:	ea00001c 	b	50002f40 <schedule+0x154>
50002ecc:	e59f10f4 	ldr	r1, [pc, #244]	; 50002fc8 <schedule+0x1dc>
50002ed0:	e59d2008 	ldr	r2, [sp, #8]
50002ed4:	e3a03004 	mov	r3, #4
50002ed8:	e3a00064 	mov	r0, #100	; 0x64
50002edc:	e0020290 	mul	r2, r0, r2
50002ee0:	e0812002 	add	r2, r1, r2
50002ee4:	e0823003 	add	r3, r2, r3
50002ee8:	e5933000 	ldr	r3, [r3]
50002eec:	e3530000 	cmp	r3, #0
50002ef0:	1a00000f 	bne	50002f34 <schedule+0x148>
50002ef4:	e59f10cc 	ldr	r1, [pc, #204]	; 50002fc8 <schedule+0x1dc>
50002ef8:	e59d2008 	ldr	r2, [sp, #8]
50002efc:	e3a03010 	mov	r3, #16
50002f00:	e3a00064 	mov	r0, #100	; 0x64
50002f04:	e0020290 	mul	r2, r0, r2
50002f08:	e0812002 	add	r2, r1, r2
50002f0c:	e0823003 	add	r3, r2, r3
50002f10:	e5932000 	ldr	r2, [r3]
50002f14:	e59f00ac 	ldr	r0, [pc, #172]	; 50002fc8 <schedule+0x1dc>
50002f18:	e59d1008 	ldr	r1, [sp, #8]
50002f1c:	e3a03008 	mov	r3, #8
50002f20:	e3a0c064 	mov	ip, #100	; 0x64
50002f24:	e001019c 	mul	r1, ip, r1
50002f28:	e0801001 	add	r1, r0, r1
50002f2c:	e0813003 	add	r3, r1, r3
50002f30:	e5832000 	str	r2, [r3]
50002f34:	e59d3008 	ldr	r3, [sp, #8]
50002f38:	e2833001 	add	r3, r3, #1
50002f3c:	e58d3008 	str	r3, [sp, #8]
50002f40:	e59d3008 	ldr	r3, [sp, #8]
50002f44:	e3530078 	cmp	r3, #120	; 0x78
50002f48:	daffffdf 	ble	50002ecc <schedule+0xe0>
50002f4c:	eaffffae 	b	50002e0c <schedule+0x20>
50002f50:	e1a00000 	nop			; (mov r0, r0)
50002f54:	e59d3010 	ldr	r3, [sp, #16]
50002f58:	e3a02064 	mov	r2, #100	; 0x64
50002f5c:	e0020293 	mul	r2, r3, r2
50002f60:	e59f3060 	ldr	r3, [pc, #96]	; 50002fc8 <schedule+0x1dc>
50002f64:	e0822003 	add	r2, r2, r3
50002f68:	e59f305c 	ldr	r3, [pc, #92]	; 50002fcc <schedule+0x1e0>
50002f6c:	e5933000 	ldr	r3, [r3]
50002f70:	e1520003 	cmp	r2, r3
50002f74:	0a000010 	beq	50002fbc <schedule+0x1d0>
50002f78:	e59f304c 	ldr	r3, [pc, #76]	; 50002fcc <schedule+0x1e0>
50002f7c:	e5933000 	ldr	r3, [r3]
50002f80:	e58d3004 	str	r3, [sp, #4]
50002f84:	e59d3010 	ldr	r3, [sp, #16]
50002f88:	e3a02064 	mov	r2, #100	; 0x64
50002f8c:	e0020293 	mul	r2, r3, r2
50002f90:	e59f3030 	ldr	r3, [pc, #48]	; 50002fc8 <schedule+0x1dc>
50002f94:	e0822003 	add	r2, r2, r3
50002f98:	e59f302c 	ldr	r3, [pc, #44]	; 50002fcc <schedule+0x1e0>
50002f9c:	e5832000 	str	r2, [r3]
50002fa0:	e59f3024 	ldr	r3, [pc, #36]	; 50002fcc <schedule+0x1e0>
50002fa4:	e5933000 	ldr	r3, [r3]
50002fa8:	e59d0004 	ldr	r0, [sp, #4]
50002fac:	e1a01003 	mov	r1, r3
50002fb0:	eb000248 	bl	500038d8 <switch_process>
50002fb4:	e1a00000 	nop			; (mov r0, r0)
50002fb8:	ea000000 	b	50002fc0 <schedule+0x1d4>
50002fbc:	e1a00000 	nop			; (mov r0, r0)
50002fc0:	e28dd01c 	add	sp, sp, #28
50002fc4:	e8bd8000 	ldmfd	sp!, {pc}
50002fc8:	50004d3c 	andpl	r4, r0, ip, lsr sp
50002fcc:	50004d38 	andpl	r4, r0, r8, lsr sp

50002fd0 <show_content>:
50002fd0:	e52de004 	push	{lr}		; (str lr, [sp, #-4]!)
50002fd4:	e24dd00c 	sub	sp, sp, #12
50002fd8:	e58d0004 	str	r0, [sp, #4]
50002fdc:	e58d1000 	str	r1, [sp]
50002fe0:	e59f0034 	ldr	r0, [pc, #52]	; 5000301c <show_content+0x4c>
50002fe4:	ebfff89a 	bl	50001254 <uart_puts>
50002fe8:	e59f0030 	ldr	r0, [pc, #48]	; 50003020 <show_content+0x50>
50002fec:	ebfff8b2 	bl	500012bc <uart_printf>
50002ff0:	e59d0004 	ldr	r0, [sp, #4]
50002ff4:	ebfff903 	bl	50001408 <uart_print_hex>
50002ff8:	e59f0024 	ldr	r0, [pc, #36]	; 50003024 <show_content+0x54>
50002ffc:	ebfff8ae 	bl	500012bc <uart_printf>
50003000:	e59d0000 	ldr	r0, [sp]
50003004:	ebfff8ff 	bl	50001408 <uart_print_hex>
50003008:	e59f0018 	ldr	r0, [pc, #24]	; 50003028 <show_content+0x58>
5000300c:	ebfff890 	bl	50001254 <uart_puts>
50003010:	e1a00000 	nop			; (mov r0, r0)
50003014:	e28dd00c 	add	sp, sp, #12
50003018:	e8bd8000 	ldmfd	sp!, {pc}
5000301c:	50004a00 	andpl	r4, r0, r0, lsl #20
50003020:	50004a10 	andpl	r4, r0, r0, lsl sl
50003024:	50004a18 	andpl	r4, r0, r8, lsl sl
50003028:	50004a20 	andpl	r4, r0, r0, lsr #20

5000302c <check_cpu_mode>:
5000302c:	e52d4004 	push	{r4}		; (str r4, [sp, #-4]!)
50003030:	e24dd00c 	sub	sp, sp, #12
50003034:	e10f0000 	mrs	r0, CPSR
50003038:	e200000f 	and	r0, r0, #15
5000303c:	e1a04000 	mov	r4, r0
50003040:	e58d4004 	str	r4, [sp, #4]
50003044:	e59d3004 	ldr	r3, [sp, #4]
50003048:	e1a00003 	mov	r0, r3
5000304c:	e28dd00c 	add	sp, sp, #12
50003050:	e8bd0010 	ldmfd	sp!, {r4}
50003054:	e12fff1e 	bx	lr

50003058 <round_robin>:
50003058:	e52de004 	push	{lr}		; (str lr, [sp, #-4]!)
5000305c:	e24dd00c 	sub	sp, sp, #12
50003060:	e59f3160 	ldr	r3, [pc, #352]	; 500031c8 <round_robin+0x170>
50003064:	e5933000 	ldr	r3, [r3]
50003068:	e3530000 	cmp	r3, #0
5000306c:	0a000050 	beq	500031b4 <round_robin+0x15c>
50003070:	e3a03000 	mov	r3, #0
50003074:	e58d3004 	str	r3, [sp, #4]
50003078:	ea000030 	b	50003140 <round_robin+0xe8>
5000307c:	e59f1148 	ldr	r1, [pc, #328]	; 500031cc <round_robin+0x174>
50003080:	e59d2004 	ldr	r2, [sp, #4]
50003084:	e3a03004 	mov	r3, #4
50003088:	e3a00064 	mov	r0, #100	; 0x64
5000308c:	e0020290 	mul	r2, r0, r2
50003090:	e0812002 	add	r2, r1, r2
50003094:	e0823003 	add	r3, r2, r3
50003098:	e5933000 	ldr	r3, [r3]
5000309c:	e3530005 	cmp	r3, #5
500030a0:	1a000023 	bne	50003134 <round_robin+0xdc>
500030a4:	e59f1120 	ldr	r1, [pc, #288]	; 500031cc <round_robin+0x174>
500030a8:	e59d2004 	ldr	r2, [sp, #4]
500030ac:	e3a0300c 	mov	r3, #12
500030b0:	e3a00064 	mov	r0, #100	; 0x64
500030b4:	e0020290 	mul	r2, r0, r2
500030b8:	e0812002 	add	r2, r1, r2
500030bc:	e0823003 	add	r3, r2, r3
500030c0:	e5933000 	ldr	r3, [r3]
500030c4:	e2432001 	sub	r2, r3, #1
500030c8:	e59f00fc 	ldr	r0, [pc, #252]	; 500031cc <round_robin+0x174>
500030cc:	e59d1004 	ldr	r1, [sp, #4]
500030d0:	e3a0300c 	mov	r3, #12
500030d4:	e3a0c064 	mov	ip, #100	; 0x64
500030d8:	e001019c 	mul	r1, ip, r1
500030dc:	e0801001 	add	r1, r0, r1
500030e0:	e0813003 	add	r3, r1, r3
500030e4:	e5832000 	str	r2, [r3]
500030e8:	e59f10dc 	ldr	r1, [pc, #220]	; 500031cc <round_robin+0x174>
500030ec:	e59d2004 	ldr	r2, [sp, #4]
500030f0:	e3a0300c 	mov	r3, #12
500030f4:	e3a00064 	mov	r0, #100	; 0x64
500030f8:	e0020290 	mul	r2, r0, r2
500030fc:	e0812002 	add	r2, r1, r2
50003100:	e0823003 	add	r3, r2, r3
50003104:	e5933000 	ldr	r3, [r3]
50003108:	e3530000 	cmp	r3, #0
5000310c:	1a000008 	bne	50003134 <round_robin+0xdc>
50003110:	e59f10b4 	ldr	r1, [pc, #180]	; 500031cc <round_robin+0x174>
50003114:	e59d2004 	ldr	r2, [sp, #4]
50003118:	e3a03004 	mov	r3, #4
5000311c:	e3a00064 	mov	r0, #100	; 0x64
50003120:	e0020290 	mul	r2, r0, r2
50003124:	e0812002 	add	r2, r1, r2
50003128:	e0823003 	add	r3, r2, r3
5000312c:	e3a02000 	mov	r2, #0
50003130:	e5832000 	str	r2, [r3]
50003134:	e59d3004 	ldr	r3, [sp, #4]
50003138:	e2833001 	add	r3, r3, #1
5000313c:	e58d3004 	str	r3, [sp, #4]
50003140:	e59d3004 	ldr	r3, [sp, #4]
50003144:	e3530078 	cmp	r3, #120	; 0x78
50003148:	daffffcb 	ble	5000307c <round_robin+0x24>
5000314c:	e59f3074 	ldr	r3, [pc, #116]	; 500031c8 <round_robin+0x170>
50003150:	e5933000 	ldr	r3, [r3]
50003154:	e5933008 	ldr	r3, [r3, #8]
50003158:	e3530000 	cmp	r3, #0
5000315c:	0a000004 	beq	50003174 <round_robin+0x11c>
50003160:	e59f3060 	ldr	r3, [pc, #96]	; 500031c8 <round_robin+0x170>
50003164:	e5933000 	ldr	r3, [r3]
50003168:	e5932008 	ldr	r2, [r3, #8]
5000316c:	e2422001 	sub	r2, r2, #1
50003170:	e5832008 	str	r2, [r3, #8]
50003174:	e59f304c 	ldr	r3, [pc, #76]	; 500031c8 <round_robin+0x170>
50003178:	e5933000 	ldr	r3, [r3]
5000317c:	e5933004 	ldr	r3, [r3, #4]
50003180:	e3530000 	cmp	r3, #0
50003184:	1a000004 	bne	5000319c <round_robin+0x144>
50003188:	e59f3038 	ldr	r3, [pc, #56]	; 500031c8 <round_robin+0x170>
5000318c:	e5933000 	ldr	r3, [r3]
50003190:	e5933008 	ldr	r3, [r3, #8]
50003194:	e3530000 	cmp	r3, #0
50003198:	1a000007 	bne	500031bc <round_robin+0x164>
5000319c:	ebffffa2 	bl	5000302c <check_cpu_mode>
500031a0:	e1a03000 	mov	r3, r0
500031a4:	e3530000 	cmp	r3, #0
500031a8:	0a000003 	beq	500031bc <round_robin+0x164>
500031ac:	ebffff0e 	bl	50002dec <schedule>
500031b0:	ea000001 	b	500031bc <round_robin+0x164>
500031b4:	e1a00000 	nop			; (mov r0, r0)
500031b8:	ea000000 	b	500031c0 <round_robin+0x168>
500031bc:	e1a00000 	nop			; (mov r0, r0)
500031c0:	e28dd00c 	add	sp, sp, #12
500031c4:	e8bd8000 	ldmfd	sp!, {pc}
500031c8:	50004d38 	andpl	r4, r0, r8, lsr sp
500031cc:	50004d3c 	andpl	r4, r0, ip, lsr sp

500031d0 <create_process>:
500031d0:	e52de004 	push	{lr}		; (str lr, [sp, #-4]!)
500031d4:	e24dd03c 	sub	sp, sp, #60	; 0x3c
500031d8:	e58d0004 	str	r0, [sp, #4]
500031dc:	e3e03000 	mvn	r3, #0
500031e0:	e58d3034 	str	r3, [sp, #52]	; 0x34
500031e4:	e3a03000 	mov	r3, #0
500031e8:	e58d3030 	str	r3, [sp, #48]	; 0x30
500031ec:	ea000021 	b	50003278 <create_process+0xa8>
500031f0:	e59f13f8 	ldr	r1, [pc, #1016]	; 500035f0 <create_process+0x420>
500031f4:	e59d2030 	ldr	r2, [sp, #48]	; 0x30
500031f8:	e3a03004 	mov	r3, #4
500031fc:	e3a00064 	mov	r0, #100	; 0x64
50003200:	e0020290 	mul	r2, r0, r2
50003204:	e0812002 	add	r2, r1, r2
50003208:	e0823003 	add	r3, r2, r3
5000320c:	e5933000 	ldr	r3, [r3]
50003210:	e3730001 	cmn	r3, #1
50003214:	1a000014 	bne	5000326c <create_process+0x9c>
50003218:	e59d3030 	ldr	r3, [sp, #48]	; 0x30
5000321c:	e3530000 	cmp	r3, #0
50003220:	da000002 	ble	50003230 <create_process+0x60>
50003224:	e59d3030 	ldr	r3, [sp, #48]	; 0x30
50003228:	e3530027 	cmp	r3, #39	; 0x27
5000322c:	da00000b 	ble	50003260 <create_process+0x90>
50003230:	e59d3030 	ldr	r3, [sp, #48]	; 0x30
50003234:	e353002f 	cmp	r3, #47	; 0x2f
50003238:	da000002 	ble	50003248 <create_process+0x78>
5000323c:	e59d3030 	ldr	r3, [sp, #48]	; 0x30
50003240:	e3530037 	cmp	r3, #55	; 0x37
50003244:	da000005 	ble	50003260 <create_process+0x90>
50003248:	e59d3030 	ldr	r3, [sp, #48]	; 0x30
5000324c:	e353003f 	cmp	r3, #63	; 0x3f
50003250:	da000005 	ble	5000326c <create_process+0x9c>
50003254:	e59d3030 	ldr	r3, [sp, #48]	; 0x30
50003258:	e3530078 	cmp	r3, #120	; 0x78
5000325c:	ca000002 	bgt	5000326c <create_process+0x9c>
50003260:	e59d3030 	ldr	r3, [sp, #48]	; 0x30
50003264:	e58d3034 	str	r3, [sp, #52]	; 0x34
50003268:	ea000005 	b	50003284 <create_process+0xb4>
5000326c:	e59d3030 	ldr	r3, [sp, #48]	; 0x30
50003270:	e2833001 	add	r3, r3, #1
50003274:	e58d3030 	str	r3, [sp, #48]	; 0x30
50003278:	e59d3030 	ldr	r3, [sp, #48]	; 0x30
5000327c:	e3530078 	cmp	r3, #120	; 0x78
50003280:	daffffda 	ble	500031f0 <create_process+0x20>
50003284:	e59d3034 	ldr	r3, [sp, #52]	; 0x34
50003288:	e3730001 	cmn	r3, #1
5000328c:	1a000001 	bne	50003298 <create_process+0xc8>
50003290:	e3e03000 	mvn	r3, #0
50003294:	ea0000d2 	b	500035e4 <create_process+0x414>
50003298:	ebfffe49 	bl	50002bc4 <OS_ENTER_CRITICAL>
5000329c:	e59f0350 	ldr	r0, [pc, #848]	; 500035f4 <create_process+0x424>
500032a0:	ebfff805 	bl	500012bc <uart_printf>
500032a4:	e59d0034 	ldr	r0, [sp, #52]	; 0x34
500032a8:	ebfff9ff 	bl	50001aac <uart_print_int>
500032ac:	e59f0344 	ldr	r0, [pc, #836]	; 500035f8 <create_process+0x428>
500032b0:	ebfff7e7 	bl	50001254 <uart_puts>
500032b4:	e59d3034 	ldr	r3, [sp, #52]	; 0x34
500032b8:	e2833fa1 	add	r3, r3, #644	; 0x284
500032bc:	e1a03a83 	lsl	r3, r3, #21
500032c0:	e58d3010 	str	r3, [sp, #16]
500032c4:	e59d3010 	ldr	r3, [sp, #16]
500032c8:	e58d302c 	str	r3, [sp, #44]	; 0x2c
500032cc:	e3a03000 	mov	r3, #0
500032d0:	e58d3028 	str	r3, [sp, #40]	; 0x28
500032d4:	e59d3010 	ldr	r3, [sp, #16]
500032d8:	e2833602 	add	r3, r3, #2097152	; 0x200000
500032dc:	e58d300c 	str	r3, [sp, #12]
500032e0:	ea000008 	b	50003308 <create_process+0x138>
500032e4:	e59d3028 	ldr	r3, [sp, #40]	; 0x28
500032e8:	e1a03103 	lsl	r3, r3, #2
500032ec:	e59d202c 	ldr	r2, [sp, #44]	; 0x2c
500032f0:	e0823003 	add	r3, r2, r3
500032f4:	e3a02000 	mov	r2, #0
500032f8:	e5832000 	str	r2, [r3]
500032fc:	e59d3028 	ldr	r3, [sp, #40]	; 0x28
50003300:	e2833001 	add	r3, r3, #1
50003304:	e58d3028 	str	r3, [sp, #40]	; 0x28
50003308:	e59d2028 	ldr	r2, [sp, #40]	; 0x28
5000330c:	e59d300c 	ldr	r3, [sp, #12]
50003310:	e1520003 	cmp	r2, r3
50003314:	3afffff2 	bcc	500032e4 <create_process+0x114>
50003318:	e59d002c 	ldr	r0, [sp, #44]	; 0x2c
5000331c:	eb0000b6 	bl	500035fc <copy_process>
50003320:	e59d3010 	ldr	r3, [sp, #16]
50003324:	e283397f 	add	r3, r3, #2080768	; 0x1fc000
50003328:	e2833b0f 	add	r3, r3, #15360	; 0x3c00
5000332c:	e58d302c 	str	r3, [sp, #44]	; 0x2c
50003330:	e3a03000 	mov	r3, #0
50003334:	e58d3020 	str	r3, [sp, #32]
50003338:	e3a03000 	mov	r3, #0
5000333c:	e58d301c 	str	r3, [sp, #28]
50003340:	ea00000b 	b	50003374 <create_process+0x1a4>
50003344:	e59d301c 	ldr	r3, [sp, #28]
50003348:	e59d2004 	ldr	r2, [sp, #4]
5000334c:	e0823003 	add	r3, r2, r3
50003350:	e5d33000 	ldrb	r3, [r3]
50003354:	e3530020 	cmp	r3, #32
50003358:	1a000002 	bne	50003368 <create_process+0x198>
5000335c:	e59d3020 	ldr	r3, [sp, #32]
50003360:	e2833001 	add	r3, r3, #1
50003364:	e58d3020 	str	r3, [sp, #32]
50003368:	e59d301c 	ldr	r3, [sp, #28]
5000336c:	e2833001 	add	r3, r3, #1
50003370:	e58d301c 	str	r3, [sp, #28]
50003374:	e59d301c 	ldr	r3, [sp, #28]
50003378:	e59d2004 	ldr	r2, [sp, #4]
5000337c:	e0823003 	add	r3, r2, r3
50003380:	e5d33000 	ldrb	r3, [r3]
50003384:	e3530000 	cmp	r3, #0
50003388:	1affffed 	bne	50003344 <create_process+0x174>
5000338c:	e59d3020 	ldr	r3, [sp, #32]
50003390:	e2833001 	add	r3, r3, #1
50003394:	e58d3020 	str	r3, [sp, #32]
50003398:	e59d2034 	ldr	r2, [sp, #52]	; 0x34
5000339c:	e59d302c 	ldr	r3, [sp, #44]	; 0x2c
500033a0:	e5832000 	str	r2, [r3]
500033a4:	e59d302c 	ldr	r3, [sp, #44]	; 0x2c
500033a8:	e2833004 	add	r3, r3, #4
500033ac:	e58d302c 	str	r3, [sp, #44]	; 0x2c
500033b0:	e59d2020 	ldr	r2, [sp, #32]
500033b4:	e59d302c 	ldr	r3, [sp, #44]	; 0x2c
500033b8:	e5832000 	str	r2, [r3]
500033bc:	e59d302c 	ldr	r3, [sp, #44]	; 0x2c
500033c0:	e2833004 	add	r3, r3, #4
500033c4:	e58d302c 	str	r3, [sp, #44]	; 0x2c
500033c8:	e59d3020 	ldr	r3, [sp, #32]
500033cc:	e1a03103 	lsl	r3, r3, #2
500033d0:	e59d202c 	ldr	r2, [sp, #44]	; 0x2c
500033d4:	e0823003 	add	r3, r2, r3
500033d8:	e58d3024 	str	r3, [sp, #36]	; 0x24
500033dc:	e3a03000 	mov	r3, #0
500033e0:	e58d3018 	str	r3, [sp, #24]
500033e4:	e3a03000 	mov	r3, #0
500033e8:	e58d3014 	str	r3, [sp, #20]
500033ec:	ea00002e 	b	500034ac <create_process+0x2dc>
500033f0:	e59d2024 	ldr	r2, [sp, #36]	; 0x24
500033f4:	e59d302c 	ldr	r3, [sp, #44]	; 0x2c
500033f8:	e5832000 	str	r2, [r3]
500033fc:	e59d302c 	ldr	r3, [sp, #44]	; 0x2c
50003400:	e2833004 	add	r3, r3, #4
50003404:	e58d302c 	str	r3, [sp, #44]	; 0x2c
50003408:	ea00000b 	b	5000343c <create_process+0x26c>
5000340c:	e59d3014 	ldr	r3, [sp, #20]
50003410:	e59d2004 	ldr	r2, [sp, #4]
50003414:	e0823003 	add	r3, r2, r3
50003418:	e5d32000 	ldrb	r2, [r3]
5000341c:	e59d3024 	ldr	r3, [sp, #36]	; 0x24
50003420:	e5c32000 	strb	r2, [r3]
50003424:	e59d3024 	ldr	r3, [sp, #36]	; 0x24
50003428:	e2833001 	add	r3, r3, #1
5000342c:	e58d3024 	str	r3, [sp, #36]	; 0x24
50003430:	e59d3014 	ldr	r3, [sp, #20]
50003434:	e2833001 	add	r3, r3, #1
50003438:	e58d3014 	str	r3, [sp, #20]
5000343c:	e59d3014 	ldr	r3, [sp, #20]
50003440:	e59d2004 	ldr	r2, [sp, #4]
50003444:	e0823003 	add	r3, r2, r3
50003448:	e5d33000 	ldrb	r3, [r3]
5000344c:	e3530000 	cmp	r3, #0
50003450:	0a000005 	beq	5000346c <create_process+0x29c>
50003454:	e59d3014 	ldr	r3, [sp, #20]
50003458:	e59d2004 	ldr	r2, [sp, #4]
5000345c:	e0823003 	add	r3, r2, r3
50003460:	e5d33000 	ldrb	r3, [r3]
50003464:	e3530020 	cmp	r3, #32
50003468:	1affffe7 	bne	5000340c <create_process+0x23c>
5000346c:	e59d3024 	ldr	r3, [sp, #36]	; 0x24
50003470:	e3a02000 	mov	r2, #0
50003474:	e5c32000 	strb	r2, [r3]
50003478:	e59d3024 	ldr	r3, [sp, #36]	; 0x24
5000347c:	e2833001 	add	r3, r3, #1
50003480:	e58d3024 	str	r3, [sp, #36]	; 0x24
50003484:	e59d3024 	ldr	r3, [sp, #36]	; 0x24
50003488:	e2833004 	add	r3, r3, #4
5000348c:	e3c33003 	bic	r3, r3, #3
50003490:	e58d3024 	str	r3, [sp, #36]	; 0x24
50003494:	e59d3018 	ldr	r3, [sp, #24]
50003498:	e2833001 	add	r3, r3, #1
5000349c:	e58d3018 	str	r3, [sp, #24]
500034a0:	e59d3014 	ldr	r3, [sp, #20]
500034a4:	e2833001 	add	r3, r3, #1
500034a8:	e58d3014 	str	r3, [sp, #20]
500034ac:	e59d2018 	ldr	r2, [sp, #24]
500034b0:	e59d3020 	ldr	r3, [sp, #32]
500034b4:	e1520003 	cmp	r2, r3
500034b8:	baffffcc 	blt	500033f0 <create_process+0x220>
500034bc:	e59d2034 	ldr	r2, [sp, #52]	; 0x34
500034c0:	e59f1128 	ldr	r1, [pc, #296]	; 500035f0 <create_process+0x420>
500034c4:	e59d3034 	ldr	r3, [sp, #52]	; 0x34
500034c8:	e3a00064 	mov	r0, #100	; 0x64
500034cc:	e0030390 	mul	r3, r0, r3
500034d0:	e0813003 	add	r3, r1, r3
500034d4:	e5832000 	str	r2, [r3]
500034d8:	e59f1110 	ldr	r1, [pc, #272]	; 500035f0 <create_process+0x420>
500034dc:	e59d2034 	ldr	r2, [sp, #52]	; 0x34
500034e0:	e3a03004 	mov	r3, #4
500034e4:	e3a00064 	mov	r0, #100	; 0x64
500034e8:	e0020290 	mul	r2, r0, r2
500034ec:	e0812002 	add	r2, r1, r2
500034f0:	e0823003 	add	r3, r2, r3
500034f4:	e3a02000 	mov	r2, #0
500034f8:	e5832000 	str	r2, [r3]
500034fc:	e59f10ec 	ldr	r1, [pc, #236]	; 500035f0 <create_process+0x420>
50003500:	e59d2034 	ldr	r2, [sp, #52]	; 0x34
50003504:	e3a03008 	mov	r3, #8
50003508:	e3a00064 	mov	r0, #100	; 0x64
5000350c:	e0020290 	mul	r2, r0, r2
50003510:	e0812002 	add	r2, r1, r2
50003514:	e0823003 	add	r3, r2, r3
50003518:	e3a02005 	mov	r2, #5
5000351c:	e5832000 	str	r2, [r3]
50003520:	e59f10c8 	ldr	r1, [pc, #200]	; 500035f0 <create_process+0x420>
50003524:	e59d2034 	ldr	r2, [sp, #52]	; 0x34
50003528:	e3a03010 	mov	r3, #16
5000352c:	e3a00064 	mov	r0, #100	; 0x64
50003530:	e0020290 	mul	r2, r0, r2
50003534:	e0812002 	add	r2, r1, r2
50003538:	e0823003 	add	r3, r2, r3
5000353c:	e3a02005 	mov	r2, #5
50003540:	e5832000 	str	r2, [r3]
50003544:	e59f10a4 	ldr	r1, [pc, #164]	; 500035f0 <create_process+0x420>
50003548:	e59d2034 	ldr	r2, [sp, #52]	; 0x34
5000354c:	e3a03014 	mov	r3, #20
50003550:	e3a00064 	mov	r0, #100	; 0x64
50003554:	e0020290 	mul	r2, r0, r2
50003558:	e0812002 	add	r2, r1, r2
5000355c:	e0823003 	add	r3, r2, r3
50003560:	e3a02010 	mov	r2, #16
50003564:	e5832000 	str	r2, [r3]
50003568:	e59d3010 	ldr	r3, [sp, #16]
5000356c:	e283397f 	add	r3, r3, #2080768	; 0x1fc000
50003570:	e2833b0f 	add	r3, r3, #15360	; 0x3c00
50003574:	e59f0074 	ldr	r0, [pc, #116]	; 500035f0 <create_process+0x420>
50003578:	e59d1034 	ldr	r1, [sp, #52]	; 0x34
5000357c:	e3a02018 	mov	r2, #24
50003580:	e3a0c064 	mov	ip, #100	; 0x64
50003584:	e001019c 	mul	r1, ip, r1
50003588:	e0801001 	add	r1, r0, r1
5000358c:	e0812002 	add	r2, r1, r2
50003590:	e5823000 	str	r3, [r2]
50003594:	e59f1054 	ldr	r1, [pc, #84]	; 500035f0 <create_process+0x420>
50003598:	e59d2034 	ldr	r2, [sp, #52]	; 0x34
5000359c:	e3a0301c 	mov	r3, #28
500035a0:	e3a00064 	mov	r0, #100	; 0x64
500035a4:	e0020290 	mul	r2, r0, r2
500035a8:	e0812002 	add	r2, r1, r2
500035ac:	e0823003 	add	r3, r2, r3
500035b0:	e3a02000 	mov	r2, #0
500035b4:	e5832000 	str	r2, [r3]
500035b8:	e59f1030 	ldr	r1, [pc, #48]	; 500035f0 <create_process+0x420>
500035bc:	e59d2034 	ldr	r2, [sp, #52]	; 0x34
500035c0:	e3a03054 	mov	r3, #84	; 0x54
500035c4:	e3a00064 	mov	r0, #100	; 0x64
500035c8:	e0020290 	mul	r2, r0, r2
500035cc:	e0812002 	add	r2, r1, r2
500035d0:	e0823003 	add	r3, r2, r3
500035d4:	e59d2010 	ldr	r2, [sp, #16]
500035d8:	e5832000 	str	r2, [r3]
500035dc:	ebfffd7a 	bl	50002bcc <OS_EXIT_CRITICAL>
500035e0:	e59d3034 	ldr	r3, [sp, #52]	; 0x34
500035e4:	e1a00003 	mov	r0, r3
500035e8:	e28dd03c 	add	sp, sp, #60	; 0x3c
500035ec:	e8bd8000 	ldmfd	sp!, {pc}
500035f0:	50004d3c 	andpl	r4, r0, ip, lsr sp
500035f4:	50004a24 	andpl	r4, r0, r4, lsr #20
500035f8:	50004a20 	andpl	r4, r0, r0, lsr #20

500035fc <copy_process>:
500035fc:	e52de004 	push	{lr}		; (str lr, [sp, #-4]!)
50003600:	e24dd02c 	sub	sp, sp, #44	; 0x2c
50003604:	e58d0004 	str	r0, [sp, #4]
50003608:	e59f31d4 	ldr	r3, [pc, #468]	; 500037e4 <copy_process+0x1e8>
5000360c:	e58d3010 	str	r3, [sp, #16]
50003610:	e59d3010 	ldr	r3, [sp, #16]
50003614:	e58d300c 	str	r3, [sp, #12]
50003618:	e3a03000 	mov	r3, #0
5000361c:	e58d3024 	str	r3, [sp, #36]	; 0x24
50003620:	e3a03000 	mov	r3, #0
50003624:	e58d3020 	str	r3, [sp, #32]
50003628:	e3a03000 	mov	r3, #0
5000362c:	e58d301c 	str	r3, [sp, #28]
50003630:	e59f01b0 	ldr	r0, [pc, #432]	; 500037e8 <copy_process+0x1ec>
50003634:	ebfff706 	bl	50001254 <uart_puts>
50003638:	ea000000 	b	50003640 <copy_process+0x44>
5000363c:	e1a00000 	nop			; (mov r0, r0)
50003640:	e59d301c 	ldr	r3, [sp, #28]
50003644:	e59d200c 	ldr	r2, [sp, #12]
50003648:	e0823003 	add	r3, r2, r3
5000364c:	e1a00003 	mov	r0, r3
50003650:	ebfff958 	bl	50001bb8 <uart_get_file>
50003654:	e1a03000 	mov	r3, r0
50003658:	e3530000 	cmp	r3, #0
5000365c:	0a000007 	beq	50003680 <copy_process+0x84>
50003660:	e3a03001 	mov	r3, #1
50003664:	e58d3020 	str	r3, [sp, #32]
50003668:	e3a03000 	mov	r3, #0
5000366c:	e58d3024 	str	r3, [sp, #36]	; 0x24
50003670:	e59d301c 	ldr	r3, [sp, #28]
50003674:	e2833001 	add	r3, r3, #1
50003678:	e58d301c 	str	r3, [sp, #28]
5000367c:	ea000005 	b	50003698 <copy_process+0x9c>
50003680:	e59d3020 	ldr	r3, [sp, #32]
50003684:	e3530000 	cmp	r3, #0
50003688:	0a000002 	beq	50003698 <copy_process+0x9c>
5000368c:	e59d3024 	ldr	r3, [sp, #36]	; 0x24
50003690:	e2833001 	add	r3, r3, #1
50003694:	e58d3024 	str	r3, [sp, #36]	; 0x24
50003698:	e59d2024 	ldr	r2, [sp, #36]	; 0x24
5000369c:	e3e034ff 	mvn	r3, #-16777216	; 0xff000000
500036a0:	e1520003 	cmp	r2, r3
500036a4:	1affffe4 	bne	5000363c <copy_process+0x40>
500036a8:	e1a00000 	nop			; (mov r0, r0)
500036ac:	e59d301c 	ldr	r3, [sp, #28]
500036b0:	e3530000 	cmp	r3, #0
500036b4:	1a000002 	bne	500036c4 <copy_process+0xc8>
500036b8:	e59f012c 	ldr	r0, [pc, #300]	; 500037ec <copy_process+0x1f0>
500036bc:	ebfff6e4 	bl	50001254 <uart_puts>
500036c0:	ea000045 	b	500037dc <copy_process+0x1e0>
500036c4:	e59f0124 	ldr	r0, [pc, #292]	; 500037f0 <copy_process+0x1f4>
500036c8:	ebfff6fb 	bl	500012bc <uart_printf>
500036cc:	e59d001c 	ldr	r0, [sp, #28]
500036d0:	ebfff8f5 	bl	50001aac <uart_print_int>
500036d4:	e59f0118 	ldr	r0, [pc, #280]	; 500037f4 <copy_process+0x1f8>
500036d8:	ebfff6f7 	bl	500012bc <uart_printf>
500036dc:	e59f0114 	ldr	r0, [pc, #276]	; 500037f8 <copy_process+0x1fc>
500036e0:	ebfff6f5 	bl	500012bc <uart_printf>
500036e4:	e59d3010 	ldr	r3, [sp, #16]
500036e8:	e283300f 	add	r3, r3, #15
500036ec:	e59d0010 	ldr	r0, [sp, #16]
500036f0:	e1a01003 	mov	r1, r3
500036f4:	ebfff389 	bl	50000520 <sdram_read>
500036f8:	e59f00fc 	ldr	r0, [pc, #252]	; 500037fc <copy_process+0x200>
500036fc:	ebfff6ee 	bl	500012bc <uart_printf>
50003700:	e59d201c 	ldr	r2, [sp, #28]
50003704:	e59d3010 	ldr	r3, [sp, #16]
50003708:	e0823003 	add	r3, r2, r3
5000370c:	e2432010 	sub	r2, r3, #16
50003710:	e59d101c 	ldr	r1, [sp, #28]
50003714:	e59d3010 	ldr	r3, [sp, #16]
50003718:	e0813003 	add	r3, r1, r3
5000371c:	e2433001 	sub	r3, r3, #1
50003720:	e1a00002 	mov	r0, r2
50003724:	e1a01003 	mov	r1, r3
50003728:	ebfff37c 	bl	50000520 <sdram_read>
5000372c:	e59f00cc 	ldr	r0, [pc, #204]	; 50003800 <copy_process+0x204>
50003730:	ebfff6c7 	bl	50001254 <uart_puts>
50003734:	e59f00c8 	ldr	r0, [pc, #200]	; 50003804 <copy_process+0x208>
50003738:	ebfff6df 	bl	500012bc <uart_printf>
5000373c:	ebfff76c 	bl	500014f4 <uart_getc>
50003740:	e1a03000 	mov	r3, r0
50003744:	e5cd300b 	strb	r3, [sp, #11]
50003748:	e59f00b8 	ldr	r0, [pc, #184]	; 50003808 <copy_process+0x20c>
5000374c:	ebfff6c0 	bl	50001254 <uart_puts>
50003750:	e5dd300b 	ldrb	r3, [sp, #11]
50003754:	e3530059 	cmp	r3, #89	; 0x59
50003758:	0a000005 	beq	50003774 <copy_process+0x178>
5000375c:	e5dd300b 	ldrb	r3, [sp, #11]
50003760:	e3530079 	cmp	r3, #121	; 0x79
50003764:	0a000002 	beq	50003774 <copy_process+0x178>
50003768:	e59f009c 	ldr	r0, [pc, #156]	; 5000380c <copy_process+0x210>
5000376c:	ebfff6b8 	bl	50001254 <uart_puts>
50003770:	ea000019 	b	500037dc <copy_process+0x1e0>
50003774:	e59f0094 	ldr	r0, [pc, #148]	; 50003810 <copy_process+0x214>
50003778:	ebfff6b5 	bl	50001254 <uart_puts>
5000377c:	e59d3010 	ldr	r3, [sp, #16]
50003780:	e58d3018 	str	r3, [sp, #24]
50003784:	e3a03000 	mov	r3, #0
50003788:	e58d3014 	str	r3, [sp, #20]
5000378c:	e59d201c 	ldr	r2, [sp, #28]
50003790:	e59d3014 	ldr	r3, [sp, #20]
50003794:	e1520003 	cmp	r2, r3
50003798:	9a00000d 	bls	500037d4 <copy_process+0x1d8>
5000379c:	e59d3018 	ldr	r3, [sp, #24]
500037a0:	e5932000 	ldr	r2, [r3]
500037a4:	e59d3004 	ldr	r3, [sp, #4]
500037a8:	e5832000 	str	r2, [r3]
500037ac:	e59d3004 	ldr	r3, [sp, #4]
500037b0:	e2833004 	add	r3, r3, #4
500037b4:	e58d3004 	str	r3, [sp, #4]
500037b8:	e59d3018 	ldr	r3, [sp, #24]
500037bc:	e2833004 	add	r3, r3, #4
500037c0:	e58d3018 	str	r3, [sp, #24]
500037c4:	e59d3014 	ldr	r3, [sp, #20]
500037c8:	e2833004 	add	r3, r3, #4
500037cc:	e58d3014 	str	r3, [sp, #20]
500037d0:	eaffffed 	b	5000378c <copy_process+0x190>
500037d4:	e1a00000 	nop			; (mov r0, r0)
500037d8:	e1a00000 	nop			; (mov r0, r0)
500037dc:	e28dd02c 	add	sp, sp, #44	; 0x2c
500037e0:	e8bd8000 	ldmfd	sp!, {pc}
500037e4:	5fc00000 	svcpl	0x00c00000
500037e8:	50004a2c 	andpl	r4, r0, ip, lsr #20
500037ec:	50004a5c 	andpl	r4, r0, ip, asr sl
500037f0:	50004a70 	andpl	r4, r0, r0, ror sl
500037f4:	50004a7c 	andpl	r4, r0, ip, ror sl
500037f8:	50004a8c 	andpl	r4, r0, ip, lsl #21
500037fc:	50004aa4 	andpl	r4, r0, r4, lsr #21
50003800:	50004abc 			; <UNDEFINED> instruction: 0x50004abc
50003804:	50004ae4 	andpl	r4, r0, r4, ror #21
50003808:	50004a20 	andpl	r4, r0, r0, lsr #20
5000380c:	50004aec 	andpl	r4, r0, ip, ror #21
50003810:	50004b04 	andpl	r4, r0, r4, lsl #22

50003814 <sys_enter_critical>:
50003814:	e14f4000 	mrs	r4, SPSR
50003818:	e38440c0 	orr	r4, r4, #192	; 0xc0
5000381c:	e169f004 	msr	SPSR_fc, r4
50003820:	e3a03000 	mov	r3, #0
50003824:	e1a00003 	mov	r0, r3
50003828:	e12fff1e 	bx	lr

5000382c <sys_exit_critical>:
5000382c:	e14f4000 	mrs	r4, SPSR
50003830:	e3c440c0 	bic	r4, r4, #192	; 0xc0
50003834:	e169f004 	msr	SPSR_fc, r4
50003838:	e3a03000 	mov	r3, #0
5000383c:	e1a00003 	mov	r0, r3
50003840:	e12fff1e 	bx	lr

50003844 <sys_exit>:
50003844:	e3a03000 	mov	r3, #0
50003848:	e1a00003 	mov	r0, r3
5000384c:	e12fff1e 	bx	lr

50003850 <sys_sleep>:
50003850:	e92d4010 	push	{r4, lr}
50003854:	e24dd008 	sub	sp, sp, #8
50003858:	e1a04000 	mov	r4, r0
5000385c:	e58d4004 	str	r4, [sp, #4]
50003860:	e59f302c 	ldr	r3, [pc, #44]	; 50003894 <sys_sleep+0x44>
50003864:	e5933000 	ldr	r3, [r3]
50003868:	e3a02005 	mov	r2, #5
5000386c:	e5832004 	str	r2, [r3, #4]
50003870:	e59f301c 	ldr	r3, [pc, #28]	; 50003894 <sys_sleep+0x44>
50003874:	e5933000 	ldr	r3, [r3]
50003878:	e59d2004 	ldr	r2, [sp, #4]
5000387c:	e583200c 	str	r2, [r3, #12]
50003880:	ebfffd59 	bl	50002dec <schedule>
50003884:	e3a03000 	mov	r3, #0
50003888:	e1a00003 	mov	r0, r3
5000388c:	e28dd008 	add	sp, sp, #8
50003890:	e8bd8010 	pop	{r4, pc}
50003894:	50004d38 	andpl	r4, r0, r8, lsr sp

50003898 <sys_print>:
50003898:	e3a03000 	mov	r3, #0
5000389c:	e1a00003 	mov	r0, r3
500038a0:	e12fff1e 	bx	lr

500038a4 <sys_leds_on>:
500038a4:	e92d4008 	push	{r3, lr}
500038a8:	ebfffa29 	bl	50002154 <all_leds_on>
500038ac:	e3a03000 	mov	r3, #0
500038b0:	e1a00003 	mov	r0, r3
500038b4:	e8bd8008 	pop	{r3, pc}

500038b8 <sys_leds_off>:
500038b8:	e92d4008 	push	{r3, lr}
500038bc:	ebfffa2c 	bl	50002174 <all_leds_off>
500038c0:	e3a03000 	mov	r3, #0
500038c4:	e1a00003 	mov	r0, r3
500038c8:	e8bd8008 	pop	{r3, pc}

500038cc <sys_set_led>:
500038cc:	e3a03000 	mov	r3, #0
500038d0:	e1a00003 	mov	r0, r3
500038d4:	e12fff1e 	bx	lr

500038d8 <switch_process>:
500038d8:	e10f2000 	mrs	r2, CPSR
500038dc:	e202201f 	and	r2, r2, #31
500038e0:	e3520012 	cmp	r2, #18
500038e4:	059fd078 	ldreq	sp, [pc, #120]	; 50003964 <restore_content+0x24>
500038e8:	13e0d2fa 	mvnne	sp, #-1610612721	; 0xa000000f
500038ec:	e2800014 	add	r0, r0, #20
500038f0:	e14f2000 	mrs	r2, SPSR
500038f4:	e8a00004 	stmia	r0!, {r2}
500038f8:	e8e02000 	stmia	r0!, {sp}^
500038fc:	e8e04000 	stmia	r0!, {lr}^
50003900:	e24dd038 	sub	sp, sp, #56	; 0x38
50003904:	e8bd1ffc 	pop	{r2, r3, r4, r5, r6, r7, r8, r9, sl, fp, ip}
50003908:	e8a01ffc 	stmia	r0!, {r2, r3, r4, r5, r6, r7, r8, r9, sl, fp, ip}
5000390c:	e8bd001c 	pop	{r2, r3, r4}
50003910:	e8a0001c 	stmia	r0!, {r2, r3, r4}
50003914:	e10f2000 	mrs	r2, CPSR
50003918:	e202201f 	and	r2, r2, #31
5000391c:	e3520012 	cmp	r2, #18
50003920:	1a000006 	bne	50003940 <restore_content>
50003924:	e59f203c 	ldr	r2, [pc, #60]	; 50003968 <restore_content+0x28>
50003928:	e5923000 	ldr	r3, [r2]
5000392c:	e3833020 	orr	r3, r3, #32
50003930:	e5823000 	str	r3, [r2]
50003934:	e59f2030 	ldr	r2, [pc, #48]	; 5000396c <restore_content+0x2c>
50003938:	e3a03000 	mov	r3, #0
5000393c:	e5823000 	str	r3, [r2]

50003940 <restore_content>:
50003940:	e2811014 	add	r1, r1, #20
50003944:	e8b1001c 	ldm	r1!, {r2, r3, r4}
50003948:	e16ff002 	msr	SPSR_fsxc, r2
5000394c:	e10f2000 	mrs	r2, CPSR
50003950:	e321f0df 	msr	CPSR_c, #223	; 0xdf
50003954:	e1a0d003 	mov	sp, r3
50003958:	e1a0e004 	mov	lr, r4
5000395c:	e12ff002 	msr	CPSR_fsxc, r2
50003960:	e8d19fff 	ldm	r1, {r0, r1, r2, r3, r4, r5, r6, r7, r8, r9, sl, fp, ip, pc}^
50003964:	5fff5ff0 	svcpl	0x00ff5ff0
50003968:	7f006044 	svcvc	0x00006044
5000396c:	71200f00 	teqvc	r0, r0, lsl #30

50003970 <init_pwm>:
50003970:	e59f3078 	ldr	r3, [pc, #120]	; 500039f0 <init_pwm+0x80>
50003974:	e59f2074 	ldr	r2, [pc, #116]	; 500039f0 <init_pwm+0x80>
50003978:	e5922000 	ldr	r2, [r2]
5000397c:	e3c220ff 	bic	r2, r2, #255	; 0xff
50003980:	e3822041 	orr	r2, r2, #65	; 0x41
50003984:	e5832000 	str	r2, [r3]
50003988:	e59f3064 	ldr	r3, [pc, #100]	; 500039f4 <init_pwm+0x84>
5000398c:	e3a02000 	mov	r2, #0
50003990:	e5832000 	str	r2, [r3]
50003994:	e59f305c 	ldr	r3, [pc, #92]	; 500039f8 <init_pwm+0x88>
50003998:	e59f205c 	ldr	r2, [pc, #92]	; 500039fc <init_pwm+0x8c>
5000399c:	e5832000 	str	r2, [r3]
500039a0:	e59f3058 	ldr	r3, [pc, #88]	; 50003a00 <init_pwm+0x90>
500039a4:	e3a02001 	mov	r2, #1
500039a8:	e5832000 	str	r2, [r3]
500039ac:	e59f3050 	ldr	r3, [pc, #80]	; 50003a04 <init_pwm+0x94>
500039b0:	e3a0200b 	mov	r2, #11
500039b4:	e5832000 	str	r2, [r3]
500039b8:	e59f3044 	ldr	r3, [pc, #68]	; 50003a04 <init_pwm+0x94>
500039bc:	e59f2040 	ldr	r2, [pc, #64]	; 50003a04 <init_pwm+0x94>
500039c0:	e5922000 	ldr	r2, [r2]
500039c4:	e3c22002 	bic	r2, r2, #2
500039c8:	e5832000 	str	r2, [r3]
500039cc:	e59f3034 	ldr	r3, [pc, #52]	; 50003a08 <init_pwm+0x98>
500039d0:	e59f2030 	ldr	r2, [pc, #48]	; 50003a08 <init_pwm+0x98>
500039d4:	e5922000 	ldr	r2, [r2]
500039d8:	e3822502 	orr	r2, r2, #8388608	; 0x800000
500039dc:	e5832000 	str	r2, [r3]
500039e0:	e59f3024 	ldr	r3, [pc, #36]	; 50003a0c <init_pwm+0x9c>
500039e4:	e59f2024 	ldr	r2, [pc, #36]	; 50003a10 <init_pwm+0xa0>
500039e8:	e5832000 	str	r2, [r3]
500039ec:	e12fff1e 	bx	lr
500039f0:	7f006000 	svcvc	0x00006000
500039f4:	7f006004 	svcvc	0x00006004
500039f8:	7f00600c 	svcvc	0x0000600c
500039fc:	00002710 	andeq	r2, r0, r0, lsl r7
50003a00:	7f006044 	svcvc	0x00006044
50003a04:	7f006008 	svcvc	0x00006008
50003a08:	71200010 	teqvc	r0, r0, lsl r0
50003a0c:	7120015c 	teqvc	r0, ip, asr r1
50003a10:	50003a14 	andpl	r3, r0, r4, lsl sl

50003a14 <pwm_isr>:
50003a14:	e92d4008 	push	{r3, lr}
50003a18:	ebfffd8e 	bl	50003058 <round_robin>
50003a1c:	e59f3020 	ldr	r3, [pc, #32]	; 50003a44 <pwm_isr+0x30>
50003a20:	e59f201c 	ldr	r2, [pc, #28]	; 50003a44 <pwm_isr+0x30>
50003a24:	e5922000 	ldr	r2, [r2]
50003a28:	e3822020 	orr	r2, r2, #32
50003a2c:	e5832000 	str	r2, [r3]
50003a30:	e59f3010 	ldr	r3, [pc, #16]	; 50003a48 <pwm_isr+0x34>
50003a34:	e3a02000 	mov	r2, #0
50003a38:	e5832000 	str	r2, [r3]
50003a3c:	e1a00000 	nop			; (mov r0, r0)
50003a40:	e8bd8008 	pop	{r3, pc}
50003a44:	7f006044 	svcvc	0x00006044
50003a48:	71200f00 	teqvc	r0, r0, lsl #30

50003a4c <read_rtc_time>:
50003a4c:	e52de004 	push	{lr}		; (str lr, [sp, #-4]!)
50003a50:	e24dd00c 	sub	sp, sp, #12
50003a54:	e3a03000 	mov	r3, #0
50003a58:	e58d3004 	str	r3, [sp, #4]
50003a5c:	eb00002d 	bl	50003b18 <get_rtc_year>
50003a60:	e58d0004 	str	r0, [sp, #4]
50003a64:	e59d0004 	ldr	r0, [sp, #4]
50003a68:	ebfff80f 	bl	50001aac <uart_print_int>
50003a6c:	e59f0094 	ldr	r0, [pc, #148]	; 50003b08 <read_rtc_time+0xbc>
50003a70:	ebfff611 	bl	500012bc <uart_printf>
50003a74:	eb000049 	bl	50003ba0 <get_rtc_month>
50003a78:	e58d0004 	str	r0, [sp, #4]
50003a7c:	e59d0004 	ldr	r0, [sp, #4]
50003a80:	ebfff809 	bl	50001aac <uart_print_int>
50003a84:	e59f007c 	ldr	r0, [pc, #124]	; 50003b08 <read_rtc_time+0xbc>
50003a88:	ebfff60b 	bl	500012bc <uart_printf>
50003a8c:	eb00007d 	bl	50003c88 <get_rtc_date>
50003a90:	e58d0004 	str	r0, [sp, #4]
50003a94:	e59d0004 	ldr	r0, [sp, #4]
50003a98:	ebfff803 	bl	50001aac <uart_print_int>
50003a9c:	e59f0068 	ldr	r0, [pc, #104]	; 50003b0c <read_rtc_time+0xc0>
50003aa0:	ebfff605 	bl	500012bc <uart_printf>
50003aa4:	eb00005f 	bl	50003c28 <get_rtc_day>
50003aa8:	e58d0004 	str	r0, [sp, #4]
50003aac:	e59d0004 	ldr	r0, [sp, #4]
50003ab0:	ebfff7fd 	bl	50001aac <uart_print_int>
50003ab4:	e59f0054 	ldr	r0, [pc, #84]	; 50003b10 <read_rtc_time+0xc4>
50003ab8:	ebfff5ff 	bl	500012bc <uart_printf>
50003abc:	eb000093 	bl	50003d10 <get_rtc_hour>
50003ac0:	e58d0004 	str	r0, [sp, #4]
50003ac4:	e59d0004 	ldr	r0, [sp, #4]
50003ac8:	ebfff7f7 	bl	50001aac <uart_print_int>
50003acc:	e59f0040 	ldr	r0, [pc, #64]	; 50003b14 <read_rtc_time+0xc8>
50003ad0:	ebfff5f9 	bl	500012bc <uart_printf>
50003ad4:	eb0000af 	bl	50003d98 <get_rtc_minute>
50003ad8:	e58d0004 	str	r0, [sp, #4]
50003adc:	e59d0004 	ldr	r0, [sp, #4]
50003ae0:	ebfff7f1 	bl	50001aac <uart_print_int>
50003ae4:	e59f0028 	ldr	r0, [pc, #40]	; 50003b14 <read_rtc_time+0xc8>
50003ae8:	ebfff5f3 	bl	500012bc <uart_printf>
50003aec:	eb0000cb 	bl	50003e20 <get_rtc_second>
50003af0:	e58d0004 	str	r0, [sp, #4]
50003af4:	e59d0004 	ldr	r0, [sp, #4]
50003af8:	ebfff7eb 	bl	50001aac <uart_print_int>
50003afc:	e1a00000 	nop			; (mov r0, r0)
50003b00:	e28dd00c 	add	sp, sp, #12
50003b04:	e8bd8000 	ldmfd	sp!, {pc}
50003b08:	50004b18 	andpl	r4, r0, r8, lsl fp
50003b0c:	50004b1c 	andpl	r4, r0, ip, lsl fp
50003b10:	50004b20 	andpl	r4, r0, r0, lsr #22
50003b14:	50004b24 	andpl	r4, r0, r4, lsr #22

50003b18 <get_rtc_year>:
50003b18:	e24dd008 	sub	sp, sp, #8
50003b1c:	e59f3074 	ldr	r3, [pc, #116]	; 50003b98 <get_rtc_year+0x80>
50003b20:	e59f2070 	ldr	r2, [pc, #112]	; 50003b98 <get_rtc_year+0x80>
50003b24:	e5922000 	ldr	r2, [r2]
50003b28:	e3822008 	orr	r2, r2, #8
50003b2c:	e5832000 	str	r2, [r3]
50003b30:	e59f3060 	ldr	r3, [pc, #96]	; 50003b98 <get_rtc_year+0x80>
50003b34:	e3a02001 	mov	r2, #1
50003b38:	e5832000 	str	r2, [r3]
50003b3c:	e59f3058 	ldr	r3, [pc, #88]	; 50003b9c <get_rtc_year+0x84>
50003b40:	e5933000 	ldr	r3, [r3]
50003b44:	e5cd3007 	strb	r3, [sp, #7]
50003b48:	e5dd3007 	ldrb	r3, [sp, #7]
50003b4c:	e1a03223 	lsr	r3, r3, #4
50003b50:	e20330ff 	and	r3, r3, #255	; 0xff
50003b54:	e203200f 	and	r2, r3, #15
50003b58:	e1a03002 	mov	r3, r2
50003b5c:	e1a03103 	lsl	r3, r3, #2
50003b60:	e0833002 	add	r3, r3, r2
50003b64:	e1a03083 	lsl	r3, r3, #1
50003b68:	e1a02003 	mov	r2, r3
50003b6c:	e5dd3007 	ldrb	r3, [sp, #7]
50003b70:	e203300f 	and	r3, r3, #15
50003b74:	e0823003 	add	r3, r2, r3
50003b78:	e58d3000 	str	r3, [sp]
50003b7c:	e59f3014 	ldr	r3, [pc, #20]	; 50003b98 <get_rtc_year+0x80>
50003b80:	e3a02000 	mov	r2, #0
50003b84:	e5832000 	str	r2, [r3]
50003b88:	e59d3000 	ldr	r3, [sp]
50003b8c:	e1a00003 	mov	r0, r3
50003b90:	e28dd008 	add	sp, sp, #8
50003b94:	e12fff1e 	bx	lr
50003b98:	7e005040 	cdpvc	0, 0, cr5, cr0, cr0, {2}
50003b9c:	7e005088 	cdpvc	0, 0, cr5, cr0, cr8, {4}

50003ba0 <get_rtc_month>:
50003ba0:	e24dd008 	sub	sp, sp, #8
50003ba4:	e59f3074 	ldr	r3, [pc, #116]	; 50003c20 <get_rtc_month+0x80>
50003ba8:	e59f2070 	ldr	r2, [pc, #112]	; 50003c20 <get_rtc_month+0x80>
50003bac:	e5922000 	ldr	r2, [r2]
50003bb0:	e3822008 	orr	r2, r2, #8
50003bb4:	e5832000 	str	r2, [r3]
50003bb8:	e59f3060 	ldr	r3, [pc, #96]	; 50003c20 <get_rtc_month+0x80>
50003bbc:	e3a02001 	mov	r2, #1
50003bc0:	e5832000 	str	r2, [r3]
50003bc4:	e59f3058 	ldr	r3, [pc, #88]	; 50003c24 <get_rtc_month+0x84>
50003bc8:	e5933000 	ldr	r3, [r3]
50003bcc:	e5cd3007 	strb	r3, [sp, #7]
50003bd0:	e5dd3007 	ldrb	r3, [sp, #7]
50003bd4:	e1a03223 	lsr	r3, r3, #4
50003bd8:	e20330ff 	and	r3, r3, #255	; 0xff
50003bdc:	e2032001 	and	r2, r3, #1
50003be0:	e1a03002 	mov	r3, r2
50003be4:	e1a03103 	lsl	r3, r3, #2
50003be8:	e0833002 	add	r3, r3, r2
50003bec:	e1a03083 	lsl	r3, r3, #1
50003bf0:	e1a02003 	mov	r2, r3
50003bf4:	e5dd3007 	ldrb	r3, [sp, #7]
50003bf8:	e203300f 	and	r3, r3, #15
50003bfc:	e0823003 	add	r3, r2, r3
50003c00:	e58d3000 	str	r3, [sp]
50003c04:	e59f3014 	ldr	r3, [pc, #20]	; 50003c20 <get_rtc_month+0x80>
50003c08:	e3a02000 	mov	r2, #0
50003c0c:	e5832000 	str	r2, [r3]
50003c10:	e59d3000 	ldr	r3, [sp]
50003c14:	e1a00003 	mov	r0, r3
50003c18:	e28dd008 	add	sp, sp, #8
50003c1c:	e12fff1e 	bx	lr
50003c20:	7e005040 	cdpvc	0, 0, cr5, cr0, cr0, {2}
50003c24:	7e005084 	cdpvc	0, 0, cr5, cr0, cr4, {4}

50003c28 <get_rtc_day>:
50003c28:	e24dd008 	sub	sp, sp, #8
50003c2c:	e59f304c 	ldr	r3, [pc, #76]	; 50003c80 <get_rtc_day+0x58>
50003c30:	e59f2048 	ldr	r2, [pc, #72]	; 50003c80 <get_rtc_day+0x58>
50003c34:	e5922000 	ldr	r2, [r2]
50003c38:	e3822008 	orr	r2, r2, #8
50003c3c:	e5832000 	str	r2, [r3]
50003c40:	e59f3038 	ldr	r3, [pc, #56]	; 50003c80 <get_rtc_day+0x58>
50003c44:	e3a02001 	mov	r2, #1
50003c48:	e5832000 	str	r2, [r3]
50003c4c:	e59f3030 	ldr	r3, [pc, #48]	; 50003c84 <get_rtc_day+0x5c>
50003c50:	e5933000 	ldr	r3, [r3]
50003c54:	e5cd3007 	strb	r3, [sp, #7]
50003c58:	e5dd3007 	ldrb	r3, [sp, #7]
50003c5c:	e2033007 	and	r3, r3, #7
50003c60:	e58d3000 	str	r3, [sp]
50003c64:	e59f3014 	ldr	r3, [pc, #20]	; 50003c80 <get_rtc_day+0x58>
50003c68:	e3a02000 	mov	r2, #0
50003c6c:	e5832000 	str	r2, [r3]
50003c70:	e59d3000 	ldr	r3, [sp]
50003c74:	e1a00003 	mov	r0, r3
50003c78:	e28dd008 	add	sp, sp, #8
50003c7c:	e12fff1e 	bx	lr
50003c80:	7e005040 	cdpvc	0, 0, cr5, cr0, cr0, {2}
50003c84:	7e005080 	cdpvc	0, 0, cr5, cr0, cr0, {4}

50003c88 <get_rtc_date>:
50003c88:	e24dd008 	sub	sp, sp, #8
50003c8c:	e59f3074 	ldr	r3, [pc, #116]	; 50003d08 <get_rtc_date+0x80>
50003c90:	e59f2070 	ldr	r2, [pc, #112]	; 50003d08 <get_rtc_date+0x80>
50003c94:	e5922000 	ldr	r2, [r2]
50003c98:	e3822008 	orr	r2, r2, #8
50003c9c:	e5832000 	str	r2, [r3]
50003ca0:	e59f3060 	ldr	r3, [pc, #96]	; 50003d08 <get_rtc_date+0x80>
50003ca4:	e3a02001 	mov	r2, #1
50003ca8:	e5832000 	str	r2, [r3]
50003cac:	e59f3058 	ldr	r3, [pc, #88]	; 50003d0c <get_rtc_date+0x84>
50003cb0:	e5933000 	ldr	r3, [r3]
50003cb4:	e5cd3007 	strb	r3, [sp, #7]
50003cb8:	e5dd3007 	ldrb	r3, [sp, #7]
50003cbc:	e1a03223 	lsr	r3, r3, #4
50003cc0:	e20330ff 	and	r3, r3, #255	; 0xff
50003cc4:	e2032003 	and	r2, r3, #3
50003cc8:	e1a03002 	mov	r3, r2
50003ccc:	e1a03103 	lsl	r3, r3, #2
50003cd0:	e0833002 	add	r3, r3, r2
50003cd4:	e1a03083 	lsl	r3, r3, #1
50003cd8:	e1a02003 	mov	r2, r3
50003cdc:	e5dd3007 	ldrb	r3, [sp, #7]
50003ce0:	e203300f 	and	r3, r3, #15
50003ce4:	e0823003 	add	r3, r2, r3
50003ce8:	e58d3000 	str	r3, [sp]
50003cec:	e59f3014 	ldr	r3, [pc, #20]	; 50003d08 <get_rtc_date+0x80>
50003cf0:	e3a02000 	mov	r2, #0
50003cf4:	e5832000 	str	r2, [r3]
50003cf8:	e59d3000 	ldr	r3, [sp]
50003cfc:	e1a00003 	mov	r0, r3
50003d00:	e28dd008 	add	sp, sp, #8
50003d04:	e12fff1e 	bx	lr
50003d08:	7e005040 	cdpvc	0, 0, cr5, cr0, cr0, {2}
50003d0c:	7e00507c 	mcrvc	0, 0, r5, cr0, cr12, {3}

50003d10 <get_rtc_hour>:
50003d10:	e24dd008 	sub	sp, sp, #8
50003d14:	e59f3074 	ldr	r3, [pc, #116]	; 50003d90 <get_rtc_hour+0x80>
50003d18:	e59f2070 	ldr	r2, [pc, #112]	; 50003d90 <get_rtc_hour+0x80>
50003d1c:	e5922000 	ldr	r2, [r2]
50003d20:	e3822008 	orr	r2, r2, #8
50003d24:	e5832000 	str	r2, [r3]
50003d28:	e59f3060 	ldr	r3, [pc, #96]	; 50003d90 <get_rtc_hour+0x80>
50003d2c:	e3a02001 	mov	r2, #1
50003d30:	e5832000 	str	r2, [r3]
50003d34:	e59f3058 	ldr	r3, [pc, #88]	; 50003d94 <get_rtc_hour+0x84>
50003d38:	e5933000 	ldr	r3, [r3]
50003d3c:	e5cd3007 	strb	r3, [sp, #7]
50003d40:	e5dd3007 	ldrb	r3, [sp, #7]
50003d44:	e1a03223 	lsr	r3, r3, #4
50003d48:	e20330ff 	and	r3, r3, #255	; 0xff
50003d4c:	e2032003 	and	r2, r3, #3
50003d50:	e1a03002 	mov	r3, r2
50003d54:	e1a03103 	lsl	r3, r3, #2
50003d58:	e0833002 	add	r3, r3, r2
50003d5c:	e1a03083 	lsl	r3, r3, #1
50003d60:	e1a02003 	mov	r2, r3
50003d64:	e5dd3007 	ldrb	r3, [sp, #7]
50003d68:	e203300f 	and	r3, r3, #15
50003d6c:	e0823003 	add	r3, r2, r3
50003d70:	e58d3000 	str	r3, [sp]
50003d74:	e59f3014 	ldr	r3, [pc, #20]	; 50003d90 <get_rtc_hour+0x80>
50003d78:	e3a02000 	mov	r2, #0
50003d7c:	e5832000 	str	r2, [r3]
50003d80:	e59d3000 	ldr	r3, [sp]
50003d84:	e1a00003 	mov	r0, r3
50003d88:	e28dd008 	add	sp, sp, #8
50003d8c:	e12fff1e 	bx	lr
50003d90:	7e005040 	cdpvc	0, 0, cr5, cr0, cr0, {2}
50003d94:	7e005078 	mcrvc	0, 0, r5, cr0, cr8, {3}

50003d98 <get_rtc_minute>:
50003d98:	e24dd008 	sub	sp, sp, #8
50003d9c:	e59f3074 	ldr	r3, [pc, #116]	; 50003e18 <get_rtc_minute+0x80>
50003da0:	e59f2070 	ldr	r2, [pc, #112]	; 50003e18 <get_rtc_minute+0x80>
50003da4:	e5922000 	ldr	r2, [r2]
50003da8:	e3822008 	orr	r2, r2, #8
50003dac:	e5832000 	str	r2, [r3]
50003db0:	e59f3060 	ldr	r3, [pc, #96]	; 50003e18 <get_rtc_minute+0x80>
50003db4:	e3a02001 	mov	r2, #1
50003db8:	e5832000 	str	r2, [r3]
50003dbc:	e59f3058 	ldr	r3, [pc, #88]	; 50003e1c <get_rtc_minute+0x84>
50003dc0:	e5933000 	ldr	r3, [r3]
50003dc4:	e5cd3007 	strb	r3, [sp, #7]
50003dc8:	e5dd3007 	ldrb	r3, [sp, #7]
50003dcc:	e1a03223 	lsr	r3, r3, #4
50003dd0:	e20330ff 	and	r3, r3, #255	; 0xff
50003dd4:	e2032007 	and	r2, r3, #7
50003dd8:	e1a03002 	mov	r3, r2
50003ddc:	e1a03103 	lsl	r3, r3, #2
50003de0:	e0833002 	add	r3, r3, r2
50003de4:	e1a03083 	lsl	r3, r3, #1
50003de8:	e1a02003 	mov	r2, r3
50003dec:	e5dd3007 	ldrb	r3, [sp, #7]
50003df0:	e203300f 	and	r3, r3, #15
50003df4:	e0823003 	add	r3, r2, r3
50003df8:	e58d3000 	str	r3, [sp]
50003dfc:	e59f3014 	ldr	r3, [pc, #20]	; 50003e18 <get_rtc_minute+0x80>
50003e00:	e3a02000 	mov	r2, #0
50003e04:	e5832000 	str	r2, [r3]
50003e08:	e59d3000 	ldr	r3, [sp]
50003e0c:	e1a00003 	mov	r0, r3
50003e10:	e28dd008 	add	sp, sp, #8
50003e14:	e12fff1e 	bx	lr
50003e18:	7e005040 	cdpvc	0, 0, cr5, cr0, cr0, {2}
50003e1c:	7e005074 	mcrvc	0, 0, r5, cr0, cr4, {3}

50003e20 <get_rtc_second>:
50003e20:	e24dd008 	sub	sp, sp, #8
50003e24:	e59f3074 	ldr	r3, [pc, #116]	; 50003ea0 <get_rtc_second+0x80>
50003e28:	e59f2070 	ldr	r2, [pc, #112]	; 50003ea0 <get_rtc_second+0x80>
50003e2c:	e5922000 	ldr	r2, [r2]
50003e30:	e3822008 	orr	r2, r2, #8
50003e34:	e5832000 	str	r2, [r3]
50003e38:	e59f3060 	ldr	r3, [pc, #96]	; 50003ea0 <get_rtc_second+0x80>
50003e3c:	e3a02001 	mov	r2, #1
50003e40:	e5832000 	str	r2, [r3]
50003e44:	e59f3058 	ldr	r3, [pc, #88]	; 50003ea4 <get_rtc_second+0x84>
50003e48:	e5933000 	ldr	r3, [r3]
50003e4c:	e5cd3007 	strb	r3, [sp, #7]
50003e50:	e5dd3007 	ldrb	r3, [sp, #7]
50003e54:	e1a03223 	lsr	r3, r3, #4
50003e58:	e20330ff 	and	r3, r3, #255	; 0xff
50003e5c:	e2032007 	and	r2, r3, #7
50003e60:	e1a03002 	mov	r3, r2
50003e64:	e1a03103 	lsl	r3, r3, #2
50003e68:	e0833002 	add	r3, r3, r2
50003e6c:	e1a03083 	lsl	r3, r3, #1
50003e70:	e1a02003 	mov	r2, r3
50003e74:	e5dd3007 	ldrb	r3, [sp, #7]
50003e78:	e203300f 	and	r3, r3, #15
50003e7c:	e0823003 	add	r3, r2, r3
50003e80:	e58d3000 	str	r3, [sp]
50003e84:	e59f3014 	ldr	r3, [pc, #20]	; 50003ea0 <get_rtc_second+0x80>
50003e88:	e3a02000 	mov	r2, #0
50003e8c:	e5832000 	str	r2, [r3]
50003e90:	e59d3000 	ldr	r3, [sp]
50003e94:	e1a00003 	mov	r0, r3
50003e98:	e28dd008 	add	sp, sp, #8
50003e9c:	e12fff1e 	bx	lr
50003ea0:	7e005040 	cdpvc	0, 0, cr5, cr0, cr0, {2}
50003ea4:	7e005070 	mcrvc	0, 0, r5, cr0, cr0, {3}

50003ea8 <bcd_to_ascii>:
50003ea8:	e52de004 	push	{lr}		; (str lr, [sp, #-4]!)
50003eac:	e24dd014 	sub	sp, sp, #20
50003eb0:	e1a03000 	mov	r3, r0
50003eb4:	e5cd3007 	strb	r3, [sp, #7]
50003eb8:	e5dd3007 	ldrb	r3, [sp, #7]
50003ebc:	e203300f 	and	r3, r3, #15
50003ec0:	e20330ff 	and	r3, r3, #255	; 0xff
50003ec4:	e2833030 	add	r3, r3, #48	; 0x30
50003ec8:	e5cd300f 	strb	r3, [sp, #15]
50003ecc:	e5dd3007 	ldrb	r3, [sp, #7]
50003ed0:	e3c3300f 	bic	r3, r3, #15
50003ed4:	e20330ff 	and	r3, r3, #255	; 0xff
50003ed8:	e2833030 	add	r3, r3, #48	; 0x30
50003edc:	e5cd300e 	strb	r3, [sp, #14]
50003ee0:	e5dd300e 	ldrb	r3, [sp, #14]
50003ee4:	e1a00003 	mov	r0, r3
50003ee8:	ebfff4c0 	bl	500011f0 <uart_putc>
50003eec:	e5dd300f 	ldrb	r3, [sp, #15]
50003ef0:	e1a00003 	mov	r0, r3
50003ef4:	ebfff4bd 	bl	500011f0 <uart_putc>
50003ef8:	e1a00000 	nop			; (mov r0, r0)
50003efc:	e28dd014 	add	sp, sp, #20
50003f00:	e8bd8000 	ldmfd	sp!, {pc}

50003f04 <change_rtc_time>:
50003f04:	e52de004 	push	{lr}		; (str lr, [sp, #-4]!)
50003f08:	e24dd00c 	sub	sp, sp, #12
50003f0c:	e3a03000 	mov	r3, #0
50003f10:	e58d3004 	str	r3, [sp, #4]
50003f14:	e59f0248 	ldr	r0, [pc, #584]	; 50004164 <change_rtc_time+0x260>
50003f18:	ebfff4cd 	bl	50001254 <uart_puts>
50003f1c:	e59f0244 	ldr	r0, [pc, #580]	; 50004168 <change_rtc_time+0x264>
50003f20:	ebfff4cb 	bl	50001254 <uart_puts>
50003f24:	e59f0240 	ldr	r0, [pc, #576]	; 5000416c <change_rtc_time+0x268>
50003f28:	ebfff4e3 	bl	500012bc <uart_printf>
50003f2c:	ebfff696 	bl	5000198c <uart_get_int>
50003f30:	e58d0004 	str	r0, [sp, #4]
50003f34:	e59d3004 	ldr	r3, [sp, #4]
50003f38:	e3530000 	cmp	r3, #0
50003f3c:	ba000002 	blt	50003f4c <change_rtc_time+0x48>
50003f40:	e59d3004 	ldr	r3, [sp, #4]
50003f44:	e3530063 	cmp	r3, #99	; 0x63
50003f48:	da000002 	ble	50003f58 <change_rtc_time+0x54>
50003f4c:	e59f0210 	ldr	r0, [pc, #528]	; 50004164 <change_rtc_time+0x260>
50003f50:	ebfff4bf 	bl	50001254 <uart_puts>
50003f54:	eafffff0 	b	50003f1c <change_rtc_time+0x18>
50003f58:	e1a00000 	nop			; (mov r0, r0)
50003f5c:	e59f0200 	ldr	r0, [pc, #512]	; 50004164 <change_rtc_time+0x260>
50003f60:	ebfff4bb 	bl	50001254 <uart_puts>
50003f64:	e59d0004 	ldr	r0, [sp, #4]
50003f68:	eb000087 	bl	5000418c <change_rtc_year>
50003f6c:	e59f01fc 	ldr	r0, [pc, #508]	; 50004170 <change_rtc_time+0x26c>
50003f70:	ebfff4b7 	bl	50001254 <uart_puts>
50003f74:	e59f01f0 	ldr	r0, [pc, #496]	; 5000416c <change_rtc_time+0x268>
50003f78:	ebfff4cf 	bl	500012bc <uart_printf>
50003f7c:	ebfff682 	bl	5000198c <uart_get_int>
50003f80:	e58d0004 	str	r0, [sp, #4]
50003f84:	e59d3004 	ldr	r3, [sp, #4]
50003f88:	e3530000 	cmp	r3, #0
50003f8c:	da000002 	ble	50003f9c <change_rtc_time+0x98>
50003f90:	e59d3004 	ldr	r3, [sp, #4]
50003f94:	e353000c 	cmp	r3, #12
50003f98:	da000002 	ble	50003fa8 <change_rtc_time+0xa4>
50003f9c:	e59f01c0 	ldr	r0, [pc, #448]	; 50004164 <change_rtc_time+0x260>
50003fa0:	ebfff4ab 	bl	50001254 <uart_puts>
50003fa4:	eafffff0 	b	50003f6c <change_rtc_time+0x68>
50003fa8:	e1a00000 	nop			; (mov r0, r0)
50003fac:	e59f01b0 	ldr	r0, [pc, #432]	; 50004164 <change_rtc_time+0x260>
50003fb0:	ebfff4a7 	bl	50001254 <uart_puts>
50003fb4:	e59d0004 	ldr	r0, [sp, #4]
50003fb8:	eb0000aa 	bl	50004268 <change_rtc_month>
50003fbc:	e59f01b0 	ldr	r0, [pc, #432]	; 50004174 <change_rtc_time+0x270>
50003fc0:	ebfff4a3 	bl	50001254 <uart_puts>
50003fc4:	e59f01a0 	ldr	r0, [pc, #416]	; 5000416c <change_rtc_time+0x268>
50003fc8:	ebfff4bb 	bl	500012bc <uart_printf>
50003fcc:	ebfff66e 	bl	5000198c <uart_get_int>
50003fd0:	e58d0004 	str	r0, [sp, #4]
50003fd4:	e59d3004 	ldr	r3, [sp, #4]
50003fd8:	e3530000 	cmp	r3, #0
50003fdc:	da000002 	ble	50003fec <change_rtc_time+0xe8>
50003fe0:	e59d3004 	ldr	r3, [sp, #4]
50003fe4:	e353001f 	cmp	r3, #31
50003fe8:	da000002 	ble	50003ff8 <change_rtc_time+0xf4>
50003fec:	e59f0170 	ldr	r0, [pc, #368]	; 50004164 <change_rtc_time+0x260>
50003ff0:	ebfff497 	bl	50001254 <uart_puts>
50003ff4:	eafffff0 	b	50003fbc <change_rtc_time+0xb8>
50003ff8:	e1a00000 	nop			; (mov r0, r0)
50003ffc:	e59f0160 	ldr	r0, [pc, #352]	; 50004164 <change_rtc_time+0x260>
50004000:	ebfff493 	bl	50001254 <uart_puts>
50004004:	e59d0004 	ldr	r0, [sp, #4]
50004008:	eb0000cd 	bl	50004344 <change_rtc_date>
5000400c:	e59f0164 	ldr	r0, [pc, #356]	; 50004178 <change_rtc_time+0x274>
50004010:	ebfff48f 	bl	50001254 <uart_puts>
50004014:	e59f0150 	ldr	r0, [pc, #336]	; 5000416c <change_rtc_time+0x268>
50004018:	ebfff4a7 	bl	500012bc <uart_printf>
5000401c:	ebfff65a 	bl	5000198c <uart_get_int>
50004020:	e58d0004 	str	r0, [sp, #4]
50004024:	e59d3004 	ldr	r3, [sp, #4]
50004028:	e3530000 	cmp	r3, #0
5000402c:	da000002 	ble	5000403c <change_rtc_time+0x138>
50004030:	e59d3004 	ldr	r3, [sp, #4]
50004034:	e3530007 	cmp	r3, #7
50004038:	da000002 	ble	50004048 <change_rtc_time+0x144>
5000403c:	e59f0120 	ldr	r0, [pc, #288]	; 50004164 <change_rtc_time+0x260>
50004040:	ebfff483 	bl	50001254 <uart_puts>
50004044:	eafffff0 	b	5000400c <change_rtc_time+0x108>
50004048:	e1a00000 	nop			; (mov r0, r0)
5000404c:	e59f0110 	ldr	r0, [pc, #272]	; 50004164 <change_rtc_time+0x260>
50004050:	ebfff47f 	bl	50001254 <uart_puts>
50004054:	e59d0004 	ldr	r0, [sp, #4]
50004058:	eb0000f0 	bl	50004420 <change_rtc_day>
5000405c:	e59f0118 	ldr	r0, [pc, #280]	; 5000417c <change_rtc_time+0x278>
50004060:	ebfff47b 	bl	50001254 <uart_puts>
50004064:	e59f0100 	ldr	r0, [pc, #256]	; 5000416c <change_rtc_time+0x268>
50004068:	ebfff493 	bl	500012bc <uart_printf>
5000406c:	ebfff646 	bl	5000198c <uart_get_int>
50004070:	e58d0004 	str	r0, [sp, #4]
50004074:	e59d3004 	ldr	r3, [sp, #4]
50004078:	e3530000 	cmp	r3, #0
5000407c:	ba000002 	blt	5000408c <change_rtc_time+0x188>
50004080:	e59d3004 	ldr	r3, [sp, #4]
50004084:	e3530017 	cmp	r3, #23
50004088:	da000002 	ble	50004098 <change_rtc_time+0x194>
5000408c:	e59f00d0 	ldr	r0, [pc, #208]	; 50004164 <change_rtc_time+0x260>
50004090:	ebfff46f 	bl	50001254 <uart_puts>
50004094:	eafffff0 	b	5000405c <change_rtc_time+0x158>
50004098:	e1a00000 	nop			; (mov r0, r0)
5000409c:	e59f00c0 	ldr	r0, [pc, #192]	; 50004164 <change_rtc_time+0x260>
500040a0:	ebfff46b 	bl	50001254 <uart_puts>
500040a4:	e59d0004 	ldr	r0, [sp, #4]
500040a8:	eb0000fc 	bl	500044a0 <change_rtc_hour>
500040ac:	e59f00cc 	ldr	r0, [pc, #204]	; 50004180 <change_rtc_time+0x27c>
500040b0:	ebfff467 	bl	50001254 <uart_puts>
500040b4:	e59f00b0 	ldr	r0, [pc, #176]	; 5000416c <change_rtc_time+0x268>
500040b8:	ebfff47f 	bl	500012bc <uart_printf>
500040bc:	ebfff632 	bl	5000198c <uart_get_int>
500040c0:	e58d0004 	str	r0, [sp, #4]
500040c4:	e59d3004 	ldr	r3, [sp, #4]
500040c8:	e3530000 	cmp	r3, #0
500040cc:	ba000002 	blt	500040dc <change_rtc_time+0x1d8>
500040d0:	e59d3004 	ldr	r3, [sp, #4]
500040d4:	e353003b 	cmp	r3, #59	; 0x3b
500040d8:	da000002 	ble	500040e8 <change_rtc_time+0x1e4>
500040dc:	e59f0080 	ldr	r0, [pc, #128]	; 50004164 <change_rtc_time+0x260>
500040e0:	ebfff45b 	bl	50001254 <uart_puts>
500040e4:	eafffff0 	b	500040ac <change_rtc_time+0x1a8>
500040e8:	e1a00000 	nop			; (mov r0, r0)
500040ec:	e59f0070 	ldr	r0, [pc, #112]	; 50004164 <change_rtc_time+0x260>
500040f0:	ebfff457 	bl	50001254 <uart_puts>
500040f4:	e59d0004 	ldr	r0, [sp, #4]
500040f8:	eb00011f 	bl	5000457c <change_rtc_minute>
500040fc:	e59f0080 	ldr	r0, [pc, #128]	; 50004184 <change_rtc_time+0x280>
50004100:	ebfff453 	bl	50001254 <uart_puts>
50004104:	e59f0060 	ldr	r0, [pc, #96]	; 5000416c <change_rtc_time+0x268>
50004108:	ebfff46b 	bl	500012bc <uart_printf>
5000410c:	ebfff61e 	bl	5000198c <uart_get_int>
50004110:	e58d0004 	str	r0, [sp, #4]
50004114:	e59d3004 	ldr	r3, [sp, #4]
50004118:	e3530000 	cmp	r3, #0
5000411c:	ba000002 	blt	5000412c <change_rtc_time+0x228>
50004120:	e59d3004 	ldr	r3, [sp, #4]
50004124:	e353003b 	cmp	r3, #59	; 0x3b
50004128:	da000002 	ble	50004138 <change_rtc_time+0x234>
5000412c:	e59f0030 	ldr	r0, [pc, #48]	; 50004164 <change_rtc_time+0x260>
50004130:	ebfff447 	bl	50001254 <uart_puts>
50004134:	eafffff0 	b	500040fc <change_rtc_time+0x1f8>
50004138:	e1a00000 	nop			; (mov r0, r0)
5000413c:	e59f0020 	ldr	r0, [pc, #32]	; 50004164 <change_rtc_time+0x260>
50004140:	ebfff443 	bl	50001254 <uart_puts>
50004144:	e59d0004 	ldr	r0, [sp, #4]
50004148:	eb000142 	bl	50004658 <change_rtc_second>
5000414c:	e59f0034 	ldr	r0, [pc, #52]	; 50004188 <change_rtc_time+0x284>
50004150:	ebfff43f 	bl	50001254 <uart_puts>
50004154:	ebfffe3c 	bl	50003a4c <read_rtc_time>
50004158:	e1a00000 	nop			; (mov r0, r0)
5000415c:	e28dd00c 	add	sp, sp, #12
50004160:	e8bd8000 	ldmfd	sp!, {pc}
50004164:	50004b28 	andpl	r4, r0, r8, lsr #22
50004168:	50004b2c 	andpl	r4, r0, ip, lsr #22
5000416c:	50004b4c 	andpl	r4, r0, ip, asr #22
50004170:	50004b54 	andpl	r4, r0, r4, asr fp
50004174:	50004b74 	andpl	r4, r0, r4, ror fp
50004178:	50004b90 	mulpl	r0, r0, fp
5000417c:	50004bac 	andpl	r4, r0, ip, lsr #23
50004180:	50004bc8 	andpl	r4, r0, r8, asr #23
50004184:	50004be8 	andpl	r4, r0, r8, ror #23
50004188:	50004c08 	andpl	r4, r0, r8, lsl #24

5000418c <change_rtc_year>:
5000418c:	e52de004 	push	{lr}		; (str lr, [sp, #-4]!)
50004190:	e24dd014 	sub	sp, sp, #20
50004194:	e58d0004 	str	r0, [sp, #4]
50004198:	e59d3004 	ldr	r3, [sp, #4]
5000419c:	e3530000 	cmp	r3, #0
500041a0:	ba000002 	blt	500041b0 <change_rtc_year+0x24>
500041a4:	e59d3004 	ldr	r3, [sp, #4]
500041a8:	e3530063 	cmp	r3, #99	; 0x63
500041ac:	da000002 	ble	500041bc <change_rtc_year+0x30>
500041b0:	e59f00a0 	ldr	r0, [pc, #160]	; 50004258 <change_rtc_year+0xcc>
500041b4:	ebfff426 	bl	50001254 <uart_puts>
500041b8:	ea000024 	b	50004250 <change_rtc_year+0xc4>
500041bc:	e59d2004 	ldr	r2, [sp, #4]
500041c0:	e59f3094 	ldr	r3, [pc, #148]	; 5000425c <change_rtc_year+0xd0>
500041c4:	e0c31392 	smull	r1, r3, r2, r3
500041c8:	e1a01143 	asr	r1, r3, #2
500041cc:	e1a03fc2 	asr	r3, r2, #31
500041d0:	e0631001 	rsb	r1, r3, r1
500041d4:	e1a03001 	mov	r3, r1
500041d8:	e1a03103 	lsl	r3, r3, #2
500041dc:	e0833001 	add	r3, r3, r1
500041e0:	e1a03083 	lsl	r3, r3, #1
500041e4:	e0633002 	rsb	r3, r3, r2
500041e8:	e58d300c 	str	r3, [sp, #12]
500041ec:	e59d3004 	ldr	r3, [sp, #4]
500041f0:	e59f2064 	ldr	r2, [pc, #100]	; 5000425c <change_rtc_year+0xd0>
500041f4:	e0c21293 	smull	r1, r2, r3, r2
500041f8:	e1a02142 	asr	r2, r2, #2
500041fc:	e1a03fc3 	asr	r3, r3, #31
50004200:	e0633002 	rsb	r3, r3, r2
50004204:	e58d3008 	str	r3, [sp, #8]
50004208:	e59f3050 	ldr	r3, [pc, #80]	; 50004260 <change_rtc_year+0xd4>
5000420c:	e59f204c 	ldr	r2, [pc, #76]	; 50004260 <change_rtc_year+0xd4>
50004210:	e5922000 	ldr	r2, [r2]
50004214:	e3822008 	orr	r2, r2, #8
50004218:	e5832000 	str	r2, [r3]
5000421c:	e59f303c 	ldr	r3, [pc, #60]	; 50004260 <change_rtc_year+0xd4>
50004220:	e3a02001 	mov	r2, #1
50004224:	e5832000 	str	r2, [r3]
50004228:	e59f3034 	ldr	r3, [pc, #52]	; 50004264 <change_rtc_year+0xd8>
5000422c:	e59d2008 	ldr	r2, [sp, #8]
50004230:	e1a01202 	lsl	r1, r2, #4
50004234:	e59d200c 	ldr	r2, [sp, #12]
50004238:	e1812002 	orr	r2, r1, r2
5000423c:	e5832000 	str	r2, [r3]
50004240:	e59f3018 	ldr	r3, [pc, #24]	; 50004260 <change_rtc_year+0xd4>
50004244:	e3a02000 	mov	r2, #0
50004248:	e5832000 	str	r2, [r3]
5000424c:	e1a00000 	nop			; (mov r0, r0)
50004250:	e28dd014 	add	sp, sp, #20
50004254:	e8bd8000 	ldmfd	sp!, {pc}
50004258:	50004c14 	andpl	r4, r0, r4, lsl ip
5000425c:	66666667 	strbtvs	r6, [r6], -r7, ror #12
50004260:	7e005040 	cdpvc	0, 0, cr5, cr0, cr0, {2}
50004264:	7e005088 	cdpvc	0, 0, cr5, cr0, cr8, {4}

50004268 <change_rtc_month>:
50004268:	e52de004 	push	{lr}		; (str lr, [sp, #-4]!)
5000426c:	e24dd014 	sub	sp, sp, #20
50004270:	e58d0004 	str	r0, [sp, #4]
50004274:	e59d3004 	ldr	r3, [sp, #4]
50004278:	e3530000 	cmp	r3, #0
5000427c:	da000002 	ble	5000428c <change_rtc_month+0x24>
50004280:	e59d3004 	ldr	r3, [sp, #4]
50004284:	e353000c 	cmp	r3, #12
50004288:	da000002 	ble	50004298 <change_rtc_month+0x30>
5000428c:	e59f00a0 	ldr	r0, [pc, #160]	; 50004334 <change_rtc_month+0xcc>
50004290:	ebfff3ef 	bl	50001254 <uart_puts>
50004294:	ea000024 	b	5000432c <change_rtc_month+0xc4>
50004298:	e59d2004 	ldr	r2, [sp, #4]
5000429c:	e59f3094 	ldr	r3, [pc, #148]	; 50004338 <change_rtc_month+0xd0>
500042a0:	e0c31392 	smull	r1, r3, r2, r3
500042a4:	e1a01143 	asr	r1, r3, #2
500042a8:	e1a03fc2 	asr	r3, r2, #31
500042ac:	e0631001 	rsb	r1, r3, r1
500042b0:	e1a03001 	mov	r3, r1
500042b4:	e1a03103 	lsl	r3, r3, #2
500042b8:	e0833001 	add	r3, r3, r1
500042bc:	e1a03083 	lsl	r3, r3, #1
500042c0:	e0633002 	rsb	r3, r3, r2
500042c4:	e58d300c 	str	r3, [sp, #12]
500042c8:	e59d3004 	ldr	r3, [sp, #4]
500042cc:	e59f2064 	ldr	r2, [pc, #100]	; 50004338 <change_rtc_month+0xd0>
500042d0:	e0c21293 	smull	r1, r2, r3, r2
500042d4:	e1a02142 	asr	r2, r2, #2
500042d8:	e1a03fc3 	asr	r3, r3, #31
500042dc:	e0633002 	rsb	r3, r3, r2
500042e0:	e58d3008 	str	r3, [sp, #8]
500042e4:	e59f3050 	ldr	r3, [pc, #80]	; 5000433c <change_rtc_month+0xd4>
500042e8:	e59f204c 	ldr	r2, [pc, #76]	; 5000433c <change_rtc_month+0xd4>
500042ec:	e5922000 	ldr	r2, [r2]
500042f0:	e3822008 	orr	r2, r2, #8
500042f4:	e5832000 	str	r2, [r3]
500042f8:	e59f303c 	ldr	r3, [pc, #60]	; 5000433c <change_rtc_month+0xd4>
500042fc:	e3a02001 	mov	r2, #1
50004300:	e5832000 	str	r2, [r3]
50004304:	e59f3034 	ldr	r3, [pc, #52]	; 50004340 <change_rtc_month+0xd8>
50004308:	e59d2008 	ldr	r2, [sp, #8]
5000430c:	e1a01202 	lsl	r1, r2, #4
50004310:	e59d200c 	ldr	r2, [sp, #12]
50004314:	e1812002 	orr	r2, r1, r2
50004318:	e5832000 	str	r2, [r3]
5000431c:	e59f3018 	ldr	r3, [pc, #24]	; 5000433c <change_rtc_month+0xd4>
50004320:	e3a02000 	mov	r2, #0
50004324:	e5832000 	str	r2, [r3]
50004328:	e1a00000 	nop			; (mov r0, r0)
5000432c:	e28dd014 	add	sp, sp, #20
50004330:	e8bd8000 	ldmfd	sp!, {pc}
50004334:	50004c38 	andpl	r4, r0, r8, lsr ip
50004338:	66666667 	strbtvs	r6, [r6], -r7, ror #12
5000433c:	7e005040 	cdpvc	0, 0, cr5, cr0, cr0, {2}
50004340:	7e005084 	cdpvc	0, 0, cr5, cr0, cr4, {4}

50004344 <change_rtc_date>:
50004344:	e52de004 	push	{lr}		; (str lr, [sp, #-4]!)
50004348:	e24dd014 	sub	sp, sp, #20
5000434c:	e58d0004 	str	r0, [sp, #4]
50004350:	e59d3004 	ldr	r3, [sp, #4]
50004354:	e3530000 	cmp	r3, #0
50004358:	da000002 	ble	50004368 <change_rtc_date+0x24>
5000435c:	e59d3004 	ldr	r3, [sp, #4]
50004360:	e353001f 	cmp	r3, #31
50004364:	da000002 	ble	50004374 <change_rtc_date+0x30>
50004368:	e59f00a0 	ldr	r0, [pc, #160]	; 50004410 <change_rtc_date+0xcc>
5000436c:	ebfff3b8 	bl	50001254 <uart_puts>
50004370:	ea000024 	b	50004408 <change_rtc_date+0xc4>
50004374:	e59d2004 	ldr	r2, [sp, #4]
50004378:	e59f3094 	ldr	r3, [pc, #148]	; 50004414 <change_rtc_date+0xd0>
5000437c:	e0c31392 	smull	r1, r3, r2, r3
50004380:	e1a01143 	asr	r1, r3, #2
50004384:	e1a03fc2 	asr	r3, r2, #31
50004388:	e0631001 	rsb	r1, r3, r1
5000438c:	e1a03001 	mov	r3, r1
50004390:	e1a03103 	lsl	r3, r3, #2
50004394:	e0833001 	add	r3, r3, r1
50004398:	e1a03083 	lsl	r3, r3, #1
5000439c:	e0633002 	rsb	r3, r3, r2
500043a0:	e58d300c 	str	r3, [sp, #12]
500043a4:	e59d3004 	ldr	r3, [sp, #4]
500043a8:	e59f2064 	ldr	r2, [pc, #100]	; 50004414 <change_rtc_date+0xd0>
500043ac:	e0c21293 	smull	r1, r2, r3, r2
500043b0:	e1a02142 	asr	r2, r2, #2
500043b4:	e1a03fc3 	asr	r3, r3, #31
500043b8:	e0633002 	rsb	r3, r3, r2
500043bc:	e58d3008 	str	r3, [sp, #8]
500043c0:	e59f3050 	ldr	r3, [pc, #80]	; 50004418 <change_rtc_date+0xd4>
500043c4:	e59f204c 	ldr	r2, [pc, #76]	; 50004418 <change_rtc_date+0xd4>
500043c8:	e5922000 	ldr	r2, [r2]
500043cc:	e3822008 	orr	r2, r2, #8
500043d0:	e5832000 	str	r2, [r3]
500043d4:	e59f303c 	ldr	r3, [pc, #60]	; 50004418 <change_rtc_date+0xd4>
500043d8:	e3a02001 	mov	r2, #1
500043dc:	e5832000 	str	r2, [r3]
500043e0:	e59f3034 	ldr	r3, [pc, #52]	; 5000441c <change_rtc_date+0xd8>
500043e4:	e59d2008 	ldr	r2, [sp, #8]
500043e8:	e1a01202 	lsl	r1, r2, #4
500043ec:	e59d200c 	ldr	r2, [sp, #12]
500043f0:	e1812002 	orr	r2, r1, r2
500043f4:	e5832000 	str	r2, [r3]
500043f8:	e59f3018 	ldr	r3, [pc, #24]	; 50004418 <change_rtc_date+0xd4>
500043fc:	e3a02000 	mov	r2, #0
50004400:	e5832000 	str	r2, [r3]
50004404:	e1a00000 	nop			; (mov r0, r0)
50004408:	e28dd014 	add	sp, sp, #20
5000440c:	e8bd8000 	ldmfd	sp!, {pc}
50004410:	50004c5c 	andpl	r4, r0, ip, asr ip
50004414:	66666667 	strbtvs	r6, [r6], -r7, ror #12
50004418:	7e005040 	cdpvc	0, 0, cr5, cr0, cr0, {2}
5000441c:	7e00507c 	mcrvc	0, 0, r5, cr0, cr12, {3}

50004420 <change_rtc_day>:
50004420:	e52de004 	push	{lr}		; (str lr, [sp, #-4]!)
50004424:	e24dd00c 	sub	sp, sp, #12
50004428:	e58d0004 	str	r0, [sp, #4]
5000442c:	e59d3004 	ldr	r3, [sp, #4]
50004430:	e3530000 	cmp	r3, #0
50004434:	da000002 	ble	50004444 <change_rtc_day+0x24>
50004438:	e59d3004 	ldr	r3, [sp, #4]
5000443c:	e3530007 	cmp	r3, #7
50004440:	da000002 	ble	50004450 <change_rtc_day+0x30>
50004444:	e59f0048 	ldr	r0, [pc, #72]	; 50004494 <change_rtc_day+0x74>
50004448:	ebfff381 	bl	50001254 <uart_puts>
5000444c:	ea00000e 	b	5000448c <change_rtc_day+0x6c>
50004450:	e59f3040 	ldr	r3, [pc, #64]	; 50004498 <change_rtc_day+0x78>
50004454:	e59f203c 	ldr	r2, [pc, #60]	; 50004498 <change_rtc_day+0x78>
50004458:	e5922000 	ldr	r2, [r2]
5000445c:	e3822008 	orr	r2, r2, #8
50004460:	e5832000 	str	r2, [r3]
50004464:	e59f302c 	ldr	r3, [pc, #44]	; 50004498 <change_rtc_day+0x78>
50004468:	e3a02001 	mov	r2, #1
5000446c:	e5832000 	str	r2, [r3]
50004470:	e59f3024 	ldr	r3, [pc, #36]	; 5000449c <change_rtc_day+0x7c>
50004474:	e59d2004 	ldr	r2, [sp, #4]
50004478:	e5832000 	str	r2, [r3]
5000447c:	e59f3014 	ldr	r3, [pc, #20]	; 50004498 <change_rtc_day+0x78>
50004480:	e3a02000 	mov	r2, #0
50004484:	e5832000 	str	r2, [r3]
50004488:	e1a00000 	nop			; (mov r0, r0)
5000448c:	e28dd00c 	add	sp, sp, #12
50004490:	e8bd8000 	ldmfd	sp!, {pc}
50004494:	50004c80 	andpl	r4, r0, r0, lsl #25
50004498:	7e005040 	cdpvc	0, 0, cr5, cr0, cr0, {2}
5000449c:	7e005080 	cdpvc	0, 0, cr5, cr0, cr0, {4}

500044a0 <change_rtc_hour>:
500044a0:	e52de004 	push	{lr}		; (str lr, [sp, #-4]!)
500044a4:	e24dd014 	sub	sp, sp, #20
500044a8:	e58d0004 	str	r0, [sp, #4]
500044ac:	e59d3004 	ldr	r3, [sp, #4]
500044b0:	e3530000 	cmp	r3, #0
500044b4:	ba000002 	blt	500044c4 <change_rtc_hour+0x24>
500044b8:	e59d3004 	ldr	r3, [sp, #4]
500044bc:	e3530017 	cmp	r3, #23
500044c0:	da000002 	ble	500044d0 <change_rtc_hour+0x30>
500044c4:	e59f00a0 	ldr	r0, [pc, #160]	; 5000456c <change_rtc_hour+0xcc>
500044c8:	ebfff361 	bl	50001254 <uart_puts>
500044cc:	ea000024 	b	50004564 <change_rtc_hour+0xc4>
500044d0:	e59d2004 	ldr	r2, [sp, #4]
500044d4:	e59f3094 	ldr	r3, [pc, #148]	; 50004570 <change_rtc_hour+0xd0>
500044d8:	e0c31392 	smull	r1, r3, r2, r3
500044dc:	e1a01143 	asr	r1, r3, #2
500044e0:	e1a03fc2 	asr	r3, r2, #31
500044e4:	e0631001 	rsb	r1, r3, r1
500044e8:	e1a03001 	mov	r3, r1
500044ec:	e1a03103 	lsl	r3, r3, #2
500044f0:	e0833001 	add	r3, r3, r1
500044f4:	e1a03083 	lsl	r3, r3, #1
500044f8:	e0633002 	rsb	r3, r3, r2
500044fc:	e58d300c 	str	r3, [sp, #12]
50004500:	e59d3004 	ldr	r3, [sp, #4]
50004504:	e59f2064 	ldr	r2, [pc, #100]	; 50004570 <change_rtc_hour+0xd0>
50004508:	e0c21293 	smull	r1, r2, r3, r2
5000450c:	e1a02142 	asr	r2, r2, #2
50004510:	e1a03fc3 	asr	r3, r3, #31
50004514:	e0633002 	rsb	r3, r3, r2
50004518:	e58d3008 	str	r3, [sp, #8]
5000451c:	e59f3050 	ldr	r3, [pc, #80]	; 50004574 <change_rtc_hour+0xd4>
50004520:	e59f204c 	ldr	r2, [pc, #76]	; 50004574 <change_rtc_hour+0xd4>
50004524:	e5922000 	ldr	r2, [r2]
50004528:	e3822008 	orr	r2, r2, #8
5000452c:	e5832000 	str	r2, [r3]
50004530:	e59f303c 	ldr	r3, [pc, #60]	; 50004574 <change_rtc_hour+0xd4>
50004534:	e3a02001 	mov	r2, #1
50004538:	e5832000 	str	r2, [r3]
5000453c:	e59f3034 	ldr	r3, [pc, #52]	; 50004578 <change_rtc_hour+0xd8>
50004540:	e59d2008 	ldr	r2, [sp, #8]
50004544:	e1a01202 	lsl	r1, r2, #4
50004548:	e59d200c 	ldr	r2, [sp, #12]
5000454c:	e1812002 	orr	r2, r1, r2
50004550:	e5832000 	str	r2, [r3]
50004554:	e59f3018 	ldr	r3, [pc, #24]	; 50004574 <change_rtc_hour+0xd4>
50004558:	e3a02000 	mov	r2, #0
5000455c:	e5832000 	str	r2, [r3]
50004560:	e1a00000 	nop			; (mov r0, r0)
50004564:	e28dd014 	add	sp, sp, #20
50004568:	e8bd8000 	ldmfd	sp!, {pc}
5000456c:	50004ca4 	andpl	r4, r0, r4, lsr #25
50004570:	66666667 	strbtvs	r6, [r6], -r7, ror #12
50004574:	7e005040 	cdpvc	0, 0, cr5, cr0, cr0, {2}
50004578:	7e005078 	mcrvc	0, 0, r5, cr0, cr8, {3}

5000457c <change_rtc_minute>:
5000457c:	e52de004 	push	{lr}		; (str lr, [sp, #-4]!)
50004580:	e24dd014 	sub	sp, sp, #20
50004584:	e58d0004 	str	r0, [sp, #4]
50004588:	e59d3004 	ldr	r3, [sp, #4]
5000458c:	e3530000 	cmp	r3, #0
50004590:	ba000002 	blt	500045a0 <change_rtc_minute+0x24>
50004594:	e59d3004 	ldr	r3, [sp, #4]
50004598:	e353003b 	cmp	r3, #59	; 0x3b
5000459c:	da000002 	ble	500045ac <change_rtc_minute+0x30>
500045a0:	e59f00a0 	ldr	r0, [pc, #160]	; 50004648 <change_rtc_minute+0xcc>
500045a4:	ebfff32a 	bl	50001254 <uart_puts>
500045a8:	ea000024 	b	50004640 <change_rtc_minute+0xc4>
500045ac:	e59d2004 	ldr	r2, [sp, #4]
500045b0:	e59f3094 	ldr	r3, [pc, #148]	; 5000464c <change_rtc_minute+0xd0>
500045b4:	e0c31392 	smull	r1, r3, r2, r3
500045b8:	e1a01143 	asr	r1, r3, #2
500045bc:	e1a03fc2 	asr	r3, r2, #31
500045c0:	e0631001 	rsb	r1, r3, r1
500045c4:	e1a03001 	mov	r3, r1
500045c8:	e1a03103 	lsl	r3, r3, #2
500045cc:	e0833001 	add	r3, r3, r1
500045d0:	e1a03083 	lsl	r3, r3, #1
500045d4:	e0633002 	rsb	r3, r3, r2
500045d8:	e58d300c 	str	r3, [sp, #12]
500045dc:	e59d3004 	ldr	r3, [sp, #4]
500045e0:	e59f2064 	ldr	r2, [pc, #100]	; 5000464c <change_rtc_minute+0xd0>
500045e4:	e0c21293 	smull	r1, r2, r3, r2
500045e8:	e1a02142 	asr	r2, r2, #2
500045ec:	e1a03fc3 	asr	r3, r3, #31
500045f0:	e0633002 	rsb	r3, r3, r2
500045f4:	e58d3008 	str	r3, [sp, #8]
500045f8:	e59f3050 	ldr	r3, [pc, #80]	; 50004650 <change_rtc_minute+0xd4>
500045fc:	e59f204c 	ldr	r2, [pc, #76]	; 50004650 <change_rtc_minute+0xd4>
50004600:	e5922000 	ldr	r2, [r2]
50004604:	e3822008 	orr	r2, r2, #8
50004608:	e5832000 	str	r2, [r3]
5000460c:	e59f303c 	ldr	r3, [pc, #60]	; 50004650 <change_rtc_minute+0xd4>
50004610:	e3a02001 	mov	r2, #1
50004614:	e5832000 	str	r2, [r3]
50004618:	e59f3034 	ldr	r3, [pc, #52]	; 50004654 <change_rtc_minute+0xd8>
5000461c:	e59d2008 	ldr	r2, [sp, #8]
50004620:	e1a01202 	lsl	r1, r2, #4
50004624:	e59d200c 	ldr	r2, [sp, #12]
50004628:	e1812002 	orr	r2, r1, r2
5000462c:	e5832000 	str	r2, [r3]
50004630:	e59f3018 	ldr	r3, [pc, #24]	; 50004650 <change_rtc_minute+0xd4>
50004634:	e3a02000 	mov	r2, #0
50004638:	e5832000 	str	r2, [r3]
5000463c:	e1a00000 	nop			; (mov r0, r0)
50004640:	e28dd014 	add	sp, sp, #20
50004644:	e8bd8000 	ldmfd	sp!, {pc}
50004648:	50004cc8 	andpl	r4, r0, r8, asr #25
5000464c:	66666667 	strbtvs	r6, [r6], -r7, ror #12
50004650:	7e005040 	cdpvc	0, 0, cr5, cr0, cr0, {2}
50004654:	7e005074 	mcrvc	0, 0, r5, cr0, cr4, {3}

50004658 <change_rtc_second>:
50004658:	e52de004 	push	{lr}		; (str lr, [sp, #-4]!)
5000465c:	e24dd014 	sub	sp, sp, #20
50004660:	e58d0004 	str	r0, [sp, #4]
50004664:	e59d3004 	ldr	r3, [sp, #4]
50004668:	e3530000 	cmp	r3, #0
5000466c:	ba000002 	blt	5000467c <change_rtc_second+0x24>
50004670:	e59d3004 	ldr	r3, [sp, #4]
50004674:	e353003b 	cmp	r3, #59	; 0x3b
50004678:	da000002 	ble	50004688 <change_rtc_second+0x30>
5000467c:	e59f00a0 	ldr	r0, [pc, #160]	; 50004724 <change_rtc_second+0xcc>
50004680:	ebfff2f3 	bl	50001254 <uart_puts>
50004684:	ea000024 	b	5000471c <change_rtc_second+0xc4>
50004688:	e59d2004 	ldr	r2, [sp, #4]
5000468c:	e59f3094 	ldr	r3, [pc, #148]	; 50004728 <change_rtc_second+0xd0>
50004690:	e0c31392 	smull	r1, r3, r2, r3
50004694:	e1a01143 	asr	r1, r3, #2
50004698:	e1a03fc2 	asr	r3, r2, #31
5000469c:	e0631001 	rsb	r1, r3, r1
500046a0:	e1a03001 	mov	r3, r1
500046a4:	e1a03103 	lsl	r3, r3, #2
500046a8:	e0833001 	add	r3, r3, r1
500046ac:	e1a03083 	lsl	r3, r3, #1
500046b0:	e0633002 	rsb	r3, r3, r2
500046b4:	e58d300c 	str	r3, [sp, #12]
500046b8:	e59d3004 	ldr	r3, [sp, #4]
500046bc:	e59f2064 	ldr	r2, [pc, #100]	; 50004728 <change_rtc_second+0xd0>
500046c0:	e0c21293 	smull	r1, r2, r3, r2
500046c4:	e1a02142 	asr	r2, r2, #2
500046c8:	e1a03fc3 	asr	r3, r3, #31
500046cc:	e0633002 	rsb	r3, r3, r2
500046d0:	e58d3008 	str	r3, [sp, #8]
500046d4:	e59f3050 	ldr	r3, [pc, #80]	; 5000472c <change_rtc_second+0xd4>
500046d8:	e59f204c 	ldr	r2, [pc, #76]	; 5000472c <change_rtc_second+0xd4>
500046dc:	e5922000 	ldr	r2, [r2]
500046e0:	e3822008 	orr	r2, r2, #8
500046e4:	e5832000 	str	r2, [r3]
500046e8:	e59f303c 	ldr	r3, [pc, #60]	; 5000472c <change_rtc_second+0xd4>
500046ec:	e3a02001 	mov	r2, #1
500046f0:	e5832000 	str	r2, [r3]
500046f4:	e59f3034 	ldr	r3, [pc, #52]	; 50004730 <change_rtc_second+0xd8>
500046f8:	e59d2008 	ldr	r2, [sp, #8]
500046fc:	e1a01202 	lsl	r1, r2, #4
50004700:	e59d200c 	ldr	r2, [sp, #12]
50004704:	e1812002 	orr	r2, r1, r2
50004708:	e5832000 	str	r2, [r3]
5000470c:	e59f3018 	ldr	r3, [pc, #24]	; 5000472c <change_rtc_second+0xd4>
50004710:	e3a02000 	mov	r2, #0
50004714:	e5832000 	str	r2, [r3]
50004718:	e1a00000 	nop			; (mov r0, r0)
5000471c:	e28dd014 	add	sp, sp, #20
50004720:	e8bd8000 	ldmfd	sp!, {pc}
50004724:	50004cf0 	strdpl	r4, [r0], -r0
50004728:	66666667 	strbtvs	r6, [r6], -r7, ror #12
5000472c:	7e005040 	cdpvc	0, 0, cr5, cr0, cr0, {2}
50004730:	7e005070 	mcrvc	0, 0, r5, cr0, cr0, {3}

50004734 <init_wdt>:
50004734:	e12fff1e 	bx	lr

50004738 <reboot>:
50004738:	e59f3018 	ldr	r3, [pc, #24]	; 50004758 <reboot+0x20>
5000473c:	e59f2018 	ldr	r2, [pc, #24]	; 5000475c <reboot+0x24>
50004740:	e5832000 	str	r2, [r3]
50004744:	e59f3014 	ldr	r3, [pc, #20]	; 50004760 <reboot+0x28>
50004748:	e3a02010 	mov	r2, #16
5000474c:	e5832000 	str	r2, [r3]
50004750:	e1a00000 	nop			; (mov r0, r0)
50004754:	e12fff1e 	bx	lr
50004758:	7e004000 	cdpvc	0, 0, cr4, cr0, cr0, {0}
5000475c:	00004121 	andeq	r4, r0, r1, lsr #2
50004760:	7e004004 	cdpvc	0, 0, cr4, cr0, cr4, {0}

Disassembly of section .rodata:

50004764 <.rodata>:
50004764:	646e550a 	strbtvs	r5, [lr], #-1290	; 0xfffffaf6
50004768:	6e696665 	cdpvs	6, 6, cr6, cr9, cr5, {3}
5000476c:	49206465 	stmdbmi	r0!, {r0, r2, r5, r6, sl, sp, lr}
50004770:	7274736e 	rsbsvc	r7, r4, #-1207959551	; 0xb8000001
50004774:	69746375 	ldmdbvs	r4!, {r0, r2, r4, r5, r6, r8, r9, sp, lr}^
50004778:	002e6e6f 	eoreq	r6, lr, pc, ror #28
5000477c:	6572500a 	ldrbvs	r5, [r2, #-10]!
50004780:	63746566 	cmnvs	r4, #427819008	; 0x19800000
50004784:	62412068 	subvs	r2, r1, #104	; 0x68
50004788:	0074726f 	rsbseq	r7, r4, pc, ror #4
5000478c:	7461440a 	strbtvc	r4, [r1], #-1034	; 0xfffffbf6
50004790:	62412061 	subvs	r2, r1, #97	; 0x61
50004794:	0074726f 	rsbseq	r7, r4, pc, ror #4
50004798:	5149460a 	cmppl	r9, sl, lsl #12
5000479c:	00000000 	andeq	r0, r0, r0
500047a0:	0000000a 	andeq	r0, r0, sl
500047a4:	2a2a2a2a 	bcs	50a8f054 <bss_end+0xa873d4>
500047a8:	2a2a2a2a 	bcs	50a8f058 <bss_end+0xa873d8>
500047ac:	2a2a2a2a 	bcs	50a8f05c <bss_end+0xa873dc>
500047b0:	2a2a2a2a 	bcs	50a8f060 <bss_end+0xa873e0>
500047b4:	002a2a2a 	eoreq	r2, sl, sl, lsr #20
500047b8:	205d615b 	subscs	r6, sp, fp, asr r1
500047bc:	61647055 	qdsubvs	r7, r5, r4
500047c0:	70206574 	eorvc	r6, r0, r4, ror r5
500047c4:	72676f72 	rsbvc	r6, r7, #456	; 0x1c8
500047c8:	00006d61 	andeq	r6, r0, r1, ror #26
500047cc:	205d625b 	subscs	r6, sp, fp, asr r2
500047d0:	61657243 	cmnvs	r5, r3, asr #4
500047d4:	6e206574 	mcrvs	5, 1, r6, cr0, cr4, {3}
500047d8:	70207765 	eorvc	r7, r0, r5, ror #14
500047dc:	65636f72 	strbvs	r6, [r3, #-3954]!	; 0xfffff08e
500047e0:	00007373 	andeq	r7, r0, r3, ror r3
500047e4:	205d635b 	subscs	r6, sp, fp, asr r3
500047e8:	7364656c 	cmnvc	r4, #108, 10	; 0x1b000000
500047ec:	006e6f20 	rsbeq	r6, lr, r0, lsr #30
500047f0:	205d645b 	subscs	r6, sp, fp, asr r4
500047f4:	7364656c 	cmnvc	r4, #108, 10	; 0x1b000000
500047f8:	66666f20 	strbtvs	r6, [r6], -r0, lsr #30
500047fc:	00000000 	andeq	r0, r0, r0
50004800:	205d775b 	subscs	r7, sp, fp, asr r7
50004804:	64616572 	strbtvs	r6, [r1], #-1394	; 0xfffffa8e
50004808:	6e616e20 	cdpvs	14, 6, cr6, cr1, cr0, {1}
5000480c:	00000064 	andeq	r0, r0, r4, rrx
50004810:	205d785b 	subscs	r7, sp, fp, asr r8
50004814:	74736574 	ldrbtvc	r6, [r3], #-1396	; 0xfffffa8c
50004818:	6e616e20 	cdpvs	14, 6, cr6, cr1, cr0, {1}
5000481c:	00000064 	andeq	r0, r0, r4, rrx
50004820:	205d795b 	subscs	r7, sp, fp, asr r9
50004824:	63656843 	cmnvs	r5, #4390912	; 0x430000
50004828:	5043206b 	subpl	r2, r3, fp, rrx
5000482c:	6f6d2055 	svcvs	0x006d2055
50004830:	00006564 	andeq	r6, r0, r4, ror #10
50004834:	205d7a5b 	subscs	r7, sp, fp, asr sl
50004838:	6f626552 	svcvs	0x00626552
5000483c:	0000746f 	andeq	r7, r0, pc, ror #8
50004840:	203e3e20 	eorscs	r3, lr, r0, lsr #28
	...
5000484c:	7370630a 	cmnvc	r0, #671088640	; 0x28000000
50004850:	203d2072 	eorscs	r2, sp, r2, ror r0
50004854:	00000000 	andeq	r0, r0, r0
50004858:	61656c70 	smcvs	22208	; 0x56c0
5000485c:	73206573 	teqvc	r0, #482344960	; 0x1cc00000
50004860:	20646e65 	rsbcs	r6, r4, r5, ror #28
50004864:	656c6966 	strbvs	r6, [ip, #-2406]!	; 0xfffff69a
50004868:	77282021 	strvc	r2, [r8, -r1, lsr #32]!
5000486c:	20746961 	rsbscs	r6, r4, r1, ror #18
50004870:	20726f66 	rsbscs	r6, r2, r6, ror #30
50004874:	68772061 	ldmdavs	r7!, {r0, r5, r6, sp}^
50004878:	29656c69 	stmdbcs	r5!, {r0, r3, r5, r6, sl, fp, sp, lr}^
5000487c:	00000000 	andeq	r0, r0, r0
50004880:	66206f4e 	strtvs	r6, [r0], -lr, asr #30
50004884:	20656c69 	rsbcs	r6, r5, r9, ror #24
50004888:	65636572 	strbvs	r6, [r3, #-1394]!	; 0xfffffa8e
5000488c:	2e657669 	cdpcs	6, 6, cr7, cr5, cr9, {3}
50004890:	00000000 	andeq	r0, r0, r0
50004894:	6365520a 	cmnvs	r5, #-1610612736	; 0xa0000000
50004898:	65766965 	ldrbvs	r6, [r6, #-2405]!	; 0xfffff69b
5000489c:	00000020 	andeq	r0, r0, r0, lsr #32
500048a0:	74796220 	ldrbtvc	r6, [r9], #-544	; 0xfffffde0
500048a4:	64207365 	strtvs	r7, [r0], #-869	; 0xfffffc9b
500048a8:	2e617461 	cdpcs	4, 6, cr7, cr1, cr1, {3}
500048ac:	0000000a 	andeq	r0, r0, sl
500048b0:	6568540a 	strbvs	r5, [r8, #-1034]!	; 0xfffffbf6
500048b4:	72696620 	rsbvc	r6, r9, #32, 12	; 0x2000000
500048b8:	31207473 	teqcc	r0, r3, ror r4
500048bc:	79622036 	stmdbvc	r2!, {r1, r2, r4, r5, sp}^
500048c0:	61206574 	teqvs	r0, r4, ror r5
500048c4:	003a6572 	eorseq	r6, sl, r2, ror r5
500048c8:	6568540a 	strbvs	r5, [r8, #-1034]!	; 0xfffffbf6
500048cc:	73616c20 	cmnvc	r1, #32, 24	; 0x2000
500048d0:	36312074 			; <UNDEFINED> instruction: 0x36312074
500048d4:	74796220 	ldrbtvc	r6, [r9], #-544	; 0xfffffde0
500048d8:	61207365 	teqvs	r0, r5, ror #6
500048dc:	003a6572 	eorseq	r6, sl, r2, ror r5
500048e0:	206f440a 	rsbcs	r4, pc, sl, lsl #8
500048e4:	20756f79 	rsbscs	r6, r5, r9, ror pc
500048e8:	65727573 	ldrbvs	r7, [r2, #-1395]!	; 0xfffffa8d
500048ec:	64707520 	ldrbtvs	r7, [r0], #-1312	; 0xfffffae0
500048f0:	20657461 	rsbcs	r7, r5, r1, ror #8
500048f4:	73696874 	cmnvc	r9, #116, 16	; 0x740000
500048f8:	6f727020 	svcvs	0x00727020
500048fc:	6d617267 	sfmvs	f7, 2, [r1, #-412]!	; 0xfffffe64
50004900:	5928203f 	stmdbpl	r8!, {r0, r1, r2, r3, r4, r5, sp}
50004904:	00296e2f 	eoreq	r6, r9, pc, lsr #28
50004908:	20756f59 	rsbscs	r6, r5, r9, asr pc
5000490c:	65766168 	ldrbvs	r6, [r6, #-360]!	; 0xfffffe98
50004910:	6e616320 	cdpvs	3, 6, cr6, cr1, cr0, {1}
50004914:	206c6563 	rsbcs	r6, ip, r3, ror #10
50004918:	61647075 	smcvs	18181	; 0x4705
5000491c:	002e6574 	eoreq	r6, lr, r4, ror r5
50004920:	61647055 	qdsubvs	r7, r5, r4
50004924:	676e6974 			; <UNDEFINED> instruction: 0x676e6974
50004928:	2e2e2e20 	cdpcs	14, 2, cr2, cr14, cr0, {1}
5000492c:	00000000 	andeq	r0, r0, r0
50004930:	61647055 	qdsubvs	r7, r5, r4
50004934:	64206574 	strtvs	r6, [r0], #-1396	; 0xfffffa8c
50004938:	21656e6f 	cmncs	r5, pc, ror #28
5000493c:	00000000 	andeq	r0, r0, r0
50004940:	206f440a 	rsbcs	r4, pc, sl, lsl #8
50004944:	20756f79 	rsbscs	r6, r5, r9, ror pc
50004948:	746e6177 	strbtvc	r6, [lr], #-375	; 0xfffffe89
5000494c:	206f7420 	rsbcs	r7, pc, r0, lsr #8
50004950:	776f6873 			; <UNDEFINED> instruction: 0x776f6873
50004954:	65687420 	strbvs	r7, [r8, #-1056]!	; 0xfffffbe0
50004958:	6e6f6320 	cdpvs	3, 6, cr6, cr15, cr0, {1}
5000495c:	746e6574 	strbtvc	r6, [lr], #-1396	; 0xfffffa8c
50004960:	5928203f 	stmdbpl	r8!, {r0, r1, r2, r3, r4, r5, sp}
50004964:	00296e2f 	eoreq	r6, r9, pc, lsr #28
50004968:	61656c70 	smcvs	22208	; 0x56c0
5000496c:	73206573 	teqvc	r0, #482344960	; 0x1cc00000
50004970:	20646e65 	rsbcs	r6, r4, r5, ror #28
50004974:	72756f79 	rsbsvc	r6, r5, #484	; 0x1e4
50004978:	6f727020 	svcvs	0x00727020
5000497c:	6d617267 	sfmvs	f7, 2, [r1, #-412]!	; 0xfffffe64
50004980:	77282021 	strvc	r2, [r8, -r1, lsr #32]!
50004984:	20746961 	rsbscs	r6, r4, r1, ror #18
50004988:	20726f66 	rsbscs	r6, r2, r6, ror #30
5000498c:	68772061 	ldmdavs	r7!, {r0, r5, r6, sp}^
50004990:	29656c69 	stmdbcs	r5!, {r0, r3, r5, r6, sl, fp, sp, lr}^
50004994:	00000000 	andeq	r0, r0, r0
50004998:	70206f4e 	eorvc	r6, r0, lr, asr #30
5000499c:	72676f72 	rsbvc	r6, r7, #456	; 0x1c8
500049a0:	72206d61 	eorvc	r6, r0, #6208	; 0x1840
500049a4:	69656365 	stmdbvs	r5!, {r0, r2, r5, r6, r8, r9, sp, lr}^
500049a8:	002e6576 	eoreq	r6, lr, r6, ror r5
500049ac:	206f440a 	rsbcs	r4, pc, sl, lsl #8
500049b0:	20756f79 	rsbscs	r6, r5, r9, ror pc
500049b4:	65727573 	ldrbvs	r7, [r2, #-1395]!	; 0xfffffa8d
500049b8:	6e757220 	cdpvs	2, 7, cr7, cr5, cr0, {1}
500049bc:	69687420 	stmdbvs	r8!, {r5, sl, ip, sp, lr}^
500049c0:	72702073 	rsbsvc	r2, r0, #115	; 0x73
500049c4:	6172676f 	cmnvs	r2, pc, ror #14
500049c8:	28203f6d 	stmdacs	r0!, {r0, r2, r3, r5, r6, r8, r9, sl, fp, ip, sp}
500049cc:	296e2f59 	stmdbcs	lr!, {r0, r3, r4, r6, r8, r9, sl, fp, sp}^
500049d0:	00000000 	andeq	r0, r0, r0
500049d4:	79706f43 	ldmdbvc	r0!, {r0, r1, r6, r8, r9, sl, fp, sp, lr}^
500049d8:	20676e69 	rsbcs	r6, r7, r9, ror #28
500049dc:	72206f74 	eorvc	r6, r0, #116, 30	; 0x1d0
500049e0:	2e206d61 	cdpcs	13, 2, cr6, cr0, cr1, {3}
500049e4:	00002e2e 	andeq	r2, r0, lr, lsr #28
500049e8:	656c700a 	strbvs	r7, [ip, #-10]!
500049ec:	20657361 	rsbcs	r7, r5, r1, ror #6
500049f0:	75706e69 	ldrbvc	r6, [r0, #-3689]!	; 0xfffff197
500049f4:	61702074 	cmnvs	r0, r4, ror r0
500049f8:	203a6567 	eorscs	r6, sl, r7, ror #10
500049fc:	00000000 	andeq	r0, r0, r0
50004a00:	6977730a 	ldmdbvs	r7!, {r1, r3, r8, r9, ip, sp, lr}^
50004a04:	6c616320 	stclvs	3, cr6, [r1], #-128	; 0xffffff80
50004a08:	3a72656c 	bcc	51c9dfc0 <bss_end+0x1c96340>
50004a0c:	00000000 	andeq	r0, r0, r0
50004a10:	3d203072 	stccc	0, cr3, [r0, #-456]!	; 0xfffffe38
50004a14:	00000020 	andeq	r0, r0, r0, lsr #32
50004a18:	3172202c 	cmncc	r2, ip, lsr #32
50004a1c:	00203d20 	eoreq	r3, r0, r0, lsr #26
50004a20:	00000000 	andeq	r0, r0, r0
50004a24:	20646970 	rsbcs	r6, r4, r0, ror r9
50004a28:	0000203d 	andeq	r2, r0, sp, lsr r0
50004a2c:	61656c70 	smcvs	22208	; 0x56c0
50004a30:	73206573 	teqvc	r0, #482344960	; 0x1cc00000
50004a34:	20646e65 	rsbcs	r6, r4, r5, ror #28
50004a38:	72756f79 	rsbsvc	r6, r5, #484	; 0x1e4
50004a3c:	6f727020 	svcvs	0x00727020
50004a40:	6d617267 	sfmvs	f7, 2, [r1, #-412]!	; 0xfffffe64
50004a44:	77282021 	strvc	r2, [r8, -r1, lsr #32]!
50004a48:	20746961 	rsbscs	r6, r4, r1, ror #18
50004a4c:	20726f66 	rsbscs	r6, r2, r6, ror #30
50004a50:	68772061 	ldmdavs	r7!, {r0, r5, r6, sp}^
50004a54:	29656c69 	stmdbcs	r5!, {r0, r3, r5, r6, sl, fp, sp, lr}^
50004a58:	00000000 	andeq	r0, r0, r0
50004a5c:	70206f4e 	eorvc	r6, r0, lr, asr #30
50004a60:	72676f72 	rsbvc	r6, r7, #456	; 0x1c8
50004a64:	72206d61 	eorvc	r6, r0, #6208	; 0x1840
50004a68:	69656365 	stmdbvs	r5!, {r0, r2, r5, r6, r8, r9, sp, lr}^
50004a6c:	002e6576 	eoreq	r6, lr, r6, ror r5
50004a70:	6365520a 	cmnvs	r5, #-1610612736	; 0xa0000000
50004a74:	65766965 	ldrbvs	r6, [r6, #-2405]!	; 0xfffff69b
50004a78:	00000020 	andeq	r0, r0, r0, lsr #32
50004a7c:	74796220 	ldrbtvc	r6, [r9], #-544	; 0xfffffde0
50004a80:	64207365 	strtvs	r7, [r0], #-869	; 0xfffffc9b
50004a84:	2e617461 	cdpcs	4, 6, cr7, cr1, cr1, {3}
50004a88:	0000000a 	andeq	r0, r0, sl
50004a8c:	6568540a 	strbvs	r5, [r8, #-1034]!	; 0xfffffbf6
50004a90:	72696620 	rsbvc	r6, r9, #32, 12	; 0x2000000
50004a94:	31207473 	teqcc	r0, r3, ror r4
50004a98:	79622036 	stmdbvc	r2!, {r1, r2, r4, r5, sp}^
50004a9c:	61206574 	teqvs	r0, r4, ror r5
50004aa0:	003a6572 	eorseq	r6, sl, r2, ror r5
50004aa4:	6568540a 	strbvs	r5, [r8, #-1034]!	; 0xfffffbf6
50004aa8:	73616c20 	cmnvc	r1, #32, 24	; 0x2000
50004aac:	36312074 			; <UNDEFINED> instruction: 0x36312074
50004ab0:	74796220 	ldrbtvc	r6, [r9], #-544	; 0xfffffde0
50004ab4:	61207365 	teqvs	r0, r5, ror #6
50004ab8:	003a6572 	eorseq	r6, sl, r2, ror r5
50004abc:	206f440a 	rsbcs	r4, pc, sl, lsl #8
50004ac0:	20756f79 	rsbscs	r6, r5, r9, ror pc
50004ac4:	65727573 	ldrbvs	r7, [r2, #-1395]!	; 0xfffffa8d
50004ac8:	6e757220 	cdpvs	2, 7, cr7, cr5, cr0, {1}
50004acc:	69687420 	stmdbvs	r8!, {r5, sl, ip, sp, lr}^
50004ad0:	72702073 	rsbsvc	r2, r0, #115	; 0x73
50004ad4:	6172676f 	cmnvs	r2, pc, ror #14
50004ad8:	28203f6d 	stmdacs	r0!, {r0, r2, r3, r5, r6, r8, r9, sl, fp, ip, sp}
50004adc:	296e2f59 	stmdbcs	lr!, {r0, r3, r4, r6, r8, r9, sl, fp, sp}^
50004ae0:	00000000 	andeq	r0, r0, r0
50004ae4:	203e3e20 	eorscs	r3, lr, r0, lsr #28
50004ae8:	00000000 	andeq	r0, r0, r0
50004aec:	20756f59 	rsbscs	r6, r5, r9, asr pc
50004af0:	65766168 	ldrbvs	r6, [r6, #-360]!	; 0xfffffe98
50004af4:	6e616320 	cdpvs	3, 6, cr6, cr1, cr0, {1}
50004af8:	206c6563 	rsbcs	r6, ip, r3, ror #10
50004afc:	61647075 	smcvs	18181	; 0x4705
50004b00:	002e6574 	eoreq	r6, lr, r4, ror r5
50004b04:	79706f43 	ldmdbvc	r0!, {r0, r1, r6, r8, r9, sl, fp, sp, lr}^
50004b08:	20676e69 	rsbcs	r6, r7, r9, ror #28
50004b0c:	72206f74 	eorvc	r6, r0, #116, 30	; 0x1d0
50004b10:	2e206d61 	cdpcs	13, 2, cr6, cr0, cr1, {3}
50004b14:	00002e2e 	andeq	r2, r0, lr, lsr #28
50004b18:	0000002d 	andeq	r0, r0, sp, lsr #32
50004b1c:	00002820 	andeq	r2, r0, r0, lsr #16
50004b20:	00202029 	eoreq	r2, r0, r9, lsr #32
50004b24:	0000003a 	andeq	r0, r0, sl, lsr r0
50004b28:	00000000 	andeq	r0, r0, r0
50004b2c:	61656c50 	cmnvs	r5, r0, asr ip
50004b30:	69206573 	stmdbvs	r0!, {r0, r1, r4, r5, r6, r8, sl, sp, lr}
50004b34:	7475706e 	ldrbtvc	r7, [r5], #-110	; 0xffffff92
50004b38:	61657920 	cmnvs	r5, r0, lsr #18
50004b3c:	28203a72 	stmdacs	r0!, {r1, r4, r5, r6, r9, fp, ip, sp}
50004b40:	7e203030 	mcrvc	0, 1, r3, cr0, cr0, {1}
50004b44:	29393920 	ldmdbcs	r9!, {r5, r8, fp, ip, sp}
50004b48:	00000000 	andeq	r0, r0, r0
50004b4c:	203e3e20 	eorscs	r3, lr, r0, lsr #28
50004b50:	00000000 	andeq	r0, r0, r0
50004b54:	61656c50 	cmnvs	r5, r0, asr ip
50004b58:	69206573 	stmdbvs	r0!, {r0, r1, r4, r5, r6, r8, sl, sp, lr}
50004b5c:	7475706e 	ldrbtvc	r7, [r5], #-110	; 0xffffff92
50004b60:	6e6f6d20 	cdpvs	13, 6, cr6, cr15, cr0, {1}
50004b64:	203a6874 	eorscs	r6, sl, r4, ror r8
50004b68:	7e203128 	sufvcsp	f3, f0, #0.0
50004b6c:	29323120 	ldmdbcs	r2!, {r5, r8, ip, sp}
50004b70:	00000000 	andeq	r0, r0, r0
50004b74:	61656c50 	cmnvs	r5, r0, asr ip
50004b78:	69206573 	stmdbvs	r0!, {r0, r1, r4, r5, r6, r8, sl, sp, lr}
50004b7c:	7475706e 	ldrbtvc	r7, [r5], #-110	; 0xffffff92
50004b80:	74616420 	strbtvc	r6, [r1], #-1056	; 0xfffffbe0
50004b84:	28203a65 	stmdacs	r0!, {r0, r2, r5, r6, r9, fp, ip, sp}
50004b88:	207e2031 	rsbscs	r2, lr, r1, lsr r0
50004b8c:	00293133 	eoreq	r3, r9, r3, lsr r1
50004b90:	61656c50 	cmnvs	r5, r0, asr ip
50004b94:	69206573 	stmdbvs	r0!, {r0, r1, r4, r5, r6, r8, sl, sp, lr}
50004b98:	7475706e 	ldrbtvc	r7, [r5], #-110	; 0xffffff92
50004b9c:	79616420 	stmdbvc	r1!, {r5, sl, sp, lr}^
50004ba0:	3128203a 	teqcc	r8, sl, lsr r0
50004ba4:	37207e20 	strcc	r7, [r0, -r0, lsr #28]!
50004ba8:	00000029 	andeq	r0, r0, r9, lsr #32
50004bac:	61656c50 	cmnvs	r5, r0, asr ip
50004bb0:	69206573 	stmdbvs	r0!, {r0, r1, r4, r5, r6, r8, sl, sp, lr}
50004bb4:	7475706e 	ldrbtvc	r7, [r5], #-110	; 0xffffff92
50004bb8:	756f6820 	strbvc	r6, [pc, #-2080]!	; 500043a0 <change_rtc_date+0x5c>
50004bbc:	28203a72 	stmdacs	r0!, {r1, r4, r5, r6, r9, fp, ip, sp}
50004bc0:	207e2030 	rsbscs	r2, lr, r0, lsr r0
50004bc4:	00293332 	eoreq	r3, r9, r2, lsr r3
50004bc8:	61656c50 	cmnvs	r5, r0, asr ip
50004bcc:	69206573 	stmdbvs	r0!, {r0, r1, r4, r5, r6, r8, sl, sp, lr}
50004bd0:	7475706e 	ldrbtvc	r7, [r5], #-110	; 0xffffff92
50004bd4:	6e696d20 	cdpvs	13, 6, cr6, cr9, cr0, {1}
50004bd8:	3a657475 	bcc	51961db4 <bss_end+0x195a134>
50004bdc:	20302820 	eorscs	r2, r0, r0, lsr #16
50004be0:	3935207e 	ldmdbcc	r5!, {r1, r2, r3, r4, r5, r6, sp}
50004be4:	00000029 	andeq	r0, r0, r9, lsr #32
50004be8:	61656c50 	cmnvs	r5, r0, asr ip
50004bec:	69206573 	stmdbvs	r0!, {r0, r1, r4, r5, r6, r8, sl, sp, lr}
50004bf0:	7475706e 	ldrbtvc	r7, [r5], #-110	; 0xffffff92
50004bf4:	63657320 	cmnvs	r5, #32, 6	; 0x80000000
50004bf8:	3a646e6f 	bcc	519205bc <bss_end+0x191893c>
50004bfc:	20302820 	eorscs	r2, r0, r0, lsr #16
50004c00:	3935207e 	ldmdbcc	r5!, {r1, r2, r3, r4, r5, r6, sp}
50004c04:	00000029 	andeq	r0, r0, r9, lsr #32
50004c08:	6d69540a 	cfstrdvs	mvd5, [r9, #-40]!	; 0xffffffd8
50004c0c:	73692065 	cmnvc	r9, #101	; 0x65
50004c10:	0000003a 	andeq	r0, r0, sl, lsr r0
50004c14:	7272450a 	rsbsvc	r4, r2, #41943040	; 0x2800000
50004c18:	203a726f 	eorscs	r7, sl, pc, ror #4
50004c1c:	72616559 	rsbvc	r6, r1, #373293056	; 0x16400000
50004c20:	73756d20 	cmnvc	r5, #32, 26	; 0x800
50004c24:	65622074 	strbvs	r2, [r2, #-116]!	; 0xffffff8c
50004c28:	65657774 	strbvs	r7, [r5, #-1908]!	; 0xfffff88c
50004c2c:	2030206e 	eorscs	r2, r0, lr, rrx
50004c30:	39206f74 	stmdbcc	r0!, {r2, r4, r5, r6, r8, r9, sl, fp, sp, lr}
50004c34:	00002139 	andeq	r2, r0, r9, lsr r1
50004c38:	7272450a 	rsbsvc	r4, r2, #41943040	; 0x2800000
50004c3c:	203a726f 	eorscs	r7, sl, pc, ror #4
50004c40:	746e6f4d 	strbtvc	r6, [lr], #-3917	; 0xfffff0b3
50004c44:	756d2068 	strbvc	r2, [sp, #-104]!	; 0xffffff98
50004c48:	62207473 	eorvs	r7, r0, #1929379840	; 0x73000000
50004c4c:	65777465 	ldrbvs	r7, [r7, #-1125]!	; 0xfffffb9b
50004c50:	31206e65 	teqcc	r0, r5, ror #28
50004c54:	206f7420 	rsbcs	r7, pc, r0, lsr #8
50004c58:	00213231 	eoreq	r3, r1, r1, lsr r2
50004c5c:	7272450a 	rsbsvc	r4, r2, #41943040	; 0x2800000
50004c60:	203a726f 	eorscs	r7, sl, pc, ror #4
50004c64:	65746144 	ldrbvs	r6, [r4, #-324]!	; 0xfffffebc
50004c68:	73756d20 	cmnvc	r5, #32, 26	; 0x800
50004c6c:	65622074 	strbvs	r2, [r2, #-116]!	; 0xffffff8c
50004c70:	65657774 	strbvs	r7, [r5, #-1908]!	; 0xfffff88c
50004c74:	2031206e 	eorscs	r2, r1, lr, rrx
50004c78:	33206f74 	teqcc	r0, #116, 30	; 0x1d0
50004c7c:	00002131 	andeq	r2, r0, r1, lsr r1
50004c80:	7272450a 	rsbsvc	r4, r2, #41943040	; 0x2800000
50004c84:	203a726f 	eorscs	r7, sl, pc, ror #4
50004c88:	20796144 	rsbscs	r6, r9, r4, asr #2
50004c8c:	7473756d 	ldrbtvc	r7, [r3], #-1389	; 0xfffffa93
50004c90:	74656220 	strbtvc	r6, [r5], #-544	; 0xfffffde0
50004c94:	6e656577 	mcrvs	5, 3, r6, cr5, cr7, {3}
50004c98:	74203120 	strtvc	r3, [r0], #-288	; 0xfffffee0
50004c9c:	3133206f 	teqcc	r3, pc, rrx
50004ca0:	00000021 	andeq	r0, r0, r1, lsr #32
50004ca4:	7272450a 	rsbsvc	r4, r2, #41943040	; 0x2800000
50004ca8:	203a726f 	eorscs	r7, sl, pc, ror #4
50004cac:	72756f48 	rsbsvc	r6, r5, #72, 30	; 0x120
50004cb0:	73756d20 	cmnvc	r5, #32, 26	; 0x800
50004cb4:	65622074 	strbvs	r2, [r2, #-116]!	; 0xffffff8c
50004cb8:	65657774 	strbvs	r7, [r5, #-1908]!	; 0xfffff88c
50004cbc:	2030206e 	eorscs	r2, r0, lr, rrx
50004cc0:	32206f74 	eorcc	r6, r0, #116, 30	; 0x1d0
50004cc4:	00002133 	andeq	r2, r0, r3, lsr r1
50004cc8:	7272450a 	rsbsvc	r4, r2, #41943040	; 0x2800000
50004ccc:	203a726f 	eorscs	r7, sl, pc, ror #4
50004cd0:	756e694d 	strbvc	r6, [lr, #-2381]!	; 0xfffff6b3
50004cd4:	6d206574 	cfstr32vs	mvfx6, [r0, #-464]!	; 0xfffffe30
50004cd8:	20747375 	rsbscs	r7, r4, r5, ror r3
50004cdc:	77746562 	ldrbvc	r6, [r4, -r2, ror #10]!
50004ce0:	206e6565 	rsbcs	r6, lr, r5, ror #10
50004ce4:	6f742030 	svcvs	0x00742030
50004ce8:	21393520 	teqcs	r9, r0, lsr #10
50004cec:	00000000 	andeq	r0, r0, r0
50004cf0:	7272450a 	rsbsvc	r4, r2, #41943040	; 0x2800000
50004cf4:	203a726f 	eorscs	r7, sl, pc, ror #4
50004cf8:	6f636553 	svcvs	0x00636553
50004cfc:	6d20646e 	cfstrsvs	mvf6, [r0, #-440]!	; 0xfffffe48
50004d00:	20747375 	rsbscs	r7, r4, r5, ror r3
50004d04:	77746562 	ldrbvc	r6, [r4, -r2, ror #10]!
50004d08:	206e6565 	rsbcs	r6, lr, r5, ror #10
50004d0c:	6f742030 	svcvs	0x00742030
50004d10:	21393520 	teqcs	r9, r0, lsr #10
50004d14:	00000000 	andeq	r0, r0, r0

Disassembly of section .data:

50004d18 <swi_table>:
50004d18:	50003814 	andpl	r3, r0, r4, lsl r8
50004d1c:	5000382c 	andpl	r3, r0, ip, lsr #16
50004d20:	50003844 	andpl	r3, r0, r4, asr #16
50004d24:	50003850 	andpl	r3, r0, r0, asr r8
50004d28:	50003898 	mulpl	r0, r8, r8
50004d2c:	500038a4 	andpl	r3, r0, r4, lsr #17
50004d30:	500038b8 			; <UNDEFINED> instruction: 0x500038b8
50004d34:	500038cc 	andpl	r3, r0, ip, asr #17

Disassembly of section .bss:

50004d38 <bss_start>:
50004d38:	00000000 	andeq	r0, r0, r0

50004d3c <task>:
	...

Disassembly of section .comment:

00000000 <.comment>:
   0:	3a434347 	bcc	10d0d24 <IRQ_STACK_SIZE+0x10c8d24>
   4:	6f532820 	svcvs	0x00532820
   8:	65637275 	strbvs	r7, [r3, #-629]!	; 0xfffffd8b
   c:	43207972 	teqmi	r0, #1867776	; 0x1c8000
  10:	4265646f 	rsbmi	r6, r5, #1862270976	; 0x6f000000
  14:	68636e65 	stmdavs	r3!, {r0, r2, r5, r6, r9, sl, fp, sp, lr}^
  18:	74694c20 	strbtvc	r4, [r9], #-3104	; 0xfffff3e0
  1c:	30322065 	eorscc	r2, r2, r5, rrx
  20:	302e3331 	eorcc	r3, lr, r1, lsr r3
  24:	34322d35 	ldrtcc	r2, [r2], #-3381	; 0xfffff2cb
  28:	2e342029 	cdpcs	0, 3, cr2, cr4, cr9, {1}
  2c:	00332e37 	eorseq	r2, r3, r7, lsr lr

Disassembly of section .ARM.attributes:

00000000 <.ARM.attributes>:
   0:	00002641 	andeq	r2, r0, r1, asr #12
   4:	61656100 	cmnvs	r5, r0, lsl #2
   8:	01006962 	tsteq	r0, r2, ror #18
   c:	0000001c 	andeq	r0, r0, ip, lsl r0
  10:	45543505 	ldrbmi	r3, [r4, #-1285]	; 0xfffffafb
  14:	08040600 	stmdaeq	r4, {r9, sl}
  18:	12010901 	andne	r0, r1, #16384	; 0x4000
  1c:	15011404 	strne	r1, [r1, #-1028]	; 0xfffffbfc
  20:	18031701 	stmdane	r3, {r0, r8, r9, sl, ip}
  24:	Address 0x00000024 is out of bounds.

