
uart.elf:     file format elf32-littlearm

Disassembly of section .text:

50000000 <_start>:
50000000:	ea00001c 	b	50000078 <reset>
50000004:	e59ff110 	ldr	pc, [pc, #272]	; 5000011c <halt+0x4>
50000008:	e59ff014 	ldr	pc, [pc, #20]	; 50000024 <_vector_swi>
5000000c:	ea000041 	b	50000118 <halt>
50000010:	ea000040 	b	50000118 <halt>
50000014:	ea00003f 	b	50000118 <halt>
50000018:	e59ff000 	ldr	pc, [pc, #0]	; 50000020 <_irq>
5000001c:	ea00003d 	b	50000118 <halt>

50000020 <_irq>:
50000020:	50000064 	.word	0x50000064

50000024 <_vector_swi>:
50000024:	50000028 	.word	0x50000028

50000028 <vector_swi>:
50000028:	e3a0d456 	mov	sp, #1442840576	; 0x56000000
5000002c:	e92d5fff 	push	{r0, r1, r2, r3, r4, r5, r6, r7, r8, r9, sl, fp, ip, lr}
50000030:	e10f0000 	mrs	r0, CPSR
50000034:	e59f10e4 	ldr	r1, [pc, #228]	; 50000120 <halt+0x8>
50000038:	eb0001fe 	bl	50000838 <print_cpsr>
5000003c:	e8fd9fff 	ldm	sp!, {r0, r1, r2, r3, r4, r5, r6, r7, r8, r9, sl, fp, ip, pc}^

50000040 <swi_str>:
50000040:	00697773 	.word	0x00697773

50000044 <undefined_instruction>:
50000044:	e3a0d455 	mov	sp, #1426063360	; 0x55000000
50000048:	e92d5fff 	push	{r0, r1, r2, r3, r4, r5, r6, r7, r8, r9, sl, fp, ip, lr}
5000004c:	e10f0000 	mrs	r0, CPSR
50000050:	e59f10cc 	ldr	r1, [pc, #204]	; 50000124 <halt+0xc>
50000054:	eb0001f7 	bl	50000838 <print_cpsr>
50000058:	e8fd9fff 	ldm	sp!, {r0, r1, r2, r3, r4, r5, r6, r7, r8, r9, sl, fp, ip, pc}^

5000005c <und_str>:
5000005c:	00646e75 	.word	0x00646e75

50000060 <usr_str>:
50000060:	00727375 	.word	0x00727375

50000064 <vector_irq>:
50000064:	e3a0d315 	mov	sp, #1409286144	; 0x54000000
50000068:	e24ee004 	sub	lr, lr, #4	; 0x4
5000006c:	e92d5fff 	push	{r0, r1, r2, r3, r4, r5, r6, r7, r8, r9, sl, fp, ip, lr}
50000070:	eb000359 	bl	50000ddc <do_irq>
50000074:	e8fd9fff 	ldm	sp!, {r0, r1, r2, r3, r4, r5, r6, r7, r8, r9, sl, fp, ip, pc}^

50000078 <reset>:
50000078:	e3a00207 	mov	r0, #1879048192	; 0x70000000
5000007c:	e3800013 	orr	r0, r0, #19	; 0x13
50000080:	ee0f0f92 	mcr	15, 0, r0, cr15, cr2, {4}
50000084:	e59f009c 	ldr	r0, [pc, #156]	; 50000128 <halt+0x10>
50000088:	e3a01000 	mov	r1, #0	; 0x0
5000008c:	e5801000 	str	r1, [r0]
50000090:	e3a0da02 	mov	sp, #8192	; 0x2000
50000094:	eb00002f 	bl	50000158 <clock_init>
50000098:	eb000057 	bl	500001fc <ddr_init>
5000009c:	eb0003c1 	bl	50000fa8 <init_uart>
500000a0:	e24f00a8 	sub	r0, pc, #168	; 0xa8
500000a4:	e59f1080 	ldr	r1, [pc, #128]	; 5000012c <halt+0x14>
500000a8:	e59f2080 	ldr	r2, [pc, #128]	; 50000130 <halt+0x18>
500000ac:	e0422001 	sub	r2, r2, r1
500000b0:	e1500001 	cmp	r0, r1
500000b4:	0a000002 	beq	500000c4 <clean_bss>
500000b8:	eb000133 	bl	5000058c <copy2ddr>
500000bc:	e3500000 	cmp	r0, #0	; 0x0
500000c0:	1a000014 	bne	50000118 <halt>

500000c4 <clean_bss>:
500000c4:	e59f0064 	ldr	r0, [pc, #100]	; 50000130 <halt+0x18>
500000c8:	e59f1064 	ldr	r1, [pc, #100]	; 50000134 <halt+0x1c>
500000cc:	e3a03000 	mov	r3, #0	; 0x0
500000d0:	e1500001 	cmp	r0, r1
500000d4:	059ff05c 	ldreq	pc, [pc, #92]	; 50000138 <halt+0x20>

500000d8 <clean_loop>:
500000d8:	e4803004 	str	r3, [r0], #4
500000dc:	e1500001 	cmp	r0, r1
500000e0:	1afffffc 	bne	500000d8 <clean_loop>
500000e4:	e59ff04c 	ldr	pc, [pc, #76]	; 50000138 <halt+0x20>

500000e8 <on_ddr>:
500000e8:	eb000394 	bl	50000f40 <irq_init>
500000ec:	e10f0000 	mrs	r0, CPSR
500000f0:	e3c0009f 	bic	r0, r0, #159	; 0x9f
500000f4:	e3800010 	orr	r0, r0, #16	; 0x10
500000f8:	e129f000 	msr	CPSR_fc, r0
500000fc:	e3a0d457 	mov	sp, #1459617792	; 0x57000000
50000100:	e59f1034 	ldr	r1, [pc, #52]	; 5000013c <halt+0x24>
50000104:	eb0001cb 	bl	50000838 <print_cpsr>
50000108:	ef000000 	svc	0x00000000
5000010c:	eb0001d3 	bl	50000860 <hello>

50000110 <undef>:
50000110:	ff000000 	.word	0xff000000

50000114 <swi_ret>:
50000114:	eb0002bd 	bl	50000c10 <main>

50000118 <halt>:
50000118:	eafffffe 	b	50000118 <halt>
5000011c:	50000044 	.word	0x50000044
50000120:	50000040 	.word	0x50000040
50000124:	5000005c 	.word	0x5000005c
50000128:	7e004000 	.word	0x7e004000
5000012c:	50000000 	.word	0x50000000
50000130:	5000461c 	.word	0x5000461c
50000134:	5000564c 	.word	0x5000564c
50000138:	500000e8 	.word	0x500000e8
5000013c:	50000060 	.word	0x50000060
50000140:	00001741 	.word	0x00001741
50000144:	61656100 	.word	0x61656100
50000148:	01006962 	.word	0x01006962
5000014c:	0000000d 	.word	0x0000000d
50000150:	00543405 	.word	0x00543405
50000154:	01080206 	.word	0x01080206

50000158 <clock_init>:
50000158:	e59f0064 	ldr	r0, [pc, #100]	; 500001c4 <loop1+0x48>
5000015c:	e59f1064 	ldr	r1, [pc, #100]	; 500001c8 <loop1+0x4c>
50000160:	e5801000 	str	r1, [r0]
50000164:	e5801004 	str	r1, [r0, #4]
50000168:	e5801008 	str	r1, [r0, #8]
5000016c:	e59f0058 	ldr	r0, [pc, #88]	; 500001cc <loop1+0x50>
50000170:	e5901000 	ldr	r1, [r0]
50000174:	e3c110c0 	bic	r1, r1, #192	; 0xc0
50000178:	e5801000 	str	r1, [r0]

5000017c <loop1>:
5000017c:	e59f0048 	ldr	r0, [pc, #72]	; 500001cc <loop1+0x50>
50000180:	e5901000 	ldr	r1, [r0]
50000184:	e2011c0f 	and	r1, r1, #3840	; 0xf00
50000188:	e3510000 	cmp	r1, #0	; 0x0
5000018c:	1afffffa 	bne	5000017c <loop1>
50000190:	e59f0038 	ldr	r0, [pc, #56]	; 500001d0 <loop1+0x54>
50000194:	e3a01c33 	mov	r1, #13056	; 0x3300
50000198:	e5801000 	str	r1, [r0]
5000019c:	e59f0030 	ldr	r0, [pc, #48]	; 500001d4 <loop1+0x58>
500001a0:	e59f1030 	ldr	r1, [pc, #48]	; 500001d8 <loop1+0x5c>
500001a4:	e5801000 	str	r1, [r0]
500001a8:	e59f002c 	ldr	r0, [pc, #44]	; 500001dc <loop1+0x60>
500001ac:	e59f1024 	ldr	r1, [pc, #36]	; 500001d8 <loop1+0x5c>
500001b0:	e5801000 	str	r1, [r0]
500001b4:	e59f0024 	ldr	r0, [pc, #36]	; 500001e0 <loop1+0x64>
500001b8:	e3a01003 	mov	r1, #3	; 0x3
500001bc:	e5801000 	str	r1, [r0]
500001c0:	e1a0f00e 	mov	pc, lr
500001c4:	7e00f000 	.word	0x7e00f000
500001c8:	0000ffff 	.word	0x0000ffff
500001cc:	7e00f900 	.word	0x7e00f900
500001d0:	7e00f020 	.word	0x7e00f020
500001d4:	7e00f00c 	.word	0x7e00f00c
500001d8:	810a0301 	.word	0x810a0301
500001dc:	7e00f010 	.word	0x7e00f010
500001e0:	7e00f01c 	.word	0x7e00f01c
500001e4:	00001741 	.word	0x00001741
500001e8:	61656100 	.word	0x61656100
500001ec:	01006962 	.word	0x01006962
500001f0:	0000000d 	.word	0x0000000d
500001f4:	00543405 	.word	0x00543405
500001f8:	01080206 	.word	0x01080206

500001fc <ddr_init>:
500001fc:	e59f2144 	ldr	r2, [pc, #324]	; 50000348 <ddr_init+0x14c>
50000200:	e3a03004 	mov	r3, #4	; 0x4
50000204:	e5823004 	str	r3, [r2, #4]
50000208:	e59f313c 	ldr	r3, [pc, #316]	; 5000034c <ddr_init+0x150>
5000020c:	e5823010 	str	r3, [r2, #16]
50000210:	e3a03006 	mov	r3, #6	; 0x6
50000214:	e5823014 	str	r3, [r2, #20]
50000218:	e3a03001 	mov	r3, #1	; 0x1
5000021c:	e5823018 	str	r3, [r2, #24]
50000220:	e92d4010 	push	{r4, lr}
50000224:	e3a0c007 	mov	ip, #7	; 0x7
50000228:	e3a04002 	mov	r4, #2	; 0x2
5000022c:	e2833009 	add	r3, r3, #9	; 0x9
50000230:	e582401c 	str	r4, [r2, #28]
50000234:	e3a0100c 	mov	r1, #12	; 0xc
50000238:	e582c020 	str	ip, [r2, #32]
5000023c:	e3a00003 	mov	r0, #3	; 0x3
50000240:	e5823024 	str	r3, [r2, #36]
50000244:	e3a0e012 	mov	lr, #18	; 0x12
50000248:	e3a03f4b 	mov	r3, #300	; 0x12c
5000024c:	e5821028 	str	r1, [r2, #40]
50000250:	e582302c 	str	r3, [r2, #44]
50000254:	e5821030 	str	r1, [r2, #48]
50000258:	e5820034 	str	r0, [r2, #52]
5000025c:	e5820038 	str	r0, [r2, #56]
50000260:	e582c03c 	str	ip, [r2, #60]
50000264:	e5824040 	str	r4, [r2, #64]
50000268:	e582e044 	str	lr, [r2, #68]
5000026c:	e582e048 	str	lr, [r2, #72]
50000270:	e592300c 	ldr	r3, [r2, #12]
50000274:	e3c33007 	bic	r3, r3, #7	; 0x7
50000278:	e1833004 	orr	r3, r3, r4
5000027c:	e582300c 	str	r3, [r2, #12]
50000280:	e592300c 	ldr	r3, [r2, #12]
50000284:	e3c33038 	bic	r3, r3, #56	; 0x38
50000288:	e3833018 	orr	r3, r3, #24	; 0x18
5000028c:	e582300c 	str	r3, [r2, #12]
50000290:	e592300c 	ldr	r3, [r2, #12]
50000294:	e3c33040 	bic	r3, r3, #64	; 0x40
50000298:	e582300c 	str	r3, [r2, #12]
5000029c:	e592300c 	ldr	r3, [r2, #12]
500002a0:	e3c3390e 	bic	r3, r3, #229376	; 0x38000
500002a4:	e3833801 	orr	r3, r3, #65536	; 0x10000
500002a8:	e582300c 	str	r3, [r2, #12]
500002ac:	e592304c 	ldr	r3, [r2, #76]
500002b0:	e3c3300f 	bic	r3, r3, #15	; 0xf
500002b4:	e3833005 	orr	r3, r3, #5	; 0x5
500002b8:	e582304c 	str	r3, [r2, #76]
500002bc:	e592304c 	ldr	r3, [r2, #76]
500002c0:	e3c330c0 	bic	r3, r3, #192	; 0xc0
500002c4:	e3833040 	orr	r3, r3, #64	; 0x40
500002c8:	e582304c 	str	r3, [r2, #76]
500002cc:	e592304c 	ldr	r3, [r2, #76]
500002d0:	e3c33c07 	bic	r3, r3, #1792	; 0x700
500002d4:	e3833c03 	orr	r3, r3, #768	; 0x300
500002d8:	e582304c 	str	r3, [r2, #76]
500002dc:	e592304c 	ldr	r3, [r2, #76]
500002e0:	e3c33b06 	bic	r3, r3, #6144	; 0x1800
500002e4:	e3833b02 	orr	r3, r3, #2048	; 0x800
500002e8:	e582304c 	str	r3, [r2, #76]
500002ec:	e5923200 	ldr	r3, [r2, #512]
500002f0:	e3833801 	orr	r3, r3, #65536	; 0x10000
500002f4:	e5823200 	str	r3, [r2, #512]
500002f8:	e3a03703 	mov	r3, #786432	; 0xc0000
500002fc:	e5823008 	str	r3, [r2, #8]
50000300:	e3a01000 	mov	r1, #0	; 0x0
50000304:	e3a00701 	mov	r0, #262144	; 0x40000
50000308:	e2433802 	sub	r3, r3, #131072	; 0x20000
5000030c:	e5821008 	str	r1, [r2, #8]
50000310:	e5820008 	str	r0, [r2, #8]
50000314:	e5820008 	str	r0, [r2, #8]
50000318:	e5823008 	str	r3, [r2, #8]
5000031c:	e59f302c 	ldr	r3, [pc, #44]	; 50000350 <ddr_init+0x154>
50000320:	e5823008 	str	r3, [r2, #8]
50000324:	e59f3028 	ldr	r3, [pc, #40]	; 50000354 <ddr_init+0x158>
50000328:	e5831120 	str	r1, [r3, #288]
5000032c:	e5821004 	str	r1, [r2, #4]
50000330:	e5923000 	ldr	r3, [r2]
50000334:	e2033003 	and	r3, r3, #3	; 0x3
50000338:	e3530001 	cmp	r3, #1	; 0x1
5000033c:	1afffffb 	bne	50000330 <ddr_init+0x134>
50000340:	e8bd4010 	pop	{r4, lr}
50000344:	e12fff1e 	bx	lr
50000348:	7e001000 	.word	0x7e001000
5000034c:	0000045b 	.word	0x0000045b
50000350:	00080032 	.word	0x00080032
50000354:	7e00f000 	.word	0x7e00f000
50000358:	43434700 	.word	0x43434700
5000035c:	4728203a 	.word	0x4728203a
50000360:	2029554e 	.word	0x2029554e
50000364:	2e322e34 	.word	0x2e322e34
50000368:	17410032 	.word	0x17410032
5000036c:	61000000 	.word	0x61000000
50000370:	69626165 	.word	0x69626165
50000374:	000d0100 	.word	0x000d0100
50000378:	34050000 	.word	0x34050000
5000037c:	02060054 	.word	0x02060054
50000380:	00000108 	.word	0x00000108

50000384 <nand_select>:
50000384:	e59f200c 	ldr	r2, [pc, #12]	; 50000398 <nand_select+0x14>
50000388:	e5923004 	ldr	r3, [r2, #4]
5000038c:	e3c33002 	bic	r3, r3, #2	; 0x2
50000390:	e5823004 	str	r3, [r2, #4]
50000394:	e12fff1e 	bx	lr
50000398:	70200000 	.word	0x70200000

5000039c <nand_deselect>:
5000039c:	e59f200c 	ldr	r2, [pc, #12]	; 500003b0 <nand_deselect+0x14>
500003a0:	e5923004 	ldr	r3, [r2, #4]
500003a4:	e3833002 	orr	r3, r3, #2	; 0x2
500003a8:	e5823004 	str	r3, [r2, #4]
500003ac:	e12fff1e 	bx	lr
500003b0:	70200000 	.word	0x70200000

500003b4 <nand_cmd>:
500003b4:	e59f3004 	ldr	r3, [pc, #4]	; 500003c0 <nand_cmd+0xc>
500003b8:	e5830008 	str	r0, [r3, #8]
500003bc:	e12fff1e 	bx	lr
500003c0:	70200000 	.word	0x70200000

500003c4 <nand_addr>:
500003c4:	e59f3004 	ldr	r3, [pc, #4]	; 500003d0 <nand_addr+0xc>
500003c8:	e583000c 	str	r0, [r3, #12]
500003cc:	e12fff1e 	bx	lr
500003d0:	70200000 	.word	0x70200000

500003d4 <nand_get_data>:
500003d4:	e59f3004 	ldr	r3, [pc, #4]	; 500003e0 <nand_get_data+0xc>
500003d8:	e5d30010 	ldrb	r0, [r3, #16]
500003dc:	e12fff1e 	bx	lr
500003e0:	70200000 	.word	0x70200000

500003e4 <nand_send_data>:
500003e4:	e59f3004 	ldr	r3, [pc, #4]	; 500003f0 <nand_send_data+0xc>
500003e8:	e5c30010 	strb	r0, [r3, #16]
500003ec:	e12fff1e 	bx	lr
500003f0:	70200000 	.word	0x70200000

500003f4 <wait_ready>:
500003f4:	e59f200c 	ldr	r2, [pc, #12]	; 50000408 <wait_ready+0x14>
500003f8:	e5923028 	ldr	r3, [r2, #40]
500003fc:	e3130001 	tst	r3, #1	; 0x1
50000400:	0afffffc 	beq	500003f8 <wait_ready+0x4>
50000404:	e12fff1e 	bx	lr
50000408:	70200000 	.word	0x70200000

5000040c <nand_reset>:
5000040c:	e59f3030 	ldr	r3, [pc, #48]	; 50000444 <nand_reset+0x38>
50000410:	e5932004 	ldr	r2, [r3, #4]
50000414:	e3c22002 	bic	r2, r2, #2	; 0x2
50000418:	e5832004 	str	r2, [r3, #4]
5000041c:	e3a020ff 	mov	r2, #255	; 0xff
50000420:	e5832008 	str	r2, [r3, #8]
50000424:	e1a02003 	mov	r2, r3
50000428:	e5923028 	ldr	r3, [r2, #40]
5000042c:	e3130001 	tst	r3, #1	; 0x1
50000430:	0afffffc 	beq	50000428 <nand_reset+0x1c>
50000434:	e5923004 	ldr	r3, [r2, #4]
50000438:	e3833002 	orr	r3, r3, #2	; 0x2
5000043c:	e5823004 	str	r3, [r2, #4]
50000440:	e12fff1e 	bx	lr
50000444:	70200000 	.word	0x70200000

50000448 <nand_init>:
50000448:	e59f2038 	ldr	r2, [pc, #56]	; 50000488 <nand_init+0x40>
5000044c:	e5923120 	ldr	r3, [r2, #288]
50000450:	e3c33002 	bic	r3, r3, #2	; 0x2
50000454:	e5823120 	str	r3, [r2, #288]
50000458:	e59f102c 	ldr	r1, [pc, #44]	; 5000048c <nand_init+0x44>
5000045c:	e59f302c 	ldr	r3, [pc, #44]	; 50000490 <nand_init+0x48>
50000460:	e5912000 	ldr	r2, [r1]
50000464:	e0023003 	and	r3, r2, r3
50000468:	e5813000 	str	r3, [r1]
5000046c:	e5913000 	ldr	r3, [r1]
50000470:	e3833e31 	orr	r3, r3, #784	; 0x310
50000474:	e5813000 	str	r3, [r1]
50000478:	e5913004 	ldr	r3, [r1, #4]
5000047c:	e3833001 	orr	r3, r3, #1	; 0x1
50000480:	e5813004 	str	r3, [r1, #4]
50000484:	eaffffe0 	b	5000040c <nand_reset>
50000488:	7e00f000 	.word	0x7e00f000
5000048c:	70200000 	.word	0x70200000
50000490:	bfff888f 	.word	0xbfff888f

50000494 <nand_send_addr>:
50000494:	e52de004 	push	{lr}		; (str lr, [sp, #-4]!)
50000498:	e59f3038 	ldr	r3, [pc, #56]	; 500004d8 <nand_send_addr+0x44>
5000049c:	e1a02420 	lsr	r2, r0, #8
500004a0:	e1a016a0 	lsr	r1, r0, #13
500004a4:	e1a0caa0 	lsr	ip, r0, #21
500004a8:	e1a0eea0 	lsr	lr, r0, #29
500004ac:	e202201f 	and	r2, r2, #31	; 0x1f
500004b0:	e20110ff 	and	r1, r1, #255	; 0xff
500004b4:	e20cc0ff 	and	ip, ip, #255	; 0xff
500004b8:	e20000ff 	and	r0, r0, #255	; 0xff
500004bc:	e583000c 	str	r0, [r3, #12]
500004c0:	e583200c 	str	r2, [r3, #12]
500004c4:	e583100c 	str	r1, [r3, #12]
500004c8:	e583c00c 	str	ip, [r3, #12]
500004cc:	e583e00c 	str	lr, [r3, #12]
500004d0:	e49de004 	pop	{lr}		; (ldr lr, [sp], #4)
500004d4:	e12fff1e 	bx	lr
500004d8:	70200000 	.word	0x70200000

500004dc <nandll_read_page>:
500004dc:	e59fc0a4 	ldr	ip, [pc, #164]	; 50000588 <nandll_read_page+0xac>
500004e0:	e59c3004 	ldr	r3, [ip, #4]
500004e4:	e3520002 	cmp	r2, #2	; 0x2
500004e8:	e3c33002 	bic	r3, r3, #2	; 0x2
500004ec:	e58c3004 	str	r3, [ip, #4]
500004f0:	e52de004 	push	{lr}		; (str lr, [sp, #-4]!)
500004f4:	e1a03001 	mov	r3, r1
500004f8:	13a0ec02 	movne	lr, #512	; 0x200
500004fc:	03a0ea01 	moveq	lr, #4096	; 0x1000
50000500:	e3520000 	cmp	r2, #0	; 0x0
50000504:	e3a02000 	mov	r2, #0	; 0x0
50000508:	e58c2008 	str	r2, [ip, #8]
5000050c:	e1a01821 	lsr	r1, r1, #16
50000510:	e58c200c 	str	r2, [ip, #12]
50000514:	158c200c 	strne	r2, [ip, #12]
50000518:	e1a02423 	lsr	r2, r3, #8
5000051c:	e20330ff 	and	r3, r3, #255	; 0xff
50000520:	e58c300c 	str	r3, [ip, #12]
50000524:	e20220ff 	and	r2, r2, #255	; 0xff
50000528:	e20110ff 	and	r1, r1, #255	; 0xff
5000052c:	13a03030 	movne	r3, #48	; 0x30
50000530:	e58c200c 	str	r2, [ip, #12]
50000534:	e58c100c 	str	r1, [ip, #12]
50000538:	158c3008 	strne	r3, [ip, #8]
5000053c:	e1a0200c 	mov	r2, ip
50000540:	e5923028 	ldr	r3, [r2, #40]
50000544:	e3130001 	tst	r3, #1	; 0x1
50000548:	0afffffc 	beq	50000540 <nandll_read_page+0x64>
5000054c:	e59f1034 	ldr	r1, [pc, #52]	; 50000588 <nandll_read_page+0xac>
50000550:	e3a02000 	mov	r2, #0	; 0x0
50000554:	ea000001 	b	50000560 <nandll_read_page+0x84>
50000558:	e5d13010 	ldrb	r3, [r1, #16]
5000055c:	e4c03001 	strb	r3, [r0], #1
50000560:	e152000e 	cmp	r2, lr
50000564:	e2822001 	add	r2, r2, #1	; 0x1
50000568:	bafffffa 	blt	50000558 <nandll_read_page+0x7c>
5000056c:	e59f2014 	ldr	r2, [pc, #20]	; 50000588 <nandll_read_page+0xac>
50000570:	e5923004 	ldr	r3, [r2, #4]
50000574:	e3a00000 	mov	r0, #0	; 0x0
50000578:	e3833002 	orr	r3, r3, #2	; 0x2
5000057c:	e5823004 	str	r3, [r2, #4]
50000580:	e49de004 	pop	{lr}		; (ldr lr, [sp], #4)
50000584:	e12fff1e 	bx	lr
50000588:	70200000 	.word	0x70200000

5000058c <copy2ddr>:
5000058c:	e92d40f0 	push	{r4, r5, r6, r7, lr}
50000590:	e3520a02 	cmp	r2, #8192	; 0x2000
50000594:	82423a01 	subhi	r3, r2, #4096	; 0x1000
50000598:	e24dd004 	sub	sp, sp, #4	; 0x4
5000059c:	e1a06001 	mov	r6, r1
500005a0:	93a07000 	movls	r7, #0	; 0x0
500005a4:	81a07623 	lsrhi	r7, r3, #12
500005a8:	ebffffa6 	bl	50000448 <nand_init>
500005ac:	e1a04006 	mov	r4, r6
500005b0:	e3a05000 	mov	r5, #0	; 0x0
500005b4:	e1a00004 	mov	r0, r4
500005b8:	e1a01005 	mov	r1, r5
500005bc:	e3a02002 	mov	r2, #2	; 0x2
500005c0:	e2855001 	add	r5, r5, #1	; 0x1
500005c4:	ebffffc4 	bl	500004dc <nandll_read_page>
500005c8:	e3550004 	cmp	r5, #4	; 0x4
500005cc:	e2844b02 	add	r4, r4, #2048	; 0x800
500005d0:	1afffff7 	bne	500005b4 <copy2ddr+0x28>
500005d4:	e2864a02 	add	r4, r6, #8192	; 0x2000
500005d8:	e2876004 	add	r6, r7, #4	; 0x4
500005dc:	ea000000 	b	500005e4 <copy2ddr+0x58>
500005e0:	ebffffbd 	bl	500004dc <nandll_read_page>
500005e4:	e1550006 	cmp	r5, r6
500005e8:	e1a00004 	mov	r0, r4
500005ec:	e1a01005 	mov	r1, r5
500005f0:	e3a02002 	mov	r2, #2	; 0x2
500005f4:	e2844a01 	add	r4, r4, #4096	; 0x1000
500005f8:	e2855001 	add	r5, r5, #1	; 0x1
500005fc:	3afffff7 	bcc	500005e0 <copy2ddr+0x54>
50000600:	e3a00000 	mov	r0, #0	; 0x0
50000604:	e28dd004 	add	sp, sp, #4	; 0x4
50000608:	e8bd40f0 	pop	{r4, r5, r6, r7, lr}
5000060c:	e12fff1e 	bx	lr

50000610 <nand_erase_block>:
50000610:	e59f2054 	ldr	r2, [pc, #84]	; 5000066c <nand_erase_block+0x5c>
50000614:	e5923004 	ldr	r3, [r2, #4]
50000618:	e1a00620 	lsr	r0, r0, #12
5000061c:	e3c33002 	bic	r3, r3, #2	; 0x2
50000620:	e5823004 	str	r3, [r2, #4]
50000624:	e1a01440 	asr	r1, r0, #8
50000628:	e3a03060 	mov	r3, #96	; 0x60
5000062c:	e5823008 	str	r3, [r2, #8]
50000630:	e1a0c820 	lsr	ip, r0, #16
50000634:	e20110ff 	and	r1, r1, #255	; 0xff
50000638:	e20000ff 	and	r0, r0, #255	; 0xff
5000063c:	e2833070 	add	r3, r3, #112	; 0x70
50000640:	e582000c 	str	r0, [r2, #12]
50000644:	e582100c 	str	r1, [r2, #12]
50000648:	e582c00c 	str	ip, [r2, #12]
5000064c:	e5823008 	str	r3, [r2, #8]
50000650:	e5923028 	ldr	r3, [r2, #40]
50000654:	e3130001 	tst	r3, #1	; 0x1
50000658:	0afffffc 	beq	50000650 <nand_erase_block+0x40>
5000065c:	e5923004 	ldr	r3, [r2, #4]
50000660:	e3833002 	orr	r3, r3, #2	; 0x2
50000664:	e5823004 	str	r3, [r2, #4]
50000668:	e12fff1e 	bx	lr
5000066c:	70200000 	.word	0x70200000

50000670 <nand_read>:
50000670:	e92d4ff0 	push	{r4, r5, r6, r7, r8, r9, sl, fp, lr}
50000674:	e59fc0b0 	ldr	ip, [pc, #176]	; 5000072c <nand_read+0xbc>
50000678:	e59c3004 	ldr	r3, [ip, #4]
5000067c:	e3a05000 	mov	r5, #0	; 0x0
50000680:	e59fb0a8 	ldr	fp, [pc, #168]	; 50000730 <nand_read+0xc0>
50000684:	e3c33002 	bic	r3, r3, #2	; 0x2
50000688:	e24dd004 	sub	sp, sp, #4	; 0x4
5000068c:	e1a08001 	mov	r8, r1
50000690:	e1a07002 	mov	r7, r2
50000694:	e1a04000 	mov	r4, r0
50000698:	e1a0600c 	mov	r6, ip
5000069c:	e1a0a005 	mov	sl, r5
500006a0:	e3a09030 	mov	r9, #48	; 0x30
500006a4:	e58c3004 	str	r3, [ip, #4]
500006a8:	ea000015 	b	50000704 <nand_read+0x94>
500006ac:	e1a00004 	mov	r0, r4
500006b0:	e586a008 	str	sl, [r6, #8]
500006b4:	ebffff76 	bl	50000494 <nand_send_addr>
500006b8:	e5869008 	str	r9, [r6, #8]
500006bc:	e5963028 	ldr	r3, [r6, #40]
500006c0:	e3130001 	tst	r3, #1	; 0x1
500006c4:	0afffffc 	beq	500006bc <nand_read+0x4c>
500006c8:	e0881005 	add	r1, r8, r5
500006cc:	e1a0200a 	mov	r2, sl
500006d0:	ea000002 	b	500006e0 <nand_read+0x70>
500006d4:	e5d63010 	ldrb	r3, [r6, #16]
500006d8:	e4c13001 	strb	r3, [r1], #1
500006dc:	e2855001 	add	r5, r5, #1	; 0x1
500006e0:	e152000b 	cmp	r2, fp
500006e4:	c3a03000 	movgt	r3, #0	; 0x0
500006e8:	d3a03001 	movle	r3, #1	; 0x1
500006ec:	e1550007 	cmp	r5, r7
500006f0:	23a03000 	movcs	r3, #0	; 0x0
500006f4:	e3530000 	cmp	r3, #0	; 0x0
500006f8:	e2822001 	add	r2, r2, #1	; 0x1
500006fc:	1afffff4 	bne	500006d4 <nand_read+0x64>
50000700:	e2844a01 	add	r4, r4, #4096	; 0x1000
50000704:	e1550007 	cmp	r5, r7
50000708:	3affffe7 	bcc	500006ac <nand_read+0x3c>
5000070c:	e59f2018 	ldr	r2, [pc, #24]	; 5000072c <nand_read+0xbc>
50000710:	e5923004 	ldr	r3, [r2, #4]
50000714:	e3a00000 	mov	r0, #0	; 0x0
50000718:	e3833002 	orr	r3, r3, #2	; 0x2
5000071c:	e5823004 	str	r3, [r2, #4]
50000720:	e28dd004 	add	sp, sp, #4	; 0x4
50000724:	e8bd4ff0 	pop	{r4, r5, r6, r7, r8, r9, sl, fp, lr}
50000728:	e12fff1e 	bx	lr
5000072c:	70200000 	.word	0x70200000
50000730:	00000fff 	.word	0x00000fff

50000734 <nand_write>:
50000734:	e92d4ff0 	push	{r4, r5, r6, r7, r8, r9, sl, fp, lr}
50000738:	e59f30bc 	ldr	r3, [pc, #188]	; 500007fc <nand_write+0xc8>
5000073c:	e593c004 	ldr	ip, [r3, #4]
50000740:	e1a04a00 	lsl	r4, r0, #20
50000744:	e3a06000 	mov	r6, #0	; 0x0
50000748:	e3ccc002 	bic	ip, ip, #2	; 0x2
5000074c:	e24dd004 	sub	sp, sp, #4	; 0x4
50000750:	e1a0a001 	mov	sl, r1
50000754:	e1a08002 	mov	r8, r2
50000758:	e1a04a24 	lsr	r4, r4, #20
5000075c:	e1a05000 	mov	r5, r0
50000760:	e1a07003 	mov	r7, r3
50000764:	e3a0b010 	mov	fp, #16	; 0x10
50000768:	e1a09006 	mov	r9, r6
5000076c:	e583c004 	str	ip, [r3, #4]
50000770:	ea000017 	b	500007d4 <nand_write+0xa0>
50000774:	e3a01080 	mov	r1, #128	; 0x80
50000778:	e1a00005 	mov	r0, r5
5000077c:	e5871008 	str	r1, [r7, #8]
50000780:	ebffff43 	bl	50000494 <nand_send_addr>
50000784:	e08a2006 	add	r2, sl, r6
50000788:	ea000003 	b	5000079c <nand_write+0x68>
5000078c:	e4d23001 	ldrb	r3, [r2], #1
50000790:	e5c73010 	strb	r3, [r7, #16]
50000794:	e2866001 	add	r6, r6, #1	; 0x1
50000798:	e2855001 	add	r5, r5, #1	; 0x1
5000079c:	e59f105c 	ldr	r1, [pc, #92]	; 50000800 <nand_write+0xcc>
500007a0:	e1540001 	cmp	r4, r1
500007a4:	c3a03000 	movgt	r3, #0	; 0x0
500007a8:	d3a03001 	movle	r3, #1	; 0x1
500007ac:	e1560008 	cmp	r6, r8
500007b0:	23a03000 	movcs	r3, #0	; 0x0
500007b4:	e3530000 	cmp	r3, #0	; 0x0
500007b8:	e2844001 	add	r4, r4, #1	; 0x1
500007bc:	1afffff2 	bne	5000078c <nand_write+0x58>
500007c0:	e587b008 	str	fp, [r7, #8]
500007c4:	e5973028 	ldr	r3, [r7, #40]
500007c8:	e3130001 	tst	r3, #1	; 0x1
500007cc:	e1a04009 	mov	r4, r9
500007d0:	0afffffb 	beq	500007c4 <nand_write+0x90>
500007d4:	e1560008 	cmp	r6, r8
500007d8:	3affffe5 	bcc	50000774 <nand_write+0x40>
500007dc:	e59f2018 	ldr	r2, [pc, #24]	; 500007fc <nand_write+0xc8>
500007e0:	e5923004 	ldr	r3, [r2, #4]
500007e4:	e3a00000 	mov	r0, #0	; 0x0
500007e8:	e3833002 	orr	r3, r3, #2	; 0x2
500007ec:	e5823004 	str	r3, [r2, #4]
500007f0:	e28dd004 	add	sp, sp, #4	; 0x4
500007f4:	e8bd4ff0 	pop	{r4, r5, r6, r7, r8, r9, sl, fp, lr}
500007f8:	e12fff1e 	bx	lr
500007fc:	70200000 	.word	0x70200000
50000800:	00000fff 	.word	0x00000fff
50000804:	43434700 	.word	0x43434700
50000808:	4728203a 	.word	0x4728203a
5000080c:	2029554e 	.word	0x2029554e
50000810:	2e322e34 	.word	0x2e322e34
50000814:	17410032 	.word	0x17410032
50000818:	61000000 	.word	0x61000000
5000081c:	69626165 	.word	0x69626165
50000820:	000d0100 	.word	0x000d0100
50000824:	34050000 	.word	0x34050000
50000828:	02060054 	.word	0x02060054
5000082c:	00000108 	.word	0x00000108

50000830 <raise>:
50000830:	e3a00000 	mov	r0, #0	; 0x0
50000834:	e12fff1e 	bx	lr

50000838 <print_cpsr>:
50000838:	e52de004 	push	{lr}		; (str lr, [sp, #-4]!)
5000083c:	e1a02000 	mov	r2, r0
50000840:	e24dd004 	sub	sp, sp, #4	; 0x4
50000844:	e59f0010 	ldr	r0, [pc, #16]	; 5000085c <print_cpsr+0x24>
50000848:	eb000593 	bl	50001e9c <printf>
5000084c:	e3a00000 	mov	r0, #0	; 0x0
50000850:	e28dd004 	add	sp, sp, #4	; 0x4
50000854:	e49de004 	pop	{lr}		; (ldr lr, [sp], #4)
50000858:	e12fff1e 	bx	lr
5000085c:	500040bc 	.word	0x500040bc

50000860 <hello>:
50000860:	e52de004 	push	{lr}		; (str lr, [sp, #-4]!)
50000864:	e59f3018 	ldr	r3, [pc, #24]	; 50000884 <hello+0x24>
50000868:	e24dd004 	sub	sp, sp, #4	; 0x4
5000086c:	e5931000 	ldr	r1, [r3]
50000870:	e59f0010 	ldr	r0, [pc, #16]	; 50000888 <hello+0x28>
50000874:	eb000588 	bl	50001e9c <printf>
50000878:	e28dd004 	add	sp, sp, #4	; 0x4
5000087c:	e49de004 	pop	{lr}		; (ldr lr, [sp], #4)
50000880:	e12fff1e 	bx	lr
50000884:	50004510 	.word	0x50004510
50000888:	500040d8 	.word	0x500040d8

5000088c <run_program>:
5000088c:	e92d40f0 	push	{r4, r5, r6, r7, lr}
50000890:	e59f0074 	ldr	r0, [pc, #116]	; 5000090c <run_program+0x80>
50000894:	e24dd004 	sub	sp, sp, #4	; 0x4
50000898:	e3a01000 	mov	r1, #0	; 0x0
5000089c:	eb00057e 	bl	50001e9c <printf>
500008a0:	e3a04000 	mov	r4, #0	; 0x0
500008a4:	e1a06004 	mov	r6, r4
500008a8:	e1a05004 	mov	r5, r4
500008ac:	e3a07001 	mov	r7, #1	; 0x1
500008b0:	e2840452 	add	r0, r4, #1375731712	; 0x52000000
500008b4:	eb0001ea 	bl	50001064 <getc_nowait>
500008b8:	e3500000 	cmp	r0, #0	; 0x0
500008bc:	02844001 	addeq	r4, r4, #1	; 0x1
500008c0:	01a05000 	moveq	r5, r0
500008c4:	01a06007 	moveq	r6, r7
500008c8:	0afffff8 	beq	500008b0 <run_program+0x24>
500008cc:	e3560000 	cmp	r6, #0	; 0x0
500008d0:	0afffff6 	beq	500008b0 <run_program+0x24>
500008d4:	e2855001 	add	r5, r5, #1	; 0x1
500008d8:	e3550ffa 	cmp	r5, #1000	; 0x3e8
500008dc:	1afffff3 	bne	500008b0 <run_program+0x24>
500008e0:	e1a01004 	mov	r1, r4
500008e4:	e59f0024 	ldr	r0, [pc, #36]	; 50000910 <run_program+0x84>
500008e8:	eb00056b 	bl	50001e9c <printf>
500008ec:	e59f0020 	ldr	r0, [pc, #32]	; 50000914 <run_program+0x88>
500008f0:	eb000569 	bl	50001e9c <printf>
500008f4:	e3a03452 	mov	r3, #1375731712	; 0x52000000
500008f8:	e1a0e00f 	mov	lr, pc
500008fc:	e12fff13 	bx	r3
50000900:	e28dd004 	add	sp, sp, #4	; 0x4
50000904:	e8bd40f0 	pop	{r4, r5, r6, r7, lr}
50000908:	e12fff1e 	bx	lr
5000090c:	500040dc 	.word	0x500040dc
50000910:	500040fc 	.word	0x500040fc
50000914:	50004118 	.word	0x50004118

50000918 <update_program>:
50000918:	e92d40f0 	push	{r4, r5, r6, r7, lr}
5000091c:	e59f00ec 	ldr	r0, [pc, #236]	; 50000a10 <update_program+0xf8>
50000920:	e24dd004 	sub	sp, sp, #4	; 0x4
50000924:	e3a01000 	mov	r1, #0	; 0x0
50000928:	eb00055b 	bl	50001e9c <printf>
5000092c:	e3a06000 	mov	r6, #0	; 0x0
50000930:	e1a05006 	mov	r5, r6
50000934:	e1a04006 	mov	r4, r6
50000938:	e3a07001 	mov	r7, #1	; 0x1
5000093c:	e2860452 	add	r0, r6, #1375731712	; 0x52000000
50000940:	eb0001c7 	bl	50001064 <getc_nowait>
50000944:	e3500000 	cmp	r0, #0	; 0x0
50000948:	02866001 	addeq	r6, r6, #1	; 0x1
5000094c:	01a04000 	moveq	r4, r0
50000950:	01a05007 	moveq	r5, r7
50000954:	0afffff8 	beq	5000093c <update_program+0x24>
50000958:	e3550000 	cmp	r5, #0	; 0x0
5000095c:	0afffff6 	beq	5000093c <update_program+0x24>
50000960:	e2844001 	add	r4, r4, #1	; 0x1
50000964:	e3540ffa 	cmp	r4, #1000	; 0x3e8
50000968:	1afffff3 	bne	5000093c <update_program+0x24>
5000096c:	e1a01006 	mov	r1, r6
50000970:	e59f009c 	ldr	r0, [pc, #156]	; 50000a14 <update_program+0xfc>
50000974:	eb000548 	bl	50001e9c <printf>
50000978:	e59f0098 	ldr	r0, [pc, #152]	; 50000a18 <update_program+0x100>
5000097c:	eb000546 	bl	50001e9c <printf>
50000980:	e59f5094 	ldr	r5, [pc, #148]	; 50000a1c <update_program+0x104>
50000984:	e3a04452 	mov	r4, #1375731712	; 0x52000000
50000988:	e4d41001 	ldrb	r1, [r4], #1
5000098c:	e59f008c 	ldr	r0, [pc, #140]	; 50000a20 <update_program+0x108>
50000990:	eb000541 	bl	50001e9c <printf>
50000994:	e1540005 	cmp	r4, r5
50000998:	1afffffa 	bne	50000988 <update_program+0x70>
5000099c:	e59f0080 	ldr	r0, [pc, #128]	; 50000a24 <update_program+0x10c>
500009a0:	eb00053d 	bl	50001e9c <printf>
500009a4:	e59f007c 	ldr	r0, [pc, #124]	; 50000a28 <update_program+0x110>
500009a8:	eb00053b 	bl	50001e9c <printf>
500009ac:	eb000197 	bl	50001010 <getc>
500009b0:	e3500059 	cmp	r0, #89	; 0x59
500009b4:	13500079 	cmpne	r0, #121	; 0x79
500009b8:	159f006c 	ldrne	r0, [pc, #108]	; 50000a2c <update_program+0x114>
500009bc:	1a00000f 	bne	50000a00 <update_program+0xe8>
500009c0:	e59f3068 	ldr	r3, [pc, #104]	; 50000a30 <update_program+0x118>
500009c4:	e0863003 	add	r3, r6, r3
500009c8:	e1a048a3 	lsr	r4, r3, #17
500009cc:	e1a04884 	lsl	r4, r4, #17
500009d0:	e3a05000 	mov	r5, #0	; 0x0
500009d4:	ea000000 	b	500009dc <update_program+0xc4>
500009d8:	ebffff0c 	bl	50000610 <nand_erase_block>
500009dc:	e1550004 	cmp	r5, r4
500009e0:	e1a00005 	mov	r0, r5
500009e4:	e2855802 	add	r5, r5, #131072	; 0x20000
500009e8:	3afffffa 	bcc	500009d8 <update_program+0xc0>
500009ec:	e1a02006 	mov	r2, r6
500009f0:	e3a01452 	mov	r1, #1375731712	; 0x52000000
500009f4:	e3a00000 	mov	r0, #0	; 0x0
500009f8:	ebffff4d 	bl	50000734 <nand_write>
500009fc:	e59f0030 	ldr	r0, [pc, #48]	; 50000a34 <update_program+0x11c>
50000a00:	eb000525 	bl	50001e9c <printf>
50000a04:	e28dd004 	add	sp, sp, #4	; 0x4
50000a08:	e8bd40f0 	pop	{r4, r5, r6, r7, lr}
50000a0c:	e12fff1e 	bx	lr
50000a10:	50004138 	.word	0x50004138
50000a14:	500040fc 	.word	0x500040fc
50000a18:	50004160 	.word	0x50004160
50000a1c:	52000010 	.word	0x52000010
50000a20:	5000417c 	.word	0x5000417c
50000a24:	500044f8 	.word	0x500044f8
50000a28:	50004184 	.word	0x50004184
50000a2c:	500041c4 	.word	0x500041c4
50000a30:	0001ffff 	.word	0x0001ffff
50000a34:	500041a8 	.word	0x500041a8

50000a38 <nand_erase_test>:
50000a38:	e92d4010 	push	{r4, lr}
50000a3c:	e24dd068 	sub	sp, sp, #104	; 0x68
50000a40:	e28d4004 	add	r4, sp, #4	; 0x4
50000a44:	e59f0040 	ldr	r0, [pc, #64]	; 50000a8c <nand_erase_test+0x54>
50000a48:	eb000513 	bl	50001e9c <printf>
50000a4c:	e1a01004 	mov	r1, r4
50000a50:	e59f0038 	ldr	r0, [pc, #56]	; 50000a90 <nand_erase_test+0x58>
50000a54:	eb0004fa 	bl	50001e44 <scanf>
50000a58:	e3a01000 	mov	r1, #0	; 0x0
50000a5c:	e1a02001 	mov	r2, r1
50000a60:	e1a00004 	mov	r0, r4
50000a64:	eb000522 	bl	50001ef4 <strtoul>
50000a68:	e1a04000 	mov	r4, r0
50000a6c:	e1a01000 	mov	r1, r0
50000a70:	e59f001c 	ldr	r0, [pc, #28]	; 50000a94 <nand_erase_test+0x5c>
50000a74:	eb000508 	bl	50001e9c <printf>
50000a78:	e1a00004 	mov	r0, r4
50000a7c:	ebfffee3 	bl	50000610 <nand_erase_block>
50000a80:	e28dd068 	add	sp, sp, #104	; 0x68
50000a84:	e8bd4010 	pop	{r4, lr}
50000a88:	e12fff1e 	bx	lr
50000a8c:	500041d8 	.word	0x500041d8
50000a90:	500040d8 	.word	0x500040d8
50000a94:	500041f4 	.word	0x500041f4

50000a98 <nand_write_test>:
50000a98:	e92d4070 	push	{r4, r5, r6, lr}
50000a9c:	e59f5064 	ldr	r5, [pc, #100]	; 50000b08 <nand_write_test+0x70>
50000aa0:	e24dd068 	sub	sp, sp, #104	; 0x68
50000aa4:	e28d4004 	add	r4, sp, #4	; 0x4
50000aa8:	e59f005c 	ldr	r0, [pc, #92]	; 50000b0c <nand_write_test+0x74>
50000aac:	eb0004fa 	bl	50001e9c <printf>
50000ab0:	e1a01004 	mov	r1, r4
50000ab4:	e1a00005 	mov	r0, r5
50000ab8:	eb0004e1 	bl	50001e44 <scanf>
50000abc:	e3a01000 	mov	r1, #0	; 0x0
50000ac0:	e1a02001 	mov	r2, r1
50000ac4:	e1a00004 	mov	r0, r4
50000ac8:	eb000509 	bl	50001ef4 <strtoul>
50000acc:	e1a06000 	mov	r6, r0
50000ad0:	e59f0038 	ldr	r0, [pc, #56]	; 50000b10 <nand_write_test+0x78>
50000ad4:	eb0004f0 	bl	50001e9c <printf>
50000ad8:	e1a01004 	mov	r1, r4
50000adc:	e1a00005 	mov	r0, r5
50000ae0:	eb0004d7 	bl	50001e44 <scanf>
50000ae4:	e1a00004 	mov	r0, r4
50000ae8:	eb000598 	bl	50002150 <strlen>
50000aec:	e1a01004 	mov	r1, r4
50000af0:	e2802001 	add	r2, r0, #1	; 0x1
50000af4:	e1a00006 	mov	r0, r6
50000af8:	ebffff0d 	bl	50000734 <nand_write>
50000afc:	e28dd068 	add	sp, sp, #104	; 0x68
50000b00:	e8bd4070 	pop	{r4, r5, r6, lr}
50000b04:	e12fff1e 	bx	lr
50000b08:	500040d8 	.word	0x500040d8
50000b0c:	500041d8 	.word	0x500041d8
50000b10:	50004208 	.word	0x50004208

50000b14 <nand_read_test>:
50000b14:	e92d4070 	push	{r4, r5, r6, lr}
50000b18:	e24dd068 	sub	sp, sp, #104	; 0x68
50000b1c:	e28d4004 	add	r4, sp, #4	; 0x4
50000b20:	e59f00c8 	ldr	r0, [pc, #200]	; 50000bf0 <nand_read_test+0xdc>
50000b24:	eb0004dc 	bl	50001e9c <printf>
50000b28:	e1a01004 	mov	r1, r4
50000b2c:	e59f00c0 	ldr	r0, [pc, #192]	; 50000bf4 <nand_read_test+0xe0>
50000b30:	eb0004c3 	bl	50001e44 <scanf>
50000b34:	e3a01000 	mov	r1, #0	; 0x0
50000b38:	e1a02001 	mov	r2, r1
50000b3c:	e1a00004 	mov	r0, r4
50000b40:	eb0004eb 	bl	50001ef4 <strtoul>
50000b44:	e1a01000 	mov	r1, r0
50000b48:	e1a06000 	mov	r6, r0
50000b4c:	e59f00a4 	ldr	r0, [pc, #164]	; 50000bf8 <nand_read_test+0xe4>
50000b50:	eb0004d1 	bl	50001e9c <printf>
50000b54:	e59f00a0 	ldr	r0, [pc, #160]	; 50000bfc <nand_read_test+0xe8>
50000b58:	eb0004cf 	bl	50001e9c <printf>
50000b5c:	e1a01004 	mov	r1, r4
50000b60:	e59f008c 	ldr	r0, [pc, #140]	; 50000bf4 <nand_read_test+0xe0>
50000b64:	eb0004b6 	bl	50001e44 <scanf>
50000b68:	e3a01000 	mov	r1, #0	; 0x0
50000b6c:	e1a00004 	mov	r0, r4
50000b70:	e1a02001 	mov	r2, r1
50000b74:	eb0004de 	bl	50001ef4 <strtoul>
50000b78:	e3500064 	cmp	r0, #100	; 0x64
50000b7c:	91a05000 	movls	r5, r0
50000b80:	9a000002 	bls	50000b90 <nand_read_test+0x7c>
50000b84:	e59f0074 	ldr	r0, [pc, #116]	; 50000c00 <nand_read_test+0xec>
50000b88:	eb0004c3 	bl	50001e9c <printf>
50000b8c:	e3a05064 	mov	r5, #100	; 0x64
50000b90:	e28d4004 	add	r4, sp, #4	; 0x4
50000b94:	e1a01004 	mov	r1, r4
50000b98:	e1a00006 	mov	r0, r6
50000b9c:	e1a02005 	mov	r2, r5
50000ba0:	ebfffeb2 	bl	50000670 <nand_read>
50000ba4:	e59f0058 	ldr	r0, [pc, #88]	; 50000c04 <nand_read_test+0xf0>
50000ba8:	eb0004bb 	bl	50001e9c <printf>
50000bac:	e1a06004 	mov	r6, r4
50000bb0:	e3a04000 	mov	r4, #0	; 0x0
50000bb4:	ea000005 	b	50000bd0 <nand_read_test+0xbc>
50000bb8:	e7d41006 	ldrb	r1, [r4, r6]
50000bbc:	e2844001 	add	r4, r4, #1	; 0x1
50000bc0:	eb0004b5 	bl	50001e9c <printf>
50000bc4:	e314000f 	tst	r4, #15	; 0xf
50000bc8:	059f0038 	ldreq	r0, [pc, #56]	; 50000c08 <nand_read_test+0xf4>
50000bcc:	0b0004b2 	bleq	50001e9c <printf>
50000bd0:	e1540005 	cmp	r4, r5
50000bd4:	e59f0030 	ldr	r0, [pc, #48]	; 50000c0c <nand_read_test+0xf8>
50000bd8:	1afffff6 	bne	50000bb8 <nand_read_test+0xa4>
50000bdc:	e59f0024 	ldr	r0, [pc, #36]	; 50000c08 <nand_read_test+0xf4>
50000be0:	eb0004ad 	bl	50001e9c <printf>
50000be4:	e28dd068 	add	sp, sp, #104	; 0x68
50000be8:	e8bd4070 	pop	{r4, r5, r6, lr}
50000bec:	e12fff1e 	bx	lr
50000bf0:	500041d8 	.word	0x500041d8
50000bf4:	500040d8 	.word	0x500040d8
50000bf8:	5000421c 	.word	0x5000421c
50000bfc:	50004230 	.word	0x50004230
50000c00:	50004244 	.word	0x50004244
50000c04:	5000425c 	.word	0x5000425c
50000c08:	500044f8 	.word	0x500044f8
50000c0c:	5000417c 	.word	0x5000417c

50000c10 <main>:
50000c10:	e92d4010 	push	{r4, lr}
50000c14:	eb0000e3 	bl	50000fa8 <init_uart>
50000c18:	e59f00f4 	ldr	r0, [pc, #244]	; 50000d14 <main+0x104>
50000c1c:	eb00049e 	bl	50001e9c <printf>
50000c20:	e59f00f0 	ldr	r0, [pc, #240]	; 50000d18 <main+0x108>
50000c24:	eb00049c 	bl	50001e9c <printf>
50000c28:	e59f00ec 	ldr	r0, [pc, #236]	; 50000d1c <main+0x10c>
50000c2c:	eb00049a 	bl	50001e9c <printf>
50000c30:	e59f00e8 	ldr	r0, [pc, #232]	; 50000d20 <main+0x110>
50000c34:	eb000498 	bl	50001e9c <printf>
50000c38:	e59f00e4 	ldr	r0, [pc, #228]	; 50000d24 <main+0x114>
50000c3c:	eb000496 	bl	50001e9c <printf>
50000c40:	e59f00e0 	ldr	r0, [pc, #224]	; 50000d28 <main+0x118>
50000c44:	eb000494 	bl	50001e9c <printf>
50000c48:	e59f00dc 	ldr	r0, [pc, #220]	; 50000d2c <main+0x11c>
50000c4c:	eb000492 	bl	50001e9c <printf>
50000c50:	eb0000ee 	bl	50001010 <getc>
50000c54:	e350000d 	cmp	r0, #13	; 0xd
50000c58:	1350000a 	cmpne	r0, #10	; 0xa
50000c5c:	e1a04000 	mov	r4, r0
50000c60:	059f00c8 	ldreq	r0, [pc, #200]	; 50000d30 <main+0x120>
50000c64:	0afffff8 	beq	50000c4c <main+0x3c>
50000c68:	eb00010b 	bl	5000109c <putc>
50000c6c:	e3540058 	cmp	r4, #88	; 0x58
50000c70:	0a000023 	beq	50000d04 <main+0xf4>
50000c74:	8a00000b 	bhi	50000ca8 <main+0x98>
50000c78:	e3540052 	cmp	r4, #82	; 0x52
50000c7c:	0a00001a 	beq	50000cec <main+0xdc>
50000c80:	8a000003 	bhi	50000c94 <main+0x84>
50000c84:	e3540045 	cmp	r4, #69	; 0x45
50000c88:	0a000019 	beq	50000cf4 <main+0xe4>
50000c8c:	e3540047 	cmp	r4, #71	; 0x47
50000c90:	ea00000a 	b	50000cc0 <main+0xb0>
50000c94:	e3540054 	cmp	r4, #84	; 0x54
50000c98:	0a00001b 	beq	50000d0c <main+0xfc>
50000c9c:	e3540057 	cmp	r4, #87	; 0x57
50000ca0:	1affffde 	bne	50000c20 <main+0x10>
50000ca4:	ea00000e 	b	50000ce4 <main+0xd4>
50000ca8:	e3540072 	cmp	r4, #114	; 0x72
50000cac:	0a00000e 	beq	50000cec <main+0xdc>
50000cb0:	8a000004 	bhi	50000cc8 <main+0xb8>
50000cb4:	e3540065 	cmp	r4, #101	; 0x65
50000cb8:	0a00000d 	beq	50000cf4 <main+0xe4>
50000cbc:	e3540067 	cmp	r4, #103	; 0x67
50000cc0:	1affffd6 	bne	50000c20 <main+0x10>
50000cc4:	ea00000c 	b	50000cfc <main+0xec>
50000cc8:	e3540077 	cmp	r4, #119	; 0x77
50000ccc:	0a000004 	beq	50000ce4 <main+0xd4>
50000cd0:	e3540078 	cmp	r4, #120	; 0x78
50000cd4:	0a00000a 	beq	50000d04 <main+0xf4>
50000cd8:	e3540074 	cmp	r4, #116	; 0x74
50000cdc:	1affffcf 	bne	50000c20 <main+0x10>
50000ce0:	ea000009 	b	50000d0c <main+0xfc>
50000ce4:	ebffff6b 	bl	50000a98 <nand_write_test>
50000ce8:	eaffffcc 	b	50000c20 <main+0x10>
50000cec:	ebffff88 	bl	50000b14 <nand_read_test>
50000cf0:	eaffffca 	b	50000c20 <main+0x10>
50000cf4:	ebffff4f 	bl	50000a38 <nand_erase_test>
50000cf8:	eaffffc8 	b	50000c20 <main+0x10>
50000cfc:	ebffff05 	bl	50000918 <update_program>
50000d00:	eaffffc6 	b	50000c20 <main+0x10>
50000d04:	ebfffee0 	bl	5000088c <run_program>
50000d08:	eaffffc4 	b	50000c20 <main+0x10>
50000d0c:	eb00021b 	bl	50001580 <lcd_test>
50000d10:	eaffffc2 	b	50000c20 <main+0x10>
50000d14:	50004268 	.word	0x50004268
50000d18:	50004290 	.word	0x50004290
50000d1c:	500042ac 	.word	0x500042ac
50000d20:	500042c8 	.word	0x500042c8
50000d24:	500042e4 	.word	0x500042e4
50000d28:	50004314 	.word	0x50004314
50000d2c:	50004340 	.word	0x50004340
50000d30:	500044f8 	.word	0x500044f8

50000d34 <uart_irq_init>:
50000d34:	e59f3014 	ldr	r3, [pc, #20]	; 50000d50 <uart_irq_init+0x1c>
50000d38:	e5932010 	ldr	r2, [r3, #16]
50000d3c:	e3822020 	orr	r2, r2, #32	; 0x20
50000d40:	e5832010 	str	r2, [r3, #16]
50000d44:	e59f2008 	ldr	r2, [pc, #8]	; 50000d54 <uart_irq_init+0x20>
50000d48:	e5832114 	str	r2, [r3, #276]
50000d4c:	e12fff1e 	bx	lr
50000d50:	71300000 	.word	0x71300000
50000d54:	50000e40 	.word	0x50000e40

50000d58 <key_irq_init>:
50000d58:	e59f206c 	ldr	r2, [pc, #108]	; 50000dcc <key_irq_init+0x74>
50000d5c:	e5923830 	ldr	r3, [r2, #2096]
50000d60:	e3c33eff 	bic	r3, r3, #4080	; 0xff0
50000d64:	e3c3300f 	bic	r3, r3, #15	; 0xf
50000d68:	e5823830 	str	r3, [r2, #2096]
50000d6c:	e5923830 	ldr	r3, [r2, #2096]
50000d70:	e3833eaa 	orr	r3, r3, #2720	; 0xaa0
50000d74:	e383300a 	orr	r3, r3, #10	; 0xa
50000d78:	e5823830 	str	r3, [r2, #2096]
50000d7c:	e5923900 	ldr	r3, [r2, #2304]
50000d80:	e3c33eff 	bic	r3, r3, #4080	; 0xff0
50000d84:	e3c3300f 	bic	r3, r3, #15	; 0xf
50000d88:	e5823900 	str	r3, [r2, #2304]
50000d8c:	e5923900 	ldr	r3, [r2, #2304]
50000d90:	e3833e77 	orr	r3, r3, #1904	; 0x770
50000d94:	e3833007 	orr	r3, r3, #7	; 0x7
50000d98:	e5823900 	str	r3, [r2, #2304]
50000d9c:	e5923920 	ldr	r3, [r2, #2336]
50000da0:	e3c3303f 	bic	r3, r3, #63	; 0x3f
50000da4:	e5823920 	str	r3, [r2, #2336]
50000da8:	e59f2020 	ldr	r2, [pc, #32]	; 50000dd0 <key_irq_init+0x78>
50000dac:	e5923010 	ldr	r3, [r2, #16]
50000db0:	e3833003 	orr	r3, r3, #3	; 0x3
50000db4:	e5823010 	str	r3, [r2, #16]
50000db8:	e59f3014 	ldr	r3, [pc, #20]	; 50000dd4 <key_irq_init+0x7c>
50000dbc:	e5823100 	str	r3, [r2, #256]
50000dc0:	e59f3010 	ldr	r3, [pc, #16]	; 50000dd8 <key_irq_init+0x80>
50000dc4:	e5823104 	str	r3, [r2, #260]
50000dc8:	e12fff1e 	bx	lr
50000dcc:	7f008000 	.word	0x7f008000
50000dd0:	71200000 	.word	0x71200000
50000dd4:	50000ed4 	.word	0x50000ed4
50000dd8:	50000e68 	.word	0x50000e68

50000ddc <do_irq>:
50000ddc:	e92d4010 	push	{r4, lr}
50000de0:	e59f404c 	ldr	r4, [pc, #76]	; 50000e34 <do_irq+0x58>
50000de4:	e5943000 	ldr	r3, [r4]
50000de8:	e3530000 	cmp	r3, #0	; 0x0
50000dec:	0a000008 	beq	50000e14 <do_irq+0x38>
50000df0:	e5943f00 	ldr	r3, [r4, #3840]
50000df4:	e1a0e00f 	mov	lr, pc
50000df8:	e12fff13 	bx	r3
50000dfc:	e59f3034 	ldr	r3, [pc, #52]	; 50000e38 <do_irq+0x5c>
50000e00:	e3a0203f 	mov	r2, #63	; 0x3f
50000e04:	e5832924 	str	r2, [r3, #2340]
50000e08:	e3a03000 	mov	r3, #0	; 0x0
50000e0c:	e5843f00 	str	r3, [r4, #3840]
50000e10:	ea000005 	b	50000e2c <do_irq+0x50>
50000e14:	e59f2020 	ldr	r2, [pc, #32]	; 50000e3c <do_irq+0x60>
50000e18:	e5923000 	ldr	r3, [r2]
50000e1c:	e3530000 	cmp	r3, #0	; 0x0
50000e20:	15923f00 	ldrne	r3, [r2, #3840]
50000e24:	11a0e00f 	movne	lr, pc
50000e28:	112fff13 	bxne	r3
50000e2c:	e8bd4010 	pop	{r4, lr}
50000e30:	e12fff1e 	bx	lr
50000e34:	71200000 	.word	0x71200000
50000e38:	7f008000 	.word	0x7f008000
50000e3c:	71300000 	.word	0x71300000

50000e40 <uart_irq>:
50000e40:	e52de004 	push	{lr}		; (str lr, [sp, #-4]!)
50000e44:	e24dd004 	sub	sp, sp, #4	; 0x4
50000e48:	eb0000ae 	bl	50001108 <do_uart_irq>
50000e4c:	e59f3010 	ldr	r3, [pc, #16]	; 50000e64 <uart_irq+0x24>
50000e50:	e3a02000 	mov	r2, #0	; 0x0
50000e54:	e5832f00 	str	r2, [r3, #3840]
50000e58:	e28dd004 	add	sp, sp, #4	; 0x4
50000e5c:	e49de004 	pop	{lr}		; (ldr lr, [sp], #4)
50000e60:	e12fff1e 	bx	lr
50000e64:	71300000 	.word	0x71300000

50000e68 <eint4_11_irq>:
50000e68:	e92d4070 	push	{r4, r5, r6, lr}
50000e6c:	e59f0050 	ldr	r0, [pc, #80]	; 50000ec4 <eint4_11_irq+0x5c>
50000e70:	eb000409 	bl	50001e9c <printf>
50000e74:	e59f504c 	ldr	r5, [pc, #76]	; 50000ec8 <eint4_11_irq+0x60>
50000e78:	e3a04005 	mov	r4, #5	; 0x5
50000e7c:	e3a06001 	mov	r6, #1	; 0x1
50000e80:	e2443001 	sub	r3, r4, #1	; 0x1
50000e84:	e1a02316 	lsl	r2, r6, r3
50000e88:	e5953924 	ldr	r3, [r5, #2340]
50000e8c:	e1120003 	tst	r2, r3
50000e90:	0a000006 	beq	50000eb0 <eint4_11_irq+0x48>
50000e94:	e5953834 	ldr	r3, [r5, #2100]
50000e98:	e1120003 	tst	r2, r3
50000e9c:	e1a01004 	mov	r1, r4
50000ea0:	e59f0024 	ldr	r0, [pc, #36]	; 50000ecc <eint4_11_irq+0x64>
50000ea4:	01a01004 	moveq	r1, r4
50000ea8:	059f0020 	ldreq	r0, [pc, #32]	; 50000ed0 <eint4_11_irq+0x68>
50000eac:	eb0003fa 	bl	50001e9c <printf>
50000eb0:	e2844001 	add	r4, r4, #1	; 0x1
50000eb4:	e3540007 	cmp	r4, #7	; 0x7
50000eb8:	1afffff0 	bne	50000e80 <eint4_11_irq+0x18>
50000ebc:	e8bd4070 	pop	{r4, r5, r6, lr}
50000ec0:	e12fff1e 	bx	lr
50000ec4:	50004360 	.word	0x50004360
50000ec8:	7f008000 	.word	0x7f008000
50000ecc:	50004370 	.word	0x50004370
50000ed0:	50004380 	.word	0x50004380

50000ed4 <eint0_3_irq>:
50000ed4:	e92d4070 	push	{r4, r5, r6, lr}
50000ed8:	e59f0050 	ldr	r0, [pc, #80]	; 50000f30 <eint0_3_irq+0x5c>
50000edc:	eb0003ee 	bl	50001e9c <printf>
50000ee0:	e3a04001 	mov	r4, #1	; 0x1
50000ee4:	e59f5048 	ldr	r5, [pc, #72]	; 50000f34 <eint0_3_irq+0x60>
50000ee8:	e1a06004 	mov	r6, r4
50000eec:	e2443001 	sub	r3, r4, #1	; 0x1
50000ef0:	e1a02316 	lsl	r2, r6, r3
50000ef4:	e5953924 	ldr	r3, [r5, #2340]
50000ef8:	e1120003 	tst	r2, r3
50000efc:	0a000006 	beq	50000f1c <eint0_3_irq+0x48>
50000f00:	e5953834 	ldr	r3, [r5, #2100]
50000f04:	e1120003 	tst	r2, r3
50000f08:	e1a01004 	mov	r1, r4
50000f0c:	e59f0024 	ldr	r0, [pc, #36]	; 50000f38 <eint0_3_irq+0x64>
50000f10:	01a01004 	moveq	r1, r4
50000f14:	059f0020 	ldreq	r0, [pc, #32]	; 50000f3c <eint0_3_irq+0x68>
50000f18:	eb0003df 	bl	50001e9c <printf>
50000f1c:	e2844001 	add	r4, r4, #1	; 0x1
50000f20:	e3540005 	cmp	r4, #5	; 0x5
50000f24:	1afffff0 	bne	50000eec <eint0_3_irq+0x18>
50000f28:	e8bd4070 	pop	{r4, r5, r6, lr}
50000f2c:	e12fff1e 	bx	lr
50000f30:	50004390 	.word	0x50004390
50000f34:	7f008000 	.word	0x7f008000
50000f38:	50004370 	.word	0x50004370
50000f3c:	50004380 	.word	0x50004380

50000f40 <irq_init>:
50000f40:	e52de004 	push	{lr}		; (str lr, [sp, #-4]!)
50000f44:	e24dd004 	sub	sp, sp, #4	; 0x4
50000f48:	ebffff82 	bl	50000d58 <key_irq_init>
50000f4c:	e59f301c 	ldr	r3, [pc, #28]	; 50000f70 <irq_init+0x30>
50000f50:	e5932010 	ldr	r2, [r3, #16]
50000f54:	e3822020 	orr	r2, r2, #32	; 0x20
50000f58:	e5832010 	str	r2, [r3, #16]
50000f5c:	e59f2010 	ldr	r2, [pc, #16]	; 50000f74 <irq_init+0x34>
50000f60:	e5832114 	str	r2, [r3, #276]
50000f64:	e28dd004 	add	sp, sp, #4	; 0x4
50000f68:	e49de004 	pop	{lr}		; (ldr lr, [sp], #4)
50000f6c:	e12fff1e 	bx	lr
50000f70:	71300000 	.word	0x71300000
50000f74:	50000e40 	.word	0x50000e40

50000f78 <uart_tx_int_enable>:
50000f78:	e59f200c 	ldr	r2, [pc, #12]	; 50000f8c <uart_tx_int_enable+0x14>
50000f7c:	e5923038 	ldr	r3, [r2, #56]
50000f80:	e3c33004 	bic	r3, r3, #4	; 0x4
50000f84:	e5823038 	str	r3, [r2, #56]
50000f88:	e12fff1e 	bx	lr
50000f8c:	7f005000 	.word	0x7f005000

50000f90 <uart_tx_int_disable>:
50000f90:	e59f200c 	ldr	r2, [pc, #12]	; 50000fa4 <uart_tx_int_disable+0x14>
50000f94:	e5923038 	ldr	r3, [r2, #56]
50000f98:	e3833004 	orr	r3, r3, #4	; 0x4
50000f9c:	e5823038 	str	r3, [r2, #56]
50000fa0:	e12fff1e 	bx	lr
50000fa4:	7f005000 	.word	0x7f005000

50000fa8 <init_uart>:
50000fa8:	e59f1054 	ldr	r1, [pc, #84]	; 50001004 <init_uart+0x5c>
50000fac:	e5913000 	ldr	r3, [r1]
50000fb0:	e3c330ff 	bic	r3, r3, #255	; 0xff
50000fb4:	e5813000 	str	r3, [r1]
50000fb8:	e5913000 	ldr	r3, [r1]
50000fbc:	e59f2044 	ldr	r2, [pc, #68]	; 50001008 <init_uart+0x60>
50000fc0:	e3833022 	orr	r3, r3, #34	; 0x22
50000fc4:	e5813000 	str	r3, [r1]
50000fc8:	e3a03003 	mov	r3, #3	; 0x3
50000fcc:	e5823000 	str	r3, [r2]
50000fd0:	e59f3034 	ldr	r3, [pc, #52]	; 5000100c <init_uart+0x64>
50000fd4:	e5823004 	str	r3, [r2, #4]
50000fd8:	e3a03047 	mov	r3, #71	; 0x47
50000fdc:	e5823008 	str	r3, [r2, #8]
50000fe0:	e3a03000 	mov	r3, #0	; 0x0
50000fe4:	e582300c 	str	r3, [r2, #12]
50000fe8:	e3a03023 	mov	r3, #35	; 0x23
50000fec:	e1c232b8 	strh	r3, [r2, #40]
50000ff0:	e3a03001 	mov	r3, #1	; 0x1
50000ff4:	e1c232bc 	strh	r3, [r2, #44]
50000ff8:	e3a0300f 	mov	r3, #15	; 0xf
50000ffc:	e5823038 	str	r3, [r2, #56]
50001000:	e12fff1e 	bx	lr
50001004:	7f008000 	.word	0x7f008000
50001008:	7f005000 	.word	0x7f005000
5000100c:	00000205 	.word	0x00000205

50001010 <getc>:
50001010:	e59f1048 	ldr	r1, [pc, #72]	; 50001060 <getc+0x50>
50001014:	e24dd008 	sub	sp, sp, #8	; 0x8
50001018:	e3a0000a 	mov	r0, #10	; 0xa
5000101c:	ea000006 	b	5000103c <getc+0x2c>
50001020:	e58d0004 	str	r0, [sp, #4]
50001024:	e59d3004 	ldr	r3, [sp, #4]
50001028:	e2433001 	sub	r3, r3, #1	; 0x1
5000102c:	e58d3004 	str	r3, [sp, #4]
50001030:	e59d3004 	ldr	r3, [sp, #4]
50001034:	e3730001 	cmn	r3, #1	; 0x1
50001038:	1afffff9 	bne	50001024 <getc+0x14>
5000103c:	e5913018 	ldr	r3, [r1, #24]
50001040:	e3130040 	tst	r3, #64	; 0x40
50001044:	1a000002 	bne	50001054 <getc+0x44>
50001048:	e5913018 	ldr	r3, [r1, #24]
5000104c:	e313003f 	tst	r3, #63	; 0x3f
50001050:	0afffff2 	beq	50001020 <getc+0x10>
50001054:	e5d10024 	ldrb	r0, [r1, #36]
50001058:	e28dd008 	add	sp, sp, #8	; 0x8
5000105c:	e12fff1e 	bx	lr
50001060:	7f005000 	.word	0x7f005000

50001064 <getc_nowait>:
50001064:	e59f202c 	ldr	r2, [pc, #44]	; 50001098 <getc_nowait+0x34>
50001068:	e5923018 	ldr	r3, [r2, #24]
5000106c:	e3130040 	tst	r3, #64	; 0x40
50001070:	1a000003 	bne	50001084 <getc_nowait+0x20>
50001074:	e5923018 	ldr	r3, [r2, #24]
50001078:	e313003f 	tst	r3, #63	; 0x3f
5000107c:	03e00000 	mvneq	r0, #0	; 0x0
50001080:	012fff1e 	bxeq	lr
50001084:	e59f300c 	ldr	r3, [pc, #12]	; 50001098 <getc_nowait+0x34>
50001088:	e5d33024 	ldrb	r3, [r3, #36]
5000108c:	e5c03000 	strb	r3, [r0]
50001090:	e3a00000 	mov	r0, #0	; 0x0
50001094:	e12fff1e 	bx	lr
50001098:	7f005000 	.word	0x7f005000

5000109c <putc>:
5000109c:	e59fc054 	ldr	ip, [pc, #84]	; 500010f8 <putc+0x5c>
500010a0:	e59c1000 	ldr	r1, [ip]
500010a4:	e2813001 	add	r3, r1, #1	; 0x1
500010a8:	e1a02a83 	lsl	r2, r3, #21
500010ac:	e52de004 	push	{lr}		; (str lr, [sp, #-4]!)
500010b0:	e59f3044 	ldr	r3, [pc, #68]	; 500010fc <putc+0x60>
500010b4:	e5933000 	ldr	r3, [r3]
500010b8:	e1a02aa2 	lsr	r2, r2, #21
500010bc:	e1520003 	cmp	r2, r3
500010c0:	e24dd004 	sub	sp, sp, #4	; 0x4
500010c4:	1a000007 	bne	500010e8 <putc+0x4c>
500010c8:	e59f2030 	ldr	r2, [pc, #48]	; 50001100 <putc+0x64>
500010cc:	e5923038 	ldr	r3, [r2, #56]
500010d0:	e3c33004 	bic	r3, r3, #4	; 0x4
500010d4:	e5823038 	str	r3, [r2, #56]
500010d8:	eb00028d 	bl	50001b14 <lcd_putc>
500010dc:	e28dd004 	add	sp, sp, #4	; 0x4
500010e0:	e49de004 	pop	{lr}		; (ldr lr, [sp], #4)
500010e4:	e12fff1e 	bx	lr
500010e8:	e59f3014 	ldr	r3, [pc, #20]	; 50001104 <putc+0x68>
500010ec:	e58c2000 	str	r2, [ip]
500010f0:	e7c30001 	strb	r0, [r3, r1]
500010f4:	eafffff3 	b	500010c8 <putc+0x2c>
500010f8:	5000461c 	.word	0x5000461c
500010fc:	50004620 	.word	0x50004620
50001100:	7f005000 	.word	0x7f005000
50001104:	50004624 	.word	0x50004624

50001108 <do_uart_irq>:
50001108:	e59f1094 	ldr	r1, [pc, #148]	; 500011a4 <do_uart_irq+0x9c>
5000110c:	e5913030 	ldr	r3, [r1, #48]
50001110:	e3130004 	tst	r3, #4	; 0x4
50001114:	e92d4030 	push	{r4, r5, lr}
50001118:	05913030 	ldreq	r3, [r1, #48]
5000111c:	0a00001b 	beq	50001190 <do_uart_irq+0x88>
50001120:	e59f3080 	ldr	r3, [pc, #128]	; 500011a8 <do_uart_irq+0xa0>
50001124:	e593e000 	ldr	lr, [r3]
50001128:	e59f307c 	ldr	r3, [pc, #124]	; 500011ac <do_uart_irq+0xa4>
5000112c:	e5932000 	ldr	r2, [r3]
50001130:	e15e0002 	cmp	lr, r2
50001134:	05913038 	ldreq	r3, [r1, #56]
50001138:	03833004 	orreq	r3, r3, #4	; 0x4
5000113c:	05813038 	streq	r3, [r1, #56]
50001140:	0a000012 	beq	50001190 <do_uart_irq+0x88>
50001144:	e5913018 	ldr	r3, [r1, #24]
50001148:	e1a03423 	lsr	r3, r3, #8
5000114c:	e203303f 	and	r3, r3, #63	; 0x3f
50001150:	e59f5058 	ldr	r5, [pc, #88]	; 500011b0 <do_uart_irq+0xa8>
50001154:	e1a04001 	mov	r4, r1
50001158:	e263c040 	rsb	ip, r3, #64	; 0x40
5000115c:	e3a01000 	mov	r1, #0	; 0x0
50001160:	e15e0002 	cmp	lr, r2
50001164:	e2820001 	add	r0, r2, #1	; 0x1
50001168:	e2811001 	add	r1, r1, #1	; 0x1
5000116c:	0a000005 	beq	50001188 <do_uart_irq+0x80>
50001170:	e7d53002 	ldrb	r3, [r5, r2]
50001174:	e151000c 	cmp	r1, ip
50001178:	e1a02a80 	lsl	r2, r0, #21
5000117c:	e5c43020 	strb	r3, [r4, #32]
50001180:	e1a02aa2 	lsr	r2, r2, #21
50001184:	bafffff5 	blt	50001160 <do_uart_irq+0x58>
50001188:	e59f301c 	ldr	r3, [pc, #28]	; 500011ac <do_uart_irq+0xa4>
5000118c:	e5832000 	str	r2, [r3]
50001190:	e59f300c 	ldr	r3, [pc, #12]	; 500011a4 <do_uart_irq+0x9c>
50001194:	e3a0200f 	mov	r2, #15	; 0xf
50001198:	e5832030 	str	r2, [r3, #48]
5000119c:	e8bd4030 	pop	{r4, r5, lr}
500011a0:	e12fff1e 	bx	lr
500011a4:	7f005000 	.word	0x7f005000
500011a8:	5000461c 	.word	0x5000461c
500011ac:	50004620 	.word	0x50004620
500011b0:	50004624 	.word	0x50004624

500011b4 <lcd_init>:
500011b4:	e59f2124 	ldr	r2, [pc, #292]	; 500012e0 <lcd_init+0x12c>
500011b8:	e59f3124 	ldr	r3, [pc, #292]	; 500012e4 <lcd_init+0x130>
500011bc:	e5823100 	str	r3, [r2, #256]
500011c0:	e2833206 	add	r3, r3, #1610612736	; 0x60000000
500011c4:	e5823120 	str	r3, [r2, #288]
500011c8:	e59230a0 	ldr	r3, [r2, #160]
500011cc:	e3c33203 	bic	r3, r3, #805306368	; 0x30000000
500011d0:	e58230a0 	str	r3, [r2, #160]
500011d4:	e59230a0 	ldr	r3, [r2, #160]
500011d8:	e3833201 	orr	r3, r3, #268435456	; 0x10000000
500011dc:	e58230a0 	str	r3, [r2, #160]
500011e0:	e5923080 	ldr	r3, [r2, #128]
500011e4:	e3c3300f 	bic	r3, r3, #15	; 0xf
500011e8:	e5823080 	str	r3, [r2, #128]
500011ec:	e5923080 	ldr	r3, [r2, #128]
500011f0:	e3833001 	orr	r3, r3, #1	; 0x1
500011f4:	e5823080 	str	r3, [r2, #128]
500011f8:	e59f10e8 	ldr	r1, [pc, #232]	; 500012e8 <lcd_init+0x134>
500011fc:	e591300c 	ldr	r3, [r1, #12]
50001200:	e3c33008 	bic	r3, r3, #8	; 0x8
50001204:	e581300c 	str	r3, [r1, #12]
50001208:	e59231a0 	ldr	r3, [r2, #416]
5000120c:	e3c33003 	bic	r3, r3, #3	; 0x3
50001210:	e58231a0 	str	r3, [r2, #416]
50001214:	e59231a0 	ldr	r3, [r2, #416]
50001218:	e3833001 	orr	r3, r3, #1	; 0x1
5000121c:	e59f10c8 	ldr	r1, [pc, #200]	; 500012ec <lcd_init+0x138>
50001220:	e58231a0 	str	r3, [r2, #416]
50001224:	e59f30c4 	ldr	r3, [pc, #196]	; 500012f0 <lcd_init+0x13c>
50001228:	e5912000 	ldr	r2, [r1]
5000122c:	e0023003 	and	r3, r2, r3
50001230:	e5813000 	str	r3, [r1]
50001234:	e5913000 	ldr	r3, [r1]
50001238:	e3833e39 	orr	r3, r3, #912	; 0x390
5000123c:	e5813000 	str	r3, [r1]
50001240:	e5913004 	ldr	r3, [r1, #4]
50001244:	e3c33080 	bic	r3, r3, #128	; 0x80
50001248:	e5813004 	str	r3, [r1, #4]
5000124c:	e5913004 	ldr	r3, [r1, #4]
50001250:	e3833060 	orr	r3, r3, #96	; 0x60
50001254:	e5813004 	str	r3, [r1, #4]
50001258:	e59f3094 	ldr	r3, [pc, #148]	; 500012f4 <lcd_init+0x140>
5000125c:	e5813010 	str	r3, [r1, #16]
50001260:	e283301f 	add	r3, r3, #31	; 0x1f
50001264:	e5813014 	str	r3, [r1, #20]
50001268:	e59f3088 	ldr	r3, [pc, #136]	; 500012f8 <lcd_init+0x144>
5000126c:	e5813018 	str	r3, [r1, #24]
50001270:	e5913020 	ldr	r3, [r1, #32]
50001274:	e3c3303c 	bic	r3, r3, #60	; 0x3c
50001278:	e5813020 	str	r3, [r1, #32]
5000127c:	e5913020 	ldr	r3, [r1, #32]
50001280:	e383302c 	orr	r3, r3, #44	; 0x2c
50001284:	e5813020 	str	r3, [r1, #32]
50001288:	e3a03000 	mov	r3, #0	; 0x0
5000128c:	e5813040 	str	r3, [r1, #64]
50001290:	e59f3064 	ldr	r3, [pc, #100]	; 500012fc <lcd_init+0x148>
50001294:	e5813044 	str	r3, [r1, #68]
50001298:	e59f3060 	ldr	r3, [pc, #96]	; 50001300 <lcd_init+0x14c>
5000129c:	e5813048 	str	r3, [r1, #72]
500012a0:	e59f305c 	ldr	r3, [pc, #92]	; 50001304 <lcd_init+0x150>
500012a4:	e3a00315 	mov	r0, #1409286144	; 0x54000000
500012a8:	e5830000 	str	r0, [r3]
500012ac:	e59f3054 	ldr	r3, [pc, #84]	; 50001308 <lcd_init+0x154>
500012b0:	e3a02e1e 	mov	r2, #480	; 0x1e0
500012b4:	e5832000 	str	r2, [r3]
500012b8:	e59f304c 	ldr	r3, [pc, #76]	; 5000130c <lcd_init+0x158>
500012bc:	e3a02e11 	mov	r2, #272	; 0x110
500012c0:	e5832000 	str	r2, [r3]
500012c4:	e59f3044 	ldr	r3, [pc, #68]	; 50001310 <lcd_init+0x15c>
500012c8:	e3a02018 	mov	r2, #24	; 0x18
500012cc:	e5832000 	str	r2, [r3]
500012d0:	e59f303c 	ldr	r3, [pc, #60]	; 50001314 <lcd_init+0x160>
500012d4:	e58100a0 	str	r0, [r1, #160]
500012d8:	e58130d0 	str	r3, [r1, #208]
500012dc:	e12fff1e 	bx	lr
500012e0:	7f008000 	.word	0x7f008000
500012e4:	aaaaaaaa 	.word	0xaaaaaaaa
500012e8:	74108000 	.word	0x74108000
500012ec:	77100000 	.word	0x77100000
500012f0:	f3f9c033 	.word	0xf3f9c033
500012f4:	00010109 	.word	0x00010109
500012f8:	000879df 	.word	0x000879df
500012fc:	000ef90f 	.word	0x000ef90f
50001300:	0001fe00 	.word	0x0001fe00
50001304:	5000563c 	.word	0x5000563c
50001308:	50005638 	.word	0x50005638
5000130c:	50005640 	.word	0x50005640
50001310:	50005644 	.word	0x50005644
50001314:	0007f800 	.word	0x0007f800

50001318 <backlight_enable>:
50001318:	e59f200c 	ldr	r2, [pc, #12]	; 5000132c <backlight_enable+0x14>
5000131c:	e59230a4 	ldr	r3, [r2, #164]
50001320:	e3833901 	orr	r3, r3, #16384	; 0x4000
50001324:	e58230a4 	str	r3, [r2, #164]
50001328:	e12fff1e 	bx	lr
5000132c:	7f008000 	.word	0x7f008000

50001330 <backlight_disable>:
50001330:	e59f200c 	ldr	r2, [pc, #12]	; 50001344 <backlight_disable+0x14>
50001334:	e59230a4 	ldr	r3, [r2, #164]
50001338:	e3c33901 	bic	r3, r3, #16384	; 0x4000
5000133c:	e58230a4 	str	r3, [r2, #164]
50001340:	e12fff1e 	bx	lr
50001344:	7f008000 	.word	0x7f008000

50001348 <lcd_on>:
50001348:	e59f200c 	ldr	r2, [pc, #12]	; 5000135c <lcd_on+0x14>
5000134c:	e5923084 	ldr	r3, [r2, #132]
50001350:	e3833001 	orr	r3, r3, #1	; 0x1
50001354:	e5823084 	str	r3, [r2, #132]
50001358:	e12fff1e 	bx	lr
5000135c:	7f008000 	.word	0x7f008000

50001360 <lcd_off>:
50001360:	e59f200c 	ldr	r2, [pc, #12]	; 50001374 <lcd_off+0x14>
50001364:	e5923084 	ldr	r3, [r2, #132]
50001368:	e3c33001 	bic	r3, r3, #1	; 0x1
5000136c:	e5823084 	str	r3, [r2, #132]
50001370:	e12fff1e 	bx	lr
50001374:	7f008000 	.word	0x7f008000

50001378 <displaycon_on>:
50001378:	e59f3018 	ldr	r3, [pc, #24]	; 50001398 <displaycon_on+0x20>
5000137c:	e5932000 	ldr	r2, [r3]
50001380:	e3822003 	orr	r2, r2, #3	; 0x3
50001384:	e5832000 	str	r2, [r3]
50001388:	e5932020 	ldr	r2, [r3, #32]
5000138c:	e3822001 	orr	r2, r2, #1	; 0x1
50001390:	e5832020 	str	r2, [r3, #32]
50001394:	e12fff1e 	bx	lr
50001398:	77100000 	.word	0x77100000

5000139c <displaycon_off>:
5000139c:	e59f3018 	ldr	r3, [pc, #24]	; 500013bc <displaycon_off+0x20>
500013a0:	e5932000 	ldr	r2, [r3]
500013a4:	e3c22003 	bic	r2, r2, #3	; 0x3
500013a8:	e5832000 	str	r2, [r3]
500013ac:	e5932020 	ldr	r2, [r3, #32]
500013b0:	e3c22001 	bic	r2, r2, #1	; 0x1
500013b4:	e5832020 	str	r2, [r3, #32]
500013b8:	e12fff1e 	bx	lr
500013bc:	77100000 	.word	0x77100000

500013c0 <lcd_enable>:
500013c0:	e12fff1e 	bx	lr

500013c4 <lcd_disable>:
500013c4:	e12fff1e 	bx	lr

500013c8 <display_red>:
500013c8:	e92d4010 	push	{r4, lr}
500013cc:	e59fe088 	ldr	lr, [pc, #136]	; 5000145c <display_red+0x94>
500013d0:	e1a0c00e 	mov	ip, lr
500013d4:	e8bc000f 	ldm	ip!, {r0, r1, r2, r3}
500013d8:	e24dd018 	sub	sp, sp, #24	; 0x18
500013dc:	e28dc004 	add	ip, sp, #4	; 0x4
500013e0:	e8ac000f 	stmia	ip!, {r0, r1, r2, r3}
500013e4:	e59f3074 	ldr	r3, [pc, #116]	; 50001460 <display_red+0x98>
500013e8:	e59e2010 	ldr	r2, [lr, #16]
500013ec:	e5930000 	ldr	r0, [r3]
500013f0:	e58c2000 	str	r2, [ip]
500013f4:	e28d2018 	add	r2, sp, #24	; 0x18
500013f8:	e0823100 	add	r3, r2, r0, lsl #2
500013fc:	e513c014 	ldr	ip, [r3, #-20]
50001400:	e59f405c 	ldr	r4, [pc, #92]	; 50001464 <display_red+0x9c>
50001404:	e3a01315 	mov	r1, #1409286144	; 0x54000000
50001408:	e3a0e000 	mov	lr, #0	; 0x0
5000140c:	ea00000f 	b	50001450 <display_red+0x88>
50001410:	e2833001 	add	r3, r3, #1	; 0x1
50001414:	e3530e1e 	cmp	r3, #480	; 0x1e0
50001418:	e482c004 	str	ip, [r2], #4
5000141c:	1afffffb 	bne	50001410 <display_red+0x48>
50001420:	e2811d1e 	add	r1, r1, #1920	; 0x780
50001424:	e1510004 	cmp	r1, r4
50001428:	1a000008 	bne	50001450 <display_red+0x88>
5000142c:	e2803001 	add	r3, r0, #1	; 0x1
50001430:	e59f2028 	ldr	r2, [pc, #40]	; 50001460 <display_red+0x98>
50001434:	e3530005 	cmp	r3, #5	; 0x5
50001438:	e5823000 	str	r3, [r2]
5000143c:	03a03000 	moveq	r3, #0	; 0x0
50001440:	05823000 	streq	r3, [r2]
50001444:	e28dd018 	add	sp, sp, #24	; 0x18
50001448:	e8bd4010 	pop	{r4, lr}
5000144c:	e12fff1e 	bx	lr
50001450:	e1a02001 	mov	r2, r1
50001454:	e1a0300e 	mov	r3, lr
50001458:	eaffffec 	b	50001410 <display_red+0x48>
5000145c:	50003858 	.word	0x50003858
50001460:	50004e2c 	.word	0x50004e2c
50001464:	5407f800 	.word	0x5407f800

50001468 <draw_line>:
50001468:	e92d4030 	push	{r4, r5, lr}
5000146c:	e59f50f0 	ldr	r5, [pc, #240]	; 50001564 <draw_line+0xfc>
50001470:	e3a00000 	mov	r0, #0	; 0x0
50001474:	e24dd00c 	sub	sp, sp, #12	; 0xc
50001478:	e59f40e8 	ldr	r4, [pc, #232]	; 50001568 <draw_line+0x100>
5000147c:	e1a01000 	mov	r1, r0
50001480:	e1a02000 	mov	r2, r0
50001484:	e1a03005 	mov	r3, r5
50001488:	e3a0c8ff 	mov	ip, #16711680	; 0xff0000
5000148c:	e58dc000 	str	ip, [sp]
50001490:	eb0000d1 	bl	500017dc <DrawLine>
50001494:	e3a00000 	mov	r0, #0	; 0x0
50001498:	e1a01000 	mov	r1, r0
5000149c:	e1a03000 	mov	r3, r0
500014a0:	e1a02004 	mov	r2, r4
500014a4:	e3a0ccff 	mov	ip, #65280	; 0xff00
500014a8:	e58dc000 	str	ip, [sp]
500014ac:	eb0000ca 	bl	500017dc <DrawLine>
500014b0:	e3a00000 	mov	r0, #0	; 0x0
500014b4:	e1a01000 	mov	r1, r0
500014b8:	e1a02004 	mov	r2, r4
500014bc:	e1a03005 	mov	r3, r5
500014c0:	e3a0c0ff 	mov	ip, #255	; 0xff
500014c4:	e58dc000 	str	ip, [sp]
500014c8:	eb0000c3 	bl	500017dc <DrawLine>
500014cc:	e3a00000 	mov	r0, #0	; 0x0
500014d0:	e59fc094 	ldr	ip, [pc, #148]	; 5000156c <draw_line+0x104>
500014d4:	e1a03000 	mov	r3, r0
500014d8:	e1a01005 	mov	r1, r5
500014dc:	e1a02004 	mov	r2, r4
500014e0:	e58dc000 	str	ip, [sp]
500014e4:	eb0000bc 	bl	500017dc <DrawLine>
500014e8:	e59fc080 	ldr	ip, [pc, #128]	; 50001570 <draw_line+0x108>
500014ec:	e1a01005 	mov	r1, r5
500014f0:	e1a02004 	mov	r2, r4
500014f4:	e1a03005 	mov	r3, r5
500014f8:	e3a00000 	mov	r0, #0	; 0x0
500014fc:	e58dc000 	str	ip, [sp]
50001500:	eb0000b5 	bl	500017dc <DrawLine>
50001504:	e59fc068 	ldr	ip, [pc, #104]	; 50001574 <draw_line+0x10c>
50001508:	e1a00004 	mov	r0, r4
5000150c:	e1a01005 	mov	r1, r5
50001510:	e1a02004 	mov	r2, r4
50001514:	e3a03000 	mov	r3, #0	; 0x0
50001518:	e58dc000 	str	ip, [sp]
5000151c:	eb0000ae 	bl	500017dc <DrawLine>
50001520:	e3a01088 	mov	r1, #136	; 0x88
50001524:	e59fc04c 	ldr	ip, [pc, #76]	; 50001578 <draw_line+0x110>
50001528:	e1a02004 	mov	r2, r4
5000152c:	e1a03001 	mov	r3, r1
50001530:	e3a00000 	mov	r0, #0	; 0x0
50001534:	e58dc000 	str	ip, [sp]
50001538:	eb0000a7 	bl	500017dc <DrawLine>
5000153c:	e3a000f0 	mov	r0, #240	; 0xf0
50001540:	e59fc034 	ldr	ip, [pc, #52]	; 5000157c <draw_line+0x114>
50001544:	e1a03005 	mov	r3, r5
50001548:	e3a01000 	mov	r1, #0	; 0x0
5000154c:	e1a02000 	mov	r2, r0
50001550:	e58dc000 	str	ip, [sp]
50001554:	eb0000a0 	bl	500017dc <DrawLine>
50001558:	e28dd00c 	add	sp, sp, #12	; 0xc
5000155c:	e8bd4030 	pop	{r4, r5, lr}
50001560:	e12fff1e 	bx	lr
50001564:	0000010f 	.word	0x0000010f
50001568:	000001df 	.word	0x000001df
5000156c:	0000ffff 	.word	0x0000ffff
50001570:	00ff00ff 	.word	0x00ff00ff
50001574:	00ffff00 	.word	0x00ffff00
50001578:	000123ff 	.word	0x000123ff
5000157c:	000567ff 	.word	0x000567ff

50001580 <lcd_test>:
50001580:	e92d41f0 	push	{r4, r5, r6, r7, r8, lr}
50001584:	ebffff0a 	bl	500011b4 <lcd_init>
50001588:	e59f6164 	ldr	r6, [pc, #356]	; 500016f4 <lcd_test+0x174>
5000158c:	e59f8164 	ldr	r8, [pc, #356]	; 500016f8 <lcd_test+0x178>
50001590:	e59f7164 	ldr	r7, [pc, #356]	; 500016fc <lcd_test+0x17c>
50001594:	e59f5164 	ldr	r5, [pc, #356]	; 50001700 <lcd_test+0x180>
50001598:	e59f0164 	ldr	r0, [pc, #356]	; 50001704 <lcd_test+0x184>
5000159c:	eb00023e 	bl	50001e9c <printf>
500015a0:	e59f0160 	ldr	r0, [pc, #352]	; 50001708 <lcd_test+0x188>
500015a4:	eb00023c 	bl	50001e9c <printf>
500015a8:	e59f015c 	ldr	r0, [pc, #348]	; 5000170c <lcd_test+0x18c>
500015ac:	eb00023a 	bl	50001e9c <printf>
500015b0:	e59f0158 	ldr	r0, [pc, #344]	; 50001710 <lcd_test+0x190>
500015b4:	eb000238 	bl	50001e9c <printf>
500015b8:	e59f0154 	ldr	r0, [pc, #340]	; 50001714 <lcd_test+0x194>
500015bc:	eb000236 	bl	50001e9c <printf>
500015c0:	e59f0150 	ldr	r0, [pc, #336]	; 50001718 <lcd_test+0x198>
500015c4:	eb000234 	bl	50001e9c <printf>
500015c8:	e59f014c 	ldr	r0, [pc, #332]	; 5000171c <lcd_test+0x19c>
500015cc:	eb000232 	bl	50001e9c <printf>
500015d0:	ebfffe8e 	bl	50001010 <getc>
500015d4:	e350000d 	cmp	r0, #13	; 0xd
500015d8:	1350000a 	cmpne	r0, #10	; 0xa
500015dc:	e1a04000 	mov	r4, r0
500015e0:	059f0138 	ldreq	r0, [pc, #312]	; 50001720 <lcd_test+0x1a0>
500015e4:	0afffff8 	beq	500015cc <lcd_test+0x4c>
500015e8:	ebfffeab 	bl	5000109c <putc>
500015ec:	e3540051 	cmp	r4, #81	; 0x51
500015f0:	0a00003d 	beq	500016ec <lcd_test+0x16c>
500015f4:	8a00000b 	bhi	50001628 <lcd_test+0xa8>
500015f8:	e3540044 	cmp	r4, #68	; 0x44
500015fc:	0a000036 	beq	500016dc <lcd_test+0x15c>
50001600:	8a000003 	bhi	50001614 <lcd_test+0x94>
50001604:	e3540042 	cmp	r4, #66	; 0x42
50001608:	0a000024 	beq	500016a0 <lcd_test+0x120>
5000160c:	e3540043 	cmp	r4, #67	; 0x43
50001610:	ea00000a 	b	50001640 <lcd_test+0xc0>
50001614:	e3540049 	cmp	r4, #73	; 0x49
50001618:	0a000031 	beq	500016e4 <lcd_test+0x164>
5000161c:	e354004c 	cmp	r4, #76	; 0x4c
50001620:	1affffdc 	bne	50001598 <lcd_test+0x18>
50001624:	ea00000e 	b	50001664 <lcd_test+0xe4>
50001628:	e3540064 	cmp	r4, #100	; 0x64
5000162c:	0a00002a 	beq	500016dc <lcd_test+0x15c>
50001630:	8a000004 	bhi	50001648 <lcd_test+0xc8>
50001634:	e3540062 	cmp	r4, #98	; 0x62
50001638:	0a000018 	beq	500016a0 <lcd_test+0x120>
5000163c:	e3540063 	cmp	r4, #99	; 0x63
50001640:	1affffd4 	bne	50001598 <lcd_test+0x18>
50001644:	ea000017 	b	500016a8 <lcd_test+0x128>
50001648:	e354006c 	cmp	r4, #108	; 0x6c
5000164c:	0a000004 	beq	50001664 <lcd_test+0xe4>
50001650:	e3540071 	cmp	r4, #113	; 0x71
50001654:	0a000024 	beq	500016ec <lcd_test+0x16c>
50001658:	e3540069 	cmp	r4, #105	; 0x69
5000165c:	1affffcd 	bne	50001598 <lcd_test+0x18>
50001660:	ea00001f 	b	500016e4 <lcd_test+0x164>
50001664:	e5973000 	ldr	r3, [r7]
50001668:	e3530000 	cmp	r3, #0	; 0x0
5000166c:	15953084 	ldrne	r3, [r5, #132]
50001670:	05953084 	ldreq	r3, [r5, #132]
50001674:	13c33001 	bicne	r3, r3, #1	; 0x1
50001678:	03833001 	orreq	r3, r3, #1	; 0x1
5000167c:	159f00a0 	ldrne	r0, [pc, #160]	; 50001724 <lcd_test+0x1a4>
50001680:	059f00a0 	ldreq	r0, [pc, #160]	; 50001728 <lcd_test+0x1a8>
50001684:	e5853084 	str	r3, [r5, #132]
50001688:	eb000203 	bl	50001e9c <printf>
5000168c:	e5973000 	ldr	r3, [r7]
50001690:	e2733001 	rsbs	r3, r3, #1	; 0x1
50001694:	33a03000 	movcc	r3, #0	; 0x0
50001698:	e5873000 	str	r3, [r7]
5000169c:	eaffffbd 	b	50001598 <lcd_test+0x18>
500016a0:	eb000193 	bl	50001cf4 <pwm_menu>
500016a4:	eaffffbb 	b	50001598 <lcd_test+0x18>
500016a8:	e5963000 	ldr	r3, [r6]
500016ac:	e3833003 	orr	r3, r3, #3	; 0x3
500016b0:	e5863000 	str	r3, [r6]
500016b4:	e5963020 	ldr	r3, [r6, #32]
500016b8:	e3833001 	orr	r3, r3, #1	; 0x1
500016bc:	e5863020 	str	r3, [r6, #32]
500016c0:	e59f0064 	ldr	r0, [pc, #100]	; 5000172c <lcd_test+0x1ac>
500016c4:	eb0001f4 	bl	50001e9c <printf>
500016c8:	e5983000 	ldr	r3, [r8]
500016cc:	e2733001 	rsbs	r3, r3, #1	; 0x1
500016d0:	33a03000 	movcc	r3, #0	; 0x0
500016d4:	e5883000 	str	r3, [r8]
500016d8:	eaffffae 	b	50001598 <lcd_test+0x18>
500016dc:	ebffff39 	bl	500013c8 <display_red>
500016e0:	eaffffac 	b	50001598 <lcd_test+0x18>
500016e4:	ebffff5f 	bl	50001468 <draw_line>
500016e8:	eaffffaa 	b	50001598 <lcd_test+0x18>
500016ec:	e8bd41f0 	pop	{r4, r5, r6, r7, r8, lr}
500016f0:	e12fff1e 	bx	lr
500016f4:	77100000 	.word	0x77100000
500016f8:	50004e24 	.word	0x50004e24
500016fc:	50004e28 	.word	0x50004e28
50001700:	7f008000 	.word	0x7f008000
50001704:	500043a0 	.word	0x500043a0
50001708:	500043c0 	.word	0x500043c0
5000170c:	500043dc 	.word	0x500043dc
50001710:	500043fc 	.word	0x500043fc
50001714:	5000442c 	.word	0x5000442c
50001718:	50004440 	.word	0x50004440
5000171c:	50004454 	.word	0x50004454
50001720:	500044f8 	.word	0x500044f8
50001724:	50004460 	.word	0x50004460
50001728:	5000446c 	.word	0x5000446c
5000172c:	50004478 	.word	0x50004478

50001730 <PutPixel>:
50001730:	e59f3098 	ldr	r3, [pc, #152]	; 500017d0 <PutPixel+0xa0>
50001734:	e5933000 	ldr	r3, [r3]
50001738:	e3530010 	cmp	r3, #16	; 0x10
5000173c:	e1a0c002 	mov	ip, r2
50001740:	0a00000b 	beq	50001774 <PutPixel+0x44>
50001744:	e3530018 	cmp	r3, #24	; 0x18
50001748:	0a000002 	beq	50001758 <PutPixel+0x28>
5000174c:	e3530008 	cmp	r3, #8	; 0x8
50001750:	112fff1e 	bxne	lr
50001754:	ea000015 	b	500017b0 <PutPixel+0x80>
50001758:	e59f3074 	ldr	r3, [pc, #116]	; 500017d4 <PutPixel+0xa4>
5000175c:	e5933000 	ldr	r3, [r3]
50001760:	e0220193 	mla	r2, r3, r1, r0
50001764:	e59f306c 	ldr	r3, [pc, #108]	; 500017d8 <PutPixel+0xa8>
50001768:	e5933000 	ldr	r3, [r3]
5000176c:	e783c102 	str	ip, [r3, r2, lsl #2]
50001770:	e12fff1e 	bx	lr
50001774:	e59f3058 	ldr	r3, [pc, #88]	; 500017d4 <PutPixel+0xa4>
50001778:	e5933000 	ldr	r3, [r3]
5000177c:	e0210193 	mla	r1, r3, r1, r0
50001780:	e1a02422 	lsr	r2, r2, #8
50001784:	e1a032ac 	lsr	r3, ip, #5
50001788:	e2033e7e 	and	r3, r3, #2016	; 0x7e0
5000178c:	e2022b3e 	and	r2, r2, #63488	; 0xf800
50001790:	e1822003 	orr	r2, r2, r3
50001794:	e59f303c 	ldr	r3, [pc, #60]	; 500017d8 <PutPixel+0xa8>
50001798:	e5930000 	ldr	r0, [r3]
5000179c:	e1a03c0c 	lsl	r3, ip, #24
500017a0:	e1822da3 	orr	r2, r2, r3, lsr #27
500017a4:	e1a01081 	lsl	r1, r1, #1
500017a8:	e18120b0 	strh	r2, [r1, r0]
500017ac:	e12fff1e 	bx	lr
500017b0:	e59f301c 	ldr	r3, [pc, #28]	; 500017d4 <PutPixel+0xa4>
500017b4:	e5933000 	ldr	r3, [r3]
500017b8:	e0020193 	mul	r2, r3, r1
500017bc:	e59f3014 	ldr	r3, [pc, #20]	; 500017d8 <PutPixel+0xa8>
500017c0:	e5933000 	ldr	r3, [r3]
500017c4:	e0833000 	add	r3, r3, r0
500017c8:	e7c3c002 	strb	ip, [r3, r2]
500017cc:	e12fff1e 	bx	lr
500017d0:	50005644 	.word	0x50005644
500017d4:	50005638 	.word	0x50005638
500017d8:	5000563c 	.word	0x5000563c

500017dc <DrawLine>:
500017dc:	e92d4ff0 	push	{r4, r5, r6, r7, r8, r9, sl, fp, lr}
500017e0:	e0528000 	subs	r8, r2, r0
500017e4:	e24dd004 	sub	sp, sp, #4	; 0x4
500017e8:	e1a04000 	mov	r4, r0
500017ec:	e1a0a002 	mov	sl, r2
500017f0:	e1a05001 	mov	r5, r1
500017f4:	e1a09003 	mov	r9, r3
500017f8:	e59db028 	ldr	fp, [sp, #40]
500017fc:	e0617003 	rsb	r7, r1, r3
50001800:	4a000040 	bmi	50001908 <DrawLine+0x12c>
50001804:	e3570000 	cmp	r7, #0	; 0x0
50001808:	ba00001e 	blt	50001888 <DrawLine+0xac>
5000180c:	e1580007 	cmp	r8, r7
50001810:	a0883fa8 	addge	r3, r8, r8, lsr #31
50001814:	a04760c3 	subge	r6, r7, r3, asr #1
50001818:	aa000005 	bge	50001834 <DrawLine+0x58>
5000181c:	ea00000b 	b	50001850 <DrawLine+0x74>
50001820:	ebffffc2 	bl	50001730 <PutPixel>
50001824:	e3560000 	cmp	r6, #0	; 0x0
50001828:	c0686006 	rsbgt	r6, r8, r6
5000182c:	c2855001 	addgt	r5, r5, #1	; 0x1
50001830:	e0866007 	add	r6, r6, r7
50001834:	e154000a 	cmp	r4, sl
50001838:	e1a00004 	mov	r0, r4
5000183c:	e1a01005 	mov	r1, r5
50001840:	e1a0200b 	mov	r2, fp
50001844:	e2844001 	add	r4, r4, #1	; 0x1
50001848:	dafffff4 	ble	50001820 <DrawLine+0x44>
5000184c:	ea00006e 	b	50001a0c <DrawLine+0x230>
50001850:	e04860c7 	sub	r6, r8, r7, asr #1
50001854:	ea000004 	b	5000186c <DrawLine+0x90>
50001858:	ebffffb4 	bl	50001730 <PutPixel>
5000185c:	e3560000 	cmp	r6, #0	; 0x0
50001860:	c0676006 	rsbgt	r6, r7, r6
50001864:	c2844001 	addgt	r4, r4, #1	; 0x1
50001868:	e0866008 	add	r6, r6, r8
5000186c:	e1550009 	cmp	r5, r9
50001870:	e1a01005 	mov	r1, r5
50001874:	e1a00004 	mov	r0, r4
50001878:	e1a0200b 	mov	r2, fp
5000187c:	e2855001 	add	r5, r5, #1	; 0x1
50001880:	dafffff4 	ble	50001858 <DrawLine+0x7c>
50001884:	ea000060 	b	50001a0c <DrawLine+0x230>
50001888:	e2677000 	rsb	r7, r7, #0	; 0x0
5000188c:	e1580007 	cmp	r8, r7
50001890:	a04760c8 	subge	r6, r7, r8, asr #1
50001894:	aa000005 	bge	500018b0 <DrawLine+0xd4>
50001898:	ea00000b 	b	500018cc <DrawLine+0xf0>
5000189c:	ebffffa3 	bl	50001730 <PutPixel>
500018a0:	e3560000 	cmp	r6, #0	; 0x0
500018a4:	c0686006 	rsbgt	r6, r8, r6
500018a8:	c2455001 	subgt	r5, r5, #1	; 0x1
500018ac:	e0866007 	add	r6, r6, r7
500018b0:	e154000a 	cmp	r4, sl
500018b4:	e1a00004 	mov	r0, r4
500018b8:	e1a01005 	mov	r1, r5
500018bc:	e1a0200b 	mov	r2, fp
500018c0:	e2844001 	add	r4, r4, #1	; 0x1
500018c4:	dafffff4 	ble	5000189c <DrawLine+0xc0>
500018c8:	ea00004f 	b	50001a0c <DrawLine+0x230>
500018cc:	e0873fa7 	add	r3, r7, r7, lsr #31
500018d0:	e04860c3 	sub	r6, r8, r3, asr #1
500018d4:	ea000004 	b	500018ec <DrawLine+0x110>
500018d8:	ebffff94 	bl	50001730 <PutPixel>
500018dc:	e3560000 	cmp	r6, #0	; 0x0
500018e0:	c0676006 	rsbgt	r6, r7, r6
500018e4:	c2844001 	addgt	r4, r4, #1	; 0x1
500018e8:	e0866008 	add	r6, r6, r8
500018ec:	e1550009 	cmp	r5, r9
500018f0:	e1a01005 	mov	r1, r5
500018f4:	e1a00004 	mov	r0, r4
500018f8:	e1a0200b 	mov	r2, fp
500018fc:	e2455001 	sub	r5, r5, #1	; 0x1
50001900:	aafffff4 	bge	500018d8 <DrawLine+0xfc>
50001904:	ea000040 	b	50001a0c <DrawLine+0x230>
50001908:	e3570000 	cmp	r7, #0	; 0x0
5000190c:	e2688000 	rsb	r8, r8, #0	; 0x0
50001910:	ba00001e 	blt	50001990 <DrawLine+0x1b4>
50001914:	e1580007 	cmp	r8, r7
50001918:	a0883fa8 	addge	r3, r8, r8, lsr #31
5000191c:	a04760c3 	subge	r6, r7, r3, asr #1
50001920:	aa000005 	bge	5000193c <DrawLine+0x160>
50001924:	ea00000b 	b	50001958 <DrawLine+0x17c>
50001928:	ebffff80 	bl	50001730 <PutPixel>
5000192c:	e3560000 	cmp	r6, #0	; 0x0
50001930:	c0686006 	rsbgt	r6, r8, r6
50001934:	c2855001 	addgt	r5, r5, #1	; 0x1
50001938:	e0866007 	add	r6, r6, r7
5000193c:	e154000a 	cmp	r4, sl
50001940:	e1a00004 	mov	r0, r4
50001944:	e1a01005 	mov	r1, r5
50001948:	e1a0200b 	mov	r2, fp
5000194c:	e2444001 	sub	r4, r4, #1	; 0x1
50001950:	aafffff4 	bge	50001928 <DrawLine+0x14c>
50001954:	ea00002c 	b	50001a0c <DrawLine+0x230>
50001958:	e04860c7 	sub	r6, r8, r7, asr #1
5000195c:	ea000004 	b	50001974 <DrawLine+0x198>
50001960:	ebffff72 	bl	50001730 <PutPixel>
50001964:	e3560000 	cmp	r6, #0	; 0x0
50001968:	c0676006 	rsbgt	r6, r7, r6
5000196c:	c2444001 	subgt	r4, r4, #1	; 0x1
50001970:	e0866008 	add	r6, r6, r8
50001974:	e1550009 	cmp	r5, r9
50001978:	e1a01005 	mov	r1, r5
5000197c:	e1a00004 	mov	r0, r4
50001980:	e1a0200b 	mov	r2, fp
50001984:	e2855001 	add	r5, r5, #1	; 0x1
50001988:	dafffff4 	ble	50001960 <DrawLine+0x184>
5000198c:	ea00001e 	b	50001a0c <DrawLine+0x230>
50001990:	e2677000 	rsb	r7, r7, #0	; 0x0
50001994:	e1580007 	cmp	r8, r7
50001998:	a04760c8 	subge	r6, r7, r8, asr #1
5000199c:	aa000005 	bge	500019b8 <DrawLine+0x1dc>
500019a0:	ea00000b 	b	500019d4 <DrawLine+0x1f8>
500019a4:	ebffff61 	bl	50001730 <PutPixel>
500019a8:	e3560000 	cmp	r6, #0	; 0x0
500019ac:	c0686006 	rsbgt	r6, r8, r6
500019b0:	c2455001 	subgt	r5, r5, #1	; 0x1
500019b4:	e0866007 	add	r6, r6, r7
500019b8:	e154000a 	cmp	r4, sl
500019bc:	e1a00004 	mov	r0, r4
500019c0:	e1a01005 	mov	r1, r5
500019c4:	e1a0200b 	mov	r2, fp
500019c8:	e2444001 	sub	r4, r4, #1	; 0x1
500019cc:	aafffff4 	bge	500019a4 <DrawLine+0x1c8>
500019d0:	ea00000d 	b	50001a0c <DrawLine+0x230>
500019d4:	e0873fa7 	add	r3, r7, r7, lsr #31
500019d8:	e04860c3 	sub	r6, r8, r3, asr #1
500019dc:	ea000004 	b	500019f4 <DrawLine+0x218>
500019e0:	ebffff52 	bl	50001730 <PutPixel>
500019e4:	e3560000 	cmp	r6, #0	; 0x0
500019e8:	c0676006 	rsbgt	r6, r7, r6
500019ec:	c2444001 	subgt	r4, r4, #1	; 0x1
500019f0:	e0866008 	add	r6, r6, r8
500019f4:	e1550009 	cmp	r5, r9
500019f8:	e1a01005 	mov	r1, r5
500019fc:	e1a00004 	mov	r0, r4
50001a00:	e1a0200b 	mov	r2, fp
50001a04:	e2455001 	sub	r5, r5, #1	; 0x1
50001a08:	aafffff4 	bge	500019e0 <DrawLine+0x204>
50001a0c:	e28dd004 	add	sp, sp, #4	; 0x4
50001a10:	e8bd4ff0 	pop	{r4, r5, r6, r7, r8, r9, sl, fp, lr}
50001a14:	e12fff1e 	bx	lr

50001a18 <Mire>:
50001a18:	e92d41f0 	push	{r4, r5, r6, r7, r8, lr}
50001a1c:	e3a05000 	mov	r5, #0	; 0x0
50001a20:	e59f607c 	ldr	r6, [pc, #124]	; 50001aa4 <Mire+0x8c>
50001a24:	e59f807c 	ldr	r8, [pc, #124]	; 50001aa8 <Mire+0x90>
50001a28:	e1a07005 	mov	r7, r5
50001a2c:	ea000016 	b	50001a8c <Mire+0x74>
50001a30:	e5963000 	ldr	r3, [r6]
50001a34:	e04530a3 	sub	r3, r5, r3, lsr #1
50001a38:	e00c0393 	mul	ip, r3, r3
50001a3c:	e1a0300c 	mov	r3, ip
50001a40:	e02c3292 	mla	ip, r2, r2, r3
50001a44:	e1a0e32c 	lsr	lr, ip, #6
50001a48:	e1a0288c 	lsl	r2, ip, #17
50001a4c:	e1a0338c 	lsl	r3, ip, #7
50001a50:	e18e2c22 	orr	r2, lr, r2, lsr #24
50001a54:	e1822c8e 	orr	r2, r2, lr, lsl #25
50001a58:	e20338ff 	and	r3, r3, #16711680	; 0xff0000
50001a5c:	e1822003 	orr	r2, r2, r3
50001a60:	e20cccff 	and	ip, ip, #65280	; 0xff00
50001a64:	e182200c 	orr	r2, r2, ip
50001a68:	ebffff30 	bl	50001730 <PutPixel>
50001a6c:	e5983000 	ldr	r3, [r8]
50001a70:	e1540003 	cmp	r4, r3
50001a74:	e1a00004 	mov	r0, r4
50001a78:	e04420a3 	sub	r2, r4, r3, lsr #1
50001a7c:	e1a01005 	mov	r1, r5
50001a80:	e2844001 	add	r4, r4, #1	; 0x1
50001a84:	3affffe9 	bcc	50001a30 <Mire+0x18>
50001a88:	e2855001 	add	r5, r5, #1	; 0x1
50001a8c:	e5963000 	ldr	r3, [r6]
50001a90:	e1550003 	cmp	r5, r3
50001a94:	31a04007 	movcc	r4, r7
50001a98:	3afffff3 	bcc	50001a6c <Mire+0x54>
50001a9c:	e8bd41f0 	pop	{r4, r5, r6, r7, r8, lr}
50001aa0:	e12fff1e 	bx	lr
50001aa4:	50005640 	.word	0x50005640
50001aa8:	50005638 	.word	0x50005638

50001aac <ClearScr>:
50001aac:	e92d45f0 	push	{r4, r5, r6, r7, r8, sl, lr}
50001ab0:	e3a05000 	mov	r5, #0	; 0x0
50001ab4:	e59fa050 	ldr	sl, [pc, #80]	; 50001b0c <ClearScr+0x60>
50001ab8:	e59f8050 	ldr	r8, [pc, #80]	; 50001b10 <ClearScr+0x64>
50001abc:	e24dd004 	sub	sp, sp, #4	; 0x4
50001ac0:	e1a06000 	mov	r6, r0
50001ac4:	e1a07005 	mov	r7, r5
50001ac8:	ea000008 	b	50001af0 <ClearScr+0x44>
50001acc:	ebffff17 	bl	50001730 <PutPixel>
50001ad0:	e5983000 	ldr	r3, [r8]
50001ad4:	e1540003 	cmp	r4, r3
50001ad8:	e1a00004 	mov	r0, r4
50001adc:	e1a01005 	mov	r1, r5
50001ae0:	e1a02006 	mov	r2, r6
50001ae4:	e2844001 	add	r4, r4, #1	; 0x1
50001ae8:	3afffff7 	bcc	50001acc <ClearScr+0x20>
50001aec:	e2855001 	add	r5, r5, #1	; 0x1
50001af0:	e59a3000 	ldr	r3, [sl]
50001af4:	e1550003 	cmp	r5, r3
50001af8:	31a04007 	movcc	r4, r7
50001afc:	3afffff3 	bcc	50001ad0 <ClearScr+0x24>
50001b00:	e28dd004 	add	sp, sp, #4	; 0x4
50001b04:	e8bd45f0 	pop	{r4, r5, r6, r7, r8, sl, lr}
50001b08:	e12fff1e 	bx	lr
50001b0c:	50005640 	.word	0x50005640
50001b10:	50005638 	.word	0x50005638

50001b14 <lcd_putc>:
50001b14:	e92d4ff0 	push	{r4, r5, r6, r7, r8, r9, sl, fp, lr}
50001b18:	e350000a 	cmp	r0, #10	; 0xa
50001b1c:	e24dd004 	sub	sp, sp, #4	; 0x4
50001b20:	e1a0b180 	lsl	fp, r0, #3
50001b24:	1a000006 	bne	50001b44 <lcd_putc+0x30>
50001b28:	e59f20d0 	ldr	r2, [pc, #208]	; 50001c00 <lcd_putc+0xec>
50001b2c:	e5923000 	ldr	r3, [r2]
50001b30:	e2833008 	add	r3, r3, #8	; 0x8
50001b34:	e3530e11 	cmp	r3, #272	; 0x110
50001b38:	e5823000 	str	r3, [r2]
50001b3c:	da00002c 	ble	50001bf4 <lcd_putc+0xe0>
50001b40:	ea000002 	b	50001b50 <lcd_putc+0x3c>
50001b44:	e350000d 	cmp	r0, #13	; 0xd
50001b48:	e59f20b4 	ldr	r2, [pc, #180]	; 50001c04 <lcd_putc+0xf0>
50001b4c:	1a000001 	bne	50001b58 <lcd_putc+0x44>
50001b50:	e3a03000 	mov	r3, #0	; 0x0
50001b54:	ea000025 	b	50001bf0 <lcd_putc+0xdc>
50001b58:	e59f30a0 	ldr	r3, [pc, #160]	; 50001c00 <lcd_putc+0xec>
50001b5c:	e5928000 	ldr	r8, [r2]
50001b60:	e593a000 	ldr	sl, [r3]
50001b64:	e3a05000 	mov	r5, #0	; 0x0
50001b68:	e3a09080 	mov	r9, #128	; 0x80
50001b6c:	e59f2094 	ldr	r2, [pc, #148]	; 50001c08 <lcd_putc+0xf4>
50001b70:	e0853002 	add	r3, r5, r2
50001b74:	e7db7003 	ldrb	r7, [fp, r3]
50001b78:	e085600a 	add	r6, r5, sl
50001b7c:	e3a04000 	mov	r4, #0	; 0x0
50001b80:	e017c459 	ands	ip, r7, r9, asr r4
50001b84:	e0843008 	add	r3, r4, r8
50001b88:	e1a01006 	mov	r1, r6
50001b8c:	e3a028ff 	mov	r2, #16711680	; 0xff0000
50001b90:	e1a00003 	mov	r0, r3
50001b94:	01a0200c 	moveq	r2, ip
50001b98:	01a00003 	moveq	r0, r3
50001b9c:	01a01006 	moveq	r1, r6
50001ba0:	e2844001 	add	r4, r4, #1	; 0x1
50001ba4:	ebfffee1 	bl	50001730 <PutPixel>
50001ba8:	e3540008 	cmp	r4, #8	; 0x8
50001bac:	1afffff3 	bne	50001b80 <lcd_putc+0x6c>
50001bb0:	e2855001 	add	r5, r5, #1	; 0x1
50001bb4:	e3550008 	cmp	r5, #8	; 0x8
50001bb8:	1affffeb 	bne	50001b6c <lcd_putc+0x58>
50001bbc:	e2883008 	add	r3, r8, #8	; 0x8
50001bc0:	e59f203c 	ldr	r2, [pc, #60]	; 50001c04 <lcd_putc+0xf0>
50001bc4:	e3530e1e 	cmp	r3, #480	; 0x1e0
50001bc8:	e5823000 	str	r3, [r2]
50001bcc:	c3a03000 	movgt	r3, #0	; 0x0
50001bd0:	c5823000 	strgt	r3, [r2]
50001bd4:	e5923000 	ldr	r3, [r2]
50001bd8:	e3530000 	cmp	r3, #0	; 0x0
50001bdc:	1a000004 	bne	50001bf4 <lcd_putc+0xe0>
50001be0:	e28a3008 	add	r3, sl, #8	; 0x8
50001be4:	e3530e11 	cmp	r3, #272	; 0x110
50001be8:	e59f2010 	ldr	r2, [pc, #16]	; 50001c00 <lcd_putc+0xec>
50001bec:	c3a03000 	movgt	r3, #0	; 0x0
50001bf0:	e5823000 	str	r3, [r2]
50001bf4:	e28dd004 	add	sp, sp, #4	; 0x4
50001bf8:	e8bd4ff0 	pop	{r4, r5, r6, r7, r8, r9, sl, fp, lr}
50001bfc:	e12fff1e 	bx	lr
50001c00:	50004e30 	.word	0x50004e30
50001c04:	50004e34 	.word	0x50004e34
50001c08:	5000386c 	.word	0x5000386c

50001c0c <pwm_set>:
50001c0c:	e59f2088 	ldr	r2, [pc, #136]	; 50001c9c <pwm_set+0x90>
50001c10:	e59230a0 	ldr	r3, [r2, #160]
50001c14:	e3c33203 	bic	r3, r3, #805306368	; 0x30000000
50001c18:	e58230a0 	str	r3, [r2, #160]
50001c1c:	e59230a0 	ldr	r3, [r2, #160]
50001c20:	e3833202 	orr	r3, r3, #536870912	; 0x20000000
50001c24:	e58230a0 	str	r3, [r2, #160]
50001c28:	e92d4010 	push	{r4, lr}
50001c2c:	e59f406c 	ldr	r4, [pc, #108]	; 50001ca0 <pwm_set+0x94>
50001c30:	e5943000 	ldr	r3, [r4]
50001c34:	e3c330ff 	bic	r3, r3, #255	; 0xff
50001c38:	e5843000 	str	r3, [r4]
50001c3c:	e5943000 	ldr	r3, [r4]
50001c40:	e3833001 	orr	r3, r3, #1	; 0x1
50001c44:	e5843000 	str	r3, [r4]
50001c48:	e5943004 	ldr	r3, [r4, #4]
50001c4c:	e1a01000 	mov	r1, r0
50001c50:	e3c3300f 	bic	r3, r3, #15	; 0xf
50001c54:	e3510001 	cmp	r1, #1	; 0x1
50001c58:	e5843004 	str	r3, [r4, #4]
50001c5c:	e59f0040 	ldr	r0, [pc, #64]	; 50001ca4 <pwm_set+0x98>
50001c60:	059f3040 	ldreq	r3, [pc, #64]	; 50001ca8 <pwm_set+0x9c>
50001c64:	e584000c 	str	r0, [r4, #12]
50001c68:	05843010 	streq	r3, [r4, #16]
50001c6c:	0a000001 	beq	50001c78 <pwm_set+0x6c>
50001c70:	eb0006ae 	bl	50003730 <__aeabi_uidiv>
50001c74:	e5840010 	str	r0, [r4, #16]
50001c78:	e59f3020 	ldr	r3, [pc, #32]	; 50001ca0 <pwm_set+0x94>
50001c7c:	e5932008 	ldr	r2, [r3, #8]
50001c80:	e3c22004 	bic	r2, r2, #4	; 0x4
50001c84:	e5832008 	str	r2, [r3, #8]
50001c88:	e5932008 	ldr	r2, [r3, #8]
50001c8c:	e3822008 	orr	r2, r2, #8	; 0x8
50001c90:	e5832008 	str	r2, [r3, #8]
50001c94:	e8bd4010 	pop	{r4, lr}
50001c98:	e12fff1e 	bx	lr
50001c9c:	7f008000 	.word	0x7f008000
50001ca0:	7f006000 	.word	0x7f006000
50001ca4:	000081e2 	.word	0x000081e2
50001ca8:	000081d8 	.word	0x000081d8

50001cac <pwm_start>:
50001cac:	e59f2024 	ldr	r2, [pc, #36]	; 50001cd8 <pwm_start+0x2c>
50001cb0:	e5923008 	ldr	r3, [r2, #8]
50001cb4:	e3833002 	orr	r3, r3, #2	; 0x2
50001cb8:	e5823008 	str	r3, [r2, #8]
50001cbc:	e5923008 	ldr	r3, [r2, #8]
50001cc0:	e3833001 	orr	r3, r3, #1	; 0x1
50001cc4:	e5823008 	str	r3, [r2, #8]
50001cc8:	e5923008 	ldr	r3, [r2, #8]
50001ccc:	e3c33002 	bic	r3, r3, #2	; 0x2
50001cd0:	e5823008 	str	r3, [r2, #8]
50001cd4:	e12fff1e 	bx	lr
50001cd8:	7f006000 	.word	0x7f006000

50001cdc <pwm_stop>:
50001cdc:	e59f200c 	ldr	r2, [pc, #12]	; 50001cf0 <pwm_stop+0x14>
50001ce0:	e5923008 	ldr	r3, [r2, #8]
50001ce4:	e3c33001 	bic	r3, r3, #1	; 0x1
50001ce8:	e5823008 	str	r3, [r2, #8]
50001cec:	e12fff1e 	bx	lr
50001cf0:	7f006000 	.word	0x7f006000

50001cf4 <pwm_menu>:
50001cf4:	e92d41f0 	push	{r4, r5, r6, r7, r8, lr}
50001cf8:	e59f6120 	ldr	r6, [pc, #288]	; 50001e20 <pwm_menu+0x12c>
50001cfc:	e59f5120 	ldr	r5, [pc, #288]	; 50001e24 <pwm_menu+0x130>
50001d00:	e3a08005 	mov	r8, #5	; 0x5
50001d04:	e3a07064 	mov	r7, #100	; 0x64
50001d08:	e59f0118 	ldr	r0, [pc, #280]	; 50001e28 <pwm_menu+0x134>
50001d0c:	eb000062 	bl	50001e9c <printf>
50001d10:	e59f0114 	ldr	r0, [pc, #276]	; 50001e2c <pwm_menu+0x138>
50001d14:	eb000060 	bl	50001e9c <printf>
50001d18:	e59f0110 	ldr	r0, [pc, #272]	; 50001e30 <pwm_menu+0x13c>
50001d1c:	eb00005e 	bl	50001e9c <printf>
50001d20:	e59f010c 	ldr	r0, [pc, #268]	; 50001e34 <pwm_menu+0x140>
50001d24:	eb00005c 	bl	50001e9c <printf>
50001d28:	e59f0108 	ldr	r0, [pc, #264]	; 50001e38 <pwm_menu+0x144>
50001d2c:	eb00005a 	bl	50001e9c <printf>
50001d30:	ebfffcb6 	bl	50001010 <getc>
50001d34:	e350000d 	cmp	r0, #13	; 0xd
50001d38:	1350000a 	cmpne	r0, #10	; 0xa
50001d3c:	e1a04000 	mov	r4, r0
50001d40:	059f00f4 	ldreq	r0, [pc, #244]	; 50001e3c <pwm_menu+0x148>
50001d44:	0afffff8 	beq	50001d2c <pwm_menu+0x38>
50001d48:	ebfffcd3 	bl	5000109c <putc>
50001d4c:	e3540053 	cmp	r4, #83	; 0x53
50001d50:	0a00002c 	beq	50001e08 <pwm_menu+0x114>
50001d54:	8a000006 	bhi	50001d74 <pwm_menu+0x80>
50001d58:	e354002d 	cmp	r4, #45	; 0x2d
50001d5c:	0a000018 	beq	50001dc4 <pwm_menu+0xd0>
50001d60:	e3540051 	cmp	r4, #81	; 0x51
50001d64:	0a00002b 	beq	50001e18 <pwm_menu+0x124>
50001d68:	e354002b 	cmp	r4, #43	; 0x2b
50001d6c:	1affffe5 	bne	50001d08 <pwm_menu+0x14>
50001d70:	ea000004 	b	50001d88 <pwm_menu+0x94>
50001d74:	e3540071 	cmp	r4, #113	; 0x71
50001d78:	0a000026 	beq	50001e18 <pwm_menu+0x124>
50001d7c:	e3540073 	cmp	r4, #115	; 0x73
50001d80:	1affffe0 	bne	50001d08 <pwm_menu+0x14>
50001d84:	ea00001f 	b	50001e08 <pwm_menu+0x114>
50001d88:	e5951000 	ldr	r1, [r5]
50001d8c:	e3a00064 	mov	r0, #100	; 0x64
50001d90:	eb000666 	bl	50003730 <__aeabi_uidiv>
50001d94:	e1a01000 	mov	r1, r0
50001d98:	e1a04000 	mov	r4, r0
50001d9c:	e59f009c 	ldr	r0, [pc, #156]	; 50001e40 <pwm_menu+0x14c>
50001da0:	eb00003d 	bl	50001e9c <printf>
50001da4:	e1a00004 	mov	r0, r4
50001da8:	ebffff97 	bl	50001c0c <pwm_set>
50001dac:	e5953000 	ldr	r3, [r5]
50001db0:	e2833005 	add	r3, r3, #5	; 0x5
50001db4:	e3530065 	cmp	r3, #101	; 0x65
50001db8:	31a02003 	movcc	r2, r3
50001dbc:	21a02007 	movcs	r2, r7
50001dc0:	ea00000d 	b	50001dfc <pwm_menu+0x108>
50001dc4:	e5951000 	ldr	r1, [r5]
50001dc8:	e3a00064 	mov	r0, #100	; 0x64
50001dcc:	eb000657 	bl	50003730 <__aeabi_uidiv>
50001dd0:	e1a01000 	mov	r1, r0
50001dd4:	e1a04000 	mov	r4, r0
50001dd8:	e59f0060 	ldr	r0, [pc, #96]	; 50001e40 <pwm_menu+0x14c>
50001ddc:	eb00002e 	bl	50001e9c <printf>
50001de0:	e1a00004 	mov	r0, r4
50001de4:	ebffff88 	bl	50001c0c <pwm_set>
50001de8:	e5953000 	ldr	r3, [r5]
50001dec:	e2433005 	sub	r3, r3, #5	; 0x5
50001df0:	e3530004 	cmp	r3, #4	; 0x4
50001df4:	81a02003 	movhi	r2, r3
50001df8:	91a02008 	movls	r2, r8
50001dfc:	e5852000 	str	r2, [r5]
50001e00:	ebffffa9 	bl	50001cac <pwm_start>
50001e04:	eaffffbf 	b	50001d08 <pwm_menu+0x14>
50001e08:	e5963008 	ldr	r3, [r6, #8]
50001e0c:	e3c33001 	bic	r3, r3, #1	; 0x1
50001e10:	e5863008 	str	r3, [r6, #8]
50001e14:	eaffffbb 	b	50001d08 <pwm_menu+0x14>
50001e18:	e8bd41f0 	pop	{r4, r5, r6, r7, r8, lr}
50001e1c:	e12fff1e 	bx	lr
50001e20:	7f006000 	.word	0x7f006000
50001e24:	50004514 	.word	0x50004514
50001e28:	50004490 	.word	0x50004490
50001e2c:	500044b0 	.word	0x500044b0
50001e30:	500044cc 	.word	0x500044cc
50001e34:	500044e8 	.word	0x500044e8
50001e38:	50004454 	.word	0x50004454
50001e3c:	500044f8 	.word	0x500044f8
50001e40:	500044fc 	.word	0x500044fc

50001e44 <scanf>:
50001e44:	e92d000f 	push	{r0, r1, r2, r3}
50001e48:	e92d4070 	push	{r4, r5, r6, lr}
50001e4c:	e59f6044 	ldr	r6, [pc, #68]	; 50001e98 <scanf+0x54>
50001e50:	e3a05000 	mov	r5, #0	; 0x0
50001e54:	ebfffc6d 	bl	50001010 <getc>
50001e58:	e1a04000 	mov	r4, r0
50001e5c:	ebfffc8e 	bl	5000109c <putc>
50001e60:	e354000a 	cmp	r4, #10	; 0xa
50001e64:	1354000d 	cmpne	r4, #13	; 0xd
50001e68:	17c54006 	strbne	r4, [r5, r6]
50001e6c:	12855001 	addne	r5, r5, #1	; 0x1
50001e70:	1afffff7 	bne	50001e54 <scanf+0x10>
50001e74:	e3a03000 	mov	r3, #0	; 0x0
50001e78:	e59d1010 	ldr	r1, [sp, #16]
50001e7c:	e28d2014 	add	r2, sp, #20	; 0x14
50001e80:	e59f0010 	ldr	r0, [pc, #16]	; 50001e98 <scanf+0x54>
50001e84:	e7c63005 	strb	r3, [r6, r5]
50001e88:	eb000313 	bl	50002adc <vsscanf>
50001e8c:	e8bd4070 	pop	{r4, r5, r6, lr}
50001e90:	e28dd010 	add	sp, sp, #16	; 0x10
50001e94:	e12fff1e 	bx	lr
50001e98:	50005238 	.word	0x50005238

50001e9c <printf>:
50001e9c:	e92d000f 	push	{r0, r1, r2, r3}
50001ea0:	e92d4070 	push	{r4, r5, r6, lr}
50001ea4:	e59f0044 	ldr	r0, [pc, #68]	; 50001ef0 <printf+0x54>
50001ea8:	e59d1010 	ldr	r1, [sp, #16]
50001eac:	e28d2014 	add	r2, sp, #20	; 0x14
50001eb0:	eb0005a9 	bl	5000355c <vsprintf>
50001eb4:	e59f6034 	ldr	r6, [pc, #52]	; 50001ef0 <printf+0x54>
50001eb8:	e1a05000 	mov	r5, r0
50001ebc:	e3a04000 	mov	r4, #0	; 0x0
50001ec0:	ea000002 	b	50001ed0 <printf+0x34>
50001ec4:	e7d40006 	ldrb	r0, [r4, r6]
50001ec8:	ebfffc73 	bl	5000109c <putc>
50001ecc:	e2844001 	add	r4, r4, #1	; 0x1
50001ed0:	e1a00006 	mov	r0, r6
50001ed4:	eb00009d 	bl	50002150 <strlen>
50001ed8:	e1540000 	cmp	r4, r0
50001edc:	3afffff8 	bcc	50001ec4 <printf+0x28>
50001ee0:	e1a00005 	mov	r0, r5
50001ee4:	e8bd4070 	pop	{r4, r5, r6, lr}
50001ee8:	e28dd010 	add	sp, sp, #16	; 0x10
50001eec:	e12fff1e 	bx	lr
50001ef0:	50004e38 	.word	0x50004e38

50001ef4 <strtoul>:
50001ef4:	e3520000 	cmp	r2, #0	; 0x0
50001ef8:	e92d4030 	push	{r4, r5, lr}
50001efc:	e1a05001 	mov	r5, r1
50001f00:	1a000018 	bne	50001f68 <strtoul+0x74>
50001f04:	e5d03000 	ldrb	r3, [r0]
50001f08:	e3530030 	cmp	r3, #48	; 0x30
50001f0c:	13a0200a 	movne	r2, #10	; 0xa
50001f10:	1a000011 	bne	50001f5c <strtoul+0x68>
50001f14:	e5f02001 	ldrb	r2, [r0, #1]!
50001f18:	e59f30d8 	ldr	r3, [pc, #216]	; 50001ff8 <strtoul+0x104>
50001f1c:	e7d33002 	ldrb	r3, [r3, r2]
50001f20:	e3130002 	tst	r3, #2	; 0x2
50001f24:	12423020 	subne	r3, r2, #32	; 0x20
50001f28:	01a03002 	moveq	r3, r2
50001f2c:	120330ff 	andne	r3, r3, #255	; 0xff
50001f30:	e3530058 	cmp	r3, #88	; 0x58
50001f34:	1a000007 	bne	50001f58 <strtoul+0x64>
50001f38:	e5d03001 	ldrb	r3, [r0, #1]
50001f3c:	e59f20b4 	ldr	r2, [pc, #180]	; 50001ff8 <strtoul+0x104>
50001f40:	e7d23003 	ldrb	r3, [r2, r3]
50001f44:	e3130044 	tst	r3, #68	; 0x44
50001f48:	e2803001 	add	r3, r0, #1	; 0x1
50001f4c:	11a00003 	movne	r0, r3
50001f50:	13a02010 	movne	r2, #16	; 0x10
50001f54:	1a000000 	bne	50001f5c <strtoul+0x68>
50001f58:	e3a02008 	mov	r2, #8	; 0x8
50001f5c:	e59f4094 	ldr	r4, [pc, #148]	; 50001ff8 <strtoul+0x104>
50001f60:	e3a01000 	mov	r1, #0	; 0x0
50001f64:	ea000010 	b	50001fac <strtoul+0xb8>
50001f68:	e3520010 	cmp	r2, #16	; 0x10
50001f6c:	1afffffa 	bne	50001f5c <strtoul+0x68>
50001f70:	e5d03000 	ldrb	r3, [r0]
50001f74:	e3530030 	cmp	r3, #48	; 0x30
50001f78:	1afffff7 	bne	50001f5c <strtoul+0x68>
50001f7c:	e5d0c001 	ldrb	ip, [r0, #1]
50001f80:	e59f3070 	ldr	r3, [pc, #112]	; 50001ff8 <strtoul+0x104>
50001f84:	e7d3300c 	ldrb	r3, [r3, ip]
50001f88:	e3130002 	tst	r3, #2	; 0x2
50001f8c:	124c3020 	subne	r3, ip, #32	; 0x20
50001f90:	01a0300c 	moveq	r3, ip
50001f94:	120330ff 	andne	r3, r3, #255	; 0xff
50001f98:	e3530058 	cmp	r3, #88	; 0x58
50001f9c:	02800002 	addeq	r0, r0, #2	; 0x2
50001fa0:	eaffffed 	b	50001f5c <strtoul+0x68>
50001fa4:	e021e192 	mla	r1, r2, r1, lr
50001fa8:	e2800001 	add	r0, r0, #1	; 0x1
50001fac:	e5d0c000 	ldrb	ip, [r0]
50001fb0:	e7d4300c 	ldrb	r3, [r4, ip]
50001fb4:	e3130044 	tst	r3, #68	; 0x44
50001fb8:	e24ce030 	sub	lr, ip, #48	; 0x30
50001fbc:	0a000008 	beq	50001fe4 <strtoul+0xf0>
50001fc0:	e3130004 	tst	r3, #4	; 0x4
50001fc4:	1a000004 	bne	50001fdc <strtoul+0xe8>
50001fc8:	e3130002 	tst	r3, #2	; 0x2
50001fcc:	e24c3020 	sub	r3, ip, #32	; 0x20
50001fd0:	e1a0e00c 	mov	lr, ip
50001fd4:	1203e0ff 	andne	lr, r3, #255	; 0xff
50001fd8:	e24ee037 	sub	lr, lr, #55	; 0x37
50001fdc:	e15e0002 	cmp	lr, r2
50001fe0:	3affffef 	bcc	50001fa4 <strtoul+0xb0>
50001fe4:	e3550000 	cmp	r5, #0	; 0x0
50001fe8:	15850000 	strne	r0, [r5]
50001fec:	e1a00001 	mov	r0, r1
50001ff0:	e8bd4030 	pop	{r4, r5, lr}
50001ff4:	e12fff1e 	bx	lr
50001ff8:	5000451c 	.word	0x5000451c

50001ffc <strcpy>:
50001ffc:	e1a02000 	mov	r2, r0
50002000:	e4d13001 	ldrb	r3, [r1], #1
50002004:	e3530000 	cmp	r3, #0	; 0x0
50002008:	e4c23001 	strb	r3, [r2], #1
5000200c:	1afffffb 	bne	50002000 <strcpy+0x4>
50002010:	e12fff1e 	bx	lr

50002014 <strncpy>:
50002014:	e1a0c000 	mov	ip, r0
50002018:	e2522001 	subs	r2, r2, #1	; 0x1
5000201c:	312fff1e 	bxcc	lr
50002020:	e5d13000 	ldrb	r3, [r1]
50002024:	e3530000 	cmp	r3, #0	; 0x0
50002028:	e5cc3000 	strb	r3, [ip]
5000202c:	e2811001 	add	r1, r1, #1	; 0x1
50002030:	e28cc001 	add	ip, ip, #1	; 0x1
50002034:	1afffff7 	bne	50002018 <strncpy+0x4>
50002038:	e12fff1e 	bx	lr

5000203c <strcat>:
5000203c:	e1a02000 	mov	r2, r0
50002040:	ea000000 	b	50002048 <strcat+0xc>
50002044:	e2822001 	add	r2, r2, #1	; 0x1
50002048:	e5d23000 	ldrb	r3, [r2]
5000204c:	e3530000 	cmp	r3, #0	; 0x0
50002050:	1afffffb 	bne	50002044 <strcat+0x8>
50002054:	e4d13001 	ldrb	r3, [r1], #1
50002058:	e3530000 	cmp	r3, #0	; 0x0
5000205c:	e4c23001 	strb	r3, [r2], #1
50002060:	1afffffb 	bne	50002054 <strcat+0x18>
50002064:	e12fff1e 	bx	lr

50002068 <strncat>:
50002068:	e3520000 	cmp	r2, #0	; 0x0
5000206c:	11a0c000 	movne	ip, r0
50002070:	012fff1e 	bxeq	lr
50002074:	ea000000 	b	5000207c <strncat+0x14>
50002078:	e28cc001 	add	ip, ip, #1	; 0x1
5000207c:	e5dc3000 	ldrb	r3, [ip]
50002080:	e3530000 	cmp	r3, #0	; 0x0
50002084:	1afffffb 	bne	50002078 <strncat+0x10>
50002088:	ea000003 	b	5000209c <strncat+0x34>
5000208c:	e2522001 	subs	r2, r2, #1	; 0x1
50002090:	1a000001 	bne	5000209c <strncat+0x34>
50002094:	e5cc2000 	strb	r2, [ip]
50002098:	e12fff1e 	bx	lr
5000209c:	e4d13001 	ldrb	r3, [r1], #1
500020a0:	e3530000 	cmp	r3, #0	; 0x0
500020a4:	e5cc3000 	strb	r3, [ip]
500020a8:	e28cc001 	add	ip, ip, #1	; 0x1
500020ac:	1afffff6 	bne	5000208c <strncat+0x24>
500020b0:	e12fff1e 	bx	lr

500020b4 <strcmp>:
500020b4:	e5d02000 	ldrb	r2, [r0]
500020b8:	e4d13001 	ldrb	r3, [r1], #1
500020bc:	e0633002 	rsb	r3, r3, r2
500020c0:	e21330ff 	ands	r3, r3, #255	; 0xff
500020c4:	e2800001 	add	r0, r0, #1	; 0x1
500020c8:	1a000001 	bne	500020d4 <strcmp+0x20>
500020cc:	e3520000 	cmp	r2, #0	; 0x0
500020d0:	1afffff7 	bne	500020b4 <strcmp>
500020d4:	e1a00c03 	lsl	r0, r3, #24
500020d8:	e1a00c40 	asr	r0, r0, #24
500020dc:	e12fff1e 	bx	lr

500020e0 <strncmp>:
500020e0:	e3a03000 	mov	r3, #0	; 0x0
500020e4:	ea000008 	b	5000210c <strncmp+0x2c>
500020e8:	e5d0c000 	ldrb	ip, [r0]
500020ec:	e5d13000 	ldrb	r3, [r1]
500020f0:	e063300c 	rsb	r3, r3, ip
500020f4:	e21330ff 	ands	r3, r3, #255	; 0xff
500020f8:	e2811001 	add	r1, r1, #1	; 0x1
500020fc:	e2800001 	add	r0, r0, #1	; 0x1
50002100:	1a000004 	bne	50002118 <strncmp+0x38>
50002104:	e35c0000 	cmp	ip, #0	; 0x0
50002108:	0a000002 	beq	50002118 <strncmp+0x38>
5000210c:	e3520000 	cmp	r2, #0	; 0x0
50002110:	e2422001 	sub	r2, r2, #1	; 0x1
50002114:	1afffff3 	bne	500020e8 <strncmp+0x8>
50002118:	e1a00c03 	lsl	r0, r3, #24
5000211c:	e1a00c40 	asr	r0, r0, #24
50002120:	e12fff1e 	bx	lr

50002124 <strchr>:
50002124:	e1a03000 	mov	r3, r0
50002128:	e20110ff 	and	r1, r1, #255	; 0xff
5000212c:	ea000002 	b	5000213c <strchr+0x18>
50002130:	e3500000 	cmp	r0, #0	; 0x0
50002134:	012fff1e 	bxeq	lr
50002138:	e2833001 	add	r3, r3, #1	; 0x1
5000213c:	e5d30000 	ldrb	r0, [r3]
50002140:	e1500001 	cmp	r0, r1
50002144:	1afffff9 	bne	50002130 <strchr+0xc>
50002148:	e1a00003 	mov	r0, r3
5000214c:	e12fff1e 	bx	lr

50002150 <strlen>:
50002150:	e1a02000 	mov	r2, r0
50002154:	ea000000 	b	5000215c <strlen+0xc>
50002158:	e2800001 	add	r0, r0, #1	; 0x1
5000215c:	e5d03000 	ldrb	r3, [r0]
50002160:	e3530000 	cmp	r3, #0	; 0x0
50002164:	1afffffb 	bne	50002158 <strlen+0x8>
50002168:	e0620000 	rsb	r0, r2, r0
5000216c:	e12fff1e 	bx	lr

50002170 <strrchr>:
50002170:	e92d4030 	push	{r4, r5, lr}
50002174:	e24dd004 	sub	sp, sp, #4	; 0x4
50002178:	e1a04001 	mov	r4, r1
5000217c:	e1a05000 	mov	r5, r0
50002180:	ebfffff2 	bl	50002150 <strlen>
50002184:	e20440ff 	and	r4, r4, #255	; 0xff
50002188:	e0850000 	add	r0, r5, r0
5000218c:	e5d03000 	ldrb	r3, [r0]
50002190:	e1530004 	cmp	r3, r4
50002194:	0a000003 	beq	500021a8 <strrchr+0x38>
50002198:	e2400001 	sub	r0, r0, #1	; 0x1
5000219c:	e1500005 	cmp	r0, r5
500021a0:	2afffff9 	bcs	5000218c <strrchr+0x1c>
500021a4:	e3a00000 	mov	r0, #0	; 0x0
500021a8:	e28dd004 	add	sp, sp, #4	; 0x4
500021ac:	e8bd4030 	pop	{r4, r5, lr}
500021b0:	e12fff1e 	bx	lr

500021b4 <strnlen>:
500021b4:	e1a02000 	mov	r2, r0
500021b8:	ea000000 	b	500021c0 <strnlen+0xc>
500021bc:	e2800001 	add	r0, r0, #1	; 0x1
500021c0:	e2511001 	subs	r1, r1, #1	; 0x1
500021c4:	3a000002 	bcc	500021d4 <strnlen+0x20>
500021c8:	e5d03000 	ldrb	r3, [r0]
500021cc:	e3530000 	cmp	r3, #0	; 0x0
500021d0:	1afffff9 	bne	500021bc <strnlen+0x8>
500021d4:	e0620000 	rsb	r0, r2, r0
500021d8:	e12fff1e 	bx	lr

500021dc <strspn>:
500021dc:	e52de004 	push	{lr}		; (str lr, [sp, #-4]!)
500021e0:	e1a0e000 	mov	lr, r0
500021e4:	e3a00000 	mov	r0, #0	; 0x0
500021e8:	ea000007 	b	5000220c <strspn+0x30>
500021ec:	e15c0002 	cmp	ip, r2
500021f0:	0a000004 	beq	50002208 <strspn+0x2c>
500021f4:	e5d32000 	ldrb	r2, [r3]
500021f8:	e3520000 	cmp	r2, #0	; 0x0
500021fc:	e2833001 	add	r3, r3, #1	; 0x1
50002200:	1afffff9 	bne	500021ec <strspn+0x10>
50002204:	ea000004 	b	5000221c <strspn+0x40>
50002208:	e2800001 	add	r0, r0, #1	; 0x1
5000220c:	e7d0c00e 	ldrb	ip, [r0, lr]
50002210:	e35c0000 	cmp	ip, #0	; 0x0
50002214:	11a03001 	movne	r3, r1
50002218:	1afffff5 	bne	500021f4 <strspn+0x18>
5000221c:	e49de004 	pop	{lr}		; (ldr lr, [sp], #4)
50002220:	e12fff1e 	bx	lr

50002224 <strpbrk>:
50002224:	e1a02000 	mov	r2, r0
50002228:	ea000008 	b	50002250 <strpbrk+0x2c>
5000222c:	e150000c 	cmp	r0, ip
50002230:	1a000001 	bne	5000223c <strpbrk+0x18>
50002234:	e1a00002 	mov	r0, r2
50002238:	e12fff1e 	bx	lr
5000223c:	e5d3c000 	ldrb	ip, [r3]
50002240:	e35c0000 	cmp	ip, #0	; 0x0
50002244:	e2833001 	add	r3, r3, #1	; 0x1
50002248:	1afffff7 	bne	5000222c <strpbrk+0x8>
5000224c:	e2822001 	add	r2, r2, #1	; 0x1
50002250:	e5d20000 	ldrb	r0, [r2]
50002254:	e3500000 	cmp	r0, #0	; 0x0
50002258:	012fff1e 	bxeq	lr
5000225c:	e1a03001 	mov	r3, r1
50002260:	eafffff5 	b	5000223c <strpbrk+0x18>

50002264 <strtok>:
50002264:	e92d4030 	push	{r4, r5, lr}
50002268:	e3500000 	cmp	r0, #0	; 0x0
5000226c:	e24dd004 	sub	sp, sp, #4	; 0x4
50002270:	e1a05001 	mov	r5, r1
50002274:	11a04000 	movne	r4, r0
50002278:	1a000003 	bne	5000228c <strtok+0x28>
5000227c:	e59f306c 	ldr	r3, [pc, #108]	; 500022f0 <strtok+0x8c>
50002280:	e5934000 	ldr	r4, [r3]
50002284:	e3540000 	cmp	r4, #0	; 0x0
50002288:	0a000014 	beq	500022e0 <strtok+0x7c>
5000228c:	e1a00004 	mov	r0, r4
50002290:	e1a01005 	mov	r1, r5
50002294:	ebffffd0 	bl	500021dc <strspn>
50002298:	e0844000 	add	r4, r4, r0
5000229c:	e5d42000 	ldrb	r2, [r4]
500022a0:	e3520000 	cmp	r2, #0	; 0x0
500022a4:	059f3044 	ldreq	r3, [pc, #68]	; 500022f0 <strtok+0x8c>
500022a8:	01a04002 	moveq	r4, r2
500022ac:	05832000 	streq	r2, [r3]
500022b0:	0a00000a 	beq	500022e0 <strtok+0x7c>
500022b4:	e1a01005 	mov	r1, r5
500022b8:	e1a00004 	mov	r0, r4
500022bc:	ebffffd8 	bl	50002224 <strpbrk>
500022c0:	e3500000 	cmp	r0, #0	; 0x0
500022c4:	0a000003 	beq	500022d8 <strtok+0x74>
500022c8:	e5d03000 	ldrb	r3, [r0]
500022cc:	e3530000 	cmp	r3, #0	; 0x0
500022d0:	13a03000 	movne	r3, #0	; 0x0
500022d4:	14c03001 	strbne	r3, [r0], #1
500022d8:	e59f3010 	ldr	r3, [pc, #16]	; 500022f0 <strtok+0x8c>
500022dc:	e5830000 	str	r0, [r3]
500022e0:	e1a00004 	mov	r0, r4
500022e4:	e28dd004 	add	sp, sp, #4	; 0x4
500022e8:	e8bd4030 	pop	{r4, r5, lr}
500022ec:	e12fff1e 	bx	lr
500022f0:	50005648 	.word	0x50005648

500022f4 <strsep>:
500022f4:	e92d4030 	push	{r4, r5, lr}
500022f8:	e5904000 	ldr	r4, [r0]
500022fc:	e3540000 	cmp	r4, #0	; 0x0
50002300:	e24dd004 	sub	sp, sp, #4	; 0x4
50002304:	e1a05000 	mov	r5, r0
50002308:	0a000005 	beq	50002324 <strsep+0x30>
5000230c:	e1a00004 	mov	r0, r4
50002310:	ebffffc3 	bl	50002224 <strpbrk>
50002314:	e3500000 	cmp	r0, #0	; 0x0
50002318:	13a03000 	movne	r3, #0	; 0x0
5000231c:	14c03001 	strbne	r3, [r0], #1
50002320:	e5850000 	str	r0, [r5]
50002324:	e1a00004 	mov	r0, r4
50002328:	e28dd004 	add	sp, sp, #4	; 0x4
5000232c:	e8bd4030 	pop	{r4, r5, lr}
50002330:	e12fff1e 	bx	lr

50002334 <memset>:
50002334:	e3a03000 	mov	r3, #0	; 0x0
50002338:	ea000001 	b	50002344 <memset+0x10>
5000233c:	e7c31000 	strb	r1, [r3, r0]
50002340:	e2833001 	add	r3, r3, #1	; 0x1
50002344:	e2522001 	subs	r2, r2, #1	; 0x1
50002348:	2afffffb 	bcs	5000233c <memset+0x8>
5000234c:	e12fff1e 	bx	lr

50002350 <bcopy>:
50002350:	e3a0c000 	mov	ip, #0	; 0x0
50002354:	ea000002 	b	50002364 <bcopy+0x14>
50002358:	e7dc3000 	ldrb	r3, [ip, r0]
5000235c:	e7cc3001 	strb	r3, [ip, r1]
50002360:	e28cc001 	add	ip, ip, #1	; 0x1
50002364:	e2522001 	subs	r2, r2, #1	; 0x1
50002368:	2afffffa 	bcs	50002358 <bcopy+0x8>
5000236c:	e12fff1e 	bx	lr

50002370 <memcpy>:
50002370:	e3a0c000 	mov	ip, #0	; 0x0
50002374:	ea000002 	b	50002384 <memcpy+0x14>
50002378:	e7dc3001 	ldrb	r3, [ip, r1]
5000237c:	e7cc3000 	strb	r3, [ip, r0]
50002380:	e28cc001 	add	ip, ip, #1	; 0x1
50002384:	e2522001 	subs	r2, r2, #1	; 0x1
50002388:	2afffffa 	bcs	50002378 <memcpy+0x8>
5000238c:	e12fff1e 	bx	lr

50002390 <memmove>:
50002390:	e1500001 	cmp	r0, r1
50002394:	93a0c000 	movls	ip, #0	; 0x0
50002398:	9a000003 	bls	500023ac <memmove+0x1c>
5000239c:	ea000005 	b	500023b8 <memmove+0x28>
500023a0:	e7dc3001 	ldrb	r3, [ip, r1]
500023a4:	e7cc3000 	strb	r3, [ip, r0]
500023a8:	e28cc001 	add	ip, ip, #1	; 0x1
500023ac:	e2522001 	subs	r2, r2, #1	; 0x1
500023b0:	2afffffa 	bcs	500023a0 <memmove+0x10>
500023b4:	e12fff1e 	bx	lr
500023b8:	e0811002 	add	r1, r1, r2
500023bc:	e080c002 	add	ip, r0, r2
500023c0:	ea000001 	b	500023cc <memmove+0x3c>
500023c4:	e5713001 	ldrb	r3, [r1, #-1]!
500023c8:	e56c3001 	strb	r3, [ip, #-1]!
500023cc:	e2522001 	subs	r2, r2, #1	; 0x1
500023d0:	2afffffb 	bcs	500023c4 <memmove+0x34>
500023d4:	e12fff1e 	bx	lr

500023d8 <memcmp>:
500023d8:	e92d4010 	push	{r4, lr}
500023dc:	e1a0c002 	mov	ip, r2
500023e0:	e1a04000 	mov	r4, r0
500023e4:	e3a0e000 	mov	lr, #0	; 0x0
500023e8:	ea000005 	b	50002404 <memcmp+0x2c>
500023ec:	e7de2004 	ldrb	r2, [lr, r4]
500023f0:	e7de3001 	ldrb	r3, [lr, r1]
500023f4:	e0520003 	subs	r0, r2, r3
500023f8:	e28ee001 	add	lr, lr, #1	; 0x1
500023fc:	1a000003 	bne	50002410 <memcmp+0x38>
50002400:	e24cc001 	sub	ip, ip, #1	; 0x1
50002404:	e35c0000 	cmp	ip, #0	; 0x0
50002408:	1afffff7 	bne	500023ec <memcmp+0x14>
5000240c:	e1a0000c 	mov	r0, ip
50002410:	e8bd4010 	pop	{r4, lr}
50002414:	e12fff1e 	bx	lr

50002418 <memscan>:
50002418:	ea000003 	b	5000242c <memscan+0x14>
5000241c:	e5d03000 	ldrb	r3, [r0]
50002420:	e1530001 	cmp	r3, r1
50002424:	012fff1e 	bxeq	lr
50002428:	e2800001 	add	r0, r0, #1	; 0x1
5000242c:	e3520000 	cmp	r2, #0	; 0x0
50002430:	e2422001 	sub	r2, r2, #1	; 0x1
50002434:	1afffff8 	bne	5000241c <memscan+0x4>
50002438:	e12fff1e 	bx	lr

5000243c <strstr>:
5000243c:	e92d40f0 	push	{r4, r5, r6, r7, lr}
50002440:	e1a04000 	mov	r4, r0
50002444:	e24dd004 	sub	sp, sp, #4	; 0x4
50002448:	e1a00001 	mov	r0, r1
5000244c:	e1a07001 	mov	r7, r1
50002450:	ebffff3e 	bl	50002150 <strlen>
50002454:	e2506000 	subs	r6, r0, #0	; 0x0
50002458:	0a000006 	beq	50002478 <strstr+0x3c>
5000245c:	e1a00004 	mov	r0, r4
50002460:	ebffff3a 	bl	50002150 <strlen>
50002464:	e1a05000 	mov	r5, r0
50002468:	ea000005 	b	50002484 <strstr+0x48>
5000246c:	ebffffd9 	bl	500023d8 <memcmp>
50002470:	e3500000 	cmp	r0, #0	; 0x0
50002474:	1a000001 	bne	50002480 <strstr+0x44>
50002478:	e1a00004 	mov	r0, r4
5000247c:	ea000007 	b	500024a0 <strstr+0x64>
50002480:	e2844001 	add	r4, r4, #1	; 0x1
50002484:	e1550006 	cmp	r5, r6
50002488:	e1a00004 	mov	r0, r4
5000248c:	e1a01007 	mov	r1, r7
50002490:	e1a02006 	mov	r2, r6
50002494:	e2455001 	sub	r5, r5, #1	; 0x1
50002498:	aafffff3 	bge	5000246c <strstr+0x30>
5000249c:	e3a00000 	mov	r0, #0	; 0x0
500024a0:	e28dd004 	add	sp, sp, #4	; 0x4
500024a4:	e8bd40f0 	pop	{r4, r5, r6, r7, lr}
500024a8:	e12fff1e 	bx	lr

500024ac <memchr>:
500024ac:	e20110ff 	and	r1, r1, #255	; 0xff
500024b0:	ea000004 	b	500024c8 <memchr+0x1c>
500024b4:	e4d03001 	ldrb	r3, [r0], #1
500024b8:	e1510003 	cmp	r1, r3
500024bc:	1a000001 	bne	500024c8 <memchr+0x1c>
500024c0:	e2400001 	sub	r0, r0, #1	; 0x1
500024c4:	e12fff1e 	bx	lr
500024c8:	e2522001 	subs	r2, r2, #1	; 0x1
500024cc:	2afffff8 	bcs	500024b4 <memchr+0x8>
500024d0:	e3a00000 	mov	r0, #0	; 0x0
500024d4:	e12fff1e 	bx	lr

500024d8 <strnicmp>:
500024d8:	e3520000 	cmp	r2, #0	; 0x0
500024dc:	e92d4030 	push	{r4, r5, lr}
500024e0:	e1a04000 	mov	r4, r0
500024e4:	01a00002 	moveq	r0, r2
500024e8:	01a0c000 	moveq	ip, r0
500024ec:	0a000014 	beq	50002544 <strnicmp+0x6c>
500024f0:	e59f5058 	ldr	r5, [pc, #88]	; 50002550 <strnicmp+0x78>
500024f4:	e4d40001 	ldrb	r0, [r4], #1
500024f8:	e3500000 	cmp	r0, #0	; 0x0
500024fc:	e4d1c001 	ldrb	ip, [r1], #1
50002500:	0a00000f 	beq	50002544 <strnicmp+0x6c>
50002504:	e35c0000 	cmp	ip, #0	; 0x0
50002508:	0a00000d 	beq	50002544 <strnicmp+0x6c>
5000250c:	e150000c 	cmp	r0, ip
50002510:	0a000009 	beq	5000253c <strnicmp+0x64>
50002514:	e7d53000 	ldrb	r3, [r5, r0]
50002518:	e3130001 	tst	r3, #1	; 0x1
5000251c:	e2803020 	add	r3, r0, #32	; 0x20
50002520:	120300ff 	andne	r0, r3, #255	; 0xff
50002524:	e7d5300c 	ldrb	r3, [r5, ip]
50002528:	e28ce020 	add	lr, ip, #32	; 0x20
5000252c:	e3130001 	tst	r3, #1	; 0x1
50002530:	120ec0ff 	andne	ip, lr, #255	; 0xff
50002534:	e150000c 	cmp	r0, ip
50002538:	1a000001 	bne	50002544 <strnicmp+0x6c>
5000253c:	e2522001 	subs	r2, r2, #1	; 0x1
50002540:	1affffeb 	bne	500024f4 <strnicmp+0x1c>
50002544:	e06c0000 	rsb	r0, ip, r0
50002548:	e8bd4030 	pop	{r4, r5, lr}
5000254c:	e12fff1e 	bx	lr
50002550:	5000451c 	.word	0x5000451c

50002554 <simple_strtoul>:
50002554:	e3520000 	cmp	r2, #0	; 0x0
50002558:	e92d4030 	push	{r4, r5, lr}
5000255c:	e1a05001 	mov	r5, r1
50002560:	1a000018 	bne	500025c8 <simple_strtoul+0x74>
50002564:	e5d03000 	ldrb	r3, [r0]
50002568:	e3530030 	cmp	r3, #48	; 0x30
5000256c:	13a0200a 	movne	r2, #10	; 0xa
50002570:	1a000011 	bne	500025bc <simple_strtoul+0x68>
50002574:	e5f02001 	ldrb	r2, [r0, #1]!
50002578:	e59f30d8 	ldr	r3, [pc, #216]	; 50002658 <simple_strtoul+0x104>
5000257c:	e7d33002 	ldrb	r3, [r3, r2]
50002580:	e3130002 	tst	r3, #2	; 0x2
50002584:	12423020 	subne	r3, r2, #32	; 0x20
50002588:	01a03002 	moveq	r3, r2
5000258c:	120330ff 	andne	r3, r3, #255	; 0xff
50002590:	e3530058 	cmp	r3, #88	; 0x58
50002594:	1a000007 	bne	500025b8 <simple_strtoul+0x64>
50002598:	e5d03001 	ldrb	r3, [r0, #1]
5000259c:	e59f20b4 	ldr	r2, [pc, #180]	; 50002658 <simple_strtoul+0x104>
500025a0:	e7d23003 	ldrb	r3, [r2, r3]
500025a4:	e3130044 	tst	r3, #68	; 0x44
500025a8:	e2803001 	add	r3, r0, #1	; 0x1
500025ac:	11a00003 	movne	r0, r3
500025b0:	13a02010 	movne	r2, #16	; 0x10
500025b4:	1a000000 	bne	500025bc <simple_strtoul+0x68>
500025b8:	e3a02008 	mov	r2, #8	; 0x8
500025bc:	e59f4094 	ldr	r4, [pc, #148]	; 50002658 <simple_strtoul+0x104>
500025c0:	e3a01000 	mov	r1, #0	; 0x0
500025c4:	ea000010 	b	5000260c <simple_strtoul+0xb8>
500025c8:	e3520010 	cmp	r2, #16	; 0x10
500025cc:	1afffffa 	bne	500025bc <simple_strtoul+0x68>
500025d0:	e5d03000 	ldrb	r3, [r0]
500025d4:	e3530030 	cmp	r3, #48	; 0x30
500025d8:	1afffff7 	bne	500025bc <simple_strtoul+0x68>
500025dc:	e5d0c001 	ldrb	ip, [r0, #1]
500025e0:	e59f3070 	ldr	r3, [pc, #112]	; 50002658 <simple_strtoul+0x104>
500025e4:	e7d3300c 	ldrb	r3, [r3, ip]
500025e8:	e3130002 	tst	r3, #2	; 0x2
500025ec:	124c3020 	subne	r3, ip, #32	; 0x20
500025f0:	01a0300c 	moveq	r3, ip
500025f4:	120330ff 	andne	r3, r3, #255	; 0xff
500025f8:	e3530058 	cmp	r3, #88	; 0x58
500025fc:	02800002 	addeq	r0, r0, #2	; 0x2
50002600:	eaffffed 	b	500025bc <simple_strtoul+0x68>
50002604:	e021e192 	mla	r1, r2, r1, lr
50002608:	e2800001 	add	r0, r0, #1	; 0x1
5000260c:	e5d0c000 	ldrb	ip, [r0]
50002610:	e7d4300c 	ldrb	r3, [r4, ip]
50002614:	e3130044 	tst	r3, #68	; 0x44
50002618:	e24ce030 	sub	lr, ip, #48	; 0x30
5000261c:	0a000008 	beq	50002644 <simple_strtoul+0xf0>
50002620:	e3130004 	tst	r3, #4	; 0x4
50002624:	1a000004 	bne	5000263c <simple_strtoul+0xe8>
50002628:	e3130002 	tst	r3, #2	; 0x2
5000262c:	e24c3020 	sub	r3, ip, #32	; 0x20
50002630:	e1a0e00c 	mov	lr, ip
50002634:	1203e0ff 	andne	lr, r3, #255	; 0xff
50002638:	e24ee037 	sub	lr, lr, #55	; 0x37
5000263c:	e15e0002 	cmp	lr, r2
50002640:	3affffef 	bcc	50002604 <simple_strtoul+0xb0>
50002644:	e3550000 	cmp	r5, #0	; 0x0
50002648:	15850000 	strne	r0, [r5]
5000264c:	e1a00001 	mov	r0, r1
50002650:	e8bd4030 	pop	{r4, r5, lr}
50002654:	e12fff1e 	bx	lr
50002658:	5000451c 	.word	0x5000451c

5000265c <simple_strtol>:
5000265c:	e52de004 	push	{lr}		; (str lr, [sp, #-4]!)
50002660:	e5d03000 	ldrb	r3, [r0]
50002664:	e353002d 	cmp	r3, #45	; 0x2d
50002668:	e24dd004 	sub	sp, sp, #4	; 0x4
5000266c:	0a000002 	beq	5000267c <simple_strtol+0x20>
50002670:	e28dd004 	add	sp, sp, #4	; 0x4
50002674:	e49de004 	pop	{lr}		; (ldr lr, [sp], #4)
50002678:	eaffffb5 	b	50002554 <simple_strtoul>
5000267c:	e2800001 	add	r0, r0, #1	; 0x1
50002680:	ebffffb3 	bl	50002554 <simple_strtoul>
50002684:	e2600000 	rsb	r0, r0, #0	; 0x0
50002688:	e28dd004 	add	sp, sp, #4	; 0x4
5000268c:	e49de004 	pop	{lr}		; (ldr lr, [sp], #4)
50002690:	e12fff1e 	bx	lr

50002694 <simple_strtoull>:
50002694:	e3520000 	cmp	r2, #0	; 0x0
50002698:	e92d47f0 	push	{r4, r5, r6, r7, r8, r9, sl, lr}
5000269c:	e1a0a001 	mov	sl, r1
500026a0:	1a00001b 	bne	50002714 <simple_strtoull+0x80>
500026a4:	e5d03000 	ldrb	r3, [r0]
500026a8:	e3530030 	cmp	r3, #48	; 0x30
500026ac:	13a0200a 	movne	r2, #10	; 0xa
500026b0:	1a000011 	bne	500026fc <simple_strtoull+0x68>
500026b4:	e5f02001 	ldrb	r2, [r0, #1]!
500026b8:	e59f3104 	ldr	r3, [pc, #260]	; 500027c4 <simple_strtoull+0x130>
500026bc:	e7d33002 	ldrb	r3, [r3, r2]
500026c0:	e3130002 	tst	r3, #2	; 0x2
500026c4:	12423020 	subne	r3, r2, #32	; 0x20
500026c8:	01a03002 	moveq	r3, r2
500026cc:	120330ff 	andne	r3, r3, #255	; 0xff
500026d0:	e3530058 	cmp	r3, #88	; 0x58
500026d4:	1a000007 	bne	500026f8 <simple_strtoull+0x64>
500026d8:	e5d03001 	ldrb	r3, [r0, #1]
500026dc:	e59f20e0 	ldr	r2, [pc, #224]	; 500027c4 <simple_strtoull+0x130>
500026e0:	e7d23003 	ldrb	r3, [r2, r3]
500026e4:	e3130044 	tst	r3, #68	; 0x44
500026e8:	e2803001 	add	r3, r0, #1	; 0x1
500026ec:	11a00003 	movne	r0, r3
500026f0:	13a02010 	movne	r2, #16	; 0x10
500026f4:	1a000000 	bne	500026fc <simple_strtoull+0x68>
500026f8:	e3a02008 	mov	r2, #8	; 0x8
500026fc:	e59f90c0 	ldr	r9, [pc, #192]	; 500027c4 <simple_strtoull+0x130>
50002700:	e1a05002 	mov	r5, r2
50002704:	e3a06000 	mov	r6, #0	; 0x0
50002708:	e3a07000 	mov	r7, #0	; 0x0
5000270c:	e3a08000 	mov	r8, #0	; 0x0
50002710:	ea000013 	b	50002764 <simple_strtoull+0xd0>
50002714:	e3520010 	cmp	r2, #16	; 0x10
50002718:	1afffff7 	bne	500026fc <simple_strtoull+0x68>
5000271c:	e5d03000 	ldrb	r3, [r0]
50002720:	e3530030 	cmp	r3, #48	; 0x30
50002724:	1afffff4 	bne	500026fc <simple_strtoull+0x68>
50002728:	e5d0c001 	ldrb	ip, [r0, #1]
5000272c:	e59f3090 	ldr	r3, [pc, #144]	; 500027c4 <simple_strtoull+0x130>
50002730:	e7d3300c 	ldrb	r3, [r3, ip]
50002734:	e3130002 	tst	r3, #2	; 0x2
50002738:	124c3020 	subne	r3, ip, #32	; 0x20
5000273c:	01a0300c 	moveq	r3, ip
50002740:	120330ff 	andne	r3, r3, #255	; 0xff
50002744:	e3530058 	cmp	r3, #88	; 0x58
50002748:	02800002 	addeq	r0, r0, #2	; 0x2
5000274c:	eaffffea 	b	500026fc <simple_strtoull+0x68>
50002750:	e0843597 	umull	r3, r4, r7, r5
50002754:	e0244895 	mla	r4, r5, r8, r4
50002758:	e0917003 	adds	r7, r1, r3
5000275c:	e0a28004 	adc	r8, r2, r4
50002760:	e2800001 	add	r0, r0, #1	; 0x1
50002764:	e5d0e000 	ldrb	lr, [r0]
50002768:	e7d9c00e 	ldrb	ip, [r9, lr]
5000276c:	e31c0044 	tst	ip, #68	; 0x44
50002770:	e24e3030 	sub	r3, lr, #48	; 0x30
50002774:	0a00000c 	beq	500027ac <simple_strtoull+0x118>
50002778:	e31c0004 	tst	ip, #4	; 0x4
5000277c:	1a000004 	bne	50002794 <simple_strtoull+0x100>
50002780:	e24e3020 	sub	r3, lr, #32	; 0x20
50002784:	e20330ff 	and	r3, r3, #255	; 0xff
50002788:	e31c0002 	tst	ip, #2	; 0x2
5000278c:	e2433037 	sub	r3, r3, #55	; 0x37
50002790:	024e3037 	subeq	r3, lr, #55	; 0x37
50002794:	e1a01003 	mov	r1, r3
50002798:	e1a02fc1 	asr	r2, r1, #31
5000279c:	e1560002 	cmp	r6, r2
500027a0:	1a000001 	bne	500027ac <simple_strtoull+0x118>
500027a4:	e1550001 	cmp	r5, r1
500027a8:	8affffe8 	bhi	50002750 <simple_strtoull+0xbc>
500027ac:	e35a0000 	cmp	sl, #0	; 0x0
500027b0:	158a0000 	strne	r0, [sl]
500027b4:	e1a01008 	mov	r1, r8
500027b8:	e1a00007 	mov	r0, r7
500027bc:	e8bd47f0 	pop	{r4, r5, r6, r7, r8, r9, sl, lr}
500027c0:	e12fff1e 	bx	lr
500027c4:	5000451c 	.word	0x5000451c

500027c8 <simple_strtoll>:
500027c8:	e52de004 	push	{lr}		; (str lr, [sp, #-4]!)
500027cc:	e5d03000 	ldrb	r3, [r0]
500027d0:	e353002d 	cmp	r3, #45	; 0x2d
500027d4:	e24dd004 	sub	sp, sp, #4	; 0x4
500027d8:	0a000002 	beq	500027e8 <simple_strtoll+0x20>
500027dc:	e28dd004 	add	sp, sp, #4	; 0x4
500027e0:	e49de004 	pop	{lr}		; (ldr lr, [sp], #4)
500027e4:	eaffffaa 	b	50002694 <simple_strtoull>
500027e8:	e2800001 	add	r0, r0, #1	; 0x1
500027ec:	ebffffa8 	bl	50002694 <simple_strtoull>
500027f0:	e2700000 	rsbs	r0, r0, #0	; 0x0
500027f4:	e2e11000 	rsc	r1, r1, #0	; 0x0
500027f8:	e28dd004 	add	sp, sp, #4	; 0x4
500027fc:	e49de004 	pop	{lr}		; (ldr lr, [sp], #4)
50002800:	e12fff1e 	bx	lr

50002804 <skip_atoi>:
50002804:	e92d4030 	push	{r4, r5, lr}
50002808:	e59f5038 	ldr	r5, [pc, #56]	; 50002848 <skip_atoi+0x44>
5000280c:	e1a0e000 	mov	lr, r0
50002810:	e3a0400a 	mov	r4, #10	; 0xa
50002814:	e3a00000 	mov	r0, #0	; 0x0
50002818:	ea000001 	b	50002824 <skip_atoi+0x20>
5000281c:	e0201094 	mla	r0, r4, r0, r1
50002820:	e58ec000 	str	ip, [lr]
50002824:	e59e3000 	ldr	r3, [lr]
50002828:	e5d32000 	ldrb	r2, [r3]
5000282c:	e283c001 	add	ip, r3, #1	; 0x1
50002830:	e7d53002 	ldrb	r3, [r5, r2]
50002834:	e3130004 	tst	r3, #4	; 0x4
50002838:	e2421030 	sub	r1, r2, #48	; 0x30
5000283c:	1afffff6 	bne	5000281c <skip_atoi+0x18>
50002840:	e8bd4030 	pop	{r4, r5, lr}
50002844:	e12fff1e 	bx	lr
50002848:	5000451c 	.word	0x5000451c

5000284c <number>:
5000284c:	e92d4ff0 	push	{r4, r5, r6, r7, r8, r9, sl, fp, lr}
50002850:	e24dd05c 	sub	sp, sp, #92	; 0x5c
50002854:	e59da08c 	ldr	sl, [sp, #140]
50002858:	e59fe274 	ldr	lr, [pc, #628]	; 50002ad4 <number+0x288>
5000285c:	e59fc274 	ldr	ip, [pc, #628]	; 50002ad8 <number+0x28c>
50002860:	e1a06002 	mov	r6, r2
50002864:	e59d2080 	ldr	r2, [sp, #128]
50002868:	e31a0040 	tst	sl, #64	; 0x40
5000286c:	11a0e00c 	movne	lr, ip
50002870:	e1a07003 	mov	r7, r3
50002874:	e31a0010 	tst	sl, #16	; 0x10
50002878:	e2423002 	sub	r3, r2, #2	; 0x2
5000287c:	13caa001 	bicne	sl, sl, #1	; 0x1
50002880:	e3530022 	cmp	r3, #34	; 0x22
50002884:	e1a05000 	mov	r5, r0
50002888:	e58de00c 	str	lr, [sp, #12]
5000288c:	e1a09001 	mov	r9, r1
50002890:	e59d8084 	ldr	r8, [sp, #132]
50002894:	83a05000 	movhi	r5, #0	; 0x0
50002898:	8a000089 	bhi	50002ac4 <number+0x278>
5000289c:	e31a0001 	tst	sl, #1	; 0x1
500028a0:	03a03020 	moveq	r3, #32	; 0x20
500028a4:	13a03030 	movne	r3, #48	; 0x30
500028a8:	e31a0002 	tst	sl, #2	; 0x2
500028ac:	e58d3004 	str	r3, [sp, #4]
500028b0:	0a000010 	beq	500028f8 <number+0xac>
500028b4:	e3570000 	cmp	r7, #0	; 0x0
500028b8:	aa000004 	bge	500028d0 <number+0x84>
500028bc:	e2766000 	rsbs	r6, r6, #0	; 0x0
500028c0:	e2e77000 	rsc	r7, r7, #0	; 0x0
500028c4:	e2488001 	sub	r8, r8, #1	; 0x1
500028c8:	e3a0c02d 	mov	ip, #45	; 0x2d
500028cc:	ea00000a 	b	500028fc <number+0xb0>
500028d0:	e31a0004 	tst	sl, #4	; 0x4
500028d4:	13a0202b 	movne	r2, #43	; 0x2b
500028d8:	12488001 	subne	r8, r8, #1	; 0x1
500028dc:	158d2008 	strne	r2, [sp, #8]
500028e0:	1a000006 	bne	50002900 <number+0xb4>
500028e4:	e31a0008 	tst	sl, #8	; 0x8
500028e8:	13a03020 	movne	r3, #32	; 0x20
500028ec:	12488001 	subne	r8, r8, #1	; 0x1
500028f0:	158d3008 	strne	r3, [sp, #8]
500028f4:	1a000001 	bne	50002900 <number+0xb4>
500028f8:	e3a0c000 	mov	ip, #0	; 0x0
500028fc:	e58dc008 	str	ip, [sp, #8]
50002900:	e21a2020 	ands	r2, sl, #32	; 0x20
50002904:	e58d2000 	str	r2, [sp]
50002908:	0a000006 	beq	50002928 <number+0xdc>
5000290c:	e59d3080 	ldr	r3, [sp, #128]
50002910:	e3530010 	cmp	r3, #16	; 0x10
50002914:	02488002 	subeq	r8, r8, #2	; 0x2
50002918:	0a000002 	beq	50002928 <number+0xdc>
5000291c:	e59dc080 	ldr	ip, [sp, #128]
50002920:	e35c0008 	cmp	ip, #8	; 0x8
50002924:	02488001 	subeq	r8, r8, #1	; 0x1
50002928:	e1962007 	orrs	r2, r6, r7
5000292c:	03a03030 	moveq	r3, #48	; 0x30
50002930:	03a0b001 	moveq	fp, #1	; 0x1
50002934:	05cd3016 	strbeq	r3, [sp, #22]
50002938:	0a00000d 	beq	50002974 <number+0x128>
5000293c:	e3a0b000 	mov	fp, #0	; 0x0
50002940:	e1a00006 	mov	r0, r6
50002944:	e1a01007 	mov	r1, r7
50002948:	e59d4080 	ldr	r4, [sp, #128]
5000294c:	eb00032b 	bl	50003600 <__do_div64>
50002950:	e59dc00c 	ldr	ip, [sp, #12]
50002954:	e1a07003 	mov	r7, r3
50002958:	e1a06002 	mov	r6, r2
5000295c:	e7dc3001 	ldrb	r3, [ip, r1]
50002960:	e1962007 	orrs	r2, r6, r7
50002964:	e28bc016 	add	ip, fp, #22	; 0x16
50002968:	e7cc300d 	strb	r3, [ip, sp]
5000296c:	e28bb001 	add	fp, fp, #1	; 0x1
50002970:	1afffff2 	bne	50002940 <number+0xf4>
50002974:	e59d3088 	ldr	r3, [sp, #136]
50002978:	e15b0003 	cmp	fp, r3
5000297c:	a1a0000b 	movge	r0, fp
50002980:	b1a00003 	movlt	r0, r3
50002984:	e31a0011 	tst	sl, #17	; 0x11
50002988:	e0601008 	rsb	r1, r0, r8
5000298c:	03a02020 	moveq	r2, #32	; 0x20
50002990:	0a000003 	beq	500029a4 <number+0x158>
50002994:	ea000006 	b	500029b4 <number+0x168>
50002998:	e1550009 	cmp	r5, r9
5000299c:	95c52000 	strbls	r2, [r5]
500029a0:	e2855001 	add	r5, r5, #1	; 0x1
500029a4:	e2411001 	sub	r1, r1, #1	; 0x1
500029a8:	e2813001 	add	r3, r1, #1	; 0x1
500029ac:	e3530000 	cmp	r3, #0	; 0x0
500029b0:	cafffff8 	bgt	50002998 <number+0x14c>
500029b4:	e59d2008 	ldr	r2, [sp, #8]
500029b8:	e3520000 	cmp	r2, #0	; 0x0
500029bc:	0a000002 	beq	500029cc <number+0x180>
500029c0:	e1550009 	cmp	r5, r9
500029c4:	95c52000 	strbls	r2, [r5]
500029c8:	e2855001 	add	r5, r5, #1	; 0x1
500029cc:	e59d3000 	ldr	r3, [sp]
500029d0:	e3530000 	cmp	r3, #0	; 0x0
500029d4:	0a000013 	beq	50002a28 <number+0x1dc>
500029d8:	e59dc080 	ldr	ip, [sp, #128]
500029dc:	e35c0008 	cmp	ip, #8	; 0x8
500029e0:	1a000004 	bne	500029f8 <number+0x1ac>
500029e4:	e1550009 	cmp	r5, r9
500029e8:	93a03030 	movls	r3, #48	; 0x30
500029ec:	95c53000 	strbls	r3, [r5]
500029f0:	e2855001 	add	r5, r5, #1	; 0x1
500029f4:	ea00000b 	b	50002a28 <number+0x1dc>
500029f8:	e59d2080 	ldr	r2, [sp, #128]
500029fc:	e3520010 	cmp	r2, #16	; 0x10
50002a00:	1a000008 	bne	50002a28 <number+0x1dc>
50002a04:	e1550009 	cmp	r5, r9
50002a08:	93a03030 	movls	r3, #48	; 0x30
50002a0c:	95c53000 	strbls	r3, [r5]
50002a10:	e2852001 	add	r2, r5, #1	; 0x1
50002a14:	e1520009 	cmp	r2, r9
50002a18:	959dc00c 	ldrls	ip, [sp, #12]
50002a1c:	95dc3021 	ldrbls	r3, [ip, #33]
50002a20:	95c53001 	strbls	r3, [r5, #1]
50002a24:	e2825001 	add	r5, r2, #1	; 0x1
50002a28:	e31a0010 	tst	sl, #16	; 0x10
50002a2c:	0a000004 	beq	50002a44 <number+0x1f8>
50002a30:	ea000007 	b	50002a54 <number+0x208>
50002a34:	e1550009 	cmp	r5, r9
50002a38:	959d2004 	ldrls	r2, [sp, #4]
50002a3c:	95c52000 	strbls	r2, [r5]
50002a40:	e2855001 	add	r5, r5, #1	; 0x1
50002a44:	e2411001 	sub	r1, r1, #1	; 0x1
50002a48:	e2813001 	add	r3, r1, #1	; 0x1
50002a4c:	e3530000 	cmp	r3, #0	; 0x0
50002a50:	cafffff7 	bgt	50002a34 <number+0x1e8>
50002a54:	e1a03000 	mov	r3, r0
50002a58:	e3a02030 	mov	r2, #48	; 0x30
50002a5c:	ea000002 	b	50002a6c <number+0x220>
50002a60:	e1550009 	cmp	r5, r9
50002a64:	95c52000 	strbls	r2, [r5]
50002a68:	e2855001 	add	r5, r5, #1	; 0x1
50002a6c:	e15b0003 	cmp	fp, r3
50002a70:	e2433001 	sub	r3, r3, #1	; 0x1
50002a74:	bafffff9 	blt	50002a60 <number+0x214>
50002a78:	e28d3016 	add	r3, sp, #22	; 0x16
50002a7c:	e083200b 	add	r2, r3, fp
50002a80:	e1550009 	cmp	r5, r9
50002a84:	95523001 	ldrbls	r3, [r2, #-1]
50002a88:	e24bb001 	sub	fp, fp, #1	; 0x1
50002a8c:	95c53000 	strbls	r3, [r5]
50002a90:	e35b0000 	cmp	fp, #0	; 0x0
50002a94:	e2855001 	add	r5, r5, #1	; 0x1
50002a98:	e2422001 	sub	r2, r2, #1	; 0x1
50002a9c:	cafffff7 	bgt	50002a80 <number+0x234>
50002aa0:	e1a03001 	mov	r3, r1
50002aa4:	e3a02020 	mov	r2, #32	; 0x20
50002aa8:	ea000002 	b	50002ab8 <number+0x26c>
50002aac:	e1550009 	cmp	r5, r9
50002ab0:	95c52000 	strbls	r2, [r5]
50002ab4:	e2855001 	add	r5, r5, #1	; 0x1
50002ab8:	e3530000 	cmp	r3, #0	; 0x0
50002abc:	e2433001 	sub	r3, r3, #1	; 0x1
50002ac0:	cafffff9 	bgt	50002aac <number+0x260>
50002ac4:	e1a00005 	mov	r0, r5
50002ac8:	e28dd05c 	add	sp, sp, #92	; 0x5c
50002acc:	e8bd4ff0 	pop	{r4, r5, r6, r7, r8, r9, sl, fp, lr}
50002ad0:	e12fff1e 	bx	lr
50002ad4:	50004094 	.word	0x50004094
50002ad8:	5000406c 	.word	0x5000406c

50002adc <vsscanf>:
50002adc:	e92d4ff0 	push	{r4, r5, r6, r7, r8, r9, sl, fp, lr}
50002ae0:	e3a0a000 	mov	sl, #0	; 0x0
50002ae4:	e24dd014 	sub	sp, sp, #20	; 0x14
50002ae8:	e59f7540 	ldr	r7, [pc, #1344]	; 50003030 <vsscanf+0x554>
50002aec:	e1a0b000 	mov	fp, r0
50002af0:	e1a05002 	mov	r5, r2
50002af4:	e1a04000 	mov	r4, r0
50002af8:	e28d800c 	add	r8, sp, #12	; 0xc
50002afc:	e1a0900a 	mov	r9, sl
50002b00:	e58d1004 	str	r1, [sp, #4]
50002b04:	ea00013e 	b	50003004 <vsscanf+0x528>
50002b08:	e7d73002 	ldrb	r3, [r7, r2]
50002b0c:	e3130020 	tst	r3, #32	; 0x20
50002b10:	1a000001 	bne	50002b1c <vsscanf+0x40>
50002b14:	ea00000c 	b	50002b4c <vsscanf+0x70>
50002b18:	e58d3004 	str	r3, [sp, #4]
50002b1c:	e59d3004 	ldr	r3, [sp, #4]
50002b20:	e5d32000 	ldrb	r2, [r3]
50002b24:	e7d72002 	ldrb	r2, [r7, r2]
50002b28:	e3120020 	tst	r2, #32	; 0x20
50002b2c:	e2833001 	add	r3, r3, #1	; 0x1
50002b30:	1afffff8 	bne	50002b18 <vsscanf+0x3c>
50002b34:	ea000000 	b	50002b3c <vsscanf+0x60>
50002b38:	e2844001 	add	r4, r4, #1	; 0x1
50002b3c:	e5d43000 	ldrb	r3, [r4]
50002b40:	e7d73003 	ldrb	r3, [r7, r3]
50002b44:	e3130020 	tst	r3, #32	; 0x20
50002b48:	1afffffa 	bne	50002b38 <vsscanf+0x5c>
50002b4c:	e59d1004 	ldr	r1, [sp, #4]
50002b50:	e5d12000 	ldrb	r2, [r1]
50002b54:	e3520025 	cmp	r2, #37	; 0x25
50002b58:	13520000 	cmpne	r2, #0	; 0x0
50002b5c:	0a000006 	beq	50002b7c <vsscanf+0xa0>
50002b60:	e5d43000 	ldrb	r3, [r4]
50002b64:	e1530002 	cmp	r3, r2
50002b68:	1a00012c 	bne	50003020 <vsscanf+0x544>
50002b6c:	e2813001 	add	r3, r1, #1	; 0x1
50002b70:	e2844001 	add	r4, r4, #1	; 0x1
50002b74:	e58d3004 	str	r3, [sp, #4]
50002b78:	ea000121 	b	50003004 <vsscanf+0x528>
50002b7c:	e3520000 	cmp	r2, #0	; 0x0
50002b80:	0a000126 	beq	50003020 <vsscanf+0x544>
50002b84:	e2813001 	add	r3, r1, #1	; 0x1
50002b88:	e58d3004 	str	r3, [sp, #4]
50002b8c:	e5d13001 	ldrb	r3, [r1, #1]
50002b90:	e353002a 	cmp	r3, #42	; 0x2a
50002b94:	1a000012 	bne	50002be4 <vsscanf+0x108>
50002b98:	ea000000 	b	50002ba0 <vsscanf+0xc4>
50002b9c:	e58d1004 	str	r1, [sp, #4]
50002ba0:	e59d3004 	ldr	r3, [sp, #4]
50002ba4:	e5d32000 	ldrb	r2, [r3]
50002ba8:	e2831001 	add	r1, r3, #1	; 0x1
50002bac:	e7d73002 	ldrb	r3, [r7, r2]
50002bb0:	e3130020 	tst	r3, #32	; 0x20
50002bb4:	1a000003 	bne	50002bc8 <vsscanf+0xec>
50002bb8:	e3520000 	cmp	r2, #0	; 0x0
50002bbc:	1afffff6 	bne	50002b9c <vsscanf+0xc0>
50002bc0:	ea000000 	b	50002bc8 <vsscanf+0xec>
50002bc4:	e2844001 	add	r4, r4, #1	; 0x1
50002bc8:	e5d42000 	ldrb	r2, [r4]
50002bcc:	e7d73002 	ldrb	r3, [r7, r2]
50002bd0:	e3130020 	tst	r3, #32	; 0x20
50002bd4:	1a00010a 	bne	50003004 <vsscanf+0x528>
50002bd8:	e3520000 	cmp	r2, #0	; 0x0
50002bdc:	1afffff8 	bne	50002bc4 <vsscanf+0xe8>
50002be0:	ea000107 	b	50003004 <vsscanf+0x528>
50002be4:	e7d73003 	ldrb	r3, [r7, r3]
50002be8:	e3130004 	tst	r3, #4	; 0x4
50002bec:	03e00000 	mvneq	r0, #0	; 0x0
50002bf0:	128d0004 	addne	r0, sp, #4	; 0x4
50002bf4:	1bffff02 	blne	50002804 <skip_atoi>
50002bf8:	e59d3004 	ldr	r3, [sp, #4]
50002bfc:	e5d32000 	ldrb	r2, [r3]
50002c00:	e3520068 	cmp	r2, #104	; 0x68
50002c04:	13a0c000 	movne	ip, #0	; 0x0
50002c08:	03a0c001 	moveq	ip, #1	; 0x1
50002c0c:	e352006c 	cmp	r2, #108	; 0x6c
50002c10:	13a0e000 	movne	lr, #0	; 0x0
50002c14:	03a0e001 	moveq	lr, #1	; 0x1
50002c18:	e19c100e 	orrs	r1, ip, lr
50002c1c:	1a000006 	bne	50002c3c <vsscanf+0x160>
50002c20:	e352004c 	cmp	r2, #76	; 0x4c
50002c24:	0a000004 	beq	50002c3c <vsscanf+0x160>
50002c28:	e352005a 	cmp	r2, #90	; 0x5a
50002c2c:	0a000002 	beq	50002c3c <vsscanf+0x160>
50002c30:	e352007a 	cmp	r2, #122	; 0x7a
50002c34:	13e06000 	mvnne	r6, #0	; 0x0
50002c38:	1a00000e 	bne	50002c78 <vsscanf+0x19c>
50002c3c:	e2831001 	add	r1, r3, #1	; 0x1
50002c40:	e58d1004 	str	r1, [sp, #4]
50002c44:	e5d33001 	ldrb	r3, [r3, #1]
50002c48:	e1520003 	cmp	r2, r3
50002c4c:	e1a06002 	mov	r6, r2
50002c50:	1a000008 	bne	50002c78 <vsscanf+0x19c>
50002c54:	e35c0000 	cmp	ip, #0	; 0x0
50002c58:	12813001 	addne	r3, r1, #1	; 0x1
50002c5c:	13a06048 	movne	r6, #72	; 0x48
50002c60:	158d3004 	strne	r3, [sp, #4]
50002c64:	1a000003 	bne	50002c78 <vsscanf+0x19c>
50002c68:	e35e0000 	cmp	lr, #0	; 0x0
50002c6c:	12813001 	addne	r3, r1, #1	; 0x1
50002c70:	158d3004 	strne	r3, [sp, #4]
50002c74:	13a0604c 	movne	r6, #76	; 0x4c
50002c78:	e59d1004 	ldr	r1, [sp, #4]
50002c7c:	e5d12000 	ldrb	r2, [r1]
50002c80:	e3520000 	cmp	r2, #0	; 0x0
50002c84:	0a0000e5 	beq	50003020 <vsscanf+0x544>
50002c88:	e5d43000 	ldrb	r3, [r4]
50002c8c:	e3530000 	cmp	r3, #0	; 0x0
50002c90:	0a0000e2 	beq	50003020 <vsscanf+0x544>
50002c94:	e2813001 	add	r3, r1, #1	; 0x1
50002c98:	e352006e 	cmp	r2, #110	; 0x6e
50002c9c:	e58d3004 	str	r3, [sp, #4]
50002ca0:	0a000046 	beq	50002dc0 <vsscanf+0x2e4>
50002ca4:	8a00000b 	bhi	50002cd8 <vsscanf+0x1fc>
50002ca8:	e3520063 	cmp	r2, #99	; 0x63
50002cac:	0a00001b 	beq	50002d20 <vsscanf+0x244>
50002cb0:	8a000003 	bhi	50002cc4 <vsscanf+0x1e8>
50002cb4:	e3520025 	cmp	r2, #37	; 0x25
50002cb8:	0a000049 	beq	50002de4 <vsscanf+0x308>
50002cbc:	e3520058 	cmp	r2, #88	; 0x58
50002cc0:	ea00000d 	b	50002cfc <vsscanf+0x220>
50002cc4:	e3520064 	cmp	r2, #100	; 0x64
50002cc8:	0a000011 	beq	50002d14 <vsscanf+0x238>
50002ccc:	e3520069 	cmp	r2, #105	; 0x69
50002cd0:	1a0000d2 	bne	50003020 <vsscanf+0x544>
50002cd4:	ea00000a 	b	50002d04 <vsscanf+0x228>
50002cd8:	e3520073 	cmp	r2, #115	; 0x73
50002cdc:	0a00001c 	beq	50002d54 <vsscanf+0x278>
50002ce0:	8a000002 	bhi	50002cf0 <vsscanf+0x214>
50002ce4:	e352006f 	cmp	r2, #111	; 0x6f
50002ce8:	1a0000cc 	bne	50003020 <vsscanf+0x544>
50002cec:	ea000037 	b	50002dd0 <vsscanf+0x2f4>
50002cf0:	e3520075 	cmp	r2, #117	; 0x75
50002cf4:	0a000004 	beq	50002d0c <vsscanf+0x230>
50002cf8:	e3520078 	cmp	r2, #120	; 0x78
50002cfc:	1a0000c7 	bne	50003020 <vsscanf+0x544>
50002d00:	ea000034 	b	50002dd8 <vsscanf+0x2fc>
50002d04:	e1a0c009 	mov	ip, r9
50002d08:	ea000002 	b	50002d18 <vsscanf+0x23c>
50002d0c:	e3a0c00a 	mov	ip, #10	; 0xa
50002d10:	ea000031 	b	50002ddc <vsscanf+0x300>
50002d14:	e3a0c00a 	mov	ip, #10	; 0xa
50002d18:	e3a00001 	mov	r0, #1	; 0x1
50002d1c:	ea000036 	b	50002dfc <vsscanf+0x320>
50002d20:	e3700001 	cmn	r0, #1	; 0x1
50002d24:	e4952004 	ldr	r2, [r5], #4
50002d28:	03a00001 	moveq	r0, #1	; 0x1
50002d2c:	e2400001 	sub	r0, r0, #1	; 0x1
50002d30:	e4d43001 	ldrb	r3, [r4], #1
50002d34:	e3500000 	cmp	r0, #0	; 0x0
50002d38:	e4c23001 	strb	r3, [r2], #1
50002d3c:	da000002 	ble	50002d4c <vsscanf+0x270>
50002d40:	e5d43000 	ldrb	r3, [r4]
50002d44:	e3530000 	cmp	r3, #0	; 0x0
50002d48:	1afffff7 	bne	50002d2c <vsscanf+0x250>
50002d4c:	e28aa001 	add	sl, sl, #1	; 0x1
50002d50:	ea0000ab 	b	50003004 <vsscanf+0x528>
50002d54:	e3700001 	cmn	r0, #1	; 0x1
50002d58:	e4952004 	ldr	r2, [r5], #4
50002d5c:	03e00102 	mvneq	r0, #-2147483648	; 0x80000000
50002d60:	ea000000 	b	50002d68 <vsscanf+0x28c>
50002d64:	e2844001 	add	r4, r4, #1	; 0x1
50002d68:	e5d43000 	ldrb	r3, [r4]
50002d6c:	e7d73003 	ldrb	r3, [r7, r3]
50002d70:	e3130020 	tst	r3, #32	; 0x20
50002d74:	1afffffa 	bne	50002d64 <vsscanf+0x288>
50002d78:	e1a03002 	mov	r3, r2
50002d7c:	ea000001 	b	50002d88 <vsscanf+0x2ac>
50002d80:	e5432001 	strb	r2, [r3, #-1]
50002d84:	e2844001 	add	r4, r4, #1	; 0x1
50002d88:	e5d42000 	ldrb	r2, [r4]
50002d8c:	e3520000 	cmp	r2, #0	; 0x0
50002d90:	e2400001 	sub	r0, r0, #1	; 0x1
50002d94:	e1a01003 	mov	r1, r3
50002d98:	0a000005 	beq	50002db4 <vsscanf+0x2d8>
50002d9c:	e7d73002 	ldrb	r3, [r7, r2]
50002da0:	e3130020 	tst	r3, #32	; 0x20
50002da4:	1a000002 	bne	50002db4 <vsscanf+0x2d8>
50002da8:	e3700001 	cmn	r0, #1	; 0x1
50002dac:	e2813001 	add	r3, r1, #1	; 0x1
50002db0:	1afffff2 	bne	50002d80 <vsscanf+0x2a4>
50002db4:	e28aa001 	add	sl, sl, #1	; 0x1
50002db8:	e5c19000 	strb	r9, [r1]
50002dbc:	ea000090 	b	50003004 <vsscanf+0x528>
50002dc0:	e4952004 	ldr	r2, [r5], #4
50002dc4:	e06b3004 	rsb	r3, fp, r4
50002dc8:	e5823000 	str	r3, [r2]
50002dcc:	ea00008c 	b	50003004 <vsscanf+0x528>
50002dd0:	e3a0c008 	mov	ip, #8	; 0x8
50002dd4:	ea000000 	b	50002ddc <vsscanf+0x300>
50002dd8:	e3a0c010 	mov	ip, #16	; 0x10
50002ddc:	e1a00009 	mov	r0, r9
50002de0:	ea000005 	b	50002dfc <vsscanf+0x320>
50002de4:	e5d43000 	ldrb	r3, [r4]
50002de8:	e3530025 	cmp	r3, #37	; 0x25
50002dec:	1a00008b 	bne	50003020 <vsscanf+0x544>
50002df0:	e2844001 	add	r4, r4, #1	; 0x1
50002df4:	ea000082 	b	50003004 <vsscanf+0x528>
50002df8:	e2844001 	add	r4, r4, #1	; 0x1
50002dfc:	e5d41000 	ldrb	r1, [r4]
50002e00:	e7d73001 	ldrb	r3, [r7, r1]
50002e04:	e3130020 	tst	r3, #32	; 0x20
50002e08:	1afffffa 	bne	50002df8 <vsscanf+0x31c>
50002e0c:	e351002d 	cmp	r1, #45	; 0x2d
50002e10:	13a03000 	movne	r3, #0	; 0x0
50002e14:	02003001 	andeq	r3, r0, #1	; 0x1
50002e18:	e3530000 	cmp	r3, #0	; 0x0
50002e1c:	15d41001 	ldrbne	r1, [r4, #1]
50002e20:	e3510000 	cmp	r1, #0	; 0x0
50002e24:	e1a02000 	mov	r2, r0
50002e28:	0a00007c 	beq	50003020 <vsscanf+0x544>
50002e2c:	e35c0010 	cmp	ip, #16	; 0x10
50002e30:	1a000002 	bne	50002e40 <vsscanf+0x364>
50002e34:	e7d73001 	ldrb	r3, [r7, r1]
50002e38:	e3130044 	tst	r3, #68	; 0x44
50002e3c:	ea00000f 	b	50002e80 <vsscanf+0x3a4>
50002e40:	e35c000a 	cmp	ip, #10	; 0xa
50002e44:	0a00000b 	beq	50002e78 <vsscanf+0x39c>
50002e48:	e35c0008 	cmp	ip, #8	; 0x8
50002e4c:	1a000007 	bne	50002e70 <vsscanf+0x394>
50002e50:	e7d73001 	ldrb	r3, [r7, r1]
50002e54:	e1a03123 	lsr	r3, r3, #2
50002e58:	e2233001 	eor	r3, r3, #1	; 0x1
50002e5c:	e3510037 	cmp	r1, #55	; 0x37
50002e60:	83833001 	orrhi	r3, r3, #1	; 0x1
50002e64:	e3130001 	tst	r3, #1	; 0x1
50002e68:	0a000005 	beq	50002e84 <vsscanf+0x3a8>
50002e6c:	ea00006b 	b	50003020 <vsscanf+0x544>
50002e70:	e35c0000 	cmp	ip, #0	; 0x0
50002e74:	1a000002 	bne	50002e84 <vsscanf+0x3a8>
50002e78:	e7d73001 	ldrb	r3, [r7, r1]
50002e7c:	e3130004 	tst	r3, #4	; 0x4
50002e80:	0a000066 	beq	50003020 <vsscanf+0x544>
50002e84:	e356005a 	cmp	r6, #90	; 0x5a
50002e88:	0a000042 	beq	50002f98 <vsscanf+0x4bc>
50002e8c:	ca000004 	bgt	50002ea4 <vsscanf+0x3c8>
50002e90:	e3560048 	cmp	r6, #72	; 0x48
50002e94:	0a000009 	beq	50002ec0 <vsscanf+0x3e4>
50002e98:	e356004c 	cmp	r6, #76	; 0x4c
50002e9c:	1a000042 	bne	50002fac <vsscanf+0x4d0>
50002ea0:	ea00002a 	b	50002f50 <vsscanf+0x474>
50002ea4:	e356006c 	cmp	r6, #108	; 0x6c
50002ea8:	0a00003f 	beq	50002fac <vsscanf+0x4d0>
50002eac:	e356007a 	cmp	r6, #122	; 0x7a
50002eb0:	0a000038 	beq	50002f98 <vsscanf+0x4bc>
50002eb4:	e3560068 	cmp	r6, #104	; 0x68
50002eb8:	1a00003b 	bne	50002fac <vsscanf+0x4d0>
50002ebc:	ea000011 	b	50002f08 <vsscanf+0x42c>
50002ec0:	e3520000 	cmp	r2, #0	; 0x0
50002ec4:	e2852004 	add	r2, r5, #4	; 0x4
50002ec8:	0a000006 	beq	50002ee8 <vsscanf+0x40c>
50002ecc:	e1a05002 	mov	r5, r2
50002ed0:	e1a00004 	mov	r0, r4
50002ed4:	e1a0200c 	mov	r2, ip
50002ed8:	e1a01008 	mov	r1, r8
50002edc:	e5154004 	ldr	r4, [r5, #-4]
50002ee0:	ebfffddd 	bl	5000265c <simple_strtol>
50002ee4:	ea000005 	b	50002f00 <vsscanf+0x424>
50002ee8:	e1a05002 	mov	r5, r2
50002eec:	e1a00004 	mov	r0, r4
50002ef0:	e1a0200c 	mov	r2, ip
50002ef4:	e1a01008 	mov	r1, r8
50002ef8:	e5154004 	ldr	r4, [r5, #-4]
50002efc:	ebfffd94 	bl	50002554 <simple_strtoul>
50002f00:	e5c40000 	strb	r0, [r4]
50002f04:	ea000039 	b	50002ff0 <vsscanf+0x514>
50002f08:	e3520000 	cmp	r2, #0	; 0x0
50002f0c:	e2852004 	add	r2, r5, #4	; 0x4
50002f10:	0a000006 	beq	50002f30 <vsscanf+0x454>
50002f14:	e1a05002 	mov	r5, r2
50002f18:	e1a00004 	mov	r0, r4
50002f1c:	e1a0200c 	mov	r2, ip
50002f20:	e1a01008 	mov	r1, r8
50002f24:	e5154004 	ldr	r4, [r5, #-4]
50002f28:	ebfffdcb 	bl	5000265c <simple_strtol>
50002f2c:	ea000005 	b	50002f48 <vsscanf+0x46c>
50002f30:	e1a05002 	mov	r5, r2
50002f34:	e1a00004 	mov	r0, r4
50002f38:	e1a0200c 	mov	r2, ip
50002f3c:	e1a01008 	mov	r1, r8
50002f40:	e5154004 	ldr	r4, [r5, #-4]
50002f44:	ebfffd82 	bl	50002554 <simple_strtoul>
50002f48:	e1c400b0 	strh	r0, [r4]
50002f4c:	ea000027 	b	50002ff0 <vsscanf+0x514>
50002f50:	e3520000 	cmp	r2, #0	; 0x0
50002f54:	e2852004 	add	r2, r5, #4	; 0x4
50002f58:	0a000006 	beq	50002f78 <vsscanf+0x49c>
50002f5c:	e1a05002 	mov	r5, r2
50002f60:	e1a00004 	mov	r0, r4
50002f64:	e1a0200c 	mov	r2, ip
50002f68:	e1a01008 	mov	r1, r8
50002f6c:	e5154004 	ldr	r4, [r5, #-4]
50002f70:	ebfffe14 	bl	500027c8 <simple_strtoll>
50002f74:	ea000005 	b	50002f90 <vsscanf+0x4b4>
50002f78:	e1a05002 	mov	r5, r2
50002f7c:	e1a00004 	mov	r0, r4
50002f80:	e1a0200c 	mov	r2, ip
50002f84:	e1a01008 	mov	r1, r8
50002f88:	e5154004 	ldr	r4, [r5, #-4]
50002f8c:	ebfffdc0 	bl	50002694 <simple_strtoull>
50002f90:	e8840003 	stm	r4, {r0, r1}
50002f94:	ea000015 	b	50002ff0 <vsscanf+0x514>
50002f98:	e1a00004 	mov	r0, r4
50002f9c:	e4954004 	ldr	r4, [r5], #4
50002fa0:	e1a0200c 	mov	r2, ip
50002fa4:	e1a01008 	mov	r1, r8
50002fa8:	ea00000e 	b	50002fe8 <vsscanf+0x50c>
50002fac:	e3520000 	cmp	r2, #0	; 0x0
50002fb0:	e2852004 	add	r2, r5, #4	; 0x4
50002fb4:	0a000006 	beq	50002fd4 <vsscanf+0x4f8>
50002fb8:	e1a05002 	mov	r5, r2
50002fbc:	e1a00004 	mov	r0, r4
50002fc0:	e1a0200c 	mov	r2, ip
50002fc4:	e1a01008 	mov	r1, r8
50002fc8:	e5154004 	ldr	r4, [r5, #-4]
50002fcc:	ebfffda2 	bl	5000265c <simple_strtol>
50002fd0:	ea000005 	b	50002fec <vsscanf+0x510>
50002fd4:	e1a05002 	mov	r5, r2
50002fd8:	e1a00004 	mov	r0, r4
50002fdc:	e5154004 	ldr	r4, [r5, #-4]
50002fe0:	e1a0200c 	mov	r2, ip
50002fe4:	e1a01008 	mov	r1, r8
50002fe8:	ebfffd59 	bl	50002554 <simple_strtoul>
50002fec:	e5840000 	str	r0, [r4]
50002ff0:	e59d000c 	ldr	r0, [sp, #12]
50002ff4:	e3500000 	cmp	r0, #0	; 0x0
50002ff8:	e28aa001 	add	sl, sl, #1	; 0x1
50002ffc:	0a000007 	beq	50003020 <vsscanf+0x544>
50003000:	e1a04000 	mov	r4, r0
50003004:	e59d3004 	ldr	r3, [sp, #4]
50003008:	e5d32000 	ldrb	r2, [r3]
5000300c:	e3520000 	cmp	r2, #0	; 0x0
50003010:	0a000002 	beq	50003020 <vsscanf+0x544>
50003014:	e5d43000 	ldrb	r3, [r4]
50003018:	e3530000 	cmp	r3, #0	; 0x0
5000301c:	1afffeb9 	bne	50002b08 <vsscanf+0x2c>
50003020:	e1a0000a 	mov	r0, sl
50003024:	e28dd014 	add	sp, sp, #20	; 0x14
50003028:	e8bd4ff0 	pop	{r4, r5, r6, r7, r8, r9, sl, fp, lr}
5000302c:	e12fff1e 	bx	lr
50003030:	5000451c 	.word	0x5000451c

50003034 <sscanf>:
50003034:	e92d000e 	push	{r1, r2, r3}
50003038:	e52de004 	push	{lr}		; (str lr, [sp, #-4]!)
5000303c:	e59d1004 	ldr	r1, [sp, #4]
50003040:	e28d2008 	add	r2, sp, #8	; 0x8
50003044:	ebfffea4 	bl	50002adc <vsscanf>
50003048:	e49de004 	pop	{lr}		; (ldr lr, [sp], #4)
5000304c:	e28dd00c 	add	sp, sp, #12	; 0xc
50003050:	e12fff1e 	bx	lr

50003054 <vsnprintf>:
50003054:	e92d4ff0 	push	{r4, r5, r6, r7, r8, r9, sl, fp, lr}
50003058:	e251b000 	subs	fp, r1, #0	; 0x0
5000305c:	e24dd01c 	sub	sp, sp, #28	; 0x1c
50003060:	e58d2014 	str	r2, [sp, #20]
50003064:	e1a09000 	mov	r9, r0
50003068:	e1a08003 	mov	r8, r3
5000306c:	b3a02000 	movlt	r2, #0	; 0x0
50003070:	b59f34d4 	ldrlt	r3, [pc, #1236]	; 5000354c <vsnprintf+0x4f8>
50003074:	b1a00002 	movlt	r0, r2
50003078:	b5832000 	strlt	r2, [r3]
5000307c:	ba00012f 	blt	50003540 <vsnprintf+0x4ec>
50003080:	e080300b 	add	r3, r0, fp
50003084:	e243a001 	sub	sl, r3, #1	; 0x1
50003088:	e2403001 	sub	r3, r0, #1	; 0x1
5000308c:	e15a0003 	cmp	sl, r3
50003090:	3260b000 	rsbcc	fp, r0, #0	; 0x0
50003094:	33e0a000 	mvncc	sl, #0	; 0x0
50003098:	e1a04000 	mov	r4, r0
5000309c:	ea00011d 	b	50003518 <vsnprintf+0x4c4>
500030a0:	e3530025 	cmp	r3, #37	; 0x25
500030a4:	03a05000 	moveq	r5, #0	; 0x0
500030a8:	1a0000d0 	bne	500033f0 <vsnprintf+0x39c>
500030ac:	e59d3014 	ldr	r3, [sp, #20]
500030b0:	e2831001 	add	r1, r3, #1	; 0x1
500030b4:	e58d1014 	str	r1, [sp, #20]
500030b8:	e5d32001 	ldrb	r2, [r3, #1]
500030bc:	e352002b 	cmp	r2, #43	; 0x2b
500030c0:	0a00000c 	beq	500030f8 <vsnprintf+0xa4>
500030c4:	8a000004 	bhi	500030dc <vsnprintf+0x88>
500030c8:	e3520020 	cmp	r2, #32	; 0x20
500030cc:	0a00000b 	beq	50003100 <vsnprintf+0xac>
500030d0:	e3520023 	cmp	r2, #35	; 0x23
500030d4:	1a00000f 	bne	50003118 <vsnprintf+0xc4>
500030d8:	ea00000a 	b	50003108 <vsnprintf+0xb4>
500030dc:	e352002d 	cmp	r2, #45	; 0x2d
500030e0:	0a000002 	beq	500030f0 <vsnprintf+0x9c>
500030e4:	e3520030 	cmp	r2, #48	; 0x30
500030e8:	1a00000a 	bne	50003118 <vsnprintf+0xc4>
500030ec:	ea000007 	b	50003110 <vsnprintf+0xbc>
500030f0:	e3855010 	orr	r5, r5, #16	; 0x10
500030f4:	eaffffec 	b	500030ac <vsnprintf+0x58>
500030f8:	e3855004 	orr	r5, r5, #4	; 0x4
500030fc:	eaffffea 	b	500030ac <vsnprintf+0x58>
50003100:	e3855008 	orr	r5, r5, #8	; 0x8
50003104:	eaffffe8 	b	500030ac <vsnprintf+0x58>
50003108:	e3855020 	orr	r5, r5, #32	; 0x20
5000310c:	eaffffe6 	b	500030ac <vsnprintf+0x58>
50003110:	e3855001 	orr	r5, r5, #1	; 0x1
50003114:	eaffffe4 	b	500030ac <vsnprintf+0x58>
50003118:	e59f0430 	ldr	r0, [pc, #1072]	; 50003550 <vsnprintf+0x4fc>
5000311c:	e7d03002 	ldrb	r3, [r0, r2]
50003120:	e3130004 	tst	r3, #4	; 0x4
50003124:	0a000003 	beq	50003138 <vsnprintf+0xe4>
50003128:	e28d0014 	add	r0, sp, #20	; 0x14
5000312c:	ebfffdb4 	bl	50002804 <skip_atoi>
50003130:	e1a07000 	mov	r7, r0
50003134:	ea000008 	b	5000315c <vsnprintf+0x108>
50003138:	e352002a 	cmp	r2, #42	; 0x2a
5000313c:	13e07000 	mvnne	r7, #0	; 0x0
50003140:	1a000005 	bne	5000315c <vsnprintf+0x108>
50003144:	e4987004 	ldr	r7, [r8], #4
50003148:	e2813001 	add	r3, r1, #1	; 0x1
5000314c:	e3570000 	cmp	r7, #0	; 0x0
50003150:	e58d3014 	str	r3, [sp, #20]
50003154:	b2677000 	rsblt	r7, r7, #0	; 0x0
50003158:	b3855010 	orrlt	r5, r5, #16	; 0x10
5000315c:	e59d2014 	ldr	r2, [sp, #20]
50003160:	e5d23000 	ldrb	r3, [r2]
50003164:	e353002e 	cmp	r3, #46	; 0x2e
50003168:	13e0e000 	mvnne	lr, #0	; 0x0
5000316c:	1a000012 	bne	500031bc <vsnprintf+0x168>
50003170:	e2821001 	add	r1, r2, #1	; 0x1
50003174:	e58d1014 	str	r1, [sp, #20]
50003178:	e59fc3d0 	ldr	ip, [pc, #976]	; 50003550 <vsnprintf+0x4fc>
5000317c:	e5d22001 	ldrb	r2, [r2, #1]
50003180:	e7dc3002 	ldrb	r3, [ip, r2]
50003184:	e3130004 	tst	r3, #4	; 0x4
50003188:	0a000003 	beq	5000319c <vsnprintf+0x148>
5000318c:	e28d0014 	add	r0, sp, #20	; 0x14
50003190:	ebfffd9b 	bl	50002804 <skip_atoi>
50003194:	e1a0e000 	mov	lr, r0
50003198:	ea000004 	b	500031b0 <vsnprintf+0x15c>
5000319c:	e352002a 	cmp	r2, #42	; 0x2a
500031a0:	1a000004 	bne	500031b8 <vsnprintf+0x164>
500031a4:	e2813001 	add	r3, r1, #1	; 0x1
500031a8:	e58d3014 	str	r3, [sp, #20]
500031ac:	e498e004 	ldr	lr, [r8], #4
500031b0:	e35e0000 	cmp	lr, #0	; 0x0
500031b4:	aa000000 	bge	500031bc <vsnprintf+0x168>
500031b8:	e3a0e000 	mov	lr, #0	; 0x0
500031bc:	e59d2014 	ldr	r2, [sp, #20]
500031c0:	e5d23000 	ldrb	r3, [r2]
500031c4:	e353006c 	cmp	r3, #108	; 0x6c
500031c8:	13a01000 	movne	r1, #0	; 0x0
500031cc:	03a01001 	moveq	r1, #1	; 0x1
500031d0:	e353006c 	cmp	r3, #108	; 0x6c
500031d4:	13530068 	cmpne	r3, #104	; 0x68
500031d8:	0a000006 	beq	500031f8 <vsnprintf+0x1a4>
500031dc:	e353004c 	cmp	r3, #76	; 0x4c
500031e0:	0a000004 	beq	500031f8 <vsnprintf+0x1a4>
500031e4:	e353005a 	cmp	r3, #90	; 0x5a
500031e8:	0a000002 	beq	500031f8 <vsnprintf+0x1a4>
500031ec:	e353007a 	cmp	r3, #122	; 0x7a
500031f0:	13e00000 	mvnne	r0, #0	; 0x0
500031f4:	1a000009 	bne	50003220 <vsnprintf+0x1cc>
500031f8:	e3510000 	cmp	r1, #0	; 0x0
500031fc:	e2821001 	add	r1, r2, #1	; 0x1
50003200:	e1a00003 	mov	r0, r3
50003204:	e58d1014 	str	r1, [sp, #20]
50003208:	0a000004 	beq	50003220 <vsnprintf+0x1cc>
5000320c:	e5d23001 	ldrb	r3, [r2, #1]
50003210:	e353006c 	cmp	r3, #108	; 0x6c
50003214:	02813001 	addeq	r3, r1, #1	; 0x1
50003218:	058d3014 	streq	r3, [sp, #20]
5000321c:	03a0004c 	moveq	r0, #76	; 0x4c
50003220:	e59d3014 	ldr	r3, [sp, #20]
50003224:	e5d33000 	ldrb	r3, [r3]
50003228:	e353006e 	cmp	r3, #110	; 0x6e
5000322c:	0a000065 	beq	500033c8 <vsnprintf+0x374>
50003230:	8a00000c 	bhi	50003268 <vsnprintf+0x214>
50003234:	e3530063 	cmp	r3, #99	; 0x63
50003238:	0a000017 	beq	5000329c <vsnprintf+0x248>
5000323c:	8a000004 	bhi	50003254 <vsnprintf+0x200>
50003240:	e3530025 	cmp	r3, #37	; 0x25
50003244:	0a000069 	beq	500033f0 <vsnprintf+0x39c>
50003248:	e3530058 	cmp	r3, #88	; 0x58
5000324c:	1a000071 	bne	50003418 <vsnprintf+0x3c4>
50003250:	ea00006b 	b	50003404 <vsnprintf+0x3b0>
50003254:	e3530064 	cmp	r3, #100	; 0x64
50003258:	0a00006c 	beq	50003410 <vsnprintf+0x3bc>
5000325c:	e3530069 	cmp	r3, #105	; 0x69
50003260:	1a00006c 	bne	50003418 <vsnprintf+0x3c4>
50003264:	ea000069 	b	50003410 <vsnprintf+0x3bc>
50003268:	e3530073 	cmp	r3, #115	; 0x73
5000326c:	0a000020 	beq	500032f4 <vsnprintf+0x2a0>
50003270:	8a000004 	bhi	50003288 <vsnprintf+0x234>
50003274:	e353006f 	cmp	r3, #111	; 0x6f
50003278:	0a00005f 	beq	500033fc <vsnprintf+0x3a8>
5000327c:	e3530070 	cmp	r3, #112	; 0x70
50003280:	1a000064 	bne	50003418 <vsnprintf+0x3c4>
50003284:	ea000043 	b	50003398 <vsnprintf+0x344>
50003288:	e3530075 	cmp	r3, #117	; 0x75
5000328c:	0a00006f 	beq	50003450 <vsnprintf+0x3fc>
50003290:	e3530078 	cmp	r3, #120	; 0x78
50003294:	1a00005f 	bne	50003418 <vsnprintf+0x3c4>
50003298:	ea00005a 	b	50003408 <vsnprintf+0x3b4>
5000329c:	e3150010 	tst	r5, #16	; 0x10
500032a0:	0a000004 	beq	500032b8 <vsnprintf+0x264>
500032a4:	ea000006 	b	500032c4 <vsnprintf+0x270>
500032a8:	e154000a 	cmp	r4, sl
500032ac:	93a00020 	movls	r0, #32	; 0x20
500032b0:	95c40000 	strbls	r0, [r4]
500032b4:	e2844001 	add	r4, r4, #1	; 0x1
500032b8:	e2477001 	sub	r7, r7, #1	; 0x1
500032bc:	e3570000 	cmp	r7, #0	; 0x0
500032c0:	cafffff8 	bgt	500032a8 <vsnprintf+0x254>
500032c4:	e4983004 	ldr	r3, [r8], #4
500032c8:	e154000a 	cmp	r4, sl
500032cc:	95c43000 	strbls	r3, [r4]
500032d0:	ea000002 	b	500032e0 <vsnprintf+0x28c>
500032d4:	e154000a 	cmp	r4, sl
500032d8:	93a02020 	movls	r2, #32	; 0x20
500032dc:	95c42000 	strbls	r2, [r4]
500032e0:	e2477001 	sub	r7, r7, #1	; 0x1
500032e4:	e3570000 	cmp	r7, #0	; 0x0
500032e8:	e2844001 	add	r4, r4, #1	; 0x1
500032ec:	cafffff8 	bgt	500032d4 <vsnprintf+0x280>
500032f0:	ea000085 	b	5000350c <vsnprintf+0x4b8>
500032f4:	e4986004 	ldr	r6, [r8], #4
500032f8:	e59fc254 	ldr	ip, [pc, #596]	; 50003554 <vsnprintf+0x500>
500032fc:	e59f3254 	ldr	r3, [pc, #596]	; 50003558 <vsnprintf+0x504>
50003300:	e156000c 	cmp	r6, ip
50003304:	91a06003 	movls	r6, r3
50003308:	e1a0100e 	mov	r1, lr
5000330c:	e1a00006 	mov	r0, r6
50003310:	ebfffba7 	bl	500021b4 <strnlen>
50003314:	e3150010 	tst	r5, #16	; 0x10
50003318:	e1a0c000 	mov	ip, r0
5000331c:	0a000004 	beq	50003334 <vsnprintf+0x2e0>
50003320:	ea000007 	b	50003344 <vsnprintf+0x2f0>
50003324:	e154000a 	cmp	r4, sl
50003328:	93a00020 	movls	r0, #32	; 0x20
5000332c:	95c40000 	strbls	r0, [r4]
50003330:	e2844001 	add	r4, r4, #1	; 0x1
50003334:	e2477001 	sub	r7, r7, #1	; 0x1
50003338:	e2873001 	add	r3, r7, #1	; 0x1
5000333c:	e15c0003 	cmp	ip, r3
50003340:	bafffff7 	blt	50003324 <vsnprintf+0x2d0>
50003344:	e1a01004 	mov	r1, r4
50003348:	e3a02000 	mov	r2, #0	; 0x0
5000334c:	ea000004 	b	50003364 <vsnprintf+0x310>
50003350:	e151000a 	cmp	r1, sl
50003354:	97d23006 	ldrbls	r3, [r2, r6]
50003358:	e2811001 	add	r1, r1, #1	; 0x1
5000335c:	97c23004 	strbls	r3, [r2, r4]
50003360:	e2822001 	add	r2, r2, #1	; 0x1
50003364:	e152000c 	cmp	r2, ip
50003368:	bafffff8 	blt	50003350 <vsnprintf+0x2fc>
5000336c:	e1a00007 	mov	r0, r7
50003370:	e1a04001 	mov	r4, r1
50003374:	ea000003 	b	50003388 <vsnprintf+0x334>
50003378:	e154000a 	cmp	r4, sl
5000337c:	93a02020 	movls	r2, #32	; 0x20
50003380:	95c42000 	strbls	r2, [r4]
50003384:	e2844001 	add	r4, r4, #1	; 0x1
50003388:	e15c0000 	cmp	ip, r0
5000338c:	e2400001 	sub	r0, r0, #1	; 0x1
50003390:	bafffff8 	blt	50003378 <vsnprintf+0x324>
50003394:	ea00005c 	b	5000350c <vsnprintf+0x4b8>
50003398:	e4982004 	ldr	r2, [r8], #4
5000339c:	e3770001 	cmn	r7, #1	; 0x1
500033a0:	03855001 	orreq	r5, r5, #1	; 0x1
500033a4:	02877009 	addeq	r7, r7, #9	; 0x9
500033a8:	e3a0c010 	mov	ip, #16	; 0x10
500033ac:	e1a00004 	mov	r0, r4
500033b0:	e3a03000 	mov	r3, #0	; 0x0
500033b4:	e1a0100a 	mov	r1, sl
500033b8:	e98d4080 	stmib	sp, {r7, lr}
500033bc:	e58d500c 	str	r5, [sp, #12]
500033c0:	e58dc000 	str	ip, [sp]
500033c4:	ea00004e 	b	50003504 <vsnprintf+0x4b0>
500033c8:	e350006c 	cmp	r0, #108	; 0x6c
500033cc:	12883004 	addne	r3, r8, #4	; 0x4
500033d0:	11a08003 	movne	r8, r3
500033d4:	04982004 	ldreq	r2, [r8], #4
500033d8:	15183004 	ldrne	r3, [r8, #-4]
500033dc:	00693004 	rsbeq	r3, r9, r4
500033e0:	10692004 	rsbne	r2, r9, r4
500033e4:	05823000 	streq	r3, [r2]
500033e8:	15832000 	strne	r2, [r3]
500033ec:	ea000046 	b	5000350c <vsnprintf+0x4b8>
500033f0:	e154000a 	cmp	r4, sl
500033f4:	95c43000 	strbls	r3, [r4]
500033f8:	ea000012 	b	50003448 <vsnprintf+0x3f4>
500033fc:	e3a0c008 	mov	ip, #8	; 0x8
50003400:	ea000013 	b	50003454 <vsnprintf+0x400>
50003404:	e3855040 	orr	r5, r5, #64	; 0x40
50003408:	e3a0c010 	mov	ip, #16	; 0x10
5000340c:	ea000010 	b	50003454 <vsnprintf+0x400>
50003410:	e3855002 	orr	r5, r5, #2	; 0x2
50003414:	ea00000d 	b	50003450 <vsnprintf+0x3fc>
50003418:	e154000a 	cmp	r4, sl
5000341c:	93a00025 	movls	r0, #37	; 0x25
50003420:	95c40000 	strbls	r0, [r4]
50003424:	e59d3014 	ldr	r3, [sp, #20]
50003428:	e5d32000 	ldrb	r2, [r3]
5000342c:	e3520000 	cmp	r2, #0	; 0x0
50003430:	02433001 	subeq	r3, r3, #1	; 0x1
50003434:	e2844001 	add	r4, r4, #1	; 0x1
50003438:	058d3014 	streq	r3, [sp, #20]
5000343c:	0a000032 	beq	5000350c <vsnprintf+0x4b8>
50003440:	e154000a 	cmp	r4, sl
50003444:	95c42000 	strbls	r2, [r4]
50003448:	e2844001 	add	r4, r4, #1	; 0x1
5000344c:	ea00002e 	b	5000350c <vsnprintf+0x4b8>
50003450:	e3a0c00a 	mov	ip, #10	; 0xa
50003454:	e350004c 	cmp	r0, #76	; 0x4c
50003458:	08b80006 	ldmeq	r8!, {r1, r2}
5000345c:	0a000021 	beq	500034e8 <vsnprintf+0x494>
50003460:	e350006c 	cmp	r0, #108	; 0x6c
50003464:	1a000005 	bne	50003480 <vsnprintf+0x42c>
50003468:	e4983004 	ldr	r3, [r8], #4
5000346c:	e3150002 	tst	r5, #2	; 0x2
50003470:	e1a01003 	mov	r1, r3
50003474:	e3a02000 	mov	r2, #0	; 0x0
50003478:	0a00001a 	beq	500034e8 <vsnprintf+0x494>
5000347c:	ea000018 	b	500034e4 <vsnprintf+0x490>
50003480:	e350007a 	cmp	r0, #122	; 0x7a
50003484:	1350005a 	cmpne	r0, #90	; 0x5a
50003488:	04983004 	ldreq	r3, [r8], #4
5000348c:	01a01003 	moveq	r1, r3
50003490:	03a02000 	moveq	r2, #0	; 0x0
50003494:	0a000013 	beq	500034e8 <vsnprintf+0x494>
50003498:	e3500068 	cmp	r0, #104	; 0x68
5000349c:	e2883004 	add	r3, r8, #4	; 0x4
500034a0:	e2050002 	and	r0, r5, #2	; 0x2
500034a4:	1a000008 	bne	500034cc <vsnprintf+0x478>
500034a8:	e15310b4 	ldrh	r1, [r3, #-4]
500034ac:	e3500000 	cmp	r0, #0	; 0x0
500034b0:	e3a02000 	mov	r2, #0	; 0x0
500034b4:	e1a08003 	mov	r8, r3
500034b8:	11a03001 	movne	r3, r1
500034bc:	11a03803 	lslne	r3, r3, #16
500034c0:	11a01843 	asrne	r1, r3, #16
500034c4:	1a000006 	bne	500034e4 <vsnprintf+0x490>
500034c8:	ea000006 	b	500034e8 <vsnprintf+0x494>
500034cc:	e1a08003 	mov	r8, r3
500034d0:	e5133004 	ldr	r3, [r3, #-4]
500034d4:	e3500000 	cmp	r0, #0	; 0x0
500034d8:	e1a01003 	mov	r1, r3
500034dc:	e3a02000 	mov	r2, #0	; 0x0
500034e0:	0a000000 	beq	500034e8 <vsnprintf+0x494>
500034e4:	e1a02fc1 	asr	r2, r1, #31
500034e8:	e58dc000 	str	ip, [sp]
500034ec:	e98d4080 	stmib	sp, {r7, lr}
500034f0:	e58d500c 	str	r5, [sp, #12]
500034f4:	e1a03002 	mov	r3, r2
500034f8:	e1a00004 	mov	r0, r4
500034fc:	e1a02001 	mov	r2, r1
50003500:	e1a0100a 	mov	r1, sl
50003504:	ebfffcd0 	bl	5000284c <number>
50003508:	e1a04000 	mov	r4, r0
5000350c:	e59d3014 	ldr	r3, [sp, #20]
50003510:	e2833001 	add	r3, r3, #1	; 0x1
50003514:	e58d3014 	str	r3, [sp, #20]
50003518:	e59d3014 	ldr	r3, [sp, #20]
5000351c:	e5d33000 	ldrb	r3, [r3]
50003520:	e3530000 	cmp	r3, #0	; 0x0
50003524:	1afffedd 	bne	500030a0 <vsnprintf+0x4c>
50003528:	e154000a 	cmp	r4, sl
5000352c:	95c43000 	strbls	r3, [r4]
50003530:	9a000001 	bls	5000353c <vsnprintf+0x4e8>
50003534:	e35b0000 	cmp	fp, #0	; 0x0
50003538:	15ca3000 	strbne	r3, [sl]
5000353c:	e0690004 	rsb	r0, r9, r4
50003540:	e28dd01c 	add	sp, sp, #28	; 0x1c
50003544:	e8bd4ff0 	pop	{r4, r5, r6, r7, r8, r9, sl, fp, lr}
50003548:	e12fff1e 	bx	lr
5000354c:	50004518 	.word	0x50004518
50003550:	5000451c 	.word	0x5000451c
50003554:	000003ff 	.word	0x000003ff
50003558:	50004508 	.word	0x50004508

5000355c <vsprintf>:
5000355c:	e1a03002 	mov	r3, r2
50003560:	e1a02001 	mov	r2, r1
50003564:	e3e01102 	mvn	r1, #-2147483648	; 0x80000000
50003568:	eafffeb9 	b	50003054 <vsnprintf>

5000356c <sprintf>:
5000356c:	e92d000e 	push	{r1, r2, r3}
50003570:	e52de004 	push	{lr}		; (str lr, [sp, #-4]!)
50003574:	e59d1004 	ldr	r1, [sp, #4]
50003578:	e28d2008 	add	r2, sp, #8	; 0x8
5000357c:	ebfffff6 	bl	5000355c <vsprintf>
50003580:	e49de004 	pop	{lr}		; (ldr lr, [sp], #4)
50003584:	e28dd00c 	add	sp, sp, #12	; 0xc
50003588:	e12fff1e 	bx	lr

5000358c <scnprintf>:
5000358c:	e92d000c 	push	{r2, r3}
50003590:	e92d4010 	push	{r4, lr}
50003594:	e59d2008 	ldr	r2, [sp, #8]
50003598:	e28d300c 	add	r3, sp, #12	; 0xc
5000359c:	e1a04001 	mov	r4, r1
500035a0:	ebfffeab 	bl	50003054 <vsnprintf>
500035a4:	e1500004 	cmp	r0, r4
500035a8:	22440001 	subcs	r0, r4, #1	; 0x1
500035ac:	e8bd4010 	pop	{r4, lr}
500035b0:	e28dd008 	add	sp, sp, #8	; 0x8
500035b4:	e12fff1e 	bx	lr

500035b8 <snprintf>:
500035b8:	e92d000c 	push	{r2, r3}
500035bc:	e52de004 	push	{lr}		; (str lr, [sp, #-4]!)
500035c0:	e24dd004 	sub	sp, sp, #4	; 0x4
500035c4:	e59d2008 	ldr	r2, [sp, #8]
500035c8:	e28d300c 	add	r3, sp, #12	; 0xc
500035cc:	ebfffea0 	bl	50003054 <vsnprintf>
500035d0:	e28dd004 	add	sp, sp, #4	; 0x4
500035d4:	e49de004 	pop	{lr}		; (ldr lr, [sp], #4)
500035d8:	e28dd008 	add	sp, sp, #8	; 0x8
500035dc:	e12fff1e 	bx	lr

500035e0 <vscnprintf>:
500035e0:	e92d4010 	push	{r4, lr}
500035e4:	e1a04001 	mov	r4, r1
500035e8:	ebfffe99 	bl	50003054 <vsnprintf>
500035ec:	e1500004 	cmp	r0, r4
500035f0:	22440001 	subcs	r0, r4, #1	; 0x1
500035f4:	e8bd4010 	pop	{r4, lr}
500035f8:	e12fff1e 	bx	lr
500035fc:	00000000 	andeq	r0, r0, r0

50003600 <__do_div64>:
50003600:	e254c001 	subs	ip, r4, #1	; 0x1
50003604:	9a00003f 	bls	50003708 <__do_div64+0x108>
50003608:	e11c0004 	tst	ip, r4
5000360c:	0a000028 	beq	500036b4 <__do_div64+0xb4>
50003610:	e1510004 	cmp	r1, r4
50003614:	e3a03000 	mov	r3, #0	; 0x0
50003618:	3a00000c 	bcc	50003650 <__do_div64+0x50>
5000361c:	e1a02004 	mov	r2, r4
50003620:	e3a0c001 	mov	ip, #1	; 0x1
50003624:	e3520102 	cmp	r2, #-2147483648	; 0x80000000
50003628:	31520001 	cmpcc	r2, r1
5000362c:	31a02082 	lslcc	r2, r2, #1
50003630:	31a0c08c 	lslcc	ip, ip, #1
50003634:	3afffffa 	bcc	50003624 <__do_div64+0x24>
50003638:	e1510002 	cmp	r1, r2
5000363c:	2183300c 	orrcs	r3, r3, ip
50003640:	20511002 	subscs	r1, r1, r2
50003644:	11b0c0ac 	lsrsne	ip, ip, #1
50003648:	e1a020a2 	lsr	r2, r2, #1
5000364c:	1afffff9 	bne	50003638 <__do_div64+0x38>
50003650:	e3510000 	cmp	r1, #0	; 0x0
50003654:	e3a02000 	mov	r2, #0	; 0x0
50003658:	01500004 	cmpeq	r0, r4
5000365c:	31a01000 	movcc	r1, r0
50003660:	31a0f00e 	movcc	pc, lr
50003664:	e3a0c102 	mov	ip, #-2147483648	; 0x80000000
50003668:	e1b00080 	lsls	r0, r0, #1
5000366c:	e0b11001 	adcs	r1, r1, r1
50003670:	0a000005 	beq	5000368c <__do_div64+0x8c>
50003674:	31510004 	cmpcc	r1, r4
50003678:	2182200c 	orrcs	r2, r2, ip
5000367c:	20411004 	subcs	r1, r1, r4
50003680:	e1b0c0ac 	lsrs	ip, ip, #1
50003684:	1afffff7 	bne	50003668 <__do_div64+0x68>
50003688:	e1a0f00e 	mov	pc, lr
5000368c:	2afffff9 	bcs	50003678 <__do_div64+0x78>
50003690:	e3500000 	cmp	r0, #0	; 0x0
50003694:	01a0f00e 	moveq	pc, lr
50003698:	e1b00080 	lsls	r0, r0, #1
5000369c:	e1a0c0ac 	lsr	ip, ip, #1
500036a0:	3afffffc 	bcc	50003698 <__do_div64+0x98>
500036a4:	e1b0c0ac 	lsrs	ip, ip, #1
500036a8:	e3a01001 	mov	r1, #1	; 0x1
500036ac:	1affffed 	bne	50003668 <__do_div64+0x68>
500036b0:	e1a0f00e 	mov	pc, lr
500036b4:	e1a02004 	mov	r2, r4
500036b8:	e3540801 	cmp	r4, #65536	; 0x10000
500036bc:	e3a0c000 	mov	ip, #0	; 0x0
500036c0:	21a02822 	lsrcs	r2, r2, #16
500036c4:	23a0c010 	movcs	ip, #16	; 0x10
500036c8:	e3520c01 	cmp	r2, #256	; 0x100
500036cc:	21a02422 	lsrcs	r2, r2, #8
500036d0:	228cc008 	addcs	ip, ip, #8	; 0x8
500036d4:	e3520010 	cmp	r2, #16	; 0x10
500036d8:	21a02222 	lsrcs	r2, r2, #4
500036dc:	228cc004 	addcs	ip, ip, #4	; 0x4
500036e0:	e3520004 	cmp	r2, #4	; 0x4
500036e4:	828cc003 	addhi	ip, ip, #3	; 0x3
500036e8:	908cc0a2 	addls	ip, ip, r2, lsr #1
500036ec:	e1a03c31 	lsr	r3, r1, ip
500036f0:	e1a02c30 	lsr	r2, r0, ip
500036f4:	e26cc020 	rsb	ip, ip, #32	; 0x20
500036f8:	e1822c11 	orr	r2, r2, r1, lsl ip
500036fc:	e1a01c10 	lsl	r1, r0, ip
50003700:	e1a01c31 	lsr	r1, r1, ip
50003704:	e1a0f00e 	mov	pc, lr
50003708:	01a02000 	moveq	r2, r0
5000370c:	01a03001 	moveq	r3, r1
50003710:	03a01000 	moveq	r1, #0	; 0x0
50003714:	01a0f00e 	moveq	pc, lr
50003718:	e52de004 	push	{lr}		; (str lr, [sp, #-4]!)
5000371c:	e3a02000 	mov	r2, #0	; 0x0
50003720:	e3a03000 	mov	r3, #0	; 0x0
50003724:	e3a01000 	mov	r1, #0	; 0x0
50003728:	e49df004 	pop	{pc}		; (ldr pc, [sp], #4)
5000372c:	e1a00000 	nop			(mov r0,r0)

50003730 <__aeabi_uidiv>:
50003730:	e2512001 	subs	r2, r1, #1	; 0x1
50003734:	012fff1e 	bxeq	lr
50003738:	3a000036 	bcc	50003818 <__aeabi_uidiv+0xe8>
5000373c:	e1500001 	cmp	r0, r1
50003740:	9a000022 	bls	500037d0 <__aeabi_uidiv+0xa0>
50003744:	e1110002 	tst	r1, r2
50003748:	0a000023 	beq	500037dc <__aeabi_uidiv+0xac>
5000374c:	e311020e 	tst	r1, #-536870912	; 0xe0000000
50003750:	01a01181 	lsleq	r1, r1, #3
50003754:	03a03008 	moveq	r3, #8	; 0x8
50003758:	13a03001 	movne	r3, #1	; 0x1
5000375c:	e3510201 	cmp	r1, #268435456	; 0x10000000
50003760:	31510000 	cmpcc	r1, r0
50003764:	31a01201 	lslcc	r1, r1, #4
50003768:	31a03203 	lslcc	r3, r3, #4
5000376c:	3afffffa 	bcc	5000375c <__aeabi_uidiv+0x2c>
50003770:	e3510102 	cmp	r1, #-2147483648	; 0x80000000
50003774:	31510000 	cmpcc	r1, r0
50003778:	31a01081 	lslcc	r1, r1, #1
5000377c:	31a03083 	lslcc	r3, r3, #1
50003780:	3afffffa 	bcc	50003770 <__aeabi_uidiv+0x40>
50003784:	e3a02000 	mov	r2, #0	; 0x0
50003788:	e1500001 	cmp	r0, r1
5000378c:	20400001 	subcs	r0, r0, r1
50003790:	21822003 	orrcs	r2, r2, r3
50003794:	e15000a1 	cmp	r0, r1, lsr #1
50003798:	204000a1 	subcs	r0, r0, r1, lsr #1
5000379c:	218220a3 	orrcs	r2, r2, r3, lsr #1
500037a0:	e1500121 	cmp	r0, r1, lsr #2
500037a4:	20400121 	subcs	r0, r0, r1, lsr #2
500037a8:	21822123 	orrcs	r2, r2, r3, lsr #2
500037ac:	e15001a1 	cmp	r0, r1, lsr #3
500037b0:	204001a1 	subcs	r0, r0, r1, lsr #3
500037b4:	218221a3 	orrcs	r2, r2, r3, lsr #3
500037b8:	e3500000 	cmp	r0, #0	; 0x0
500037bc:	11b03223 	lsrsne	r3, r3, #4
500037c0:	11a01221 	lsrne	r1, r1, #4
500037c4:	1affffef 	bne	50003788 <__aeabi_uidiv+0x58>
500037c8:	e1a00002 	mov	r0, r2
500037cc:	e12fff1e 	bx	lr
500037d0:	03a00001 	moveq	r0, #1	; 0x1
500037d4:	13a00000 	movne	r0, #0	; 0x0
500037d8:	e12fff1e 	bx	lr
500037dc:	e3510801 	cmp	r1, #65536	; 0x10000
500037e0:	21a01821 	lsrcs	r1, r1, #16
500037e4:	23a02010 	movcs	r2, #16	; 0x10
500037e8:	33a02000 	movcc	r2, #0	; 0x0
500037ec:	e3510c01 	cmp	r1, #256	; 0x100
500037f0:	21a01421 	lsrcs	r1, r1, #8
500037f4:	22822008 	addcs	r2, r2, #8	; 0x8
500037f8:	e3510010 	cmp	r1, #16	; 0x10
500037fc:	21a01221 	lsrcs	r1, r1, #4
50003800:	22822004 	addcs	r2, r2, #4	; 0x4
50003804:	e3510004 	cmp	r1, #4	; 0x4
50003808:	82822003 	addhi	r2, r2, #3	; 0x3
5000380c:	908220a1 	addls	r2, r2, r1, lsr #1
50003810:	e1a00230 	lsr	r0, r0, r2
50003814:	e12fff1e 	bx	lr
50003818:	e52de008 	str	lr, [sp, #-8]!
5000381c:	eb000008 	bl	50003844 <__div0>
50003820:	e3a00000 	mov	r0, #0	; 0x0
50003824:	e49de008 	ldr	lr, [sp], #8
50003828:	e12fff1e 	bx	lr

5000382c <__aeabi_uidivmod>:
5000382c:	e92d4003 	push	{r0, r1, lr}
50003830:	ebffffbe 	bl	50003730 <__aeabi_uidiv>
50003834:	e8bd4006 	pop	{r1, r2, lr}
50003838:	e0030092 	mul	r3, r2, r0
5000383c:	e0411003 	sub	r1, r1, r3
50003840:	e12fff1e 	bx	lr

50003844 <__div0>:
50003844:	e92d4002 	push	{r1, lr}
50003848:	e3a00008 	mov	r0, #8	; 0x8
5000384c:	ebfff3f7 	bl	50000830 <raise>
50003850:	e8bd4002 	pop	{r1, lr}
50003854:	e12fff1e 	bx	lr
Disassembly of section .rodata:

50003858 <C.0.1693>:
50003858:	00ff0000 	.word	0x00ff0000
5000385c:	0000ff00 	.word	0x0000ff00
50003860:	000000ff 	.word	0x000000ff
50003864:	00000000 	.word	0x00000000
50003868:	00ffffff 	.word	0x00ffffff

5000386c <fontdata_8x8>:
	...
50003874:	81a5817e 	.word	0x81a5817e
50003878:	7e8199bd 	.word	0x7e8199bd
5000387c:	ffdbff7e 	.word	0xffdbff7e
50003880:	7effe7c3 	.word	0x7effe7c3
50003884:	fefefe6c 	.word	0xfefefe6c
50003888:	0010387c 	.word	0x0010387c
5000388c:	fe7c3810 	.word	0xfe7c3810
50003890:	0010387c 	.word	0x0010387c
50003894:	fe387c38 	.word	0xfe387c38
50003898:	3810d6fe 	.word	0x3810d6fe
5000389c:	fe7c3810 	.word	0xfe7c3810
500038a0:	38107cfe 	.word	0x38107cfe
500038a4:	3c180000 	.word	0x3c180000
500038a8:	0000183c 	.word	0x0000183c
500038ac:	c3e7ffff 	.word	0xc3e7ffff
500038b0:	ffffe7c3 	.word	0xffffe7c3
500038b4:	42663c00 	.word	0x42663c00
500038b8:	003c6642 	.word	0x003c6642
500038bc:	bd99c3ff 	.word	0xbd99c3ff
500038c0:	ffc399bd 	.word	0xffc399bd
500038c4:	7d0f070f 	.word	0x7d0f070f
500038c8:	78cccccc 	.word	0x78cccccc
500038cc:	6666663c 	.word	0x6666663c
500038d0:	187e183c 	.word	0x187e183c
500038d4:	303f333f 	.word	0x303f333f
500038d8:	e0f07030 	.word	0xe0f07030
500038dc:	637f637f 	.word	0x637f637f
500038e0:	c0e66763 	.word	0xc0e66763
500038e4:	e73cdb18 	.word	0xe73cdb18
500038e8:	18db3ce7 	.word	0x18db3ce7
500038ec:	fef8e080 	.word	0xfef8e080
500038f0:	0080e0f8 	.word	0x0080e0f8
500038f4:	fe3e0e02 	.word	0xfe3e0e02
500038f8:	00020e3e 	.word	0x00020e3e
500038fc:	187e3c18 	.word	0x187e3c18
50003900:	183c7e18 	.word	0x183c7e18
50003904:	66666666 	.word	0x66666666
50003908:	00660066 	.word	0x00660066
5000390c:	7bdbdb7f 	.word	0x7bdbdb7f
50003910:	001b1b1b 	.word	0x001b1b1b
50003914:	663c613e 	.word	0x663c613e
50003918:	7c863c66 	.word	0x7c863c66
5000391c:	00000000 	.word	0x00000000
50003920:	007e7e7e 	.word	0x007e7e7e
50003924:	187e3c18 	.word	0x187e3c18
50003928:	ff183c7e 	.word	0xff183c7e
5000392c:	187e3c18 	.word	0x187e3c18
50003930:	00181818 	.word	0x00181818
50003934:	18181818 	.word	0x18181818
50003938:	00183c7e 	.word	0x00183c7e
5000393c:	fe0c1800 	.word	0xfe0c1800
50003940:	0000180c 	.word	0x0000180c
50003944:	fe603000 	.word	0xfe603000
50003948:	00003060 	.word	0x00003060
5000394c:	c0c00000 	.word	0xc0c00000
50003950:	0000fec0 	.word	0x0000fec0
50003954:	ff662400 	.word	0xff662400
50003958:	00002466 	.word	0x00002466
5000395c:	7e3c1800 	.word	0x7e3c1800
50003960:	0000ffff 	.word	0x0000ffff
50003964:	7effff00 	.word	0x7effff00
50003968:	0000183c 	.word	0x0000183c
	...
50003974:	183c3c18 	.word	0x183c3c18
50003978:	00180018 	.word	0x00180018
5000397c:	00246666 	.word	0x00246666
50003980:	00000000 	.word	0x00000000
50003984:	6cfe6c6c 	.word	0x6cfe6c6c
50003988:	006c6cfe 	.word	0x006c6cfe
5000398c:	3c603e18 	.word	0x3c603e18
50003990:	00187c06 	.word	0x00187c06
50003994:	18ccc600 	.word	0x18ccc600
50003998:	00c66630 	.word	0x00c66630
5000399c:	76386c38 	.word	0x76386c38
500039a0:	0076ccdc 	.word	0x0076ccdc
500039a4:	00301818 	.word	0x00301818
500039a8:	00000000 	.word	0x00000000
500039ac:	3030180c 	.word	0x3030180c
500039b0:	000c1830 	.word	0x000c1830
500039b4:	0c0c1830 	.word	0x0c0c1830
500039b8:	0030180c 	.word	0x0030180c
500039bc:	ff3c6600 	.word	0xff3c6600
500039c0:	0000663c 	.word	0x0000663c
500039c4:	7e181800 	.word	0x7e181800
500039c8:	00001818 	.word	0x00001818
500039cc:	00000000 	.word	0x00000000
500039d0:	30181800 	.word	0x30181800
500039d4:	7e000000 	.word	0x7e000000
	...
500039e0:	00181800 	.word	0x00181800
500039e4:	30180c06 	.word	0x30180c06
500039e8:	0080c060 	.word	0x0080c060
500039ec:	d6c66c38 	.word	0xd6c66c38
500039f0:	00386cc6 	.word	0x00386cc6
500039f4:	18183818 	.word	0x18183818
500039f8:	007e1818 	.word	0x007e1818
500039fc:	1c06c67c 	.word	0x1c06c67c
50003a00:	00fe6630 	.word	0x00fe6630
50003a04:	3c06c67c 	.word	0x3c06c67c
50003a08:	007cc606 	.word	0x007cc606
50003a0c:	cc6c3c1c 	.word	0xcc6c3c1c
50003a10:	001e0cfe 	.word	0x001e0cfe
50003a14:	fcc0c0fe 	.word	0xfcc0c0fe
50003a18:	007cc606 	.word	0x007cc606
50003a1c:	fcc06038 	.word	0xfcc06038
50003a20:	007cc6c6 	.word	0x007cc6c6
50003a24:	180cc6fe 	.word	0x180cc6fe
50003a28:	00303030 	.word	0x00303030
50003a2c:	7cc6c67c 	.word	0x7cc6c67c
50003a30:	007cc6c6 	.word	0x007cc6c6
50003a34:	7ec6c67c 	.word	0x7ec6c67c
50003a38:	00780c06 	.word	0x00780c06
50003a3c:	00181800 	.word	0x00181800
50003a40:	00181800 	.word	0x00181800
50003a44:	00181800 	.word	0x00181800
50003a48:	30181800 	.word	0x30181800
50003a4c:	30180c06 	.word	0x30180c06
50003a50:	00060c18 	.word	0x00060c18
50003a54:	007e0000 	.word	0x007e0000
50003a58:	00007e00 	.word	0x00007e00
50003a5c:	0c183060 	.word	0x0c183060
50003a60:	00603018 	.word	0x00603018
50003a64:	180cc67c 	.word	0x180cc67c
50003a68:	00180018 	.word	0x00180018
50003a6c:	dedec67c 	.word	0xdedec67c
50003a70:	0078c0de 	.word	0x0078c0de
50003a74:	fec66c38 	.word	0xfec66c38
50003a78:	00c6c6c6 	.word	0x00c6c6c6
50003a7c:	7c6666fc 	.word	0x7c6666fc
50003a80:	00fc6666 	.word	0x00fc6666
50003a84:	c0c0663c 	.word	0xc0c0663c
50003a88:	003c66c0 	.word	0x003c66c0
50003a8c:	66666cf8 	.word	0x66666cf8
50003a90:	00f86c66 	.word	0x00f86c66
50003a94:	786862fe 	.word	0x786862fe
50003a98:	00fe6268 	.word	0x00fe6268
50003a9c:	786862fe 	.word	0x786862fe
50003aa0:	00f06068 	.word	0x00f06068
50003aa4:	c0c0663c 	.word	0xc0c0663c
50003aa8:	003a66ce 	.word	0x003a66ce
50003aac:	fec6c6c6 	.word	0xfec6c6c6
50003ab0:	00c6c6c6 	.word	0x00c6c6c6
50003ab4:	1818183c 	.word	0x1818183c
50003ab8:	003c1818 	.word	0x003c1818
50003abc:	0c0c0c1e 	.word	0x0c0c0c1e
50003ac0:	0078cccc 	.word	0x0078cccc
50003ac4:	786c66e6 	.word	0x786c66e6
50003ac8:	00e6666c 	.word	0x00e6666c
50003acc:	606060f0 	.word	0x606060f0
50003ad0:	00fe6662 	.word	0x00fe6662
50003ad4:	fefeeec6 	.word	0xfefeeec6
50003ad8:	00c6c6d6 	.word	0x00c6c6d6
50003adc:	def6e6c6 	.word	0xdef6e6c6
50003ae0:	00c6c6ce 	.word	0x00c6c6ce
50003ae4:	c6c6c67c 	.word	0xc6c6c67c
50003ae8:	007cc6c6 	.word	0x007cc6c6
50003aec:	7c6666fc 	.word	0x7c6666fc
50003af0:	00f06060 	.word	0x00f06060
50003af4:	c6c6c67c 	.word	0xc6c6c67c
50003af8:	0e7ccec6 	.word	0x0e7ccec6
50003afc:	7c6666fc 	.word	0x7c6666fc
50003b00:	00e6666c 	.word	0x00e6666c
50003b04:	1830663c 	.word	0x1830663c
50003b08:	003c660c 	.word	0x003c660c
50003b0c:	185a7e7e 	.word	0x185a7e7e
50003b10:	003c1818 	.word	0x003c1818
50003b14:	c6c6c6c6 	.word	0xc6c6c6c6
50003b18:	007cc6c6 	.word	0x007cc6c6
50003b1c:	c6c6c6c6 	.word	0xc6c6c6c6
50003b20:	00386cc6 	.word	0x00386cc6
50003b24:	d6c6c6c6 	.word	0xd6c6c6c6
50003b28:	006cfed6 	.word	0x006cfed6
50003b2c:	386cc6c6 	.word	0x386cc6c6
50003b30:	00c6c66c 	.word	0x00c6c66c
50003b34:	3c666666 	.word	0x3c666666
50003b38:	003c1818 	.word	0x003c1818
50003b3c:	188cc6fe 	.word	0x188cc6fe
50003b40:	00fe6632 	.word	0x00fe6632
50003b44:	3030303c 	.word	0x3030303c
50003b48:	003c3030 	.word	0x003c3030
50003b4c:	183060c0 	.word	0x183060c0
50003b50:	0002060c 	.word	0x0002060c
50003b54:	0c0c0c3c 	.word	0x0c0c0c3c
50003b58:	003c0c0c 	.word	0x003c0c0c
50003b5c:	c66c3810 	.word	0xc66c3810
	...
50003b68:	ff000000 	.word	0xff000000
50003b6c:	000c1830 	.word	0x000c1830
50003b70:	00000000 	.word	0x00000000
50003b74:	0c780000 	.word	0x0c780000
50003b78:	0076cc7c 	.word	0x0076cc7c
50003b7c:	667c60e0 	.word	0x667c60e0
50003b80:	00dc6666 	.word	0x00dc6666
50003b84:	c67c0000 	.word	0xc67c0000
50003b88:	007cc6c0 	.word	0x007cc6c0
50003b8c:	cc7c0c1c 	.word	0xcc7c0c1c
50003b90:	0076cccc 	.word	0x0076cccc
50003b94:	c67c0000 	.word	0xc67c0000
50003b98:	007cc0fe 	.word	0x007cc0fe
50003b9c:	f860663c 	.word	0xf860663c
50003ba0:	00f06060 	.word	0x00f06060
50003ba4:	cc760000 	.word	0xcc760000
50003ba8:	f80c7ccc 	.word	0xf80c7ccc
50003bac:	766c60e0 	.word	0x766c60e0
50003bb0:	00e66666 	.word	0x00e66666
50003bb4:	18380018 	.word	0x18380018
50003bb8:	003c1818 	.word	0x003c1818
50003bbc:	06060006 	.word	0x06060006
50003bc0:	3c666606 	.word	0x3c666606
50003bc4:	6c6660e0 	.word	0x6c6660e0
50003bc8:	00e66c78 	.word	0x00e66c78
50003bcc:	18181838 	.word	0x18181838
50003bd0:	003c1818 	.word	0x003c1818
50003bd4:	feec0000 	.word	0xfeec0000
50003bd8:	00d6d6d6 	.word	0x00d6d6d6
50003bdc:	66dc0000 	.word	0x66dc0000
50003be0:	00666666 	.word	0x00666666
50003be4:	c67c0000 	.word	0xc67c0000
50003be8:	007cc6c6 	.word	0x007cc6c6
50003bec:	66dc0000 	.word	0x66dc0000
50003bf0:	f0607c66 	.word	0xf0607c66
50003bf4:	cc760000 	.word	0xcc760000
50003bf8:	1e0c7ccc 	.word	0x1e0c7ccc
50003bfc:	76dc0000 	.word	0x76dc0000
50003c00:	00f06060 	.word	0x00f06060
50003c04:	c07e0000 	.word	0xc07e0000
50003c08:	00fc067c 	.word	0x00fc067c
50003c0c:	30fc3030 	.word	0x30fc3030
50003c10:	001c3630 	.word	0x001c3630
50003c14:	cccc0000 	.word	0xcccc0000
50003c18:	0076cccc 	.word	0x0076cccc
50003c1c:	c6c60000 	.word	0xc6c60000
50003c20:	00386cc6 	.word	0x00386cc6
50003c24:	d6c60000 	.word	0xd6c60000
50003c28:	006cfed6 	.word	0x006cfed6
50003c2c:	6cc60000 	.word	0x6cc60000
50003c30:	00c66c38 	.word	0x00c66c38
50003c34:	c6c60000 	.word	0xc6c60000
50003c38:	fc067ec6 	.word	0xfc067ec6
50003c3c:	4c7e0000 	.word	0x4c7e0000
50003c40:	007e3218 	.word	0x007e3218
50003c44:	7018180e 	.word	0x7018180e
50003c48:	000e1818 	.word	0x000e1818
50003c4c:	18181818 	.word	0x18181818
50003c50:	00181818 	.word	0x00181818
50003c54:	0e181870 	.word	0x0e181870
50003c58:	00701818 	.word	0x00701818
50003c5c:	0000dc76 	.word	0x0000dc76
50003c60:	00000000 	.word	0x00000000
50003c64:	6c381000 	.word	0x6c381000
50003c68:	00fec6c6 	.word	0x00fec6c6
50003c6c:	c0c0c67c 	.word	0xc0c0c67c
50003c70:	780c7cc6 	.word	0x780c7cc6
50003c74:	cccc00cc 	.word	0xcccc00cc
50003c78:	0076cccc 	.word	0x0076cccc
50003c7c:	c67c180c 	.word	0xc67c180c
50003c80:	007cc0fe 	.word	0x007cc0fe
50003c84:	0c78827c 	.word	0x0c78827c
50003c88:	0076cc7c 	.word	0x0076cc7c
50003c8c:	0c7800c6 	.word	0x0c7800c6
50003c90:	0076cc7c 	.word	0x0076cc7c
50003c94:	0c781830 	.word	0x0c781830
50003c98:	0076cc7c 	.word	0x0076cc7c
50003c9c:	0c783030 	.word	0x0c783030
50003ca0:	0076cc7c 	.word	0x0076cc7c
50003ca4:	c07e0000 	.word	0xc07e0000
50003ca8:	380c7ec0 	.word	0x380c7ec0
50003cac:	c67c827c 	.word	0xc67c827c
50003cb0:	007cc0fe 	.word	0x007cc0fe
50003cb4:	c67c00c6 	.word	0xc67c00c6
50003cb8:	007cc0fe 	.word	0x007cc0fe
50003cbc:	c67c1830 	.word	0xc67c1830
50003cc0:	007cc0fe 	.word	0x007cc0fe
50003cc4:	18380066 	.word	0x18380066
50003cc8:	003c1818 	.word	0x003c1818
50003ccc:	1838827c 	.word	0x1838827c
50003cd0:	003c1818 	.word	0x003c1818
50003cd4:	38001830 	.word	0x38001830
50003cd8:	003c1818 	.word	0x003c1818
50003cdc:	c66c38c6 	.word	0xc66c38c6
50003ce0:	00c6c6fe 	.word	0x00c6c6fe
50003ce4:	c67c6c38 	.word	0xc67c6c38
50003ce8:	00c6c6fe 	.word	0x00c6c6fe
50003cec:	c0fe3018 	.word	0xc0fe3018
50003cf0:	00fec0f8 	.word	0x00fec0f8
50003cf4:	187e0000 	.word	0x187e0000
50003cf8:	007ed87e 	.word	0x007ed87e
50003cfc:	fecc6c3e 	.word	0xfecc6c3e
50003d00:	00cecccc 	.word	0x00cecccc
50003d04:	c67c827c 	.word	0xc67c827c
50003d08:	007cc6c6 	.word	0x007cc6c6
50003d0c:	c67c00c6 	.word	0xc67c00c6
50003d10:	007cc6c6 	.word	0x007cc6c6
50003d14:	c67c1830 	.word	0xc67c1830
50003d18:	007cc6c6 	.word	0x007cc6c6
50003d1c:	cc008478 	.word	0xcc008478
50003d20:	0076cccc 	.word	0x0076cccc
50003d24:	cccc3060 	.word	0xcccc3060
50003d28:	0076cccc 	.word	0x0076cccc
50003d2c:	c6c600c6 	.word	0xc6c600c6
50003d30:	fc067ec6 	.word	0xfc067ec6
50003d34:	c66c38c6 	.word	0xc66c38c6
50003d38:	00386cc6 	.word	0x00386cc6
50003d3c:	c6c600c6 	.word	0xc6c600c6
50003d40:	007cc6c6 	.word	0x007cc6c6
50003d44:	c07e1818 	.word	0xc07e1818
50003d48:	18187ec0 	.word	0x18187ec0
50003d4c:	f0646c38 	.word	0xf0646c38
50003d50:	00fc6660 	.word	0x00fc6660
50003d54:	7e3c6666 	.word	0x7e3c6666
50003d58:	18187e18 	.word	0x18187e18
50003d5c:	faccccf8 	.word	0xfaccccf8
50003d60:	c7c6cfc6 	.word	0xc7c6cfc6
50003d64:	3c181b0e 	.word	0x3c181b0e
50003d68:	0070d818 	.word	0x0070d818
50003d6c:	0c783018 	.word	0x0c783018
50003d70:	0076cc7c 	.word	0x0076cc7c
50003d74:	3800180c 	.word	0x3800180c
50003d78:	003c1818 	.word	0x003c1818
50003d7c:	c67c180c 	.word	0xc67c180c
50003d80:	007cc6c6 	.word	0x007cc6c6
50003d84:	cccc3018 	.word	0xcccc3018
50003d88:	0076cccc 	.word	0x0076cccc
50003d8c:	dc00dc76 	.word	0xdc00dc76
50003d90:	00666666 	.word	0x00666666
50003d94:	e600dc76 	.word	0xe600dc76
50003d98:	00cedef6 	.word	0x00cedef6
50003d9c:	3e6c6c3c 	.word	0x3e6c6c3c
50003da0:	00007e00 	.word	0x00007e00
50003da4:	386c6c38 	.word	0x386c6c38
50003da8:	00007c00 	.word	0x00007c00
50003dac:	18180018 	.word	0x18180018
50003db0:	003e6330 	.word	0x003e6330
50003db4:	fe000000 	.word	0xfe000000
50003db8:	0000c0c0 	.word	0x0000c0c0
50003dbc:	fe000000 	.word	0xfe000000
50003dc0:	00000606 	.word	0x00000606
50003dc4:	7e6ce663 	.word	0x7e6ce663
50003dc8:	0fcc6633 	.word	0x0fcc6633
50003dcc:	7a6ce663 	.word	0x7a6ce663
50003dd0:	06df6a36 	.word	0x06df6a36
50003dd4:	18180018 	.word	0x18180018
50003dd8:	00183c3c 	.word	0x00183c3c
50003ddc:	cc663300 	.word	0xcc663300
50003de0:	00003366 	.word	0x00003366
50003de4:	3366cc00 	.word	0x3366cc00
50003de8:	0000cc66 	.word	0x0000cc66
50003dec:	88228822 	.word	0x88228822
50003df0:	88228822 	.word	0x88228822
50003df4:	aa55aa55 	.word	0xaa55aa55
50003df8:	aa55aa55 	.word	0xaa55aa55
50003dfc:	dd77dd77 	.word	0xdd77dd77
50003e00:	dd77dd77 	.word	0xdd77dd77
50003e04:	18181818 	.word	0x18181818
50003e08:	18181818 	.word	0x18181818
50003e0c:	18181818 	.word	0x18181818
50003e10:	181818f8 	.word	0x181818f8
50003e14:	18f81818 	.word	0x18f81818
50003e18:	181818f8 	.word	0x181818f8
50003e1c:	36363636 	.word	0x36363636
50003e20:	363636f6 	.word	0x363636f6
50003e24:	00000000 	.word	0x00000000
50003e28:	363636fe 	.word	0x363636fe
50003e2c:	18f80000 	.word	0x18f80000
50003e30:	181818f8 	.word	0x181818f8
50003e34:	06f63636 	.word	0x06f63636
50003e38:	363636f6 	.word	0x363636f6
50003e3c:	36363636 	.word	0x36363636
50003e40:	36363636 	.word	0x36363636
50003e44:	06fe0000 	.word	0x06fe0000
50003e48:	363636f6 	.word	0x363636f6
50003e4c:	06f63636 	.word	0x06f63636
50003e50:	000000fe 	.word	0x000000fe
50003e54:	36363636 	.word	0x36363636
50003e58:	000000fe 	.word	0x000000fe
50003e5c:	18f81818 	.word	0x18f81818
50003e60:	000000f8 	.word	0x000000f8
50003e64:	00000000 	.word	0x00000000
50003e68:	181818f8 	.word	0x181818f8
50003e6c:	18181818 	.word	0x18181818
50003e70:	0000001f 	.word	0x0000001f
50003e74:	18181818 	.word	0x18181818
50003e78:	000000ff 	.word	0x000000ff
50003e7c:	00000000 	.word	0x00000000
50003e80:	181818ff 	.word	0x181818ff
50003e84:	18181818 	.word	0x18181818
50003e88:	1818181f 	.word	0x1818181f
50003e8c:	00000000 	.word	0x00000000
50003e90:	000000ff 	.word	0x000000ff
50003e94:	18181818 	.word	0x18181818
50003e98:	181818ff 	.word	0x181818ff
50003e9c:	181f1818 	.word	0x181f1818
50003ea0:	1818181f 	.word	0x1818181f
50003ea4:	36363636 	.word	0x36363636
50003ea8:	36363637 	.word	0x36363637
50003eac:	30373636 	.word	0x30373636
50003eb0:	0000003f 	.word	0x0000003f
50003eb4:	303f0000 	.word	0x303f0000
50003eb8:	36363637 	.word	0x36363637
50003ebc:	00f73636 	.word	0x00f73636
50003ec0:	000000ff 	.word	0x000000ff
50003ec4:	00ff0000 	.word	0x00ff0000
50003ec8:	363636f7 	.word	0x363636f7
50003ecc:	30373636 	.word	0x30373636
50003ed0:	36363637 	.word	0x36363637
50003ed4:	00ff0000 	.word	0x00ff0000
50003ed8:	000000ff 	.word	0x000000ff
50003edc:	00f73636 	.word	0x00f73636
50003ee0:	363636f7 	.word	0x363636f7
50003ee4:	00ff1818 	.word	0x00ff1818
50003ee8:	000000ff 	.word	0x000000ff
50003eec:	36363636 	.word	0x36363636
50003ef0:	000000ff 	.word	0x000000ff
50003ef4:	00ff0000 	.word	0x00ff0000
50003ef8:	181818ff 	.word	0x181818ff
50003efc:	00000000 	.word	0x00000000
50003f00:	363636ff 	.word	0x363636ff
50003f04:	36363636 	.word	0x36363636
50003f08:	0000003f 	.word	0x0000003f
50003f0c:	181f1818 	.word	0x181f1818
50003f10:	0000001f 	.word	0x0000001f
50003f14:	181f0000 	.word	0x181f0000
50003f18:	1818181f 	.word	0x1818181f
50003f1c:	00000000 	.word	0x00000000
50003f20:	3636363f 	.word	0x3636363f
50003f24:	36363636 	.word	0x36363636
50003f28:	363636ff 	.word	0x363636ff
50003f2c:	18ff1818 	.word	0x18ff1818
50003f30:	181818ff 	.word	0x181818ff
50003f34:	18181818 	.word	0x18181818
50003f38:	000000f8 	.word	0x000000f8
50003f3c:	00000000 	.word	0x00000000
50003f40:	1818181f 	.word	0x1818181f
50003f44:	ffffffff 	.word	0xffffffff
50003f48:	ffffffff 	.word	0xffffffff
50003f4c:	00000000 	.word	0x00000000
50003f50:	ffffffff 	.word	0xffffffff
50003f54:	f0f0f0f0 	.word	0xf0f0f0f0
50003f58:	f0f0f0f0 	.word	0xf0f0f0f0
50003f5c:	0f0f0f0f 	.word	0x0f0f0f0f
50003f60:	0f0f0f0f 	.word	0x0f0f0f0f
50003f64:	ffffffff 	.word	0xffffffff
50003f68:	00000000 	.word	0x00000000
50003f6c:	dc760000 	.word	0xdc760000
50003f70:	0076dcc8 	.word	0x0076dcc8
50003f74:	d8cccc78 	.word	0xd8cccc78
50003f78:	00ccc6cc 	.word	0x00ccc6cc
50003f7c:	c0c0c6fe 	.word	0xc0c0c6fe
50003f80:	00c0c0c0 	.word	0x00c0c0c0
50003f84:	6cfe0000 	.word	0x6cfe0000
50003f88:	006c6c6c 	.word	0x006c6c6c
50003f8c:	3060c6fe 	.word	0x3060c6fe
50003f90:	00fec660 	.word	0x00fec660
50003f94:	d87e0000 	.word	0xd87e0000
50003f98:	0070d8d8 	.word	0x0070d8d8
50003f9c:	66660000 	.word	0x66660000
50003fa0:	c07c6666 	.word	0xc07c6666
50003fa4:	18dc7600 	.word	0x18dc7600
50003fa8:	00181818 	.word	0x00181818
50003fac:	663c187e 	.word	0x663c187e
50003fb0:	7e183c66 	.word	0x7e183c66
50003fb4:	fec66c38 	.word	0xfec66c38
50003fb8:	00386cc6 	.word	0x00386cc6
50003fbc:	c6c66c38 	.word	0xc6c66c38
50003fc0:	00ee6c6c 	.word	0x00ee6c6c
50003fc4:	3e0c180e 	.word	0x3e0c180e
50003fc8:	003c6666 	.word	0x003c6666
50003fcc:	db7e0000 	.word	0xdb7e0000
50003fd0:	00007edb 	.word	0x00007edb
50003fd4:	db7e0c06 	.word	0xdb7e0c06
50003fd8:	c0607edb 	.word	0xc0607edb
50003fdc:	7e60301e 	.word	0x7e60301e
50003fe0:	001e3060 	.word	0x001e3060
50003fe4:	c6c67c00 	.word	0xc6c67c00
50003fe8:	00c6c6c6 	.word	0x00c6c6c6
50003fec:	fe00fe00 	.word	0xfe00fe00
50003ff0:	0000fe00 	.word	0x0000fe00
50003ff4:	187e1818 	.word	0x187e1818
50003ff8:	007e0018 	.word	0x007e0018
50003ffc:	180c1830 	.word	0x180c1830
50004000:	007e0030 	.word	0x007e0030
50004004:	1830180c 	.word	0x1830180c
50004008:	007e000c 	.word	0x007e000c
5000400c:	181b1b0e 	.word	0x181b1b0e
50004010:	18181818 	.word	0x18181818
50004014:	18181818 	.word	0x18181818
50004018:	70d8d818 	.word	0x70d8d818
5000401c:	7e001800 	.word	0x7e001800
50004020:	00001800 	.word	0x00001800
50004024:	00dc7600 	.word	0x00dc7600
50004028:	0000dc76 	.word	0x0000dc76
5000402c:	386c6c38 	.word	0x386c6c38
50004030:	00000000 	.word	0x00000000
50004034:	18000000 	.word	0x18000000
50004038:	00000018 	.word	0x00000018
5000403c:	18000000 	.word	0x18000000
50004040:	00000000 	.word	0x00000000
50004044:	0c0c0c0f 	.word	0x0c0c0c0f
50004048:	1c3c6cec 	.word	0x1c3c6cec
5000404c:	3636366c 	.word	0x3636366c
50004050:	00000036 	.word	0x00000036
50004054:	30180c78 	.word	0x30180c78
50004058:	0000007c 	.word	0x0000007c
5000405c:	3c3c0000 	.word	0x3c3c0000
50004060:	00003c3c 	.word	0x00003c3c
	...

5000406c <large_digits.1777>:
5000406c:	33323130 	.word	0x33323130
50004070:	37363534 	.word	0x37363534
50004074:	42413938 	.word	0x42413938
50004078:	46454443 	.word	0x46454443
5000407c:	4a494847 	.word	0x4a494847
50004080:	4e4d4c4b 	.word	0x4e4d4c4b
50004084:	5251504f 	.word	0x5251504f
50004088:	56555453 	.word	0x56555453
5000408c:	5a595857 	.word	0x5a595857
50004090:	00000000 	.word	0x00000000

50004094 <small_digits.1776>:
50004094:	33323130 	.word	0x33323130
50004098:	37363534 	.word	0x37363534
5000409c:	62613938 	.word	0x62613938
500040a0:	66656463 	.word	0x66656463
500040a4:	6a696867 	.word	0x6a696867
500040a8:	6e6d6c6b 	.word	0x6e6d6c6b
500040ac:	7271706f 	.word	0x7271706f
500040b0:	76757473 	.word	0x76757473
500040b4:	7a797877 	.word	0x7a797877
500040b8:	00000000 	.word	0x00000000
Disassembly of section .rodata.str1.4:

500040bc <.rodata.str1.4>:
500040bc:	6e697270 	.word	0x6e697270
500040c0:	70635f74 	rsbvc	r5, r3, r4, ror pc
500040c4:	25207273 	strcs	r7, [r0, #-627]!
500040c8:	70632073 	rsbvc	r2, r3, r3, ror r0
500040cc:	3d207273 	sfmcc	f7, 4, [r0, #-460]!
500040d0:	25783020 	ldrbcs	r3, [r8, #-32]!
500040d4:	000d0a78 	andeq	r0, sp, r8, ror sl
500040d8:	00007325 	andeq	r7, r0, r5, lsr #6
500040dc:	73750d0a 	cmnvc	r5, #640	; 0x280
500040e0:	74672065 	strbtvc	r2, [r7], #-101
500040e4:	7265746b 	rsbvc	r7, r5, #1795162112	; 0x6b000000
500040e8:	6f74206d 	svcvs	0x0074206d
500040ec:	6e657320 	cdpvs	3, 6, cr7, cr5, cr0, {1}
500040f0:	69662064 	stmdbvs	r6!, {r2, r5, r6, sp}^
500040f4:	0d0a656c 	.word	0x0d0a656c
500040f8:	00000000 	andeq	r0, r0, r0
500040fc:	65766168 	ldrbvs	r6, [r6, #-360]!
50004100:	74656720 	strbtvc	r6, [r5], #-1824
50004104:	20642520 	.word	0x20642520
50004108:	65747962 	ldrbvs	r7, [r4, #-2402]!
5000410c:	61642073 	smcvs	16899
50004110:	0d0a6174 	.word	0x0d0a6174
50004114:	00000000 	andeq	r0, r0, r0
50004118:	706d756a 	rsbvc	r7, sp, sl, ror #10
5000411c:	206f7420 	.word	0x206f7420
50004120:	32357830 	eorscc	r7, r5, #3145728	; 0x300000
50004124:	30303030 	eorscc	r3, r0, r0, lsr r0
50004128:	74203030 	strtvc	r3, [r0], #-48
5000412c:	7572206f 	.word	0x7572206f
50004130:	7469206e 	strbtvc	r2, [r9], #-110
50004134:	00000d0a 	andeq	r0, r0, sl, lsl #26
50004138:	73750d0a 	cmnvc	r5, #640	; 0x280
5000413c:	32562065 	.word	0x32562065
50004140:	652e322e 	strvs	r3, [lr, #-558]!
50004144:	672f6578 	undefined
50004148:	65746b74 	.word	0x65746b74
5000414c:	74206d72 	strtvc	r6, [r0], #-3442
50004150:	6573206f 	ldrbvs	r2, [r3, #-111]!
50004154:	6620646e 	strtvs	r6, [r0], -lr, ror #8
50004158:	0a656c69 	beq	5195f304 <bss_end+0x1959cb8>
5000415c:	0000000d 	andeq	r0, r0, sp
50004160:	20656874 	rsbcs	r6, r5, r4, ror r8
50004164:	73726966 	cmnvc	r2, #1671168	; 0x198000
50004168:	36312074 	undefined
5000416c:	74796220 	ldrbtvc	r6, [r9], #-544
50004170:	64207365 	strtvs	r7, [r0], #-869
50004174:	3a617461 	bcc	51861300 <bss_end+0x185bcb4>
50004178:	000d0a20 	.word	0x000d0a20
5000417c:	78323025 	ldmdavc	r2!, {r0, r2, r5, ip, sp}
50004180:	00000020 	andeq	r0, r0, r0, lsr #32
50004184:	73657250 	cmnvc	r5, #5	; 0x5
50004188:	20592073 	subscs	r2, r9, r3, ror r0
5000418c:	70206f74 	eorvc	r6, r0, r4, ror pc
50004190:	72676f72 	rsbvc	r6, r7, #456	; 0x1c8
50004194:	74206d61 	strtvc	r6, [r0], #-3425
50004198:	66206568 	strtvs	r6, [r0], -r8, ror #10
5000419c:	6873616c 	ldmdavs	r3!, {r2, r3, r5, r6, r8, sp, lr}^
500041a0:	0d0a203a 	stceq	0, cr2, [sl, #-232]
500041a4:	00000000 	andeq	r0, r0, r0
500041a8:	61647075 	smcvs	18181
500041ac:	70206574 	eorvc	r6, r0, r4, ror r5
500041b0:	72676f72 	rsbvc	r6, r7, #456	; 0x1c8
500041b4:	73206d61 	.word	0x73206d61
500041b8:	65636375 	strbvs	r6, [r3, #-885]!
500041bc:	75667373 	strbvc	r7, [r6, #-883]!
500041c0:	000d0a6c 	.word	0x000d0a6c
500041c4:	636e6143 	cmnvs	lr, #-1073741808	; 0xc0000010
500041c8:	70206c65 	eorvc	r6, r0, r5, ror #24
500041cc:	72676f72 	.word	0x72676f72
500041d0:	0a216d61 	beq	5085f75c <bss_end+0x85a110>
500041d4:	0000000d 	andeq	r0, r0, sp
500041d8:	65746e65 	.word	0x65746e65
500041dc:	68742072 	ldmdavs	r4!, {r1, r4, r5, r6, sp}^
500041e0:	74732065 	ldrbtvc	r2, [r3], #-101
500041e4:	20747261 	.word	0x20747261
500041e8:	72646461 	rsbvc	r6, r4, #1627389952	; 0x61000000
500041ec:	3a737365 	bcc	51ce0f88 <bss_end+0x1cdb93c>
500041f0:	00000020 	.word	0x00000020
500041f4:	73617265 	cmnvc	r1, #1342177286	; 0x50000006
500041f8:	64612065 	strbtvs	r2, [r1], #-101
500041fc:	3d207264 	.word	0x3d207264
50004200:	25783020 	ldrbcs	r3, [r8, #-32]!
50004204:	000d0a78 	andeq	r0, sp, r8, ror sl
50004208:	65746e65 	.word	0x65746e65
5000420c:	68742072 	ldmdavs	r4!, {r1, r4, r5, r6, sp}^
50004210:	74732065 	ldrbtvc	r2, [r3], #-101
50004214:	676e6972 	.word	0x676e6972
50004218:	0000203a 	andeq	r2, r0, sl, lsr r0
5000421c:	64616572 	strbtvs	r6, [r1], #-1394
50004220:	64646120 	.word	0x64646120
50004224:	203d2072 	eorscs	r2, sp, r2, ror r0
50004228:	78257830 	stmdavc	r5!, {r4, r5, fp, ip, sp, lr}
5000422c:	00000d0a 	andeq	r0, r0, sl, lsl #26
50004230:	65746e65 	.word	0x65746e65
50004234:	68742072 	ldmdavs	r4!, {r1, r4, r5, r6, sp}^
50004238:	69732065 	ldmdbvs	r3!, {r0, r2, r5, r6, sp}^
5000423c:	203a657a 	.word	0x203a657a
50004240:	00000000 	andeq	r0, r0, r0
50004244:	20656874 	rsbcs	r6, r5, r4, ror r8
50004248:	2078616d 	.word	0x2078616d
5000424c:	657a6973 	ldrbvs	r6, [sl, #-2419]!
50004250:	20736920 	rsbscs	r6, r3, r0, lsr #18
50004254:	0a303031 	.word	0x0a303031
50004258:	0000000d 	andeq	r0, r0, sp
5000425c:	61746164 	cmnvs	r4, r4, ror #2
50004260:	0a203a73 	beq	50812c34 <bss_end+0x80d5e8>
50004264:	0000000d 	andeq	r0, r0, sp
50004268:	206e6163 	.word	0x206e6163
5000426c:	61647075 	smcvs	18181
50004270:	70206574 	eorvc	r6, r0, r4, ror r5
50004274:	72676f72 	.word	0x72676f72
50004278:	77206d61 	strvc	r6, [r0, -r1, ror #26]!
5000427c:	20687469 	rsbcs	r7, r8, r9, ror #8
50004280:	69726573 	.word	0x69726573
50004284:	70206c61 	eorvc	r6, r0, r1, ror #24
50004288:	0a74726f 	beq	51d20c4c <bss_end+0x1d1b600>
5000428c:	0000000d 	.word	0x0000000d
50004290:	205d775b 	subscs	r7, sp, fp, asr r7
50004294:	74697277 	strbtvc	r7, [r9], #-631
50004298:	68742065 	.word	0x68742065
5000429c:	616e2065 	cmnvs	lr, r5, rrx
500042a0:	6620646e 	strtvs	r6, [r0], -lr, ror #8
500042a4:	6873616c 	.word	0x6873616c
500042a8:	00000d0a 	andeq	r0, r0, sl, lsl #26
500042ac:	205d725b 	subscs	r7, sp, fp, asr r2
500042b0:	64616572 	.word	0x64616572
500042b4:	65687420 	strbvs	r7, [r8, #-1056]!
500042b8:	6e616e20 	cdpvs	14, 6, cr6, cr1, cr0, {1}
500042bc:	6c662064 	.word	0x6c662064
500042c0:	0a687361 	beq	51a2104c <bss_end+0x1a1ba00>
500042c4:	0000000d 	andeq	r0, r0, sp
500042c8:	205d655b 	.word	0x205d655b
500042cc:	73617265 	cmnvc	r1, #1342177286	; 0x50000006
500042d0:	68742065 	ldmdavs	r4!, {r0, r2, r5, r6, sp}^
500042d4:	616e2065 	.word	0x616e2065
500042d8:	6620646e 	strtvs	r6, [r0], -lr, ror #8
500042dc:	6873616c 	ldmdavs	r3!, {r2, r3, r5, r6, r8, sp, lr}^
500042e0:	00000d0a 	.word	0x00000d0a
500042e4:	205d675b 	subscs	r6, sp, fp, asr r7
500042e8:	20746567 	rsbscs	r6, r4, r7, ror #10
500042ec:	656c6966 	.word	0x656c6966
500042f0:	6e61202c 	cdpvs	0, 6, cr2, cr1, cr12, {1}
500042f4:	72772064 	rsbsvc	r2, r7, #100	; 0x64
500042f8:	20657469 	.word	0x20657469
500042fc:	6e206f74 	mcrvs	15, 1, r6, cr0, cr4, {3}
50004300:	20646e61 	rsbcs	r6, r4, r1, ror #28
50004304:	73616c66 	.word	0x73616c66
50004308:	20302068 	eorscs	r2, r0, r8, rrx
5000430c:	636f6c62 	cmnvs	pc, #25088	; 0x6200
50004310:	000d0a6b 	.word	0x000d0a6b
50004314:	205d785b 	subscs	r7, sp, fp, asr r8
50004318:	20746567 	rsbscs	r6, r4, r7, ror #10
5000431c:	656c6966 	.word	0x656c6966
50004320:	206f7420 	rsbcs	r7, pc, r0, lsr #8
50004324:	28726464 	ldmdacs	r2!, {r2, r5, r6, sl, sp, lr}^
50004328:	32357830 	.word	0x32357830
5000432c:	30303030 	eorscc	r3, r0, r0, lsr r0
50004330:	2c293030 	stccs	0, cr3, [r9], #-192
50004334:	6e757220 	.word	0x6e757220
50004338:	0a746920 	beq	51d1e7c0 <bss_end+0x1d19174>
5000433c:	0000000d 	andeq	r0, r0, sp
50004340:	205d745b 	.word	0x205d745b
50004344:	74736574 	ldrbtvc	r6, [r3], #-1396
50004348:	64636c20 	strbtvs	r6, [r3], #-3104
5000434c:	00000d0a 	.word	0x00000d0a
50004350:	6c6c6568 	cfstr64vs	mvdx6, [ip], #-416
50004354:	3031206f 	eorscc	r2, r1, pc, rrx
50004358:	6b736130 	.word	0x6b736130
5000435c:	00000d0a 	andeq	r0, r0, sl, lsl #26
50004360:	746e6965 	strbtvc	r6, [lr], #-2405
50004364:	31315f34 	.word	0x31315f34
50004368:	7172695f 	cmnvc	r2, pc, asr r9
5000436c:	00000d0a 	andeq	r0, r0, sl, lsl #26
50004370:	2064254b 	.word	0x2064254b
50004374:	656c6572 	strbvs	r6, [ip, #-1394]!
50004378:	64657361 	strbtvs	r7, [r5], #-865
5000437c:	00000d0a 	.word	0x00000d0a
50004380:	2064254b 	rsbcs	r2, r4, fp, asr #10
50004384:	73657270 	cmnvc	r5, #7	; 0x7
50004388:	0a646573 	.word	0x0a646573
5000438c:	0000000d 	andeq	r0, r0, sp
50004390:	746e6965 	strbtvc	r6, [lr], #-2405
50004394:	5f335f30 	.word	0x5f335f30
50004398:	0a717269 	beq	51c60d44 <bss_end+0x1c5b6f8>
5000439c:	0000000d 	andeq	r0, r0, sp
500043a0:	2a2a2a2a 	.word	0x2a2a2a2a
500043a4:	2a2a2a2a 	bcs	50a8ec54 <bss_end+0xa89608>
500043a8:	2044434c 	subcs	r4, r4, ip, asr #6
500043ac:	54534554 	.word	0x54534554
500043b0:	4e454d20 	cdpmi	13, 4, cr4, cr5, cr0, {1}
500043b4:	2a2a2a55 	bcs	50a8ed10 <bss_end+0xa896c4>
500043b8:	2a2a2a2a 	.word	0x2a2a2a2a
500043bc:	000d0a2a 	andeq	r0, sp, sl, lsr #20
500043c0:	205d4c5b 	subscs	r4, sp, fp, asr ip
500043c4:	62616e65 	rsbvs	r6, r1, #1616	; 0x650
500043c8:	642f656c 	.word	0x642f656c
500043cc:	62617369 	rsbvs	r7, r1, #-1543503871	; 0xa4000001
500043d0:	4c20656c 	cfstr32mi	mvfx6, [r0], #-432
500043d4:	0d0a4443 	.word	0x0d0a4443
500043d8:	00000000 	andeq	r0, r0, r0
500043dc:	205d425b 	subscs	r4, sp, fp, asr r2
500043e0:	62616e65 	.word	0x62616e65
500043e4:	642f656c 	strtvs	r6, [pc], #1388	; 500043ec <small_digits.1776+0x358>
500043e8:	62617369 	rsbvs	r7, r1, #-1543503871	; 0xa4000001
500043ec:	6220656c 	eorvs	r6, r0, #452984832	; 0x1b000000
500043f0:	206b6361 	.word	0x206b6361
500043f4:	6867696c 	stmdavs	r7!, {r2, r3, r5, r6, r8, fp, sp, lr}^
500043f8:	000d0a74 	andeq	r0, sp, r4, ror sl
500043fc:	205d435b 	.word	0x205d435b
50004400:	62616e65 	rsbvs	r6, r1, #1616	; 0x650
50004404:	642f656c 	strtvs	r6, [pc], #1388	; 5000440c <small_digits.1776+0x378>
50004408:	62617369 	.word	0x62617369
5000440c:	7320656c 	teqvc	r0, #452984832	; 0x1b000000
50004410:	34366333 	ldrtcc	r6, [r6], #-819
50004414:	64203031 	.word	0x64203031
50004418:	6c707369 	ldclvs	3, cr7, [r0], #-420
5000441c:	63207961 	teqvs	r0, #1589248	; 0x184000
50004420:	72746e6f 	.word	0x72746e6f
50004424:	656c6c6f 	strbvs	r6, [ip, #-3183]!
50004428:	000d0a72 	andeq	r0, sp, r2, ror sl
5000442c:	205d445b 	.word	0x205d445b
50004430:	70736964 	rsbsvc	r6, r3, r4, ror #18
50004434:	2079616c 	rsbscs	r6, r9, ip, ror #2
50004438:	6f6c6f63 	.word	0x6f6c6f63
5000443c:	000d0a72 	andeq	r0, sp, r2, ror sl
50004440:	205d495b 	subscs	r4, sp, fp, asr r9
50004444:	61726420 	.word	0x61726420
50004448:	696c2077 	stmdbvs	ip!, {r0, r1, r2, r4, r5, r6, sp}^
5000444c:	0d0a656e 	cfstr32eq	mvfx6, [sl, #-440]
50004450:	00000000 	.word	0x00000000
50004454:	205d515b 	subscs	r5, sp, fp, asr r1
50004458:	74697571 	strbtvc	r7, [r9], #-1393
5000445c:	00000d0a 	.word	0x00000d0a
50004460:	2044434c 	subcs	r4, r4, ip, asr #6
50004464:	0a66666f 	beq	5199de28 <bss_end+0x19987dc>
50004468:	0000000d 	.word	0x0000000d
5000446c:	2044434c 	subcs	r4, r4, ip, asr #6
50004470:	0d0a6e6f 	stceq	14, cr6, [sl, #-444]
50004474:	00000000 	.word	0x00000000
50004478:	70736944 	rsbsvc	r6, r3, r4, asr #18
5000447c:	2079616c 	rsbscs	r6, r9, ip, ror #2
50004480:	746e6f63 	.word	0x746e6f63
50004484:	6c6c6f72 	stclvs	15, cr6, [ip], #-456
50004488:	6f207265 	.word	0x6f207265
5000448c:	000d0a6e 	andeq	r0, sp, lr, ror #20
50004490:	2a2a2a2a 	.word	0x2a2a2a2a
50004494:	2a2a2a2a 	bcs	50a8ed44 <bss_end+0xa896f8>
50004498:	204d5750 	.word	0x204d5750
5000449c:	54534554 	ldrbpl	r4, [r3], #-1364
500044a0:	4e454d20 	.word	0x4e454d20
500044a4:	2a2a2a55 	bcs	50a8ee00 <bss_end+0xa897b4>
500044a8:	2a2a2a2a 	.word	0x2a2a2a2a
500044ac:	000d0a2a 	andeq	r0, sp, sl, lsr #20
500044b0:	205d2b5b 	.word	0x205d2b5b
500044b4:	72636e69 	.word	0x72636e69
500044b8:	65736165 	.word	0x65736165
500044bc:	65687420 	strbvs	r7, [r8, #-1056]!
500044c0:	4d575020 	ldclmi	0, cr5, [r7, #-128]
500044c4:	74756420 	ldrbtvc	r6, [r5], #-1056
500044c8:	000d0a79 	andeq	r0, sp, r9, ror sl
500044cc:	205d2d5b 	subscs	r2, sp, fp, asr sp
500044d0:	72636564 	rsbvc	r6, r3, #419430400	; 0x19000000
500044d4:	65736165 	ldrbvs	r6, [r3, #-357]!
500044d8:	65687420 	strbvs	r7, [r8, #-1056]!
500044dc:	4d575020 	ldclmi	0, cr5, [r7, #-128]
500044e0:	74756420 	ldrbtvc	r6, [r5], #-1056
500044e4:	000d0a79 	andeq	r0, sp, r9, ror sl
500044e8:	205d535b 	subscs	r5, sp, fp, asr r3
500044ec:	706f7473 	rsbvc	r7, pc, r3, ror r4
500044f0:	65687420 	strbvs	r7, [r8, #-1056]!
500044f4:	4d575020 	ldclmi	0, cr5, [r7, #-128]
500044f8:	00000d0a 	andeq	r0, r0, sl, lsl #26
500044fc:	79747564 	ldmdbvc	r4!, {r2, r5, r6, r8, sl, ip, sp, lr}^
50004500:	25203d20 	strcs	r3, [r0, #-3360]!
50004504:	000d0a64 	andeq	r0, sp, r4, ror #20
50004508:	4c554e3c 	mrrcmi	14, 3, r4, r5, cr12
5000450c:	00003e4c 	andeq	r3, r0, ip, asr #28
Disassembly of section .data:

50004510 <str>:
50004510:	50004350 	.word	0x50004350

50004514 <cnt.1603>:
50004514:	00000005 	.word	0x00000005

50004518 <warn.1848>:
50004518:	00000001 	.word	0x00000001

5000451c <_ctype>:
5000451c:	08080808 	.word	0x08080808
50004520:	08080808 	.word	0x08080808
50004524:	28282808 	.word	0x28282808
50004528:	08082828 	.word	0x08082828
5000452c:	08080808 	.word	0x08080808
50004530:	08080808 	.word	0x08080808
50004534:	08080808 	.word	0x08080808
50004538:	08080808 	.word	0x08080808
5000453c:	101010a0 	.word	0x101010a0
50004540:	10101010 	.word	0x10101010
50004544:	10101010 	.word	0x10101010
50004548:	10101010 	.word	0x10101010
5000454c:	04040404 	.word	0x04040404
50004550:	04040404 	.word	0x04040404
50004554:	10100404 	.word	0x10100404
50004558:	10101010 	.word	0x10101010
5000455c:	41414110 	.word	0x41414110
50004560:	01414141 	.word	0x01414141
50004564:	01010101 	.word	0x01010101
50004568:	01010101 	.word	0x01010101
5000456c:	01010101 	.word	0x01010101
50004570:	01010101 	.word	0x01010101
50004574:	10010101 	.word	0x10010101
50004578:	10101010 	.word	0x10101010
5000457c:	42424210 	.word	0x42424210
50004580:	02424242 	.word	0x02424242
50004584:	02020202 	.word	0x02020202
50004588:	02020202 	.word	0x02020202
5000458c:	02020202 	.word	0x02020202
50004590:	02020202 	.word	0x02020202
50004594:	10020202 	.word	0x10020202
50004598:	08101010 	.word	0x08101010
	...
500045bc:	101010a0 	.word	0x101010a0
500045c0:	10101010 	.word	0x10101010
500045c4:	10101010 	.word	0x10101010
500045c8:	10101010 	.word	0x10101010
500045cc:	10101010 	.word	0x10101010
500045d0:	10101010 	.word	0x10101010
500045d4:	10101010 	.word	0x10101010
500045d8:	10101010 	.word	0x10101010
500045dc:	01010101 	.word	0x01010101
500045e0:	01010101 	.word	0x01010101
500045e4:	01010101 	.word	0x01010101
500045e8:	01010101 	.word	0x01010101
500045ec:	01010101 	.word	0x01010101
500045f0:	10010101 	.word	0x10010101
500045f4:	01010101 	.word	0x01010101
500045f8:	02010101 	.word	0x02010101
500045fc:	02020202 	.word	0x02020202
50004600:	02020202 	.word	0x02020202
50004604:	02020202 	.word	0x02020202
50004608:	02020202 	.word	0x02020202
5000460c:	02020202 	.word	0x02020202
50004610:	10020202 	.word	0x10020202
50004614:	02020202 	.word	0x02020202
50004618:	02020202 	.word	0x02020202
Disassembly of section .bss:

5000461c <w_idx>:
5000461c:	00000000 	.word	0x00000000

50004620 <r_idx>:
50004620:	00000000 	.word	0x00000000

50004624 <txbuf>:
	...

50004e24 <blon.1706>:
50004e24:	00000000 	.word	0x00000000

50004e28 <lcdon.1705>:
50004e28:	00000000 	.word	0x00000000

50004e2c <color_idx.1686>:
50004e2c:	00000000 	.word	0x00000000

50004e30 <y.1684>:
50004e30:	00000000 	.word	0x00000000

50004e34 <x.1683>:
50004e34:	00000000 	.word	0x00000000

50004e38 <g_pcOutBuf>:
	...

50005238 <g_pcInBuf>:
	...

50005638 <xsize>:
50005638:	00000000 	.word	0x00000000

5000563c <fb_base_addr>:
5000563c:	00000000 	.word	0x00000000

50005640 <ysize>:
50005640:	00000000 	.word	0x00000000

50005644 <bpp>:
50005644:	00000000 	.word	0x00000000

50005648 <___strtok>:
50005648:	00000000 	.word	0x00000000
Disassembly of section .comment:

00000000 <.comment>:
   0:	43434700 	movtmi	r4, #14080	; 0x3700
   4:	4728203a 	undefined
   8:	2029554e 	eorcs	r5, r9, lr, asr #10
   c:	2e322e34 	mrccs	14, 1, r2, cr2, cr4, {1}
  10:	47000032 	smladxmi	r0, r2, r0, r0
  14:	203a4343 	eorscs	r4, sl, r3, asr #6
  18:	554e4728 	strbpl	r4, [lr, #-1832]
  1c:	2e342029 	cdpcs	0, 3, cr2, cr4, cr9, {1}
  20:	00322e32 	eorseq	r2, r2, r2, lsr lr
  24:	43434700 	movtmi	r4, #14080	; 0x3700
  28:	4728203a 	undefined
  2c:	2029554e 	eorcs	r5, r9, lr, asr #10
  30:	2e322e34 	mrccs	14, 1, r2, cr2, cr4, {1}
  34:	47000032 	smladxmi	r0, r2, r0, r0
  38:	203a4343 	eorscs	r4, sl, r3, asr #6
  3c:	554e4728 	strbpl	r4, [lr, #-1832]
  40:	2e342029 	cdpcs	0, 3, cr2, cr4, cr9, {1}
  44:	00322e32 	eorseq	r2, r2, r2, lsr lr
  48:	43434700 	movtmi	r4, #14080	; 0x3700
  4c:	4728203a 	undefined
  50:	2029554e 	eorcs	r5, r9, lr, asr #10
  54:	2e322e34 	mrccs	14, 1, r2, cr2, cr4, {1}
  58:	47000032 	smladxmi	r0, r2, r0, r0
  5c:	203a4343 	eorscs	r4, sl, r3, asr #6
  60:	554e4728 	strbpl	r4, [lr, #-1832]
  64:	2e342029 	cdpcs	0, 3, cr2, cr4, cr9, {1}
  68:	00322e32 	eorseq	r2, r2, r2, lsr lr
  6c:	43434700 	movtmi	r4, #14080	; 0x3700
  70:	4728203a 	undefined
  74:	2029554e 	eorcs	r5, r9, lr, asr #10
  78:	2e322e34 	mrccs	14, 1, r2, cr2, cr4, {1}
  7c:	47000032 	smladxmi	r0, r2, r0, r0
  80:	203a4343 	eorscs	r4, sl, r3, asr #6
  84:	554e4728 	strbpl	r4, [lr, #-1832]
  88:	2e342029 	cdpcs	0, 3, cr2, cr4, cr9, {1}
  8c:	00322e32 	eorseq	r2, r2, r2, lsr lr
  90:	43434700 	movtmi	r4, #14080	; 0x3700
  94:	4728203a 	undefined
  98:	2029554e 	eorcs	r5, r9, lr, asr #10
  9c:	2e322e34 	mrccs	14, 1, r2, cr2, cr4, {1}
  a0:	47000032 	smladxmi	r0, r2, r0, r0
  a4:	203a4343 	eorscs	r4, sl, r3, asr #6
  a8:	554e4728 	strbpl	r4, [lr, #-1832]
  ac:	2e342029 	cdpcs	0, 3, cr2, cr4, cr9, {1}
  b0:	00322e32 	eorseq	r2, r2, r2, lsr lr
  b4:	43434700 	movtmi	r4, #14080	; 0x3700
  b8:	4728203a 	undefined
  bc:	2029554e 	eorcs	r5, r9, lr, asr #10
  c0:	2e322e34 	mrccs	14, 1, r2, cr2, cr4, {1}
  c4:	Address 0x000000c4 is out of bounds.

Disassembly of section .ARM.attributes:

00000000 <.ARM.attributes>:
   0:	00001741 	andeq	r1, r0, r1, asr #14
   4:	61656100 	cmnvs	r5, r0, lsl #2
   8:	01006962 	tsteq	r0, r2, ror #18
   c:	0000000d 	andeq	r0, r0, sp
  10:	00543405 	subseq	r3, r4, r5, lsl #8
  14:	01080206 	tsteq	r8, r6, lsl #4
Disassembly of section .debug_frame:

00000000 <.debug_frame>:
   0:	0000000c 	.word	0x0000000c
   4:	ffffffff 	.word	0xffffffff
   8:	7c010001 	.word	0x7c010001
   c:	000d0c0e 	.word	0x000d0c0e
  10:	00000018 	.word	0x00000018
  14:	00000000 	.word	0x00000000
  18:	50003730 	.word	0x50003730
  1c:	000000fc 	.word	0x000000fc
  20:	028eec02 	.word	0x028eec02
  24:	080e      	.short	0x080e
  26:	ce4c      	.short	0xce4c
  28:	0000000e 	.word	0x0000000e
Disassembly of section .debug_line:

00000000 <.debug_line>:
   0:	000000be 	strheq	r0, [r0], -lr
   4:	00810002 	addeq	r0, r1, r2
   8:	01020000 	tsteq	r2, r0
   c:	000d0efb 	strdeq	r0, [sp], -fp
  10:	01010101 	tsteq	r1, r1, lsl #2
  14:	01000000 	tsteq	r0, r0
  18:	2f010000 	svccs	0x00010000
  1c:	656d6f68 	strbvs	r6, [sp, #-3944]!
  20:	7363732f 	cmnvc	r3, #-1140850688	; 0xbc000000
  24:	772f6875 	undefined
  28:	706b726f 	rsbvc	r7, fp, pc, ror #4
  2c:	6563616c 	strbvs	r6, [r3, #-364]!
  30:	666f632f 	strbtvs	r6, [pc], -pc, lsr #6
  34:	2f656566 	svccs	0x00656566
  38:	6c697562 	cfstr64vs	mvdx7, [r9], #-392
  3c:	6f6f7264 	svcvs	0x006f7264
  40:	30322d74 	eorscc	r2, r2, r4, ror sp
  44:	30313730 	eorscc	r3, r1, r0, lsr r7
  48:	742f3131 	strtvc	r3, [pc], #305	; 50 <_start-0x4fffffb0>
  4c:	636c6f6f 	cmnvs	ip, #444	; 0x1bc
  50:	6e696168 	powvsez	f6, f1, #0.0
  54:	6975625f 	ldmdbvs	r5!, {r0, r1, r2, r3, r4, r6, r9, sp, lr}^
  58:	615f646c 	cmpvs	pc, ip, ror #8
  5c:	672f6d72 	undefined
  60:	342d6363 	strtcc	r6, [sp], #-867
  64:	322e322e 	eorcc	r3, lr, #-536870910	; 0xe0000002
  68:	6363672f 	cmnvs	r3, #12320768	; 0xbc0000
  6c:	6e6f632f 	cdpvs	3, 6, cr6, cr15, cr15, {1}
  70:	2f676966 	svccs	0x00676966
  74:	006d7261 	rsbeq	r7, sp, r1, ror #4
  78:	62696c00 	rsbvs	r6, r9, #0	; 0x0
  7c:	6e756631 	mrcvs	6, 3, r6, cr5, cr1, {1}
  80:	612e7363 	teqvs	lr, r3, ror #6
  84:	01006d73 	tsteq	r0, r3, ror sp
  88:	00000000 	andeq	r0, r0, r0
  8c:	37300205 	ldrcc	r0, [r0, -r5, lsl #4]!
  90:	d9035000 	stmdble	r3, {ip, lr}
  94:	2f2f0105 	svccs	0x002f0105
  98:	2f2f2f2f 	svccs	0x002f2f2f
  9c:	2e7d9603 	cdpcs	6, 7, cr9, cr13, cr3, {0}
  a0:	0202ee03 	andeq	lr, r2, #48	; 0x30
  a4:	302f013e 	eorcc	r0, pc, lr, lsr r1
  a8:	cb032f2f 	blgt	cbd6c <_start-0x4ff34294>
  ac:	b9032e7d 	stmdblt	r3, {r0, r2, r3, r4, r5, r6, r9, sl, fp, sp}
  b0:	2f900802 	svccs	0x00900802
  b4:	9e0b0332 	mcrls	3, 0, r0, cr11, cr2, {1}
  b8:	2f2f2f2f 	svccs	0x002f2f2f
  bc:	0002022f 	andeq	r0, r2, pc, lsr #4
  c0:	009a0101 	addseq	r0, sl, r1, lsl #2
  c4:	00020000 	andeq	r0, r2, r0
  c8:	00000081 	andeq	r0, r0, r1, lsl #1
  cc:	0efb0102 	cdpeq	1, 15, cr0, cr11, cr2, {0}
  d0:	0101000d 	tsteq	r1, sp
  d4:	00000101 	andeq	r0, r0, r1, lsl #2
  d8:	00000100 	andeq	r0, r0, r0, lsl #2
  dc:	6f682f01 	svcvs	0x00682f01
  e0:	732f656d 	teqvc	pc, #457179136	; 0x1b400000
  e4:	68757363 	ldmdavs	r5!, {r0, r1, r5, r6, r8, r9, ip, sp, lr}^
  e8:	726f772f 	rsbvc	r7, pc, #12320768	; 0xbc0000
  ec:	616c706b 	cmnvs	ip, fp, rrx
  f0:	632f6563 	teqvs	pc, #415236096	; 0x18c00000
  f4:	6566666f 	strbvs	r6, [r6, #-1647]!
  f8:	75622f65 	strbvc	r2, [r2, #-3941]!
  fc:	72646c69 	rsbvc	r6, r4, #26880	; 0x6900
 100:	2d746f6f 	ldclcs	15, cr6, [r4, #-444]!
 104:	37303032 	undefined
 108:	31313031 	teqcc	r1, r1, lsr r0
 10c:	6f6f742f 	svcvs	0x006f742f
 110:	6168636c 	cmnvs	r8, ip, ror #6
 114:	625f6e69 	subsvs	r6, pc, #1680	; 0x690
 118:	646c6975 	strbtvs	r6, [ip], #-2421
 11c:	6d72615f 	ldfvse	f6, [r2, #-380]!
 120:	6363672f 	cmnvs	r3, #12320768	; 0xbc0000
 124:	322e342d 	eorcc	r3, lr, #754974720	; 0x2d000000
 128:	672f322e 	strvs	r3, [pc, -lr, lsr #4]!
 12c:	632f6363 	teqvs	pc, #-1946157055	; 0x8c000001
 130:	69666e6f 	stmdbvs	r6!, {r0, r1, r2, r3, r5, r6, r9, sl, fp, sp, lr}^
 134:	72612f67 	rsbvc	r2, r1, #412	; 0x19c
 138:	6c00006d 	stcvs	0, cr0, [r0], {109}
 13c:	66316269 	ldrtvs	r6, [r1], -r9, ror #4
 140:	73636e75 	cmnvc	r3, #1872	; 0x750
 144:	6d73612e 	ldfvse	f6, [r3, #-184]!
 148:	00000100 	andeq	r0, r0, r0, lsl #2
 14c:	02050000 	andeq	r0, r5, #0	; 0x0
 150:	50003844 	andpl	r3, r0, r4, asr #16
 154:	0107e503 	tsteq	r7, r3, lsl #10
 158:	022f2f2f 	eoreq	r2, pc, #188	; 0xbc
 15c:	01010004 	tsteq	r1, r4
Disassembly of section .debug_info:

00000000 <.debug_info>:
   0:	000000ec 	andeq	r0, r0, ip, ror #1
   4:	00000002 	andeq	r0, r0, r2
   8:	01040000 	tsteq	r4, r0
   c:	00000000 	andeq	r0, r0, r0
  10:	50003730 	andpl	r3, r0, r0, lsr r7
  14:	50003844 	andpl	r3, r0, r4, asr #16
  18:	6d6f682f 	stclvs	8, cr6, [pc, #-188]!
  1c:	63732f65 	cmnvs	r3, #404	; 0x194
  20:	2f687573 	svccs	0x00687573
  24:	6b726f77 	blvs	1c9be08 <_start-0x4e3641f8>
  28:	63616c70 	cmnvs	r1, #28672	; 0x7000
  2c:	6f632f65 	svcvs	0x00632f65
  30:	65656666 	strbvs	r6, [r5, #-1638]!
  34:	6975622f 	ldmdbvs	r5!, {r0, r1, r2, r3, r5, r9, sp, lr}^
  38:	6f72646c 	svcvs	0x0072646c
  3c:	322d746f 	eorcc	r7, sp, #1862270976	; 0x6f000000
  40:	31373030 	teqcc	r7, r0, lsr r0
  44:	2f313130 	svccs	0x00313130
  48:	6c6f6f74 	stclvs	15, cr6, [pc], #-464
  4c:	69616863 	stmdbvs	r1!, {r0, r1, r5, r6, fp, sp, lr}^
  50:	75625f6e 	strbvc	r5, [r2, #-3950]!
  54:	5f646c69 	svcpl	0x00646c69
  58:	2f6d7261 	svccs	0x006d7261
  5c:	2d636367 	stclcs	3, cr6, [r3, #-412]!
  60:	2e322e34 	mrccs	14, 1, r2, cr2, cr4, {1}
  64:	63672f32 	cmnvs	r7, #200	; 0xc8
  68:	6f632f63 	svcvs	0x00632f63
  6c:	6769666e 	strbvs	r6, [r9, -lr, ror #12]!
  70:	6d72612f 	ldfvse	f6, [r2, #-188]!
  74:	62696c2f 	rsbvs	r6, r9, #12032	; 0x2f00
  78:	6e756631 	mrcvs	6, 3, r6, cr5, cr1, {1}
  7c:	612e7363 	teqvs	lr, r3, ror #6
  80:	2f006d73 	svccs	0x00006d73
  84:	656d6f68 	strbvs	r6, [sp, #-3944]!
  88:	7363732f 	cmnvc	r3, #-1140850688	; 0xbc000000
  8c:	772f6875 	undefined
  90:	706b726f 	rsbvc	r7, fp, pc, ror #4
  94:	6563616c 	strbvs	r6, [r3, #-364]!
  98:	666f632f 	strbtvs	r6, [pc], -pc, lsr #6
  9c:	2f656566 	svccs	0x00656566
  a0:	6c697562 	cfstr64vs	mvdx7, [r9], #-392
  a4:	6f6f7264 	svcvs	0x006f7264
  a8:	30322d74 	eorscc	r2, r2, r4, ror sp
  ac:	30313730 	eorscc	r3, r1, r0, lsr r7
  b0:	742f3131 	strtvc	r3, [pc], #305	; b8 <_start-0x4fffff48>
  b4:	636c6f6f 	cmnvs	ip, #444	; 0x1bc
  b8:	6e696168 	powvsez	f6, f1, #0.0
  bc:	6975625f 	ldmdbvs	r5!, {r0, r1, r2, r3, r4, r6, r9, sp, lr}^
  c0:	615f646c 	cmpvs	pc, ip, ror #8
  c4:	672f6d72 	undefined
  c8:	342d6363 	strtcc	r6, [sp], #-867
  cc:	322e322e 	eorcc	r3, lr, #-536870910	; 0xe0000002
  d0:	6e69662d 	cdpvs	6, 6, cr6, cr9, cr13, {1}
  d4:	672f6c61 	strvs	r6, [pc, -r1, ror #24]!
  d8:	47006363 	strmi	r6, [r0, -r3, ror #6]
  dc:	4120554e 	teqmi	r0, lr, asr #10
  e0:	2e322053 	mrccs	0, 1, r2, cr2, cr3, {2}
  e4:	352e3831 	strcc	r3, [lr, #-2097]!
  e8:	2e302e30 	mrccs	14, 1, r2, cr0, cr0, {1}
  ec:	80010032 	andhi	r0, r1, r2, lsr r0
  f0:	000000ec 	andeq	r0, r0, ip, ror #1
  f4:	00140002 	andseq	r0, r4, r2
  f8:	01040000 	tsteq	r4, r0
  fc:	000000c2 	andeq	r0, r0, r2, asr #1
 100:	50003844 	andpl	r3, r0, r4, asr #16
 104:	50003858 	andpl	r3, r0, r8, asr r8
 108:	6d6f682f 	stclvs	8, cr6, [pc, #-188]!
 10c:	63732f65 	cmnvs	r3, #404	; 0x194
 110:	2f687573 	svccs	0x00687573
 114:	6b726f77 	blvs	1c9bef8 <_start-0x4e364108>
 118:	63616c70 	cmnvs	r1, #28672	; 0x7000
 11c:	6f632f65 	svcvs	0x00632f65
 120:	65656666 	strbvs	r6, [r5, #-1638]!
 124:	6975622f 	ldmdbvs	r5!, {r0, r1, r2, r3, r5, r9, sp, lr}^
 128:	6f72646c 	svcvs	0x0072646c
 12c:	322d746f 	eorcc	r7, sp, #1862270976	; 0x6f000000
 130:	31373030 	teqcc	r7, r0, lsr r0
 134:	2f313130 	svccs	0x00313130
 138:	6c6f6f74 	stclvs	15, cr6, [pc], #-464
 13c:	69616863 	stmdbvs	r1!, {r0, r1, r5, r6, fp, sp, lr}^
 140:	75625f6e 	strbvc	r5, [r2, #-3950]!
 144:	5f646c69 	svcpl	0x00646c69
 148:	2f6d7261 	svccs	0x006d7261
 14c:	2d636367 	stclcs	3, cr6, [r3, #-412]!
 150:	2e322e34 	mrccs	14, 1, r2, cr2, cr4, {1}
 154:	63672f32 	cmnvs	r7, #200	; 0xc8
 158:	6f632f63 	svcvs	0x00632f63
 15c:	6769666e 	strbvs	r6, [r9, -lr, ror #12]!
 160:	6d72612f 	ldfvse	f6, [r2, #-188]!
 164:	62696c2f 	rsbvs	r6, r9, #12032	; 0x2f00
 168:	6e756631 	mrcvs	6, 3, r6, cr5, cr1, {1}
 16c:	612e7363 	teqvs	lr, r3, ror #6
 170:	2f006d73 	svccs	0x00006d73
 174:	656d6f68 	strbvs	r6, [sp, #-3944]!
 178:	7363732f 	cmnvc	r3, #-1140850688	; 0xbc000000
 17c:	772f6875 	undefined
 180:	706b726f 	rsbvc	r7, fp, pc, ror #4
 184:	6563616c 	strbvs	r6, [r3, #-364]!
 188:	666f632f 	strbtvs	r6, [pc], -pc, lsr #6
 18c:	2f656566 	svccs	0x00656566
 190:	6c697562 	cfstr64vs	mvdx7, [r9], #-392
 194:	6f6f7264 	svcvs	0x006f7264
 198:	30322d74 	eorscc	r2, r2, r4, ror sp
 19c:	30313730 	eorscc	r3, r1, r0, lsr r7
 1a0:	742f3131 	strtvc	r3, [pc], #305	; 1a8 <_start-0x4ffffe58>
 1a4:	636c6f6f 	cmnvs	ip, #444	; 0x1bc
 1a8:	6e696168 	powvsez	f6, f1, #0.0
 1ac:	6975625f 	ldmdbvs	r5!, {r0, r1, r2, r3, r4, r6, r9, sp, lr}^
 1b0:	615f646c 	cmpvs	pc, ip, ror #8
 1b4:	672f6d72 	undefined
 1b8:	342d6363 	strtcc	r6, [sp], #-867
 1bc:	322e322e 	eorcc	r3, lr, #-536870910	; 0xe0000002
 1c0:	6e69662d 	cdpvs	6, 6, cr6, cr9, cr13, {1}
 1c4:	672f6c61 	strvs	r6, [pc, -r1, ror #24]!
 1c8:	47006363 	strmi	r6, [r0, -r3, ror #6]
 1cc:	4120554e 	teqmi	r0, lr, asr #10
 1d0:	2e322053 	mrccs	0, 1, r2, cr2, cr3, {2}
 1d4:	352e3831 	strcc	r3, [lr, #-2097]!
 1d8:	2e302e30 	mrccs	14, 1, r2, cr0, cr0, {1}
 1dc:	80010032 	andhi	r0, r1, r2, lsr r0
Disassembly of section .debug_abbrev:

00000000 <.debug_abbrev>:
   0:	10001101 	andne	r1, r0, r1, lsl #2
   4:	12011106 	andne	r1, r1, #-2147483647	; 0x80000001
   8:	1b080301 	blne	200c14 <_start-0x4fdff3ec>
   c:	13082508 	movwne	r2, #34056	; 0x8508
  10:	00000005 	andeq	r0, r0, r5
  14:	10001101 	andne	r1, r0, r1, lsl #2
  18:	12011106 	andne	r1, r1, #-2147483647	; 0x80000001
  1c:	1b080301 	blne	200c28 <_start-0x4fdff3d8>
  20:	13082508 	movwne	r2, #34056	; 0x8508
  24:	00000005 	andeq	r0, r0, r5
Disassembly of section .debug_aranges:

00000000 <.debug_aranges>:
   0:	0000001c 	andeq	r0, r0, ip, lsl r0
   4:	00000002 	andeq	r0, r0, r2
   8:	00040000 	andeq	r0, r4, r0
   c:	00000000 	andeq	r0, r0, r0
  10:	50003730 	andpl	r3, r0, r0, lsr r7
  14:	00000114 	andeq	r0, r0, r4, lsl r1
	...
  20:	0000001c 	andeq	r0, r0, ip, lsl r0
  24:	00f00002 	rscseq	r0, r0, r2
  28:	00040000 	andeq	r0, r4, r0
  2c:	00000000 	andeq	r0, r0, r0
  30:	50003844 	andpl	r3, r0, r4, asr #16
  34:	00000014 	andeq	r0, r0, r4, lsl r0
	...
