
loop.elf:     file format elf32-littlearm


Disassembly of section .init:

0000836c <_init>:
    836c:	e92d4008 	push	{r3, lr}
    8370:	eb00001d 	bl	83ec <call_weak_fn>
    8374:	e8bd8008 	pop	{r3, pc}

Disassembly of section .plt:

00008378 <.plt>:
    8378:	e52de004 	push	{lr}		; (str lr, [sp, #-4]!)
    837c:	e59fe004 	ldr	lr, [pc, #4]	; 8388 <_init+0x1c>
    8380:	e08fe00e 	add	lr, pc, lr
    8384:	e5bef008 	ldr	pc, [lr, #8]!
    8388:	000084e0 	andeq	r8, r0, r0, ror #9
    838c:	e28fc600 	add	ip, pc, #0, 12
    8390:	e28cca08 	add	ip, ip, #8, 20	; 0x8000
    8394:	e5bcf4e0 	ldr	pc, [ip, #1248]!	; 0x4e0
    8398:	e28fc600 	add	ip, pc, #0, 12
    839c:	e28cca08 	add	ip, ip, #8, 20	; 0x8000
    83a0:	e5bcf4d8 	ldr	pc, [ip, #1240]!	; 0x4d8
    83a4:	e28fc600 	add	ip, pc, #0, 12
    83a8:	e28cca08 	add	ip, ip, #8, 20	; 0x8000
    83ac:	e5bcf4d0 	ldr	pc, [ip, #1232]!	; 0x4d0

Disassembly of section .text:

000083b0 <_start>:
    83b0:	e3a0b000 	mov	fp, #0
    83b4:	e3a0e000 	mov	lr, #0
    83b8:	e49d1004 	pop	{r1}		; (ldr r1, [sp], #4)
    83bc:	e1a0200d 	mov	r2, sp
    83c0:	e52d2004 	push	{r2}		; (str r2, [sp, #-4]!)
    83c4:	e52d0004 	push	{r0}		; (str r0, [sp, #-4]!)
    83c8:	e59fc010 	ldr	ip, [pc, #16]	; 83e0 <_start+0x30>
    83cc:	e52dc004 	push	{ip}		; (str ip, [sp, #-4]!)
    83d0:	e59f000c 	ldr	r0, [pc, #12]	; 83e4 <_start+0x34>
    83d4:	e59f300c 	ldr	r3, [pc, #12]	; 83e8 <_start+0x38>
    83d8:	ebffffeb 	bl	838c <_init+0x20>
    83dc:	ebfffff0 	bl	83a4 <_init+0x38>
    83e0:	000086cc 	andeq	r8, r0, ip, asr #13
    83e4:	000084e4 	andeq	r8, r0, r4, ror #9
    83e8:	00008668 	andeq	r8, r0, r8, ror #12

000083ec <call_weak_fn>:
    83ec:	e59f3014 	ldr	r3, [pc, #20]	; 8408 <call_weak_fn+0x1c>
    83f0:	e59f2014 	ldr	r2, [pc, #20]	; 840c <call_weak_fn+0x20>
    83f4:	e08f3003 	add	r3, pc, r3
    83f8:	e7932002 	ldr	r2, [r3, r2]
    83fc:	e3520000 	cmp	r2, #0
    8400:	012fff1e 	bxeq	lr
    8404:	eaffffe3 	b	8398 <_init+0x2c>
    8408:	0000846c 	andeq	r8, r0, ip, ror #8
    840c:	00000018 	andeq	r0, r0, r8, lsl r0

00008410 <deregister_tm_clones>:
    8410:	e92d4008 	push	{r3, lr}
    8414:	e59f0020 	ldr	r0, [pc, #32]	; 843c <deregister_tm_clones+0x2c>
    8418:	e59f3020 	ldr	r3, [pc, #32]	; 8440 <deregister_tm_clones+0x30>
    841c:	e0603003 	rsb	r3, r0, r3
    8420:	e3530006 	cmp	r3, #6
    8424:	98bd8008 	popls	{r3, pc}
    8428:	e59f3014 	ldr	r3, [pc, #20]	; 8444 <deregister_tm_clones+0x34>
    842c:	e3530000 	cmp	r3, #0
    8430:	08bd8008 	popeq	{r3, pc}
    8434:	e12fff33 	blx	r3
    8438:	e8bd8008 	pop	{r3, pc}
    843c:	0001088c 	andeq	r0, r1, ip, lsl #17
    8440:	0001088f 	andeq	r0, r1, pc, lsl #17
    8444:	00000000 	andeq	r0, r0, r0

00008448 <register_tm_clones>:
    8448:	e92d4008 	push	{r3, lr}
    844c:	e59f0028 	ldr	r0, [pc, #40]	; 847c <register_tm_clones+0x34>
    8450:	e59f3028 	ldr	r3, [pc, #40]	; 8480 <register_tm_clones+0x38>
    8454:	e0603003 	rsb	r3, r0, r3
    8458:	e1a03143 	asr	r3, r3, #2
    845c:	e0833fa3 	add	r3, r3, r3, lsr #31
    8460:	e1b010c3 	asrs	r1, r3, #1
    8464:	08bd8008 	popeq	{r3, pc}
    8468:	e59f2014 	ldr	r2, [pc, #20]	; 8484 <register_tm_clones+0x3c>
    846c:	e3520000 	cmp	r2, #0
    8470:	08bd8008 	popeq	{r3, pc}
    8474:	e12fff32 	blx	r2
    8478:	e8bd8008 	pop	{r3, pc}
    847c:	0001088c 	andeq	r0, r1, ip, lsl #17
    8480:	0001088c 	andeq	r0, r1, ip, lsl #17
    8484:	00000000 	andeq	r0, r0, r0

00008488 <__do_global_dtors_aux>:
    8488:	e92d4010 	push	{r4, lr}
    848c:	e59f4018 	ldr	r4, [pc, #24]	; 84ac <__do_global_dtors_aux+0x24>
    8490:	e5d43000 	ldrb	r3, [r4]
    8494:	e3530000 	cmp	r3, #0
    8498:	18bd8010 	popne	{r4, pc}
    849c:	ebffffdb 	bl	8410 <deregister_tm_clones>
    84a0:	e3a03001 	mov	r3, #1
    84a4:	e5c43000 	strb	r3, [r4]
    84a8:	e8bd8010 	pop	{r4, pc}
    84ac:	0001088c 	andeq	r0, r1, ip, lsl #17

000084b0 <frame_dummy>:
    84b0:	e59f0024 	ldr	r0, [pc, #36]	; 84dc <frame_dummy+0x2c>
    84b4:	e92d4008 	push	{r3, lr}
    84b8:	e5903000 	ldr	r3, [r0]
    84bc:	e3530000 	cmp	r3, #0
    84c0:	0a000003 	beq	84d4 <frame_dummy+0x24>
    84c4:	e59f3014 	ldr	r3, [pc, #20]	; 84e0 <frame_dummy+0x30>
    84c8:	e3530000 	cmp	r3, #0
    84cc:	0a000000 	beq	84d4 <frame_dummy+0x24>
    84d0:	e12fff33 	blx	r3
    84d4:	e8bd4008 	pop	{r3, lr}
    84d8:	eaffffda 	b	8448 <register_tm_clones>
    84dc:	00010774 	andeq	r0, r1, r4, ror r7
    84e0:	00000000 	andeq	r0, r0, r0

000084e4 <main>:
    84e4:	e92d4800 	push	{fp, lr}
    84e8:	e28db004 	add	fp, sp, #4
    84ec:	e24dd008 	sub	sp, sp, #8
    84f0:	e3a03064 	mov	r3, #100	; 0x64
    84f4:	e50b3008 	str	r3, [fp, #-8]
    84f8:	e3a03000 	mov	r3, #0
    84fc:	e50b300c 	str	r3, [fp, #-12]
    8500:	e51b000c 	ldr	r0, [fp, #-12]
    8504:	e51b1008 	ldr	r1, [fp, #-8]
    8508:	eb00000c 	bl	8540 <loop1>
    850c:	e51b000c 	ldr	r0, [fp, #-12]
    8510:	e51b1008 	ldr	r1, [fp, #-8]
    8514:	eb00001d 	bl	8590 <loop2>
    8518:	e51b000c 	ldr	r0, [fp, #-12]
    851c:	e51b1008 	ldr	r1, [fp, #-8]
    8520:	eb00002d 	bl	85dc <loop3>
    8524:	e51b000c 	ldr	r0, [fp, #-12]
    8528:	e51b1008 	ldr	r1, [fp, #-8]
    852c:	eb00003b 	bl	8620 <loop4>
    8530:	e3a03000 	mov	r3, #0
    8534:	e1a00003 	mov	r0, r3
    8538:	e24bd004 	sub	sp, fp, #4
    853c:	e8bd8800 	pop	{fp, pc}

00008540 <loop1>:
    8540:	e52db004 	push	{fp}		; (str fp, [sp, #-4]!)
    8544:	e28db000 	add	fp, sp, #0
    8548:	e24dd00c 	sub	sp, sp, #12
    854c:	e50b0008 	str	r0, [fp, #-8]
    8550:	e50b100c 	str	r1, [fp, #-12]
    8554:	ea000006 	b	8574 <loop1+0x34>
    8558:	e51b2008 	ldr	r2, [fp, #-8]
    855c:	e51b300c 	ldr	r3, [fp, #-12]
    8560:	e0823003 	add	r3, r2, r3
    8564:	e50b3008 	str	r3, [fp, #-8]
    8568:	e51b300c 	ldr	r3, [fp, #-12]
    856c:	e2433001 	sub	r3, r3, #1
    8570:	e50b300c 	str	r3, [fp, #-12]
    8574:	e51b300c 	ldr	r3, [fp, #-12]
    8578:	e3530000 	cmp	r3, #0
    857c:	1afffff5 	bne	8558 <loop1+0x18>
    8580:	e1a00000 	nop			; (mov r0, r0)
    8584:	e28bd000 	add	sp, fp, #0
    8588:	e8bd0800 	ldmfd	sp!, {fp}
    858c:	e12fff1e 	bx	lr

00008590 <loop2>:
    8590:	e52db004 	push	{fp}		; (str fp, [sp, #-4]!)
    8594:	e28db000 	add	fp, sp, #0
    8598:	e24dd00c 	sub	sp, sp, #12
    859c:	e50b0008 	str	r0, [fp, #-8]
    85a0:	e50b100c 	str	r1, [fp, #-12]
    85a4:	e51b2008 	ldr	r2, [fp, #-8]
    85a8:	e51b300c 	ldr	r3, [fp, #-12]
    85ac:	e0823003 	add	r3, r2, r3
    85b0:	e50b3008 	str	r3, [fp, #-8]
    85b4:	e51b300c 	ldr	r3, [fp, #-12]
    85b8:	e2433001 	sub	r3, r3, #1
    85bc:	e50b300c 	str	r3, [fp, #-12]
    85c0:	e51b300c 	ldr	r3, [fp, #-12]
    85c4:	e3530000 	cmp	r3, #0
    85c8:	1afffff5 	bne	85a4 <loop2+0x14>
    85cc:	e1a00000 	nop			; (mov r0, r0)
    85d0:	e28bd000 	add	sp, fp, #0
    85d4:	e8bd0800 	ldmfd	sp!, {fp}
    85d8:	e12fff1e 	bx	lr

000085dc <loop3>:
    85dc:	e52db004 	push	{fp}		; (str fp, [sp, #-4]!)
    85e0:	e28db000 	add	fp, sp, #0
    85e4:	e24dd00c 	sub	sp, sp, #12
    85e8:	e50b0008 	str	r0, [fp, #-8]
    85ec:	e50b100c 	str	r1, [fp, #-12]
    85f0:	ea000003 	b	8604 <loop3+0x28>
    85f4:	e51b2008 	ldr	r2, [fp, #-8]
    85f8:	e51b300c 	ldr	r3, [fp, #-12]
    85fc:	e0823003 	add	r3, r2, r3
    8600:	e50b3008 	str	r3, [fp, #-8]
    8604:	e51b300c 	ldr	r3, [fp, #-12]
    8608:	e3530000 	cmp	r3, #0
    860c:	1afffff8 	bne	85f4 <loop3+0x18>
    8610:	e1a00000 	nop			; (mov r0, r0)
    8614:	e28bd000 	add	sp, fp, #0
    8618:	e8bd0800 	ldmfd	sp!, {fp}
    861c:	e12fff1e 	bx	lr

00008620 <loop4>:
    8620:	e52db004 	push	{fp}		; (str fp, [sp, #-4]!)
    8624:	e28db000 	add	fp, sp, #0
    8628:	e24dd00c 	sub	sp, sp, #12
    862c:	e50b0008 	str	r0, [fp, #-8]
    8630:	e50b100c 	str	r1, [fp, #-12]
    8634:	e51b300c 	ldr	r3, [fp, #-12]
    8638:	e3530000 	cmp	r3, #0
    863c:	0a000004 	beq	8654 <loop4+0x34>
    8640:	e51b2008 	ldr	r2, [fp, #-8]
    8644:	e51b300c 	ldr	r3, [fp, #-12]
    8648:	e0823003 	add	r3, r2, r3
    864c:	e50b3008 	str	r3, [fp, #-8]
    8650:	eafffff7 	b	8634 <loop4+0x14>
    8654:	e1a00000 	nop			; (mov r0, r0)
    8658:	e1a00000 	nop			; (mov r0, r0)
    865c:	e28bd000 	add	sp, fp, #0
    8660:	e8bd0800 	ldmfd	sp!, {fp}
    8664:	e12fff1e 	bx	lr

00008668 <__libc_csu_init>:
    8668:	e92d45f8 	push	{r3, r4, r5, r6, r7, r8, sl, lr}
    866c:	e59f5050 	ldr	r5, [pc, #80]	; 86c4 <__libc_csu_init+0x5c>
    8670:	e59f6050 	ldr	r6, [pc, #80]	; 86c8 <__libc_csu_init+0x60>
    8674:	e08f5005 	add	r5, pc, r5
    8678:	e08f6006 	add	r6, pc, r6
    867c:	e0656006 	rsb	r6, r5, r6
    8680:	e1a07000 	mov	r7, r0
    8684:	e1a08001 	mov	r8, r1
    8688:	e1a0a002 	mov	sl, r2
    868c:	ebffff36 	bl	836c <_init>
    8690:	e1b06146 	asrs	r6, r6, #2
    8694:	08bd85f8 	popeq	{r3, r4, r5, r6, r7, r8, sl, pc}
    8698:	e2455004 	sub	r5, r5, #4
    869c:	e3a04000 	mov	r4, #0
    86a0:	e5b53004 	ldr	r3, [r5, #4]!
    86a4:	e1a00007 	mov	r0, r7
    86a8:	e1a01008 	mov	r1, r8
    86ac:	e1a0200a 	mov	r2, sl
    86b0:	e2844001 	add	r4, r4, #1
    86b4:	e12fff33 	blx	r3
    86b8:	e1540006 	cmp	r4, r6
    86bc:	1afffff7 	bne	86a0 <__libc_csu_init+0x38>
    86c0:	e8bd85f8 	pop	{r3, r4, r5, r6, r7, r8, sl, pc}
    86c4:	000080f0 	strdeq	r8, [r0], -r0
    86c8:	000080f0 	strdeq	r8, [r0], -r0

000086cc <__libc_csu_fini>:
    86cc:	e12fff1e 	bx	lr

Disassembly of section .fini:

000086d0 <_fini>:
    86d0:	e92d4008 	push	{r3, lr}
    86d4:	e8bd8008 	pop	{r3, pc}
