
ok6410-uCOS-II.elf:     file format elf32-littlearm


Disassembly of section .text:

50000000 <_start>:
50000000:	ea000006 	b	50000020 <reset>
50000004:	e59ff12c 	ldr	pc, [pc, #300]	; 50000138 <fiq+0x10>
50000008:	e59ff12c 	ldr	pc, [pc, #300]	; 5000013c <fiq+0x14>
5000000c:	e59ff12c 	ldr	pc, [pc, #300]	; 50000140 <fiq+0x18>
50000010:	e59ff12c 	ldr	pc, [pc, #300]	; 50000144 <fiq+0x1c>
50000014:	e320f000 	nop	{0}
50000018:	e59ff128 	ldr	pc, [pc, #296]	; 50000148 <fiq+0x20>
5000001c:	e59ff128 	ldr	pc, [pc, #296]	; 5000014c <fiq+0x24>

50000020 <reset>:
50000020:	e321f0d3 	msr	CPSR_c, #211	; 0xd3
50000024:	e3a00207 	mov	r0, #1879048192	; 0x70000000
50000028:	e3800013 	orr	r0, r0, #19
5000002c:	ee0f0f92 	mcr	15, 0, r0, cr15, cr2, {4}
50000030:	e59f0118 	ldr	r0, [pc, #280]	; 50000150 <fiq+0x28>
50000034:	e3a01000 	mov	r1, #0
50000038:	e5801000 	str	r1, [r0]
5000003c:	e3a0db07 	mov	sp, #7168	; 0x1c00
50000040:	eb000059 	bl	500001ac <init_clock>
50000044:	eb0000a6 	bl	500002e4 <init_sdram>
50000048:	eb000178 	bl	50000630 <init_nand>
5000004c:	e24f0054 	sub	r0, pc, #84	; 0x54
50000050:	e59f10fc 	ldr	r1, [pc, #252]	; 50000154 <fiq+0x2c>
50000054:	e59f20fc 	ldr	r2, [pc, #252]	; 50000158 <fiq+0x30>
50000058:	e0422001 	sub	r2, r2, r1
5000005c:	e1500001 	cmp	r0, r1
50000060:	0a000000 	beq	50000068 <clean_bss>
50000064:	eb0001a4 	bl	500006fc <copy_nand_to_sdram>

50000068 <clean_bss>:
50000068:	e59f00e8 	ldr	r0, [pc, #232]	; 50000158 <fiq+0x30>
5000006c:	e59f10e8 	ldr	r1, [pc, #232]	; 5000015c <fiq+0x34>
50000070:	e3a02000 	mov	r2, #0

50000074 <clean_loop>:
50000074:	e1500001 	cmp	r0, r1
50000078:	14802004 	strne	r2, [r0], #4
5000007c:	1afffffc 	bne	50000074 <clean_loop>
50000080:	e321f0d3 	msr	CPSR_c, #211	; 0xd3
50000084:	e3e002fa 	mvn	r0, #-1610612721	; 0xa000000f
50000088:	e1a0d000 	mov	sp, r0
5000008c:	e321f0d7 	msr	CPSR_c, #215	; 0xd7
50000090:	e59f00c8 	ldr	r0, [pc, #200]	; 50000160 <fiq+0x38>
50000094:	e1a0d000 	mov	sp, r0
50000098:	e321f0d8 	msr	CPSR_c, #216	; 0xd8
5000009c:	e59f00c0 	ldr	r0, [pc, #192]	; 50000164 <fiq+0x3c>
500000a0:	e1a0d000 	mov	sp, r0
500000a4:	e321f0d2 	msr	CPSR_c, #210	; 0xd2
500000a8:	e59f00b8 	ldr	r0, [pc, #184]	; 50000168 <fiq+0x40>
500000ac:	e1a0d000 	mov	sp, r0
500000b0:	e321f0d1 	msr	CPSR_c, #209	; 0xd1
500000b4:	e59f00b0 	ldr	r0, [pc, #176]	; 5000016c <fiq+0x44>
500000b8:	e1a0d000 	mov	sp, r0
500000bc:	e321f0df 	msr	CPSR_c, #223	; 0xdf
500000c0:	e59f00a8 	ldr	r0, [pc, #168]	; 50000170 <fiq+0x48>
500000c4:	e1a0d000 	mov	sp, r0
500000c8:	e59fe0a4 	ldr	lr, [pc, #164]	; 50000174 <fiq+0x4c>
500000cc:	e59ff0a4 	ldr	pc, [pc, #164]	; 50000178 <fiq+0x50>

500000d0 <boot_end>:
500000d0:	e59fe0a4 	ldr	lr, [pc, #164]	; 5000017c <fiq+0x54>
500000d4:	e59ff0a4 	ldr	pc, [pc, #164]	; 50000180 <fiq+0x58>

500000d8 <halt>:
500000d8:	eafffffe 	b	500000d8 <halt>

500000dc <undefined_instruction>:
500000dc:	e92d5fff 	push	{r0, r1, r2, r3, r4, r5, r6, r7, r8, r9, sl, fp, ip, lr}
500000e0:	eb000cef 	bl	500034a4 <handle_und>
500000e4:	e8fd9fff 	ldm	sp!, {r0, r1, r2, r3, r4, r5, r6, r7, r8, r9, sl, fp, ip, pc}^

500000e8 <software_interrupt>:
500000e8:	e92d5fff 	push	{r0, r1, r2, r3, r4, r5, r6, r7, r8, r9, sl, fp, ip, lr}
500000ec:	e51e4004 	ldr	r4, [lr, #-4]
500000f0:	e3c444ff 	bic	r4, r4, #-16777216	; 0xff000000

500000f4 <swi_end>:
500000f4:	e8fd9fff 	ldm	sp!, {r0, r1, r2, r3, r4, r5, r6, r7, r8, r9, sl, fp, ip, pc}^

500000f8 <prefetch_abort>:
500000f8:	e24ee004 	sub	lr, lr, #4
500000fc:	e92d5fff 	push	{r0, r1, r2, r3, r4, r5, r6, r7, r8, r9, sl, fp, ip, lr}
50000100:	eb000cee 	bl	500034c0 <handle_pabt>
50000104:	e8fd9fff 	ldm	sp!, {r0, r1, r2, r3, r4, r5, r6, r7, r8, r9, sl, fp, ip, pc}^

50000108 <data_abort>:
50000108:	e24ee008 	sub	lr, lr, #8
5000010c:	e92d5fff 	push	{r0, r1, r2, r3, r4, r5, r6, r7, r8, r9, sl, fp, ip, lr}
50000110:	eb000cef 	bl	500034d4 <handle_dabt>
50000114:	e8fd9fff 	ldm	sp!, {r0, r1, r2, r3, r4, r5, r6, r7, r8, r9, sl, fp, ip, pc}^

50000118 <irq>:
50000118:	e24ee004 	sub	lr, lr, #4
5000011c:	e92d5fff 	push	{r0, r1, r2, r3, r4, r5, r6, r7, r8, r9, sl, fp, ip, lr}
50000120:	eb000cf0 	bl	500034e8 <handle_irq>
50000124:	e8fd9fff 	ldm	sp!, {r0, r1, r2, r3, r4, r5, r6, r7, r8, r9, sl, fp, ip, pc}^

50000128 <fiq>:
50000128:	e24ee004 	sub	lr, lr, #4
5000012c:	e92d5fff 	push	{r0, r1, r2, r3, r4, r5, r6, r7, r8, r9, sl, fp, ip, lr}
50000130:	eb000cf1 	bl	500034fc <handle_fiq>
50000134:	e8fd9fff 	ldm	sp!, {r0, r1, r2, r3, r4, r5, r6, r7, r8, r9, sl, fp, ip, pc}^
50000138:	500000dc 	ldrdpl	r0, [r0], -ip
5000013c:	500000e8 	andpl	r0, r0, r8, ror #1
50000140:	500000f8 	strdpl	r0, [r0], -r8
50000144:	50000108 	andpl	r0, r0, r8, lsl #2
50000148:	500046d8 	ldrdpl	r4, [r0], -r8
5000014c:	500047bc 			; <UNDEFINED> instruction: 0x500047bc
50000150:	7e004000 	cdpvc	0, 0, cr4, cr0, cr0, {0}
50000154:	50000000 	andpl	r0, r0, r0
50000158:	50010d28 	andpl	r0, r1, r8, lsr #26
5000015c:	50012d18 	andpl	r2, r1, r8, lsl sp
50000160:	5fff7ff0 	svcpl	0x00ff7ff0
50000164:	5fff6ff0 	svcpl	0x00ff6ff0
50000168:	5fff5ff0 	svcpl	0x00ff5ff0
5000016c:	5ffedff0 	svcpl	0x00fedff0
50000170:	5ffe9ff0 	svcpl	0x00fe9ff0
50000174:	500000d0 	ldrdpl	r0, [r0], -r0	; <UNPREDICTABLE>
50000178:	500010cc 	andpl	r1, r0, ip, asr #1
5000017c:	500000d8 	ldrdpl	r0, [r0], -r8
50000180:	500029f0 	strdpl	r2, [r0], -r0
50000184:	00002541 	andeq	r2, r0, r1, asr #10
50000188:	61656100 	cmnvs	r5, r0, lsl #2
5000018c:	01006962 	tsteq	r0, r2, ror #18
50000190:	0000001b 	andeq	r0, r0, fp, lsl r0
50000194:	4d524105 	ldfmie	f4, [r2, #-20]	; 0xffffffec
50000198:	36373131 			; <UNDEFINED> instruction: 0x36373131
5000019c:	2d465a4a 	vstrcs	s11, [r6, #-296]	; 0xfffffed8
500001a0:	07060053 	smlsdeq	r6, r3, r0, r0
500001a4:	01090108 	tsteq	r9, r8, lsl #2
500001a8:	00000144 	andeq	r0, r0, r4, asr #2

500001ac <init_clock>:
500001ac:	e59f3098 	ldr	r3, [pc, #152]	; 5000024c <init_clock+0xa0>
500001b0:	e59f2098 	ldr	r2, [pc, #152]	; 50000250 <init_clock+0xa4>
500001b4:	e5832000 	str	r2, [r3]
500001b8:	e59f3094 	ldr	r3, [pc, #148]	; 50000254 <init_clock+0xa8>
500001bc:	e59f208c 	ldr	r2, [pc, #140]	; 50000250 <init_clock+0xa4>
500001c0:	e5832000 	str	r2, [r3]
500001c4:	e59f308c 	ldr	r3, [pc, #140]	; 50000258 <init_clock+0xac>
500001c8:	e59f2080 	ldr	r2, [pc, #128]	; 50000250 <init_clock+0xa4>
500001cc:	e5832000 	str	r2, [r3]
500001d0:	e59f3084 	ldr	r3, [pc, #132]	; 5000025c <init_clock+0xb0>
500001d4:	e59f2080 	ldr	r2, [pc, #128]	; 5000025c <init_clock+0xb0>
500001d8:	e5922000 	ldr	r2, [r2]
500001dc:	e3c220c0 	bic	r2, r2, #192	; 0xc0
500001e0:	e5832000 	str	r2, [r3]
500001e4:	e59f3070 	ldr	r3, [pc, #112]	; 5000025c <init_clock+0xb0>
500001e8:	e5933000 	ldr	r3, [r3]
500001ec:	e2033c0f 	and	r3, r3, #3840	; 0xf00
500001f0:	e3530000 	cmp	r3, #0
500001f4:	1a000000 	bne	500001fc <init_clock+0x50>
500001f8:	ea000000 	b	50000200 <init_clock+0x54>
500001fc:	eafffff8 	b	500001e4 <init_clock+0x38>
50000200:	e59f3058 	ldr	r3, [pc, #88]	; 50000260 <init_clock+0xb4>
50000204:	e59f2058 	ldr	r2, [pc, #88]	; 50000264 <init_clock+0xb8>
50000208:	e5832000 	str	r2, [r3]
5000020c:	e59f3054 	ldr	r3, [pc, #84]	; 50000268 <init_clock+0xbc>
50000210:	e59f2054 	ldr	r2, [pc, #84]	; 5000026c <init_clock+0xc0>
50000214:	e5832000 	str	r2, [r3]
50000218:	e59f2050 	ldr	r2, [pc, #80]	; 50000270 <init_clock+0xc4>
5000021c:	e59f304c 	ldr	r3, [pc, #76]	; 50000270 <init_clock+0xc4>
50000220:	e5931000 	ldr	r1, [r3]
50000224:	e59f3048 	ldr	r3, [pc, #72]	; 50000274 <init_clock+0xc8>
50000228:	e0013003 	and	r3, r1, r3
5000022c:	e38337c3 	orr	r3, r3, #51118080	; 0x30c0000
50000230:	e3833c31 	orr	r3, r3, #12544	; 0x3100
50000234:	e5823000 	str	r3, [r2]
50000238:	e59f3038 	ldr	r3, [pc, #56]	; 50000278 <init_clock+0xcc>
5000023c:	e3a02003 	mov	r2, #3
50000240:	e5832000 	str	r2, [r3]
50000244:	e1a00000 	nop			; (mov r0, r0)
50000248:	e12fff1e 	bx	lr
5000024c:	7e00f000 	cdpvc	0, 0, cr15, cr0, cr0, {0}
50000250:	0000ffff 	strdeq	pc, [r0], -pc	; <UNPREDICTABLE>
50000254:	7e00f004 	cdpvc	0, 0, cr15, cr0, cr4, {0}
50000258:	7e00f008 	cdpvc	0, 0, cr15, cr0, cr8, {0}
5000025c:	7e00f900 	cdpvc	9, 0, cr15, cr0, cr0, {0}
50000260:	7e00f00c 	cdpvc	0, 0, cr15, cr0, cr12, {0}
50000264:	810a0301 	tsthi	sl, r1, lsl #6
50000268:	7e00f010 	mcrvc	0, 0, pc, cr0, cr0, {0}	; <UNPREDICTABLE>
5000026c:	810a0302 	tsthi	sl, r2, lsl #6
50000270:	7e00f020 	cdpvc	0, 0, cr15, cr0, cr0, {1}
50000274:	f0f30000 			; <UNDEFINED> instruction: 0xf0f30000
50000278:	7e00f01c 	mcrvc	0, 0, pc, cr0, cr12, {0}	; <UNPREDICTABLE>
5000027c:	3a434347 	bcc	510d0fa0 <bss_end+0x10be288>
50000280:	6f532820 	svcvs	0x00532820
50000284:	65637275 	strbvs	r7, [r3, #-629]!	; 0xfffffd8b
50000288:	43207972 	teqmi	r0, #1867776	; 0x1c8000
5000028c:	4265646f 	rsbmi	r6, r5, #1862270976	; 0x6f000000
50000290:	68636e65 	stmdavs	r3!, {r0, r2, r5, r6, r9, sl, fp, sp, lr}^
50000294:	74694c20 	strbtvc	r4, [r9], #-3104	; 0xfffff3e0
50000298:	30322065 	eorscc	r2, r2, r5, rrx
5000029c:	312e3331 	teqcc	lr, r1, lsr r3
500002a0:	34322d31 	ldrtcc	r2, [r2], #-3377	; 0xfffff2cf
500002a4:	2e342029 	cdpcs	0, 3, cr2, cr4, cr9, {1}
500002a8:	00312e38 	eorseq	r2, r1, r8, lsr lr
500002ac:	00003741 	andeq	r3, r0, r1, asr #14
500002b0:	61656100 	cmnvs	r5, r0, lsl #2
500002b4:	01006962 	tsteq	r0, r2, ror #18
500002b8:	0000002d 	andeq	r0, r0, sp, lsr #32
500002bc:	4d524105 	ldfmie	f4, [r2, #-20]	; 0xffffffec
500002c0:	36373131 			; <UNDEFINED> instruction: 0x36373131
500002c4:	2d465a4a 	vstrcs	s11, [r6, #-296]	; 0xfffffed8
500002c8:	07060053 	smlsdeq	r6, r3, r0, r0
500002cc:	01090108 	tsteq	r9, r8, lsl #2
500002d0:	01140412 	tsteq	r4, r2, lsl r4
500002d4:	03170115 	tsteq	r7, #1073741829	; 0x40000005
500002d8:	01190118 	tsteq	r9, r8, lsl r1
500002dc:	061e011a 			; <UNDEFINED> instruction: 0x061e011a
500002e0:	01440122 	cmpeq	r4, r2, lsr #2

500002e4 <init_sdram>:
500002e4:	e59f3174 	ldr	r3, [pc, #372]	; 50000460 <init_sdram+0x17c>
500002e8:	e3a02004 	mov	r2, #4
500002ec:	e5832000 	str	r2, [r3]
500002f0:	e59f316c 	ldr	r3, [pc, #364]	; 50000464 <init_sdram+0x180>
500002f4:	e59f216c 	ldr	r2, [pc, #364]	; 50000468 <init_sdram+0x184>
500002f8:	e5832000 	str	r2, [r3]
500002fc:	e59f3168 	ldr	r3, [pc, #360]	; 5000046c <init_sdram+0x188>
50000300:	e3a02006 	mov	r2, #6
50000304:	e5832000 	str	r2, [r3]
50000308:	e59f3160 	ldr	r3, [pc, #352]	; 50000470 <init_sdram+0x18c>
5000030c:	e3a02001 	mov	r2, #1
50000310:	e5832000 	str	r2, [r3]
50000314:	e59f3158 	ldr	r3, [pc, #344]	; 50000474 <init_sdram+0x190>
50000318:	e3a02002 	mov	r2, #2
5000031c:	e5832000 	str	r2, [r3]
50000320:	e59f3150 	ldr	r3, [pc, #336]	; 50000478 <init_sdram+0x194>
50000324:	e3a02007 	mov	r2, #7
50000328:	e5832000 	str	r2, [r3]
5000032c:	e59f3148 	ldr	r3, [pc, #328]	; 5000047c <init_sdram+0x198>
50000330:	e3a0200a 	mov	r2, #10
50000334:	e5832000 	str	r2, [r3]
50000338:	e59f3140 	ldr	r3, [pc, #320]	; 50000480 <init_sdram+0x19c>
5000033c:	e3a0200c 	mov	r2, #12
50000340:	e5832000 	str	r2, [r3]
50000344:	e59f3138 	ldr	r3, [pc, #312]	; 50000484 <init_sdram+0x1a0>
50000348:	e59f2138 	ldr	r2, [pc, #312]	; 50000488 <init_sdram+0x1a4>
5000034c:	e5832000 	str	r2, [r3]
50000350:	e59f3134 	ldr	r3, [pc, #308]	; 5000048c <init_sdram+0x1a8>
50000354:	e3a0200c 	mov	r2, #12
50000358:	e5832000 	str	r2, [r3]
5000035c:	e59f312c 	ldr	r3, [pc, #300]	; 50000490 <init_sdram+0x1ac>
50000360:	e3a02003 	mov	r2, #3
50000364:	e5832000 	str	r2, [r3]
50000368:	e59f3124 	ldr	r3, [pc, #292]	; 50000494 <init_sdram+0x1b0>
5000036c:	e3a02003 	mov	r2, #3
50000370:	e5832000 	str	r2, [r3]
50000374:	e59f311c 	ldr	r3, [pc, #284]	; 50000498 <init_sdram+0x1b4>
50000378:	e3a02002 	mov	r2, #2
5000037c:	e5832000 	str	r2, [r3]
50000380:	e59f3114 	ldr	r3, [pc, #276]	; 5000049c <init_sdram+0x1b8>
50000384:	e3a02001 	mov	r2, #1
50000388:	e5832000 	str	r2, [r3]
5000038c:	e59f310c 	ldr	r3, [pc, #268]	; 500004a0 <init_sdram+0x1bc>
50000390:	e3a02011 	mov	r2, #17
50000394:	e5832000 	str	r2, [r3]
50000398:	e59f3104 	ldr	r3, [pc, #260]	; 500004a4 <init_sdram+0x1c0>
5000039c:	e3a02011 	mov	r2, #17
500003a0:	e5832000 	str	r2, [r3]
500003a4:	e59f30fc 	ldr	r3, [pc, #252]	; 500004a8 <init_sdram+0x1c4>
500003a8:	e59f20f8 	ldr	r2, [pc, #248]	; 500004a8 <init_sdram+0x1c4>
500003ac:	e5922000 	ldr	r2, [r2]
500003b0:	e3c2203f 	bic	r2, r2, #63	; 0x3f
500003b4:	e382201a 	orr	r2, r2, #26
500003b8:	e5832000 	str	r2, [r3]
500003bc:	e59f30e8 	ldr	r3, [pc, #232]	; 500004ac <init_sdram+0x1c8>
500003c0:	e59f20e8 	ldr	r2, [pc, #232]	; 500004b0 <init_sdram+0x1cc>
500003c4:	e5832000 	str	r2, [r3]
500003c8:	e59f30e4 	ldr	r3, [pc, #228]	; 500004b4 <init_sdram+0x1d0>
500003cc:	e59f20e0 	ldr	r2, [pc, #224]	; 500004b4 <init_sdram+0x1d0>
500003d0:	e5922000 	ldr	r2, [r2]
500003d4:	e3822801 	orr	r2, r2, #65536	; 0x10000
500003d8:	e5832000 	str	r2, [r3]
500003dc:	e59f30d4 	ldr	r3, [pc, #212]	; 500004b8 <init_sdram+0x1d4>
500003e0:	e3a02703 	mov	r2, #786432	; 0xc0000
500003e4:	e5832000 	str	r2, [r3]
500003e8:	e59f30c8 	ldr	r3, [pc, #200]	; 500004b8 <init_sdram+0x1d4>
500003ec:	e3a02000 	mov	r2, #0
500003f0:	e5832000 	str	r2, [r3]
500003f4:	e59f30bc 	ldr	r3, [pc, #188]	; 500004b8 <init_sdram+0x1d4>
500003f8:	e3a02701 	mov	r2, #262144	; 0x40000
500003fc:	e5832000 	str	r2, [r3]
50000400:	e59f30b0 	ldr	r3, [pc, #176]	; 500004b8 <init_sdram+0x1d4>
50000404:	e3a02701 	mov	r2, #262144	; 0x40000
50000408:	e5832000 	str	r2, [r3]
5000040c:	e59f30a4 	ldr	r3, [pc, #164]	; 500004b8 <init_sdram+0x1d4>
50000410:	e59f20a4 	ldr	r2, [pc, #164]	; 500004bc <init_sdram+0x1d8>
50000414:	e5832000 	str	r2, [r3]
50000418:	e59f3098 	ldr	r3, [pc, #152]	; 500004b8 <init_sdram+0x1d4>
5000041c:	e3a0280a 	mov	r2, #655360	; 0xa0000
50000420:	e5832000 	str	r2, [r3]
50000424:	e59f3094 	ldr	r3, [pc, #148]	; 500004c0 <init_sdram+0x1dc>
50000428:	e3a02000 	mov	r2, #0
5000042c:	e5832000 	str	r2, [r3]
50000430:	e59f3028 	ldr	r3, [pc, #40]	; 50000460 <init_sdram+0x17c>
50000434:	e3a02000 	mov	r2, #0
50000438:	e5832000 	str	r2, [r3]
5000043c:	e59f3080 	ldr	r3, [pc, #128]	; 500004c4 <init_sdram+0x1e0>
50000440:	e5933000 	ldr	r3, [r3]
50000444:	e2033003 	and	r3, r3, #3
50000448:	e3530001 	cmp	r3, #1
5000044c:	1a000000 	bne	50000454 <init_sdram+0x170>
50000450:	ea000000 	b	50000458 <init_sdram+0x174>
50000454:	eafffff8 	b	5000043c <init_sdram+0x158>
50000458:	e1a00000 	nop			; (mov r0, r0)
5000045c:	e12fff1e 	bx	lr
50000460:	7e001004 	cdpvc	0, 0, cr1, cr0, cr4, {0}
50000464:	7e001010 	mcrvc	0, 0, r1, cr0, cr0, {0}
50000468:	0000040d 	andeq	r0, r0, sp, lsl #8
5000046c:	7e001014 	mcrvc	0, 0, r1, cr0, cr4, {0}
50000470:	7e001018 	mcrvc	0, 0, r1, cr0, cr8, {0}
50000474:	7e00101c 	mcrvc	0, 0, r1, cr0, cr12, {0}
50000478:	7e001020 	cdpvc	0, 0, cr1, cr0, cr0, {1}
5000047c:	7e001024 	cdpvc	0, 0, cr1, cr0, cr4, {1}
50000480:	7e001028 	cdpvc	0, 0, cr1, cr0, cr8, {1}
50000484:	7e00102c 	cdpvc	0, 0, cr1, cr0, cr12, {1}
50000488:	0000010b 	andeq	r0, r0, fp, lsl #2
5000048c:	7e001030 	mcrvc	0, 0, r1, cr0, cr0, {1}
50000490:	7e001034 	mcrvc	0, 0, r1, cr0, cr4, {1}
50000494:	7e001038 	mcrvc	0, 0, r1, cr0, cr8, {1}
50000498:	7e00103c 	mcrvc	0, 0, r1, cr0, cr12, {1}
5000049c:	7e001040 	cdpvc	0, 0, cr1, cr0, cr0, {2}
500004a0:	7e001044 	cdpvc	0, 0, cr1, cr0, cr4, {2}
500004a4:	7e001048 	cdpvc	0, 0, cr1, cr0, cr8, {2}
500004a8:	7e00100c 	cdpvc	0, 0, cr1, cr0, cr12, {0}
500004ac:	7e00104c 	cdpvc	0, 0, cr1, cr0, cr12, {2}
500004b0:	00000b45 	andeq	r0, r0, r5, asr #22
500004b4:	7e001200 	cdpvc	2, 0, cr1, cr0, cr0, {0}
500004b8:	7e001008 	cdpvc	0, 0, cr1, cr0, cr8, {0}
500004bc:	00080032 	andeq	r0, r8, r2, lsr r0
500004c0:	7e00f120 	mvfvcsp	f7, f0
500004c4:	7e001000 	cdpvc	0, 0, cr1, cr0, cr0, {0}

500004c8 <copy_to_sdram>:
500004c8:	e24dd010 	sub	sp, sp, #16
500004cc:	e3a03205 	mov	r3, #1342177280	; 0x50000000
500004d0:	e58d300c 	str	r3, [sp, #12]
500004d4:	e3a03000 	mov	r3, #0
500004d8:	e58d3008 	str	r3, [sp, #8]
500004dc:	e3a03a02 	mov	r3, #8192	; 0x2000
500004e0:	e58d3004 	str	r3, [sp, #4]
500004e4:	ea000007 	b	50000508 <copy_to_sdram+0x40>
500004e8:	e59d300c 	ldr	r3, [sp, #12]
500004ec:	e2832004 	add	r2, r3, #4
500004f0:	e58d200c 	str	r2, [sp, #12]
500004f4:	e59d2008 	ldr	r2, [sp, #8]
500004f8:	e2821004 	add	r1, r2, #4
500004fc:	e58d1008 	str	r1, [sp, #8]
50000500:	e5922000 	ldr	r2, [r2]
50000504:	e5832000 	str	r2, [r3]
50000508:	e59d2008 	ldr	r2, [sp, #8]
5000050c:	e59d3004 	ldr	r3, [sp, #4]
50000510:	e1520003 	cmp	r2, r3
50000514:	3afffff3 	bcc	500004e8 <copy_to_sdram+0x20>
50000518:	e1a00000 	nop			; (mov r0, r0)
5000051c:	e28dd010 	add	sp, sp, #16
50000520:	e12fff1e 	bx	lr

50000524 <sdram_read>:
50000524:	e52de004 	push	{lr}		; (str lr, [sp, #-4]!)
50000528:	e24dd014 	sub	sp, sp, #20
5000052c:	e58d0004 	str	r0, [sp, #4]
50000530:	e58d1000 	str	r1, [sp]
50000534:	e59d3004 	ldr	r3, [sp, #4]
50000538:	e58d300c 	str	r3, [sp, #12]
5000053c:	e3a03000 	mov	r3, #0
50000540:	e58d3008 	str	r3, [sp, #8]
50000544:	e59d2004 	ldr	r2, [sp, #4]
50000548:	e59d3000 	ldr	r3, [sp]
5000054c:	e1520003 	cmp	r2, r3
50000550:	3a000000 	bcc	50000558 <sdram_read+0x34>
50000554:	ea00001c 	b	500005cc <sdram_read+0xa8>
50000558:	e59d3008 	ldr	r3, [sp, #8]
5000055c:	e3530000 	cmp	r3, #0
50000560:	0a000002 	beq	50000570 <sdram_read+0x4c>
50000564:	e59d3008 	ldr	r3, [sp, #8]
50000568:	e3530004 	cmp	r3, #4
5000056c:	1a000007 	bne	50000590 <sdram_read+0x6c>
50000570:	e59f0068 	ldr	r0, [pc, #104]	; 500005e0 <sdram_read+0xbc>
50000574:	eb00054e 	bl	50001ab4 <uart_puts>
50000578:	e59d0004 	ldr	r0, [sp, #4]
5000057c:	eb0005b6 	bl	50001c5c <uart_print_hex>
50000580:	e59f005c 	ldr	r0, [pc, #92]	; 500005e4 <sdram_read+0xc0>
50000584:	eb000564 	bl	50001b1c <uart_printf>
50000588:	e3a03000 	mov	r3, #0
5000058c:	e58d3008 	str	r3, [sp, #8]
50000590:	e59d300c 	ldr	r3, [sp, #12]
50000594:	e2832004 	add	r2, r3, #4
50000598:	e58d200c 	str	r2, [sp, #12]
5000059c:	e5933000 	ldr	r3, [r3]
500005a0:	e1a00003 	mov	r0, r3
500005a4:	eb0005c7 	bl	50001cc8 <uart_print_addr>
500005a8:	e59f0038 	ldr	r0, [pc, #56]	; 500005e8 <sdram_read+0xc4>
500005ac:	eb00055a 	bl	50001b1c <uart_printf>
500005b0:	e59d3008 	ldr	r3, [sp, #8]
500005b4:	e2833001 	add	r3, r3, #1
500005b8:	e58d3008 	str	r3, [sp, #8]
500005bc:	e59d3004 	ldr	r3, [sp, #4]
500005c0:	e2833004 	add	r3, r3, #4
500005c4:	e58d3004 	str	r3, [sp, #4]
500005c8:	eaffffdd 	b	50000544 <sdram_read+0x20>
500005cc:	e59f000c 	ldr	r0, [pc, #12]	; 500005e0 <sdram_read+0xbc>
500005d0:	eb000537 	bl	50001ab4 <uart_puts>
500005d4:	e1a00000 	nop			; (mov r0, r0)
500005d8:	e28dd014 	add	sp, sp, #20
500005dc:	e49df004 	pop	{pc}		; (ldr pc, [sp], #4)
500005e0:	500005ec 	andpl	r0, r0, ip, ror #11
500005e4:	500005f0 	strdpl	r0, [r0], -r0	; <UNPREDICTABLE>
500005e8:	500005f4 	strdpl	r0, [r0], -r4
500005ec:	00000000 	andeq	r0, r0, r0
500005f0:	00203a20 	eoreq	r3, r0, r0, lsr #20
500005f4:	00002020 	andeq	r2, r0, r0, lsr #32
500005f8:	00003741 	andeq	r3, r0, r1, asr #14
500005fc:	61656100 	cmnvs	r5, r0, lsl #2
50000600:	01006962 	tsteq	r0, r2, ror #18
50000604:	0000002d 	andeq	r0, r0, sp, lsr #32
50000608:	4d524105 	ldfmie	f4, [r2, #-20]	; 0xffffffec
5000060c:	36373131 			; <UNDEFINED> instruction: 0x36373131
50000610:	2d465a4a 	vstrcs	s11, [r6, #-296]	; 0xfffffed8
50000614:	07060053 	smlsdeq	r6, r3, r0, r0
50000618:	01090108 	tsteq	r9, r8, lsl #2
5000061c:	01140412 	tsteq	r4, r2, lsl r4
50000620:	03170115 	tsteq	r7, #1073741829	; 0x40000005
50000624:	01190118 	tsteq	r9, r8, lsl r1
50000628:	061e011a 			; <UNDEFINED> instruction: 0x061e011a
5000062c:	01440122 	cmpeq	r4, r2, lsr #2

50000630 <init_nand>:
50000630:	e92d4008 	push	{r3, lr}
50000634:	e59f304c 	ldr	r3, [pc, #76]	; 50000688 <init_nand+0x58>
50000638:	e3a02000 	mov	r2, #0
5000063c:	e5832000 	str	r2, [r3]
50000640:	e59f2044 	ldr	r2, [pc, #68]	; 5000068c <init_nand+0x5c>
50000644:	e59f3040 	ldr	r3, [pc, #64]	; 5000068c <init_nand+0x5c>
50000648:	e5931000 	ldr	r1, [r3]
5000064c:	e59f303c 	ldr	r3, [pc, #60]	; 50000690 <init_nand+0x60>
50000650:	e0013003 	and	r3, r1, r3
50000654:	e3833401 	orr	r3, r3, #16777216	; 0x1000000
50000658:	e3833e31 	orr	r3, r3, #784	; 0x310
5000065c:	e5823000 	str	r3, [r2]
50000660:	e59f202c 	ldr	r2, [pc, #44]	; 50000694 <init_nand+0x64>
50000664:	e59f3028 	ldr	r3, [pc, #40]	; 50000694 <init_nand+0x64>
50000668:	e5933000 	ldr	r3, [r3]
5000066c:	e3c33803 	bic	r3, r3, #196608	; 0x30000
50000670:	e3c330f7 	bic	r3, r3, #247	; 0xf7
50000674:	e38330f7 	orr	r3, r3, #247	; 0xf7
50000678:	e5823000 	str	r3, [r2]
5000067c:	eb000005 	bl	50000698 <nand_reset>
50000680:	e1a00000 	nop			; (mov r0, r0)
50000684:	e8bd8008 	pop	{r3, pc}
50000688:	7e00f120 	mvfvcsp	f7, f0
5000068c:	70200000 	eorvc	r0, r0, r0
50000690:	bc7f888f 	ldcllt	8, cr8, [pc], #-572	; 5000045c <init_sdram+0x178>
50000694:	70200004 	eorvc	r0, r0, r4

50000698 <nand_reset>:
50000698:	e59f3050 	ldr	r3, [pc, #80]	; 500006f0 <nand_reset+0x58>
5000069c:	e59f204c 	ldr	r2, [pc, #76]	; 500006f0 <nand_reset+0x58>
500006a0:	e5922000 	ldr	r2, [r2]
500006a4:	e3c22002 	bic	r2, r2, #2
500006a8:	e5832000 	str	r2, [r3]
500006ac:	e59f3040 	ldr	r3, [pc, #64]	; 500006f4 <nand_reset+0x5c>
500006b0:	e3a020ff 	mov	r2, #255	; 0xff
500006b4:	e5832000 	str	r2, [r3]
500006b8:	e59f3038 	ldr	r3, [pc, #56]	; 500006f8 <nand_reset+0x60>
500006bc:	e5933000 	ldr	r3, [r3]
500006c0:	e2033001 	and	r3, r3, #1
500006c4:	e3530000 	cmp	r3, #0
500006c8:	0a000000 	beq	500006d0 <nand_reset+0x38>
500006cc:	ea000000 	b	500006d4 <nand_reset+0x3c>
500006d0:	eafffff8 	b	500006b8 <nand_reset+0x20>
500006d4:	e59f3014 	ldr	r3, [pc, #20]	; 500006f0 <nand_reset+0x58>
500006d8:	e59f2010 	ldr	r2, [pc, #16]	; 500006f0 <nand_reset+0x58>
500006dc:	e5922000 	ldr	r2, [r2]
500006e0:	e3822002 	orr	r2, r2, #2
500006e4:	e5832000 	str	r2, [r3]
500006e8:	e1a00000 	nop			; (mov r0, r0)
500006ec:	e12fff1e 	bx	lr
500006f0:	70200004 	eorvc	r0, r0, r4
500006f4:	70200008 	eorvc	r0, r0, r8
500006f8:	70200028 	eorvc	r0, r0, r8, lsr #32

500006fc <copy_nand_to_sdram>:
500006fc:	e24dd028 	sub	sp, sp, #40	; 0x28
50000700:	e58d000c 	str	r0, [sp, #12]
50000704:	e58d1008 	str	r1, [sp, #8]
50000708:	e58d2004 	str	r2, [sp, #4]
5000070c:	e3a03000 	mov	r3, #0
50000710:	e58d3024 	str	r3, [sp, #36]	; 0x24
50000714:	e3a03000 	mov	r3, #0
50000718:	e58d3020 	str	r3, [sp, #32]
5000071c:	e3a03000 	mov	r3, #0
50000720:	e58d301c 	str	r3, [sp, #28]
50000724:	e3a03000 	mov	r3, #0
50000728:	e58d3018 	str	r3, [sp, #24]
5000072c:	e59d300c 	ldr	r3, [sp, #12]
50000730:	e1a03623 	lsr	r3, r3, #12
50000734:	e58d3020 	str	r3, [sp, #32]
50000738:	e59d3020 	ldr	r3, [sp, #32]
5000073c:	e1a03603 	lsl	r3, r3, #12
50000740:	e59d200c 	ldr	r2, [sp, #12]
50000744:	e0633002 	rsb	r3, r3, r2
50000748:	e58d301c 	str	r3, [sp, #28]
5000074c:	e59f317c 	ldr	r3, [pc, #380]	; 500008d0 <copy_nand_to_sdram+0x1d4>
50000750:	e59f2178 	ldr	r2, [pc, #376]	; 500008d0 <copy_nand_to_sdram+0x1d4>
50000754:	e5922000 	ldr	r2, [r2]
50000758:	e3c22002 	bic	r2, r2, #2
5000075c:	e5832000 	str	r2, [r3]
50000760:	e3a03a01 	mov	r3, #4096	; 0x1000
50000764:	e58d3018 	str	r3, [sp, #24]
50000768:	e59d3020 	ldr	r3, [sp, #32]
5000076c:	e3530003 	cmp	r3, #3
50000770:	8a000001 	bhi	5000077c <copy_nand_to_sdram+0x80>
50000774:	e3a03b02 	mov	r3, #2048	; 0x800
50000778:	e58d3018 	str	r3, [sp, #24]
5000077c:	e59d201c 	ldr	r2, [sp, #28]
50000780:	e59d3018 	ldr	r3, [sp, #24]
50000784:	e1520003 	cmp	r2, r3
50000788:	3a000002 	bcc	50000798 <copy_nand_to_sdram+0x9c>
5000078c:	e59d3020 	ldr	r3, [sp, #32]
50000790:	e2833001 	add	r3, r3, #1
50000794:	e58d3020 	str	r3, [sp, #32]
50000798:	e59f3134 	ldr	r3, [pc, #308]	; 500008d4 <copy_nand_to_sdram+0x1d8>
5000079c:	e3a02000 	mov	r2, #0
500007a0:	e5832000 	str	r2, [r3]
500007a4:	e59f312c 	ldr	r3, [pc, #300]	; 500008d8 <copy_nand_to_sdram+0x1dc>
500007a8:	e59d201c 	ldr	r2, [sp, #28]
500007ac:	e6ef2072 	uxtb	r2, r2
500007b0:	e5832000 	str	r2, [r3]
500007b4:	e59f311c 	ldr	r3, [pc, #284]	; 500008d8 <copy_nand_to_sdram+0x1dc>
500007b8:	e59d201c 	ldr	r2, [sp, #28]
500007bc:	e1a02422 	lsr	r2, r2, #8
500007c0:	e202201f 	and	r2, r2, #31
500007c4:	e5832000 	str	r2, [r3]
500007c8:	e59f3108 	ldr	r3, [pc, #264]	; 500008d8 <copy_nand_to_sdram+0x1dc>
500007cc:	e59d2020 	ldr	r2, [sp, #32]
500007d0:	e6ef2072 	uxtb	r2, r2
500007d4:	e5832000 	str	r2, [r3]
500007d8:	e59f30f8 	ldr	r3, [pc, #248]	; 500008d8 <copy_nand_to_sdram+0x1dc>
500007dc:	e59d2020 	ldr	r2, [sp, #32]
500007e0:	e1a02422 	lsr	r2, r2, #8
500007e4:	e6ef2072 	uxtb	r2, r2
500007e8:	e5832000 	str	r2, [r3]
500007ec:	e59f30e4 	ldr	r3, [pc, #228]	; 500008d8 <copy_nand_to_sdram+0x1dc>
500007f0:	e59d2020 	ldr	r2, [sp, #32]
500007f4:	e1a02822 	lsr	r2, r2, #16
500007f8:	e6ef2072 	uxtb	r2, r2
500007fc:	e5832000 	str	r2, [r3]
50000800:	e59f30cc 	ldr	r3, [pc, #204]	; 500008d4 <copy_nand_to_sdram+0x1d8>
50000804:	e3a02030 	mov	r2, #48	; 0x30
50000808:	e5832000 	str	r2, [r3]
5000080c:	e59f30c8 	ldr	r3, [pc, #200]	; 500008dc <copy_nand_to_sdram+0x1e0>
50000810:	e5933000 	ldr	r3, [r3]
50000814:	e2033001 	and	r3, r3, #1
50000818:	e3530000 	cmp	r3, #0
5000081c:	0a000003 	beq	50000830 <copy_nand_to_sdram+0x134>
50000820:	e1a00000 	nop			; (mov r0, r0)
50000824:	e59d301c 	ldr	r3, [sp, #28]
50000828:	e58d3014 	str	r3, [sp, #20]
5000082c:	ea00000c 	b	50000864 <copy_nand_to_sdram+0x168>
50000830:	eafffff5 	b	5000080c <copy_nand_to_sdram+0x110>
50000834:	e59d3008 	ldr	r3, [sp, #8]
50000838:	e2832004 	add	r2, r3, #4
5000083c:	e58d2008 	str	r2, [sp, #8]
50000840:	e59f2098 	ldr	r2, [pc, #152]	; 500008e0 <copy_nand_to_sdram+0x1e4>
50000844:	e5922000 	ldr	r2, [r2]
50000848:	e5832000 	str	r2, [r3]
5000084c:	e59d3024 	ldr	r3, [sp, #36]	; 0x24
50000850:	e2833004 	add	r3, r3, #4
50000854:	e58d3024 	str	r3, [sp, #36]	; 0x24
50000858:	e59d3014 	ldr	r3, [sp, #20]
5000085c:	e2833004 	add	r3, r3, #4
50000860:	e58d3014 	str	r3, [sp, #20]
50000864:	e59d2014 	ldr	r2, [sp, #20]
50000868:	e59d3018 	ldr	r3, [sp, #24]
5000086c:	e1520003 	cmp	r2, r3
50000870:	2a000003 	bcs	50000884 <copy_nand_to_sdram+0x188>
50000874:	e59d2024 	ldr	r2, [sp, #36]	; 0x24
50000878:	e59d3004 	ldr	r3, [sp, #4]
5000087c:	e1520003 	cmp	r2, r3
50000880:	3affffeb 	bcc	50000834 <copy_nand_to_sdram+0x138>
50000884:	e59d2024 	ldr	r2, [sp, #36]	; 0x24
50000888:	e59d3004 	ldr	r3, [sp, #4]
5000088c:	e1520003 	cmp	r2, r3
50000890:	3a000000 	bcc	50000898 <copy_nand_to_sdram+0x19c>
50000894:	ea000005 	b	500008b0 <copy_nand_to_sdram+0x1b4>
50000898:	e59d3020 	ldr	r3, [sp, #32]
5000089c:	e2833001 	add	r3, r3, #1
500008a0:	e58d3020 	str	r3, [sp, #32]
500008a4:	e3a03000 	mov	r3, #0
500008a8:	e58d301c 	str	r3, [sp, #28]
500008ac:	eaffffab 	b	50000760 <copy_nand_to_sdram+0x64>
500008b0:	e59f3018 	ldr	r3, [pc, #24]	; 500008d0 <copy_nand_to_sdram+0x1d4>
500008b4:	e59f2014 	ldr	r2, [pc, #20]	; 500008d0 <copy_nand_to_sdram+0x1d4>
500008b8:	e5922000 	ldr	r2, [r2]
500008bc:	e3822002 	orr	r2, r2, #2
500008c0:	e5832000 	str	r2, [r3]
500008c4:	e1a00000 	nop			; (mov r0, r0)
500008c8:	e28dd028 	add	sp, sp, #40	; 0x28
500008cc:	e12fff1e 	bx	lr
500008d0:	70200004 	eorvc	r0, r0, r4
500008d4:	70200008 	eorvc	r0, r0, r8
500008d8:	7020000c 	eorvc	r0, r0, ip
500008dc:	70200028 	eorvc	r0, r0, r8, lsr #32
500008e0:	70200010 	eorvc	r0, r0, r0, lsl r0

500008e4 <nand_read_ID>:
500008e4:	e52de004 	push	{lr}		; (str lr, [sp, #-4]!)
500008e8:	e24dd014 	sub	sp, sp, #20
500008ec:	e59f30b8 	ldr	r3, [pc, #184]	; 500009ac <nand_read_ID+0xc8>
500008f0:	e59f20b4 	ldr	r2, [pc, #180]	; 500009ac <nand_read_ID+0xc8>
500008f4:	e5922000 	ldr	r2, [r2]
500008f8:	e3c22002 	bic	r2, r2, #2
500008fc:	e5832000 	str	r2, [r3]
50000900:	e59f30a8 	ldr	r3, [pc, #168]	; 500009b0 <nand_read_ID+0xcc>
50000904:	e3a02090 	mov	r2, #144	; 0x90
50000908:	e5832000 	str	r2, [r3]
5000090c:	e59f30a0 	ldr	r3, [pc, #160]	; 500009b4 <nand_read_ID+0xd0>
50000910:	e3a02000 	mov	r2, #0
50000914:	e5832000 	str	r2, [r3]
50000918:	e59f3098 	ldr	r3, [pc, #152]	; 500009b8 <nand_read_ID+0xd4>
5000091c:	e5933000 	ldr	r3, [r3]
50000920:	e2033001 	and	r3, r3, #1
50000924:	e3530000 	cmp	r3, #0
50000928:	0a000000 	beq	50000930 <nand_read_ID+0x4c>
5000092c:	ea000000 	b	50000934 <nand_read_ID+0x50>
50000930:	eafffff8 	b	50000918 <nand_read_ID+0x34>
50000934:	e59f3080 	ldr	r3, [pc, #128]	; 500009bc <nand_read_ID+0xd8>
50000938:	e5933000 	ldr	r3, [r3]
5000093c:	e58d3004 	str	r3, [sp, #4]
50000940:	e59f3074 	ldr	r3, [pc, #116]	; 500009bc <nand_read_ID+0xd8>
50000944:	e5933000 	ldr	r3, [r3]
50000948:	e58d3008 	str	r3, [sp, #8]
5000094c:	e59f3068 	ldr	r3, [pc, #104]	; 500009bc <nand_read_ID+0xd8>
50000950:	e5933000 	ldr	r3, [r3]
50000954:	e58d300c 	str	r3, [sp, #12]
50000958:	e59f304c 	ldr	r3, [pc, #76]	; 500009ac <nand_read_ID+0xc8>
5000095c:	e59f2048 	ldr	r2, [pc, #72]	; 500009ac <nand_read_ID+0xc8>
50000960:	e5922000 	ldr	r2, [r2]
50000964:	e3822002 	orr	r2, r2, #2
50000968:	e5832000 	str	r2, [r3]
5000096c:	e59f004c 	ldr	r0, [pc, #76]	; 500009c0 <nand_read_ID+0xdc>
50000970:	eb000469 	bl	50001b1c <uart_printf>
50000974:	e59d300c 	ldr	r3, [sp, #12]
50000978:	e1a00003 	mov	r0, r3
5000097c:	eb0004b6 	bl	50001c5c <uart_print_hex>
50000980:	e59d3008 	ldr	r3, [sp, #8]
50000984:	e1a00003 	mov	r0, r3
50000988:	eb0004b3 	bl	50001c5c <uart_print_hex>
5000098c:	e59d3004 	ldr	r3, [sp, #4]
50000990:	e1a00003 	mov	r0, r3
50000994:	eb0004b0 	bl	50001c5c <uart_print_hex>
50000998:	e59f0024 	ldr	r0, [pc, #36]	; 500009c4 <nand_read_ID+0xe0>
5000099c:	eb000444 	bl	50001ab4 <uart_puts>
500009a0:	e1a00000 	nop			; (mov r0, r0)
500009a4:	e28dd014 	add	sp, sp, #20
500009a8:	e49df004 	pop	{pc}		; (ldr pc, [sp], #4)
500009ac:	70200004 	eorvc	r0, r0, r4
500009b0:	70200008 	eorvc	r0, r0, r8
500009b4:	7020000c 	eorvc	r0, r0, ip
500009b8:	70200028 	eorvc	r0, r0, r8, lsr #32
500009bc:	70200010 	eorvc	r0, r0, r0, lsl r0
500009c0:	50001048 	andpl	r1, r0, r8, asr #32
500009c4:	50001054 	andpl	r1, r0, r4, asr r0

500009c8 <nand_read>:
500009c8:	e52de004 	push	{lr}		; (str lr, [sp, #-4]!)
500009cc:	e24dd02c 	sub	sp, sp, #44	; 0x2c
500009d0:	e58d0004 	str	r0, [sp, #4]
500009d4:	e58d1000 	str	r1, [sp]
500009d8:	e59d2000 	ldr	r2, [sp]
500009dc:	e59d3004 	ldr	r3, [sp, #4]
500009e0:	e0633002 	rsb	r3, r3, r2
500009e4:	e58d3018 	str	r3, [sp, #24]
500009e8:	e3a03000 	mov	r3, #0
500009ec:	e58d3024 	str	r3, [sp, #36]	; 0x24
500009f0:	e3a03000 	mov	r3, #0
500009f4:	e58d3014 	str	r3, [sp, #20]
500009f8:	e3a03000 	mov	r3, #0
500009fc:	e58d3010 	str	r3, [sp, #16]
50000a00:	e3a03000 	mov	r3, #0
50000a04:	e58d300c 	str	r3, [sp, #12]
50000a08:	e59f31e0 	ldr	r3, [pc, #480]	; 50000bf0 <nand_read+0x228>
50000a0c:	e59f21dc 	ldr	r2, [pc, #476]	; 50000bf0 <nand_read+0x228>
50000a10:	e5922000 	ldr	r2, [r2]
50000a14:	e3c22002 	bic	r2, r2, #2
50000a18:	e5832000 	str	r2, [r3]
50000a1c:	e59d3004 	ldr	r3, [sp, #4]
50000a20:	e1a03623 	lsr	r3, r3, #12
50000a24:	e58d3014 	str	r3, [sp, #20]
50000a28:	e59d3014 	ldr	r3, [sp, #20]
50000a2c:	e1a03603 	lsl	r3, r3, #12
50000a30:	e59d2004 	ldr	r2, [sp, #4]
50000a34:	e0633002 	rsb	r3, r3, r2
50000a38:	e58d3010 	str	r3, [sp, #16]
50000a3c:	e59f01b0 	ldr	r0, [pc, #432]	; 50000bf4 <nand_read+0x22c>
50000a40:	eb00041b 	bl	50001ab4 <uart_puts>
50000a44:	e59f01ac 	ldr	r0, [pc, #428]	; 50000bf8 <nand_read+0x230>
50000a48:	eb000433 	bl	50001b1c <uart_printf>
50000a4c:	e59d0004 	ldr	r0, [sp, #4]
50000a50:	eb000481 	bl	50001c5c <uart_print_hex>
50000a54:	e59f01a0 	ldr	r0, [pc, #416]	; 50000bfc <nand_read+0x234>
50000a58:	eb00042f 	bl	50001b1c <uart_printf>
50000a5c:	e59d0014 	ldr	r0, [sp, #20]
50000a60:	eb00047d 	bl	50001c5c <uart_print_hex>
50000a64:	e59f0194 	ldr	r0, [pc, #404]	; 50000c00 <nand_read+0x238>
50000a68:	eb00042b 	bl	50001b1c <uart_printf>
50000a6c:	e59d0010 	ldr	r0, [sp, #16]
50000a70:	eb000479 	bl	50001c5c <uart_print_hex>
50000a74:	e59f0178 	ldr	r0, [pc, #376]	; 50000bf4 <nand_read+0x22c>
50000a78:	eb00040d 	bl	50001ab4 <uart_puts>
50000a7c:	e59f3180 	ldr	r3, [pc, #384]	; 50000c04 <nand_read+0x23c>
50000a80:	e3a02000 	mov	r2, #0
50000a84:	e5832000 	str	r2, [r3]
50000a88:	e59f3178 	ldr	r3, [pc, #376]	; 50000c08 <nand_read+0x240>
50000a8c:	e59d2010 	ldr	r2, [sp, #16]
50000a90:	e6ef2072 	uxtb	r2, r2
50000a94:	e5832000 	str	r2, [r3]
50000a98:	e59f3168 	ldr	r3, [pc, #360]	; 50000c08 <nand_read+0x240>
50000a9c:	e59d2010 	ldr	r2, [sp, #16]
50000aa0:	e1a02422 	lsr	r2, r2, #8
50000aa4:	e202201f 	and	r2, r2, #31
50000aa8:	e5832000 	str	r2, [r3]
50000aac:	e59f3154 	ldr	r3, [pc, #340]	; 50000c08 <nand_read+0x240>
50000ab0:	e59d2014 	ldr	r2, [sp, #20]
50000ab4:	e6ef2072 	uxtb	r2, r2
50000ab8:	e5832000 	str	r2, [r3]
50000abc:	e59f3144 	ldr	r3, [pc, #324]	; 50000c08 <nand_read+0x240>
50000ac0:	e59d2014 	ldr	r2, [sp, #20]
50000ac4:	e1a02422 	lsr	r2, r2, #8
50000ac8:	e6ef2072 	uxtb	r2, r2
50000acc:	e5832000 	str	r2, [r3]
50000ad0:	e59f3130 	ldr	r3, [pc, #304]	; 50000c08 <nand_read+0x240>
50000ad4:	e59d2014 	ldr	r2, [sp, #20]
50000ad8:	e1a02822 	lsr	r2, r2, #16
50000adc:	e6ef2072 	uxtb	r2, r2
50000ae0:	e5832000 	str	r2, [r3]
50000ae4:	e59f3118 	ldr	r3, [pc, #280]	; 50000c04 <nand_read+0x23c>
50000ae8:	e3a02030 	mov	r2, #48	; 0x30
50000aec:	e5832000 	str	r2, [r3]
50000af0:	e59f3114 	ldr	r3, [pc, #276]	; 50000c0c <nand_read+0x244>
50000af4:	e5933000 	ldr	r3, [r3]
50000af8:	e2033001 	and	r3, r3, #1
50000afc:	e3530000 	cmp	r3, #0
50000b00:	0a000005 	beq	50000b1c <nand_read+0x154>
50000b04:	e1a00000 	nop			; (mov r0, r0)
50000b08:	e59d3010 	ldr	r3, [sp, #16]
50000b0c:	e58d3020 	str	r3, [sp, #32]
50000b10:	e3a03000 	mov	r3, #0
50000b14:	e58d301c 	str	r3, [sp, #28]
50000b18:	ea00001d 	b	50000b94 <nand_read+0x1cc>
50000b1c:	eafffff3 	b	50000af0 <nand_read+0x128>
50000b20:	e59f30e8 	ldr	r3, [pc, #232]	; 50000c10 <nand_read+0x248>
50000b24:	e5933000 	ldr	r3, [r3]
50000b28:	e58d300c 	str	r3, [sp, #12]
50000b2c:	e59d301c 	ldr	r3, [sp, #28]
50000b30:	e2033003 	and	r3, r3, #3
50000b34:	e3530000 	cmp	r3, #0
50000b38:	1a000005 	bne	50000b54 <nand_read+0x18c>
50000b3c:	e59f00b0 	ldr	r0, [pc, #176]	; 50000bf4 <nand_read+0x22c>
50000b40:	eb0003db 	bl	50001ab4 <uart_puts>
50000b44:	e59d0004 	ldr	r0, [sp, #4]
50000b48:	eb000443 	bl	50001c5c <uart_print_hex>
50000b4c:	e59f00c0 	ldr	r0, [pc, #192]	; 50000c14 <nand_read+0x24c>
50000b50:	eb0003f1 	bl	50001b1c <uart_printf>
50000b54:	e59d000c 	ldr	r0, [sp, #12]
50000b58:	eb00045a 	bl	50001cc8 <uart_print_addr>
50000b5c:	e59f00b4 	ldr	r0, [pc, #180]	; 50000c18 <nand_read+0x250>
50000b60:	eb0003ed 	bl	50001b1c <uart_printf>
50000b64:	e59d3004 	ldr	r3, [sp, #4]
50000b68:	e2833004 	add	r3, r3, #4
50000b6c:	e58d3004 	str	r3, [sp, #4]
50000b70:	e59d3024 	ldr	r3, [sp, #36]	; 0x24
50000b74:	e2833004 	add	r3, r3, #4
50000b78:	e58d3024 	str	r3, [sp, #36]	; 0x24
50000b7c:	e59d3020 	ldr	r3, [sp, #32]
50000b80:	e2833004 	add	r3, r3, #4
50000b84:	e58d3020 	str	r3, [sp, #32]
50000b88:	e59d301c 	ldr	r3, [sp, #28]
50000b8c:	e2833001 	add	r3, r3, #1
50000b90:	e58d301c 	str	r3, [sp, #28]
50000b94:	e59d3020 	ldr	r3, [sp, #32]
50000b98:	e3530a01 	cmp	r3, #4096	; 0x1000
50000b9c:	aa000003 	bge	50000bb0 <nand_read+0x1e8>
50000ba0:	e59d2024 	ldr	r2, [sp, #36]	; 0x24
50000ba4:	e59d3018 	ldr	r3, [sp, #24]
50000ba8:	e1520003 	cmp	r2, r3
50000bac:	3affffdb 	bcc	50000b20 <nand_read+0x158>
50000bb0:	e59f003c 	ldr	r0, [pc, #60]	; 50000bf4 <nand_read+0x22c>
50000bb4:	eb0003be 	bl	50001ab4 <uart_puts>
50000bb8:	e59d2024 	ldr	r2, [sp, #36]	; 0x24
50000bbc:	e59d3018 	ldr	r3, [sp, #24]
50000bc0:	e1520003 	cmp	r2, r3
50000bc4:	3a000000 	bcc	50000bcc <nand_read+0x204>
50000bc8:	ea000000 	b	50000bd0 <nand_read+0x208>
50000bcc:	eaffff92 	b	50000a1c <nand_read+0x54>
50000bd0:	e59f3018 	ldr	r3, [pc, #24]	; 50000bf0 <nand_read+0x228>
50000bd4:	e59f2014 	ldr	r2, [pc, #20]	; 50000bf0 <nand_read+0x228>
50000bd8:	e5922000 	ldr	r2, [r2]
50000bdc:	e3822002 	orr	r2, r2, #2
50000be0:	e5832000 	str	r2, [r3]
50000be4:	e1a00000 	nop			; (mov r0, r0)
50000be8:	e28dd02c 	add	sp, sp, #44	; 0x2c
50000bec:	e49df004 	pop	{pc}		; (ldr pc, [sp], #4)
50000bf0:	70200004 	eorvc	r0, r0, r4
50000bf4:	50001054 	andpl	r1, r0, r4, asr r0
50000bf8:	50001058 	andpl	r1, r0, r8, asr r0
50000bfc:	50001068 	andpl	r1, r0, r8, rrx
50000c00:	50001074 	andpl	r1, r0, r4, ror r0
50000c04:	70200008 	eorvc	r0, r0, r8
50000c08:	7020000c 	eorvc	r0, r0, ip
50000c0c:	70200028 	eorvc	r0, r0, r8, lsr #32
50000c10:	70200010 	eorvc	r0, r0, r0, lsl r0
50000c14:	50001080 	andpl	r1, r0, r0, lsl #1
50000c18:	50001084 	andpl	r1, r0, r4, lsl #1

50000c1c <nand_erase_block>:
50000c1c:	e24dd010 	sub	sp, sp, #16
50000c20:	e58d0004 	str	r0, [sp, #4]
50000c24:	e59f30a4 	ldr	r3, [pc, #164]	; 50000cd0 <nand_erase_block+0xb4>
50000c28:	e59f20a0 	ldr	r2, [pc, #160]	; 50000cd0 <nand_erase_block+0xb4>
50000c2c:	e5922000 	ldr	r2, [r2]
50000c30:	e3c22002 	bic	r2, r2, #2
50000c34:	e5832000 	str	r2, [r3]
50000c38:	e59f3094 	ldr	r3, [pc, #148]	; 50000cd4 <nand_erase_block+0xb8>
50000c3c:	e3a02060 	mov	r2, #96	; 0x60
50000c40:	e5832000 	str	r2, [r3]
50000c44:	e59d3004 	ldr	r3, [sp, #4]
50000c48:	e1a03623 	lsr	r3, r3, #12
50000c4c:	e58d300c 	str	r3, [sp, #12]
50000c50:	e59f3080 	ldr	r3, [pc, #128]	; 50000cd8 <nand_erase_block+0xbc>
50000c54:	e59d200c 	ldr	r2, [sp, #12]
50000c58:	e6ef2072 	uxtb	r2, r2
50000c5c:	e5832000 	str	r2, [r3]
50000c60:	e59f3070 	ldr	r3, [pc, #112]	; 50000cd8 <nand_erase_block+0xbc>
50000c64:	e59d200c 	ldr	r2, [sp, #12]
50000c68:	e1a02442 	asr	r2, r2, #8
50000c6c:	e6ef2072 	uxtb	r2, r2
50000c70:	e5832000 	str	r2, [r3]
50000c74:	e59f305c 	ldr	r3, [pc, #92]	; 50000cd8 <nand_erase_block+0xbc>
50000c78:	e59d200c 	ldr	r2, [sp, #12]
50000c7c:	e1a02842 	asr	r2, r2, #16
50000c80:	e6ef2072 	uxtb	r2, r2
50000c84:	e5832000 	str	r2, [r3]
50000c88:	e59f3044 	ldr	r3, [pc, #68]	; 50000cd4 <nand_erase_block+0xb8>
50000c8c:	e3a020d0 	mov	r2, #208	; 0xd0
50000c90:	e5832000 	str	r2, [r3]
50000c94:	e59f3040 	ldr	r3, [pc, #64]	; 50000cdc <nand_erase_block+0xc0>
50000c98:	e5933000 	ldr	r3, [r3]
50000c9c:	e2033001 	and	r3, r3, #1
50000ca0:	e3530000 	cmp	r3, #0
50000ca4:	0a000000 	beq	50000cac <nand_erase_block+0x90>
50000ca8:	ea000000 	b	50000cb0 <nand_erase_block+0x94>
50000cac:	eafffff8 	b	50000c94 <nand_erase_block+0x78>
50000cb0:	e59f3018 	ldr	r3, [pc, #24]	; 50000cd0 <nand_erase_block+0xb4>
50000cb4:	e59f2014 	ldr	r2, [pc, #20]	; 50000cd0 <nand_erase_block+0xb4>
50000cb8:	e5922000 	ldr	r2, [r2]
50000cbc:	e3822002 	orr	r2, r2, #2
50000cc0:	e5832000 	str	r2, [r3]
50000cc4:	e1a00000 	nop			; (mov r0, r0)
50000cc8:	e28dd010 	add	sp, sp, #16
50000ccc:	e12fff1e 	bx	lr
50000cd0:	70200004 	eorvc	r0, r0, r4
50000cd4:	70200008 	eorvc	r0, r0, r8
50000cd8:	7020000c 	eorvc	r0, r0, ip
50000cdc:	70200028 	eorvc	r0, r0, r8, lsr #32

50000ce0 <write_to_boot>:
50000ce0:	e24dd018 	sub	sp, sp, #24
50000ce4:	e58d0004 	str	r0, [sp, #4]
50000ce8:	e58d1000 	str	r1, [sp]
50000cec:	e3a03000 	mov	r3, #0
50000cf0:	e58d3014 	str	r3, [sp, #20]
50000cf4:	e3a03000 	mov	r3, #0
50000cf8:	e58d3010 	str	r3, [sp, #16]
50000cfc:	e3a03000 	mov	r3, #0
50000d00:	e58d3008 	str	r3, [sp, #8]
50000d04:	e59f3170 	ldr	r3, [pc, #368]	; 50000e7c <write_to_boot+0x19c>
50000d08:	e59f216c 	ldr	r2, [pc, #364]	; 50000e7c <write_to_boot+0x19c>
50000d0c:	e5922000 	ldr	r2, [r2]
50000d10:	e3c22002 	bic	r2, r2, #2
50000d14:	e5832000 	str	r2, [r3]
50000d18:	e59d3010 	ldr	r3, [sp, #16]
50000d1c:	e3530000 	cmp	r3, #0
50000d20:	0a000005 	beq	50000d3c <write_to_boot+0x5c>
50000d24:	e59d3010 	ldr	r3, [sp, #16]
50000d28:	e3530004 	cmp	r3, #4
50000d2c:	8a000002 	bhi	50000d3c <write_to_boot+0x5c>
50000d30:	e59d3004 	ldr	r3, [sp, #4]
50000d34:	e2433b02 	sub	r3, r3, #2048	; 0x800
50000d38:	e58d3004 	str	r3, [sp, #4]
50000d3c:	e59f313c 	ldr	r3, [pc, #316]	; 50000e80 <write_to_boot+0x1a0>
50000d40:	e3a02080 	mov	r2, #128	; 0x80
50000d44:	e5832000 	str	r2, [r3]
50000d48:	e59f3134 	ldr	r3, [pc, #308]	; 50000e84 <write_to_boot+0x1a4>
50000d4c:	e59d2008 	ldr	r2, [sp, #8]
50000d50:	e6ef2072 	uxtb	r2, r2
50000d54:	e5832000 	str	r2, [r3]
50000d58:	e59f3124 	ldr	r3, [pc, #292]	; 50000e84 <write_to_boot+0x1a4>
50000d5c:	e59d2008 	ldr	r2, [sp, #8]
50000d60:	e1a02422 	lsr	r2, r2, #8
50000d64:	e202201f 	and	r2, r2, #31
50000d68:	e5832000 	str	r2, [r3]
50000d6c:	e59f3110 	ldr	r3, [pc, #272]	; 50000e84 <write_to_boot+0x1a4>
50000d70:	e59d2010 	ldr	r2, [sp, #16]
50000d74:	e6ef2072 	uxtb	r2, r2
50000d78:	e5832000 	str	r2, [r3]
50000d7c:	e59f3100 	ldr	r3, [pc, #256]	; 50000e84 <write_to_boot+0x1a4>
50000d80:	e59d2010 	ldr	r2, [sp, #16]
50000d84:	e1a02422 	lsr	r2, r2, #8
50000d88:	e6ef2072 	uxtb	r2, r2
50000d8c:	e5832000 	str	r2, [r3]
50000d90:	e59f30ec 	ldr	r3, [pc, #236]	; 50000e84 <write_to_boot+0x1a4>
50000d94:	e59d2010 	ldr	r2, [sp, #16]
50000d98:	e1a02822 	lsr	r2, r2, #16
50000d9c:	e6ef2072 	uxtb	r2, r2
50000da0:	e5832000 	str	r2, [r3]
50000da4:	e59d3008 	ldr	r3, [sp, #8]
50000da8:	e58d300c 	str	r3, [sp, #12]
50000dac:	ea00000f 	b	50000df0 <write_to_boot+0x110>
50000db0:	e59f30d0 	ldr	r3, [pc, #208]	; 50000e88 <write_to_boot+0x1a8>
50000db4:	e59d2004 	ldr	r2, [sp, #4]
50000db8:	e5922000 	ldr	r2, [r2]
50000dbc:	e5832000 	str	r2, [r3]
50000dc0:	e59d3004 	ldr	r3, [sp, #4]
50000dc4:	e2833004 	add	r3, r3, #4
50000dc8:	e58d3004 	str	r3, [sp, #4]
50000dcc:	e59d300c 	ldr	r3, [sp, #12]
50000dd0:	e3530b02 	cmp	r3, #2048	; 0x800
50000dd4:	aa000002 	bge	50000de4 <write_to_boot+0x104>
50000dd8:	e59d3014 	ldr	r3, [sp, #20]
50000ddc:	e2833004 	add	r3, r3, #4
50000de0:	e58d3014 	str	r3, [sp, #20]
50000de4:	e59d300c 	ldr	r3, [sp, #12]
50000de8:	e2833004 	add	r3, r3, #4
50000dec:	e58d300c 	str	r3, [sp, #12]
50000df0:	e59d300c 	ldr	r3, [sp, #12]
50000df4:	e3530a01 	cmp	r3, #4096	; 0x1000
50000df8:	aa000003 	bge	50000e0c <write_to_boot+0x12c>
50000dfc:	e59d2014 	ldr	r2, [sp, #20]
50000e00:	e59d3000 	ldr	r3, [sp]
50000e04:	e1520003 	cmp	r2, r3
50000e08:	3affffe8 	bcc	50000db0 <write_to_boot+0xd0>
50000e0c:	e59f306c 	ldr	r3, [pc, #108]	; 50000e80 <write_to_boot+0x1a0>
50000e10:	e3a02010 	mov	r2, #16
50000e14:	e5832000 	str	r2, [r3]
50000e18:	e59f306c 	ldr	r3, [pc, #108]	; 50000e8c <write_to_boot+0x1ac>
50000e1c:	e5933000 	ldr	r3, [r3]
50000e20:	e2033001 	and	r3, r3, #1
50000e24:	e3530000 	cmp	r3, #0
50000e28:	0a000005 	beq	50000e44 <write_to_boot+0x164>
50000e2c:	e1a00000 	nop			; (mov r0, r0)
50000e30:	e59d2014 	ldr	r2, [sp, #20]
50000e34:	e59d3000 	ldr	r3, [sp]
50000e38:	e1520003 	cmp	r2, r3
50000e3c:	3a000002 	bcc	50000e4c <write_to_boot+0x16c>
50000e40:	ea000000 	b	50000e48 <write_to_boot+0x168>
50000e44:	eafffff3 	b	50000e18 <write_to_boot+0x138>
50000e48:	ea000003 	b	50000e5c <write_to_boot+0x17c>
50000e4c:	e59d3010 	ldr	r3, [sp, #16]
50000e50:	e2833001 	add	r3, r3, #1
50000e54:	e58d3010 	str	r3, [sp, #16]
50000e58:	eaffffae 	b	50000d18 <write_to_boot+0x38>
50000e5c:	e59f3018 	ldr	r3, [pc, #24]	; 50000e7c <write_to_boot+0x19c>
50000e60:	e59f2014 	ldr	r2, [pc, #20]	; 50000e7c <write_to_boot+0x19c>
50000e64:	e5922000 	ldr	r2, [r2]
50000e68:	e3822002 	orr	r2, r2, #2
50000e6c:	e5832000 	str	r2, [r3]
50000e70:	e1a00000 	nop			; (mov r0, r0)
50000e74:	e28dd018 	add	sp, sp, #24
50000e78:	e12fff1e 	bx	lr
50000e7c:	70200004 	eorvc	r0, r0, r4
50000e80:	70200008 	eorvc	r0, r0, r8
50000e84:	7020000c 	eorvc	r0, r0, ip
50000e88:	70200010 	eorvc	r0, r0, r0, lsl r0
50000e8c:	70200028 	eorvc	r0, r0, r8, lsr #32

50000e90 <write_to_nand>:
50000e90:	e52de004 	push	{lr}		; (str lr, [sp, #-4]!)
50000e94:	e24dd024 	sub	sp, sp, #36	; 0x24
50000e98:	e58d000c 	str	r0, [sp, #12]
50000e9c:	e58d1008 	str	r1, [sp, #8]
50000ea0:	e58d2004 	str	r2, [sp, #4]
50000ea4:	e3a03000 	mov	r3, #0
50000ea8:	e58d301c 	str	r3, [sp, #28]
50000eac:	e59d3008 	ldr	r3, [sp, #8]
50000eb0:	e1a03623 	lsr	r3, r3, #12
50000eb4:	e58d3018 	str	r3, [sp, #24]
50000eb8:	e59d3018 	ldr	r3, [sp, #24]
50000ebc:	e1a03603 	lsl	r3, r3, #12
50000ec0:	e59d2008 	ldr	r2, [sp, #8]
50000ec4:	e0633002 	rsb	r3, r3, r2
50000ec8:	e58d3010 	str	r3, [sp, #16]
50000ecc:	e59f3158 	ldr	r3, [pc, #344]	; 5000102c <write_to_nand+0x19c>
50000ed0:	e59f2154 	ldr	r2, [pc, #340]	; 5000102c <write_to_nand+0x19c>
50000ed4:	e5922000 	ldr	r2, [r2]
50000ed8:	e3c22002 	bic	r2, r2, #2
50000edc:	e5832000 	str	r2, [r3]
50000ee0:	e59f0148 	ldr	r0, [pc, #328]	; 50001030 <write_to_nand+0x1a0>
50000ee4:	eb00030c 	bl	50001b1c <uart_printf>
50000ee8:	e59d0018 	ldr	r0, [sp, #24]
50000eec:	eb00035a 	bl	50001c5c <uart_print_hex>
50000ef0:	e59f013c 	ldr	r0, [pc, #316]	; 50001034 <write_to_nand+0x1a4>
50000ef4:	eb0002ee 	bl	50001ab4 <uart_puts>
50000ef8:	e59f3138 	ldr	r3, [pc, #312]	; 50001038 <write_to_nand+0x1a8>
50000efc:	e3a02080 	mov	r2, #128	; 0x80
50000f00:	e5832000 	str	r2, [r3]
50000f04:	e59f3130 	ldr	r3, [pc, #304]	; 5000103c <write_to_nand+0x1ac>
50000f08:	e59d2010 	ldr	r2, [sp, #16]
50000f0c:	e6ef2072 	uxtb	r2, r2
50000f10:	e5832000 	str	r2, [r3]
50000f14:	e59f3120 	ldr	r3, [pc, #288]	; 5000103c <write_to_nand+0x1ac>
50000f18:	e59d2010 	ldr	r2, [sp, #16]
50000f1c:	e1a02422 	lsr	r2, r2, #8
50000f20:	e202201f 	and	r2, r2, #31
50000f24:	e5832000 	str	r2, [r3]
50000f28:	e59f310c 	ldr	r3, [pc, #268]	; 5000103c <write_to_nand+0x1ac>
50000f2c:	e59d2018 	ldr	r2, [sp, #24]
50000f30:	e6ef2072 	uxtb	r2, r2
50000f34:	e5832000 	str	r2, [r3]
50000f38:	e59f30fc 	ldr	r3, [pc, #252]	; 5000103c <write_to_nand+0x1ac>
50000f3c:	e59d2018 	ldr	r2, [sp, #24]
50000f40:	e1a02422 	lsr	r2, r2, #8
50000f44:	e6ef2072 	uxtb	r2, r2
50000f48:	e5832000 	str	r2, [r3]
50000f4c:	e59f30e8 	ldr	r3, [pc, #232]	; 5000103c <write_to_nand+0x1ac>
50000f50:	e59d2018 	ldr	r2, [sp, #24]
50000f54:	e1a02822 	lsr	r2, r2, #16
50000f58:	e6ef2072 	uxtb	r2, r2
50000f5c:	e5832000 	str	r2, [r3]
50000f60:	e59d3010 	ldr	r3, [sp, #16]
50000f64:	e58d3014 	str	r3, [sp, #20]
50000f68:	ea00000c 	b	50000fa0 <write_to_nand+0x110>
50000f6c:	e59f30cc 	ldr	r3, [pc, #204]	; 50001040 <write_to_nand+0x1b0>
50000f70:	e59d200c 	ldr	r2, [sp, #12]
50000f74:	e5922000 	ldr	r2, [r2]
50000f78:	e5832000 	str	r2, [r3]
50000f7c:	e59d300c 	ldr	r3, [sp, #12]
50000f80:	e2833004 	add	r3, r3, #4
50000f84:	e58d300c 	str	r3, [sp, #12]
50000f88:	e59d301c 	ldr	r3, [sp, #28]
50000f8c:	e2833004 	add	r3, r3, #4
50000f90:	e58d301c 	str	r3, [sp, #28]
50000f94:	e59d3014 	ldr	r3, [sp, #20]
50000f98:	e2833004 	add	r3, r3, #4
50000f9c:	e58d3014 	str	r3, [sp, #20]
50000fa0:	e59d3014 	ldr	r3, [sp, #20]
50000fa4:	e3530a01 	cmp	r3, #4096	; 0x1000
50000fa8:	aa000003 	bge	50000fbc <write_to_nand+0x12c>
50000fac:	e59d201c 	ldr	r2, [sp, #28]
50000fb0:	e59d3004 	ldr	r3, [sp, #4]
50000fb4:	e1520003 	cmp	r2, r3
50000fb8:	3affffeb 	bcc	50000f6c <write_to_nand+0xdc>
50000fbc:	e59f3074 	ldr	r3, [pc, #116]	; 50001038 <write_to_nand+0x1a8>
50000fc0:	e3a02010 	mov	r2, #16
50000fc4:	e5832000 	str	r2, [r3]
50000fc8:	e59f3074 	ldr	r3, [pc, #116]	; 50001044 <write_to_nand+0x1b4>
50000fcc:	e5933000 	ldr	r3, [r3]
50000fd0:	e2033001 	and	r3, r3, #1
50000fd4:	e3530000 	cmp	r3, #0
50000fd8:	0a000005 	beq	50000ff4 <write_to_nand+0x164>
50000fdc:	e1a00000 	nop			; (mov r0, r0)
50000fe0:	e59d201c 	ldr	r2, [sp, #28]
50000fe4:	e59d3004 	ldr	r3, [sp, #4]
50000fe8:	e1520003 	cmp	r2, r3
50000fec:	3a000002 	bcc	50000ffc <write_to_nand+0x16c>
50000ff0:	ea000000 	b	50000ff8 <write_to_nand+0x168>
50000ff4:	eafffff3 	b	50000fc8 <write_to_nand+0x138>
50000ff8:	ea000003 	b	5000100c <write_to_nand+0x17c>
50000ffc:	e59d3018 	ldr	r3, [sp, #24]
50001000:	e2833001 	add	r3, r3, #1
50001004:	e58d3018 	str	r3, [sp, #24]
50001008:	eaffffb4 	b	50000ee0 <write_to_nand+0x50>
5000100c:	e59f3018 	ldr	r3, [pc, #24]	; 5000102c <write_to_nand+0x19c>
50001010:	e59f2014 	ldr	r2, [pc, #20]	; 5000102c <write_to_nand+0x19c>
50001014:	e5922000 	ldr	r2, [r2]
50001018:	e3822002 	orr	r2, r2, #2
5000101c:	e5832000 	str	r2, [r3]
50001020:	e1a00000 	nop			; (mov r0, r0)
50001024:	e28dd024 	add	sp, sp, #36	; 0x24
50001028:	e49df004 	pop	{pc}		; (ldr pc, [sp], #4)
5000102c:	70200004 	eorvc	r0, r0, r4
50001030:	50001088 	andpl	r1, r0, r8, lsl #1
50001034:	50001054 	andpl	r1, r0, r4, asr r0
50001038:	70200008 	eorvc	r0, r0, r8
5000103c:	7020000c 	eorvc	r0, r0, ip
50001040:	70200010 	eorvc	r0, r0, r0, lsl r0
50001044:	70200028 	eorvc	r0, r0, r8, lsr #32
50001048:	20656854 	rsbcs	r6, r5, r4, asr r8
5000104c:	69204449 	stmdbvs	r0!, {r0, r3, r6, sl, lr}
50001050:	00203a73 	eoreq	r3, r0, r3, ror sl
50001054:	00000000 	andeq	r0, r0, r0
50001058:	72617473 	rsbvc	r7, r1, #1929379840	; 0x73000000
5000105c:	64615f74 	strbtvs	r5, [r1], #-3956	; 0xfffff08c
50001060:	3d207264 	sfmcc	f7, 4, [r0, #-400]!	; 0xfffffe70
50001064:	00000020 	andeq	r0, r0, r0, lsr #32
50001068:	61702020 	cmnvs	r0, r0, lsr #32
5000106c:	3d206567 	cfstr32cc	mvfx6, [r0, #-412]!	; 0xfffffe64
50001070:	00000020 	andeq	r0, r0, r0, lsr #32
50001074:	6f632020 	svcvs	0x00632020
50001078:	6e6d756c 	cdpvs	5, 6, cr7, cr13, cr12, {3}
5000107c:	00203d20 	eoreq	r3, r0, r0, lsr #26
50001080:	00203a20 	eoreq	r3, r0, r0, lsr #20
50001084:	00002020 	andeq	r2, r0, r0, lsr #32
50001088:	6761700a 	strbvs	r7, [r1, -sl]!
5000108c:	203d2065 	eorscs	r2, sp, r5, rrx
50001090:	00000000 	andeq	r0, r0, r0
50001094:	00003741 	andeq	r3, r0, r1, asr #14
50001098:	61656100 	cmnvs	r5, r0, lsl #2
5000109c:	01006962 	tsteq	r0, r2, ror #18
500010a0:	0000002d 	andeq	r0, r0, sp, lsr #32
500010a4:	4d524105 	ldfmie	f4, [r2, #-20]	; 0xffffffec
500010a8:	36373131 			; <UNDEFINED> instruction: 0x36373131
500010ac:	2d465a4a 	vstrcs	s11, [r6, #-296]	; 0xfffffed8
500010b0:	07060053 	smlsdeq	r6, r3, r0, r0
500010b4:	01090108 	tsteq	r9, r8, lsl #2
500010b8:	01140412 	tsteq	r4, r2, lsl r4
500010bc:	03170115 	tsteq	r7, #1073741829	; 0x40000005
500010c0:	01190118 	tsteq	r9, r8, lsl r1
500010c4:	061e011a 			; <UNDEFINED> instruction: 0x061e011a
500010c8:	01440122 	cmpeq	r4, r2, lsr #2

500010cc <boot>:
500010cc:	e52de004 	push	{lr}		; (str lr, [sp, #-4]!)
500010d0:	e24dd00c 	sub	sp, sp, #12
500010d4:	eb000152 	bl	50001624 <init_uart>
500010d8:	e59f00bc 	ldr	r0, [pc, #188]	; 5000119c <boot+0xd0>
500010dc:	eb000274 	bl	50001ab4 <uart_puts>
500010e0:	e59f00b8 	ldr	r0, [pc, #184]	; 500011a0 <boot+0xd4>
500010e4:	eb000272 	bl	50001ab4 <uart_puts>
500010e8:	e59f00b4 	ldr	r0, [pc, #180]	; 500011a4 <boot+0xd8>
500010ec:	eb000270 	bl	50001ab4 <uart_puts>
500010f0:	e59f00b0 	ldr	r0, [pc, #176]	; 500011a8 <boot+0xdc>
500010f4:	eb00026e 	bl	50001ab4 <uart_puts>
500010f8:	e59f00ac 	ldr	r0, [pc, #172]	; 500011ac <boot+0xe0>
500010fc:	eb00026c 	bl	50001ab4 <uart_puts>
50001100:	e59f00a8 	ldr	r0, [pc, #168]	; 500011b0 <boot+0xe4>
50001104:	eb00026a 	bl	50001ab4 <uart_puts>
50001108:	e59f00a4 	ldr	r0, [pc, #164]	; 500011b4 <boot+0xe8>
5000110c:	eb000268 	bl	50001ab4 <uart_puts>
50001110:	e59f00a0 	ldr	r0, [pc, #160]	; 500011b8 <boot+0xec>
50001114:	eb000266 	bl	50001ab4 <uart_puts>
50001118:	e59f009c 	ldr	r0, [pc, #156]	; 500011bc <boot+0xf0>
5000111c:	eb00027e 	bl	50001b1c <uart_printf>
50001120:	eb00030a 	bl	50001d50 <uart_getc>
50001124:	e1a03000 	mov	r3, r0
50001128:	e5cd3007 	strb	r3, [sp, #7]
5000112c:	e59f008c 	ldr	r0, [pc, #140]	; 500011c0 <boot+0xf4>
50001130:	eb00025f 	bl	50001ab4 <uart_puts>
50001134:	e5dd3007 	ldrb	r3, [sp, #7]
50001138:	e2433061 	sub	r3, r3, #97	; 0x61
5000113c:	e3530004 	cmp	r3, #4
50001140:	979ff103 	ldrls	pc, [pc, r3, lsl #2]
50001144:	ea00000f 	b	50001188 <boot+0xbc>
50001148:	5000115c 	andpl	r1, r0, ip, asr r1
5000114c:	50001164 	andpl	r1, r0, r4, ror #2
50001150:	50001174 	andpl	r1, r0, r4, ror r1
50001154:	5000117c 	andpl	r1, r0, ip, ror r1
50001158:	50001184 	andpl	r1, r0, r4, lsl #3
5000115c:	eb000019 	bl	500011c8 <update_program>
50001160:	ea000009 	b	5000118c <boot+0xc0>
50001164:	eb0012de 	bl	50005ce4 <reboot>
50001168:	e59f0054 	ldr	r0, [pc, #84]	; 500011c4 <boot+0xf8>
5000116c:	eb000250 	bl	50001ab4 <uart_puts>
50001170:	eafffffe 	b	50001170 <boot+0xa4>
50001174:	e3a03000 	mov	r3, #0
50001178:	ea000004 	b	50001190 <boot+0xc4>
5000117c:	eb0006f1 	bl	50002d48 <set_hc05>
50001180:	ea000001 	b	5000118c <boot+0xc0>
50001184:	eb00077c 	bl	50002f7c <hc05_test>
50001188:	e1a00000 	nop			; (mov r0, r0)
5000118c:	eaffffd1 	b	500010d8 <boot+0xc>
50001190:	e1a00003 	mov	r0, r3
50001194:	e28dd00c 	add	sp, sp, #12
50001198:	e49df004 	pop	{pc}		; (ldr pc, [sp], #4)
5000119c:	50001408 	andpl	r1, r0, r8, lsl #8
500011a0:	5000140c 	andpl	r1, r0, ip, lsl #8
500011a4:	50001428 	andpl	r1, r0, r8, lsr #8
500011a8:	5000143c 	andpl	r1, r0, ip, lsr r4
500011ac:	50001448 	andpl	r1, r0, r8, asr #8
500011b0:	5000145c 	andpl	r1, r0, ip, asr r4
500011b4:	50001474 	andpl	r1, r0, r4, ror r4
500011b8:	50001484 	andpl	r1, r0, r4, lsl #9
500011bc:	500014a0 	andpl	r1, r0, r0, lsr #9
500011c0:	500014a8 	andpl	r1, r0, r8, lsr #9
500011c4:	500014ac 	andpl	r1, r0, ip, lsr #9

500011c8 <update_program>:
500011c8:	e52de004 	push	{lr}		; (str lr, [sp, #-4]!)
500011cc:	e24dd024 	sub	sp, sp, #36	; 0x24
500011d0:	e59f31dc 	ldr	r3, [pc, #476]	; 500013b4 <update_program+0x1ec>
500011d4:	e58d3010 	str	r3, [sp, #16]
500011d8:	e59d3010 	ldr	r3, [sp, #16]
500011dc:	e58d300c 	str	r3, [sp, #12]
500011e0:	e3a03000 	mov	r3, #0
500011e4:	e58d301c 	str	r3, [sp, #28]
500011e8:	e3a03000 	mov	r3, #0
500011ec:	e58d3018 	str	r3, [sp, #24]
500011f0:	e3a03000 	mov	r3, #0
500011f4:	e58d3014 	str	r3, [sp, #20]
500011f8:	e3a03000 	mov	r3, #0
500011fc:	e58d3008 	str	r3, [sp, #8]
50001200:	e59f01b0 	ldr	r0, [pc, #432]	; 500013b8 <update_program+0x1f0>
50001204:	eb00022a 	bl	50001ab4 <uart_puts>
50001208:	eb00048d 	bl	50002444 <uart_get_file_size>
5000120c:	e58d0008 	str	r0, [sp, #8]
50001210:	e59f01a4 	ldr	r0, [pc, #420]	; 500013bc <update_program+0x1f4>
50001214:	eb000240 	bl	50001b1c <uart_printf>
50001218:	e59d0008 	ldr	r0, [sp, #8]
5000121c:	eb000431 	bl	500022e8 <uart_print_int>
50001220:	e59f0198 	ldr	r0, [pc, #408]	; 500013c0 <update_program+0x1f8>
50001224:	eb000222 	bl	50001ab4 <uart_puts>
50001228:	e59d3014 	ldr	r3, [sp, #20]
5000122c:	e59d200c 	ldr	r2, [sp, #12]
50001230:	e0823003 	add	r3, r2, r3
50001234:	e1a00003 	mov	r0, r3
50001238:	eb00046d 	bl	500023f4 <uart_get_file>
5000123c:	e1a03000 	mov	r3, r0
50001240:	e3530000 	cmp	r3, #0
50001244:	0a000007 	beq	50001268 <update_program+0xa0>
50001248:	e3a03001 	mov	r3, #1
5000124c:	e58d3018 	str	r3, [sp, #24]
50001250:	e3a03000 	mov	r3, #0
50001254:	e58d301c 	str	r3, [sp, #28]
50001258:	e59d3014 	ldr	r3, [sp, #20]
5000125c:	e2833001 	add	r3, r3, #1
50001260:	e58d3014 	str	r3, [sp, #20]
50001264:	ea000005 	b	50001280 <update_program+0xb8>
50001268:	e59d3018 	ldr	r3, [sp, #24]
5000126c:	e3530000 	cmp	r3, #0
50001270:	0a000002 	beq	50001280 <update_program+0xb8>
50001274:	e59d301c 	ldr	r3, [sp, #28]
50001278:	e2833001 	add	r3, r3, #1
5000127c:	e58d301c 	str	r3, [sp, #28]
50001280:	e59d2014 	ldr	r2, [sp, #20]
50001284:	e59d3008 	ldr	r3, [sp, #8]
50001288:	e1520003 	cmp	r2, r3
5000128c:	1a000000 	bne	50001294 <update_program+0xcc>
50001290:	ea000005 	b	500012ac <update_program+0xe4>
50001294:	e59d201c 	ldr	r2, [sp, #28]
50001298:	e3e034ff 	mvn	r3, #-16777216	; 0xff000000
5000129c:	e1520003 	cmp	r2, r3
500012a0:	1a000000 	bne	500012a8 <update_program+0xe0>
500012a4:	ea000000 	b	500012ac <update_program+0xe4>
500012a8:	eaffffde 	b	50001228 <update_program+0x60>
500012ac:	e59d3014 	ldr	r3, [sp, #20]
500012b0:	e3530000 	cmp	r3, #0
500012b4:	1a000003 	bne	500012c8 <update_program+0x100>
500012b8:	e59f0104 	ldr	r0, [pc, #260]	; 500013c4 <update_program+0x1fc>
500012bc:	eb0001fc 	bl	50001ab4 <uart_puts>
500012c0:	e3e03000 	mvn	r3, #0
500012c4:	ea000037 	b	500013a8 <update_program+0x1e0>
500012c8:	e59f00f8 	ldr	r0, [pc, #248]	; 500013c8 <update_program+0x200>
500012cc:	eb000212 	bl	50001b1c <uart_printf>
500012d0:	e59d0014 	ldr	r0, [sp, #20]
500012d4:	eb000403 	bl	500022e8 <uart_print_int>
500012d8:	e59f00ec 	ldr	r0, [pc, #236]	; 500013cc <update_program+0x204>
500012dc:	eb00020e 	bl	50001b1c <uart_printf>
500012e0:	e59f00e8 	ldr	r0, [pc, #232]	; 500013d0 <update_program+0x208>
500012e4:	eb00020c 	bl	50001b1c <uart_printf>
500012e8:	e59d3010 	ldr	r3, [sp, #16]
500012ec:	e283300f 	add	r3, r3, #15
500012f0:	e59d0010 	ldr	r0, [sp, #16]
500012f4:	e1a01003 	mov	r1, r3
500012f8:	ebfffc89 	bl	50000524 <sdram_read>
500012fc:	e59f00d0 	ldr	r0, [pc, #208]	; 500013d4 <update_program+0x20c>
50001300:	eb000205 	bl	50001b1c <uart_printf>
50001304:	e59d2014 	ldr	r2, [sp, #20]
50001308:	e59d3010 	ldr	r3, [sp, #16]
5000130c:	e0823003 	add	r3, r2, r3
50001310:	e2432010 	sub	r2, r3, #16
50001314:	e59d1014 	ldr	r1, [sp, #20]
50001318:	e59d3010 	ldr	r3, [sp, #16]
5000131c:	e0813003 	add	r3, r1, r3
50001320:	e2433001 	sub	r3, r3, #1
50001324:	e1a00002 	mov	r0, r2
50001328:	e1a01003 	mov	r1, r3
5000132c:	ebfffc7c 	bl	50000524 <sdram_read>
50001330:	e59f00a0 	ldr	r0, [pc, #160]	; 500013d8 <update_program+0x210>
50001334:	eb0001de 	bl	50001ab4 <uart_puts>
50001338:	e59f009c 	ldr	r0, [pc, #156]	; 500013dc <update_program+0x214>
5000133c:	eb0001f6 	bl	50001b1c <uart_printf>
50001340:	eb000282 	bl	50001d50 <uart_getc>
50001344:	e1a03000 	mov	r3, r0
50001348:	e5cd3007 	strb	r3, [sp, #7]
5000134c:	e59f008c 	ldr	r0, [pc, #140]	; 500013e0 <update_program+0x218>
50001350:	eb0001d7 	bl	50001ab4 <uart_puts>
50001354:	e5dd3007 	ldrb	r3, [sp, #7]
50001358:	e3530059 	cmp	r3, #89	; 0x59
5000135c:	0a000006 	beq	5000137c <update_program+0x1b4>
50001360:	e5dd3007 	ldrb	r3, [sp, #7]
50001364:	e3530079 	cmp	r3, #121	; 0x79
50001368:	0a000003 	beq	5000137c <update_program+0x1b4>
5000136c:	e59f0070 	ldr	r0, [pc, #112]	; 500013e4 <update_program+0x21c>
50001370:	eb0001cf 	bl	50001ab4 <uart_puts>
50001374:	e3e03000 	mvn	r3, #0
50001378:	ea00000a 	b	500013a8 <update_program+0x1e0>
5000137c:	e59f0064 	ldr	r0, [pc, #100]	; 500013e8 <update_program+0x220>
50001380:	eb0001cb 	bl	50001ab4 <uart_puts>
50001384:	e3a00000 	mov	r0, #0
50001388:	ebfffe23 	bl	50000c1c <nand_erase_block>
5000138c:	e59d3014 	ldr	r3, [sp, #20]
50001390:	e59d0010 	ldr	r0, [sp, #16]
50001394:	e1a01003 	mov	r1, r3
50001398:	ebfffe50 	bl	50000ce0 <write_to_boot>
5000139c:	e59f0048 	ldr	r0, [pc, #72]	; 500013ec <update_program+0x224>
500013a0:	eb0001c3 	bl	50001ab4 <uart_puts>
500013a4:	e3a03000 	mov	r3, #0
500013a8:	e1a00003 	mov	r0, r3
500013ac:	e28dd024 	add	sp, sp, #36	; 0x24
500013b0:	e49df004 	pop	{pc}		; (ldr pc, [sp], #4)
500013b4:	5fc00000 	svcpl	0x00c00000
500013b8:	500014bc 			; <UNDEFINED> instruction: 0x500014bc
500013bc:	500014d8 	ldrdpl	r1, [r0], -r8
500013c0:	500014e8 	andpl	r1, r0, r8, ror #9
500013c4:	5000150c 	andpl	r1, r0, ip, lsl #10
500013c8:	50001520 	andpl	r1, r0, r0, lsr #10
500013cc:	5000152c 	andpl	r1, r0, ip, lsr #10
500013d0:	5000153c 	andpl	r1, r0, ip, lsr r5
500013d4:	50001554 	andpl	r1, r0, r4, asr r5
500013d8:	5000156c 	andpl	r1, r0, ip, ror #10
500013dc:	500014a0 	andpl	r1, r0, r0, lsr #9
500013e0:	500014a8 	andpl	r1, r0, r8, lsr #9
500013e4:	50001594 	mulpl	r0, r4, r5
500013e8:	500015ac 	andpl	r1, r0, ip, lsr #11
500013ec:	500015bc 			; <UNDEFINED> instruction: 0x500015bc

500013f0 <raise>:
500013f0:	e24dd008 	sub	sp, sp, #8
500013f4:	e58d0004 	str	r0, [sp, #4]
500013f8:	e3a03000 	mov	r3, #0
500013fc:	e1a00003 	mov	r0, r3
50001400:	e28dd008 	add	sp, sp, #8
50001404:	e12fff1e 	bx	lr
50001408:	0000000a 	andeq	r0, r0, sl
5000140c:	2a2a2a2a 	bcs	50a8bcbc <bss_end+0xa78fa4>
50001410:	6f42202a 	svcvs	0x0042202a
50001414:	6f6c746f 	svcvs	0x006c746f
50001418:	72656461 	rsbvc	r6, r5, #1627389952	; 0x61000000
5000141c:	6e654d20 	cdpvs	13, 6, cr4, cr5, cr0, {1}
50001420:	2a2a2075 	bcs	50a895fc <bss_end+0xa768e4>
50001424:	002a2a2a 	eoreq	r2, sl, sl, lsr #20
50001428:	205d615b 	subscs	r6, sp, fp, asr r1
5000142c:	61647055 	qdsubvs	r7, r5, r4
50001430:	70206574 	eorvc	r6, r0, r4, ror r5
50001434:	72676f72 	rsbvc	r6, r7, #456	; 0x1c8
50001438:	00006d61 	andeq	r6, r0, r1, ror #26
5000143c:	205d625b 	subscs	r6, sp, fp, asr r2
50001440:	6f626552 	svcvs	0x00626552
50001444:	0000746f 	andeq	r7, r0, pc, ror #8
50001448:	205d635b 	subscs	r6, sp, fp, asr r3
5000144c:	206e7552 	rsbcs	r7, lr, r2, asr r5
50001450:	4f2f4375 	svcmi	0x002f4375
50001454:	49492d53 	stmdbmi	r9, {r0, r1, r4, r6, r8, sl, fp, sp}^
50001458:	00000000 	andeq	r0, r0, r0
5000145c:	205d645b 	subscs	r6, sp, fp, asr r4
50001460:	2d4b5441 	cfstrdcs	mvd5, [fp, #-260]	; 0xfffffefc
50001464:	35304348 	ldrcc	r4, [r0, #-840]!	; 0xfffffcb8
50001468:	74657320 	strbtvc	r7, [r5], #-800	; 0xfffffce0
5000146c:	676e6974 			; <UNDEFINED> instruction: 0x676e6974
50001470:	00000073 	andeq	r0, r0, r3, ror r0
50001474:	205d655b 	subscs	r6, sp, fp, asr r5
50001478:	74736574 	ldrbtvc	r6, [r3], #-1396	; 0xfffffa8c
5000147c:	646f6d20 	strbtvs	r6, [pc], #-3360	; 50001484 <raise+0x94>
50001480:	00000065 	andeq	r0, r0, r5, rrx
50001484:	2a2a2a2a 	bcs	50a8bd34 <bss_end+0xa7901c>
50001488:	2a2a2a2a 	bcs	50a8bd38 <bss_end+0xa79020>
5000148c:	2a2a2a2a 	bcs	50a8bd3c <bss_end+0xa79024>
50001490:	2a2a2a2a 	bcs	50a8bd40 <bss_end+0xa79028>
50001494:	2a2a2a2a 	bcs	50a8bd44 <bss_end+0xa7902c>
50001498:	2a2a2a2a 	bcs	50a8bd48 <bss_end+0xa79030>
5000149c:	002a2a2a 	eoreq	r2, sl, sl, lsr #20
500014a0:	203e3e20 	eorscs	r3, lr, r0, lsr #28
	...
500014ac:	6f626552 	svcvs	0x00626552
500014b0:	6e69746f 	cdpvs	4, 6, cr7, cr9, cr15, {3}
500014b4:	2e2e2067 	cdpcs	0, 2, cr2, cr14, cr7, {3}
500014b8:	0000002e 	andeq	r0, r0, lr, lsr #32
500014bc:	61656c50 	cmnvs	r5, r0, asr ip
500014c0:	73206573 	teqvc	r0, #482344960	; 0x1cc00000
500014c4:	20646e65 	rsbcs	r6, r4, r5, ror #28
500014c8:	616e6962 	cmnvs	lr, r2, ror #18
500014cc:	66207972 			; <UNDEFINED> instruction: 0x66207972
500014d0:	21656c69 	cmncs	r5, r9, ror #24
500014d4:	00000000 	andeq	r0, r0, r0
500014d8:	656c6966 	strbvs	r6, [ip, #-2406]!	; 0xfffff69a
500014dc:	7a697320 	bvc	51a5e164 <bss_end+0x1a4b44c>
500014e0:	203d2065 	eorscs	r2, sp, r5, rrx
500014e4:	00000000 	andeq	r0, r0, r0
500014e8:	74796220 	ldrbtvc	r6, [r9], #-544	; 0xfffffde0
500014ec:	520a7365 	andpl	r7, sl, #-1811939327	; 0x94000001
500014f0:	69656365 	stmdbvs	r5!, {r0, r2, r5, r6, r8, r9, sp, lr}^
500014f4:	676e6976 			; <UNDEFINED> instruction: 0x676e6976
500014f8:	6e696220 	cdpvs	2, 6, cr6, cr9, cr0, {1}
500014fc:	20797261 	rsbscs	r7, r9, r1, ror #4
50001500:	656c6966 	strbvs	r6, [ip, #-2406]!	; 0xfffff69a
50001504:	2e2e2e20 	cdpcs	14, 2, cr2, cr14, cr0, {1}
50001508:	00000000 	andeq	r0, r0, r0
5000150c:	66206f4e 	strtvs	r6, [r0], -lr, asr #30
50001510:	20656c69 	rsbcs	r6, r5, r9, ror #24
50001514:	65636572 	strbvs	r6, [r3, #-1394]!	; 0xfffffa8e
50001518:	2e657669 	cdpcs	6, 6, cr7, cr5, cr9, {3}
5000151c:	00000000 	andeq	r0, r0, r0
50001520:	6365520a 	cmnvs	r5, #-1610612736	; 0xa0000000
50001524:	65766965 	ldrbvs	r6, [r6, #-2405]!	; 0xfffff69b
50001528:	00002064 	andeq	r2, r0, r4, rrx
5000152c:	74796220 	ldrbtvc	r6, [r9], #-544	; 0xfffffde0
50001530:	64207365 	strtvs	r7, [r0], #-869	; 0xfffffc9b
50001534:	2e617461 	cdpcs	4, 6, cr7, cr1, cr1, {3}
50001538:	0000000a 	andeq	r0, r0, sl
5000153c:	6568540a 	strbvs	r5, [r8, #-1034]!	; 0xfffffbf6
50001540:	72696620 	rsbvc	r6, r9, #32, 12	; 0x2000000
50001544:	31207473 	teqcc	r0, r3, ror r4
50001548:	79622036 	stmdbvc	r2!, {r1, r2, r4, r5, sp}^
5000154c:	61206574 	teqvs	r0, r4, ror r5
50001550:	003a6572 	eorseq	r6, sl, r2, ror r5
50001554:	6568540a 	strbvs	r5, [r8, #-1034]!	; 0xfffffbf6
50001558:	73616c20 	cmnvc	r1, #32, 24	; 0x2000
5000155c:	36312074 			; <UNDEFINED> instruction: 0x36312074
50001560:	74796220 	ldrbtvc	r6, [r9], #-544	; 0xfffffde0
50001564:	61207365 	teqvs	r0, r5, ror #6
50001568:	003a6572 	eorseq	r6, sl, r2, ror r5
5000156c:	206f440a 	rsbcs	r4, pc, sl, lsl #8
50001570:	20756f79 	rsbscs	r6, r5, r9, ror pc
50001574:	65727573 	ldrbvs	r7, [r2, #-1395]!	; 0xfffffa8d
50001578:	64707520 	ldrbtvs	r7, [r0], #-1312	; 0xfffffae0
5000157c:	20657461 	rsbcs	r7, r5, r1, ror #8
50001580:	73696874 	cmnvc	r9, #116, 16	; 0x740000
50001584:	6f727020 	svcvs	0x00727020
50001588:	6d617267 	sfmvs	f7, 2, [r1, #-412]!	; 0xfffffe64
5000158c:	5928203f 	stmdbpl	r8!, {r0, r1, r2, r3, r4, r5, sp}
50001590:	00296e2f 	eoreq	r6, r9, pc, lsr #28
50001594:	20756f59 	rsbscs	r6, r5, r9, asr pc
50001598:	65766168 	ldrbvs	r6, [r6, #-360]!	; 0xfffffe98
5000159c:	6e616320 	cdpvs	3, 6, cr6, cr1, cr0, {1}
500015a0:	206c6563 	rsbcs	r6, ip, r3, ror #10
500015a4:	61647075 	smcvs	18181	; 0x4705
500015a8:	002e6574 	eoreq	r6, lr, r4, ror r5
500015ac:	61647055 	qdsubvs	r7, r5, r4
500015b0:	676e6974 			; <UNDEFINED> instruction: 0x676e6974
500015b4:	2e2e2e20 	cdpcs	14, 2, cr2, cr14, cr0, {1}
500015b8:	00000000 	andeq	r0, r0, r0
500015bc:	61647055 	qdsubvs	r7, r5, r4
500015c0:	64206574 	strtvs	r6, [r0], #-1396	; 0xfffffa8c
500015c4:	21656e6f 	cmncs	r5, pc, ror #28
500015c8:	00000000 	andeq	r0, r0, r0
500015cc:	00003741 	andeq	r3, r0, r1, asr #14
500015d0:	61656100 	cmnvs	r5, r0, lsl #2
500015d4:	01006962 	tsteq	r0, r2, ror #18
500015d8:	0000002d 	andeq	r0, r0, sp, lsr #32
500015dc:	4d524105 	ldfmie	f4, [r2, #-20]	; 0xffffffec
500015e0:	36373131 			; <UNDEFINED> instruction: 0x36373131
500015e4:	2d465a4a 	vstrcs	s11, [r6, #-296]	; 0xfffffed8
500015e8:	07060053 	smlsdeq	r6, r3, r0, r0
500015ec:	01090108 	tsteq	r9, r8, lsl #2
500015f0:	01140412 	tsteq	r4, r2, lsl r4
500015f4:	03170115 	tsteq	r7, #1073741829	; 0x40000005
500015f8:	01190118 	tsteq	r9, r8, lsl r1
500015fc:	061e011a 			; <UNDEFINED> instruction: 0x061e011a
50001600:	01440122 	cmpeq	r4, r2, lsr #2

50001604 <ENABLE_LCD_POWER>:
50001604:	00000000 	andeq	r0, r0, r0

50001608 <ENABLE_LCD_DIS>:
50001608:	00000000 	andeq	r0, r0, r0

5000160c <lcd_cfg>:
	...

50001620 <ENABLE_LCD_BL>:
50001620:	00000000 	andeq	r0, r0, r0

50001624 <init_uart>:
50001624:	e92d4008 	push	{r3, lr}
50001628:	e59f30ac 	ldr	r3, [pc, #172]	; 500016dc <init_uart+0xb8>
5000162c:	e59f20a8 	ldr	r2, [pc, #168]	; 500016dc <init_uart+0xb8>
50001630:	e5922000 	ldr	r2, [r2]
50001634:	e3c220ff 	bic	r2, r2, #255	; 0xff
50001638:	e3822022 	orr	r2, r2, #34	; 0x22
5000163c:	e5832000 	str	r2, [r3]
50001640:	e59f3098 	ldr	r3, [pc, #152]	; 500016e0 <init_uart+0xbc>
50001644:	e3a02022 	mov	r2, #34	; 0x22
50001648:	e5832000 	str	r2, [r3]
5000164c:	e59f3090 	ldr	r3, [pc, #144]	; 500016e4 <init_uart+0xc0>
50001650:	e59f2090 	ldr	r2, [pc, #144]	; 500016e8 <init_uart+0xc4>
50001654:	e5832000 	str	r2, [r3]
50001658:	e59f308c 	ldr	r3, [pc, #140]	; 500016ec <init_uart+0xc8>
5000165c:	e3a02003 	mov	r2, #3
50001660:	e5832000 	str	r2, [r3]
50001664:	e59f2084 	ldr	r2, [pc, #132]	; 500016f0 <init_uart+0xcc>
50001668:	e59f3080 	ldr	r3, [pc, #128]	; 500016f0 <init_uart+0xcc>
5000166c:	e5933000 	ldr	r3, [r3]
50001670:	e3c33eff 	bic	r3, r3, #4080	; 0xff0
50001674:	e3c3300f 	bic	r3, r3, #15
50001678:	e3833c0b 	orr	r3, r3, #2816	; 0xb00
5000167c:	e3833005 	orr	r3, r3, #5
50001680:	e5823000 	str	r3, [r2]
50001684:	e59f3068 	ldr	r3, [pc, #104]	; 500016f4 <init_uart+0xd0>
50001688:	e3a02000 	mov	r2, #0
5000168c:	e5832000 	str	r2, [r3]
50001690:	e59f3060 	ldr	r3, [pc, #96]	; 500016f8 <init_uart+0xd4>
50001694:	e3a02000 	mov	r2, #0
50001698:	e5832000 	str	r2, [r3]
5000169c:	e59f3058 	ldr	r3, [pc, #88]	; 500016fc <init_uart+0xd8>
500016a0:	e3a0200f 	mov	r2, #15
500016a4:	e5832000 	str	r2, [r3]
500016a8:	e59f3050 	ldr	r3, [pc, #80]	; 50001700 <init_uart+0xdc>
500016ac:	e3a0200f 	mov	r2, #15
500016b0:	e5832000 	str	r2, [r3]
500016b4:	e59f3048 	ldr	r3, [pc, #72]	; 50001704 <init_uart+0xe0>
500016b8:	e3a0200f 	mov	r2, #15
500016bc:	e5832000 	str	r2, [r3]
500016c0:	e59f3040 	ldr	r3, [pc, #64]	; 50001708 <init_uart+0xe4>
500016c4:	e3a0200f 	mov	r2, #15
500016c8:	e5832000 	str	r2, [r3]
500016cc:	e59f0038 	ldr	r0, [pc, #56]	; 5000170c <init_uart+0xe8>
500016d0:	eb0000f7 	bl	50001ab4 <uart_puts>
500016d4:	e1a00000 	nop			; (mov r0, r0)
500016d8:	e8bd8008 	pop	{r3, pc}
500016dc:	7f008000 	svcvc	0x00008000
500016e0:	7f005028 	svcvc	0x00005028
500016e4:	7f00502c 	svcvc	0x0000502c
500016e8:	0000dfdd 	ldrdeq	sp, [r0], -sp	; <UNPREDICTABLE>
500016ec:	7f005000 	svcvc	0x00005000
500016f0:	7f005004 	svcvc	0x00005004
500016f4:	7f005008 	svcvc	0x00005008
500016f8:	7f00500c 	svcvc	0x0000500c
500016fc:	7f005038 	svcvc	0x00005038
50001700:	7f005438 	svcvc	0x00005438
50001704:	7f005838 	svcvc	0x00005838
50001708:	7f005c38 	svcvc	0x00005c38
5000170c:	500025c0 	andpl	r2, r0, r0, asr #11

50001710 <set_uart_baud_rate>:
50001710:	e92d4030 	push	{r4, r5, lr}
50001714:	e24dd024 	sub	sp, sp, #36	; 0x24
50001718:	e58d0004 	str	r0, [sp, #4]
5000171c:	e58d1000 	str	r1, [sp]
50001720:	e59d3000 	ldr	r3, [sp]
50001724:	e1a03203 	lsl	r3, r3, #4
50001728:	e1a00003 	mov	r0, r3
5000172c:	eb003919 	bl	5000fb98 <__aeabi_i2f>
50001730:	e1a03000 	mov	r3, r0
50001734:	e59f0298 	ldr	r0, [pc, #664]	; 500019d4 <set_uart_baud_rate+0x2c4>
50001738:	e1a01003 	mov	r1, r3
5000173c:	eb0039b2 	bl	5000fe0c <__aeabi_fdiv>
50001740:	e1a03000 	mov	r3, r0
50001744:	e1a00003 	mov	r0, r3
50001748:	e3a015fe 	mov	r1, #1065353216	; 0x3f800000
5000174c:	eb00389f 	bl	5000f9d0 <__aeabi_fsub>
50001750:	e1a03000 	mov	r3, r0
50001754:	e58d3010 	str	r3, [sp, #16]
50001758:	e59d0010 	ldr	r0, [sp, #16]
5000175c:	eb003a02 	bl	5000ff6c <__aeabi_f2iz>
50001760:	e1a03000 	mov	r3, r0
50001764:	e58d301c 	str	r3, [sp, #28]
50001768:	e59d001c 	ldr	r0, [sp, #28]
5000176c:	eb003909 	bl	5000fb98 <__aeabi_i2f>
50001770:	e1a03000 	mov	r3, r0
50001774:	e59d0010 	ldr	r0, [sp, #16]
50001778:	e1a01003 	mov	r1, r3
5000177c:	eb003893 	bl	5000f9d0 <__aeabi_fsub>
50001780:	e1a03000 	mov	r3, r0
50001784:	e58d300c 	str	r3, [sp, #12]
50001788:	e3a03000 	mov	r3, #0
5000178c:	e58d3014 	str	r3, [sp, #20]
50001790:	e59d0014 	ldr	r0, [sp, #20]
50001794:	eb0036c5 	bl	5000f2b0 <__aeabi_i2d>
50001798:	e1a02000 	mov	r2, r0
5000179c:	e1a03001 	mov	r3, r1
500017a0:	e1a00002 	mov	r0, r2
500017a4:	e1a01003 	mov	r1, r3
500017a8:	e3a02000 	mov	r2, #0
500017ac:	e59f3224 	ldr	r3, [pc, #548]	; 500019d8 <set_uart_baud_rate+0x2c8>
500017b0:	eb003799 	bl	5000f61c <__aeabi_ddiv>
500017b4:	e1a02000 	mov	r2, r0
500017b8:	e1a03001 	mov	r3, r1
500017bc:	e1a04002 	mov	r4, r2
500017c0:	e1a05003 	mov	r5, r3
500017c4:	e59d000c 	ldr	r0, [sp, #12]
500017c8:	eb0036c2 	bl	5000f2d8 <__aeabi_f2d>
500017cc:	e1a02000 	mov	r2, r0
500017d0:	e1a03001 	mov	r3, r1
500017d4:	e1a00004 	mov	r0, r4
500017d8:	e1a01005 	mov	r1, r5
500017dc:	eb003856 	bl	5000f93c <__aeabi_dcmpge>
500017e0:	e1a03000 	mov	r3, r0
500017e4:	e3530000 	cmp	r3, #0
500017e8:	0a000015 	beq	50001844 <set_uart_baud_rate+0x134>
500017ec:	e1a00000 	nop			; (mov r0, r0)
500017f0:	e59d3014 	ldr	r3, [sp, #20]
500017f4:	e3530010 	cmp	r3, #16
500017f8:	979ff103 	ldrls	pc, [pc, r3, lsl #2]
500017fc:	ea00004a 	b	5000192c <set_uart_baud_rate+0x21c>
50001800:	50001854 	andpl	r1, r0, r4, asr r8
50001804:	50001860 	andpl	r1, r0, r0, ror #16
50001808:	5000186c 	andpl	r1, r0, ip, ror #16
5000180c:	50001878 	andpl	r1, r0, r8, ror r8
50001810:	50001884 	andpl	r1, r0, r4, lsl #17
50001814:	50001890 	mulpl	r0, r0, r8
50001818:	5000189c 	mulpl	r0, ip, r8
5000181c:	500018a8 	andpl	r1, r0, r8, lsr #17
50001820:	500018b4 			; <UNDEFINED> instruction: 0x500018b4
50001824:	500018c0 	andpl	r1, r0, r0, asr #17
50001828:	500018cc 	andpl	r1, r0, ip, asr #17
5000182c:	500018d8 	ldrdpl	r1, [r0], -r8
50001830:	500018e4 	andpl	r1, r0, r4, ror #17
50001834:	500018f0 	strdpl	r1, [r0], -r0
50001838:	500018fc 	strdpl	r1, [r0], -ip
5000183c:	50001908 	andpl	r1, r0, r8, lsl #18
50001840:	50001914 	andpl	r1, r0, r4, lsl r9
50001844:	e59d3014 	ldr	r3, [sp, #20]
50001848:	e2833001 	add	r3, r3, #1
5000184c:	e58d3014 	str	r3, [sp, #20]
50001850:	eaffffce 	b	50001790 <set_uart_baud_rate+0x80>
50001854:	e3a03000 	mov	r3, #0
50001858:	e58d3018 	str	r3, [sp, #24]
5000185c:	ea000032 	b	5000192c <set_uart_baud_rate+0x21c>
50001860:	e3a03080 	mov	r3, #128	; 0x80
50001864:	e58d3018 	str	r3, [sp, #24]
50001868:	ea00002f 	b	5000192c <set_uart_baud_rate+0x21c>
5000186c:	e59f3168 	ldr	r3, [pc, #360]	; 500019dc <set_uart_baud_rate+0x2cc>
50001870:	e58d3018 	str	r3, [sp, #24]
50001874:	ea00002c 	b	5000192c <set_uart_baud_rate+0x21c>
50001878:	e59f3160 	ldr	r3, [pc, #352]	; 500019e0 <set_uart_baud_rate+0x2d0>
5000187c:	e58d3018 	str	r3, [sp, #24]
50001880:	ea000029 	b	5000192c <set_uart_baud_rate+0x21c>
50001884:	e59f3158 	ldr	r3, [pc, #344]	; 500019e4 <set_uart_baud_rate+0x2d4>
50001888:	e58d3018 	str	r3, [sp, #24]
5000188c:	ea000026 	b	5000192c <set_uart_baud_rate+0x21c>
50001890:	e59f3150 	ldr	r3, [pc, #336]	; 500019e8 <set_uart_baud_rate+0x2d8>
50001894:	e58d3018 	str	r3, [sp, #24]
50001898:	ea000023 	b	5000192c <set_uart_baud_rate+0x21c>
5000189c:	e59f3148 	ldr	r3, [pc, #328]	; 500019ec <set_uart_baud_rate+0x2dc>
500018a0:	e58d3018 	str	r3, [sp, #24]
500018a4:	ea000020 	b	5000192c <set_uart_baud_rate+0x21c>
500018a8:	e59f3140 	ldr	r3, [pc, #320]	; 500019f0 <set_uart_baud_rate+0x2e0>
500018ac:	e58d3018 	str	r3, [sp, #24]
500018b0:	ea00001d 	b	5000192c <set_uart_baud_rate+0x21c>
500018b4:	e59f3138 	ldr	r3, [pc, #312]	; 500019f4 <set_uart_baud_rate+0x2e4>
500018b8:	e58d3018 	str	r3, [sp, #24]
500018bc:	ea00001a 	b	5000192c <set_uart_baud_rate+0x21c>
500018c0:	e59f3130 	ldr	r3, [pc, #304]	; 500019f8 <set_uart_baud_rate+0x2e8>
500018c4:	e58d3018 	str	r3, [sp, #24]
500018c8:	ea000017 	b	5000192c <set_uart_baud_rate+0x21c>
500018cc:	e59f3128 	ldr	r3, [pc, #296]	; 500019fc <set_uart_baud_rate+0x2ec>
500018d0:	e58d3018 	str	r3, [sp, #24]
500018d4:	ea000014 	b	5000192c <set_uart_baud_rate+0x21c>
500018d8:	e59f3120 	ldr	r3, [pc, #288]	; 50001a00 <set_uart_baud_rate+0x2f0>
500018dc:	e58d3018 	str	r3, [sp, #24]
500018e0:	ea000011 	b	5000192c <set_uart_baud_rate+0x21c>
500018e4:	e59f3118 	ldr	r3, [pc, #280]	; 50001a04 <set_uart_baud_rate+0x2f4>
500018e8:	e58d3018 	str	r3, [sp, #24]
500018ec:	ea00000e 	b	5000192c <set_uart_baud_rate+0x21c>
500018f0:	e59f3110 	ldr	r3, [pc, #272]	; 50001a08 <set_uart_baud_rate+0x2f8>
500018f4:	e58d3018 	str	r3, [sp, #24]
500018f8:	ea00000b 	b	5000192c <set_uart_baud_rate+0x21c>
500018fc:	e59f3108 	ldr	r3, [pc, #264]	; 50001a0c <set_uart_baud_rate+0x2fc>
50001900:	e58d3018 	str	r3, [sp, #24]
50001904:	ea000008 	b	5000192c <set_uart_baud_rate+0x21c>
50001908:	e59f3100 	ldr	r3, [pc, #256]	; 50001a10 <set_uart_baud_rate+0x300>
5000190c:	e58d3018 	str	r3, [sp, #24]
50001910:	ea000005 	b	5000192c <set_uart_baud_rate+0x21c>
50001914:	e59d301c 	ldr	r3, [sp, #28]
50001918:	e2833001 	add	r3, r3, #1
5000191c:	e58d301c 	str	r3, [sp, #28]
50001920:	e3a03000 	mov	r3, #0
50001924:	e58d3018 	str	r3, [sp, #24]
50001928:	e1a00000 	nop			; (mov r0, r0)
5000192c:	e59d3004 	ldr	r3, [sp, #4]
50001930:	e3530000 	cmp	r3, #0
50001934:	1a000006 	bne	50001954 <set_uart_baud_rate+0x244>
50001938:	e59f30d4 	ldr	r3, [pc, #212]	; 50001a14 <set_uart_baud_rate+0x304>
5000193c:	e59d201c 	ldr	r2, [sp, #28]
50001940:	e5832000 	str	r2, [r3]
50001944:	e59f30cc 	ldr	r3, [pc, #204]	; 50001a18 <set_uart_baud_rate+0x308>
50001948:	e59d2018 	ldr	r2, [sp, #24]
5000194c:	e5832000 	str	r2, [r3]
50001950:	ea00001c 	b	500019c8 <set_uart_baud_rate+0x2b8>
50001954:	e59d3004 	ldr	r3, [sp, #4]
50001958:	e3530001 	cmp	r3, #1
5000195c:	1a000006 	bne	5000197c <set_uart_baud_rate+0x26c>
50001960:	e59f30b4 	ldr	r3, [pc, #180]	; 50001a1c <set_uart_baud_rate+0x30c>
50001964:	e59d201c 	ldr	r2, [sp, #28]
50001968:	e5832000 	str	r2, [r3]
5000196c:	e59f30ac 	ldr	r3, [pc, #172]	; 50001a20 <set_uart_baud_rate+0x310>
50001970:	e59d2018 	ldr	r2, [sp, #24]
50001974:	e5832000 	str	r2, [r3]
50001978:	ea000012 	b	500019c8 <set_uart_baud_rate+0x2b8>
5000197c:	e59d3004 	ldr	r3, [sp, #4]
50001980:	e3530002 	cmp	r3, #2
50001984:	1a000006 	bne	500019a4 <set_uart_baud_rate+0x294>
50001988:	e59f3094 	ldr	r3, [pc, #148]	; 50001a24 <set_uart_baud_rate+0x314>
5000198c:	e59d201c 	ldr	r2, [sp, #28]
50001990:	e5832000 	str	r2, [r3]
50001994:	e59f308c 	ldr	r3, [pc, #140]	; 50001a28 <set_uart_baud_rate+0x318>
50001998:	e59d2018 	ldr	r2, [sp, #24]
5000199c:	e5832000 	str	r2, [r3]
500019a0:	ea000008 	b	500019c8 <set_uart_baud_rate+0x2b8>
500019a4:	e59d3004 	ldr	r3, [sp, #4]
500019a8:	e3530003 	cmp	r3, #3
500019ac:	1a000005 	bne	500019c8 <set_uart_baud_rate+0x2b8>
500019b0:	e59f3074 	ldr	r3, [pc, #116]	; 50001a2c <set_uart_baud_rate+0x31c>
500019b4:	e59d201c 	ldr	r2, [sp, #28]
500019b8:	e5832000 	str	r2, [r3]
500019bc:	e59f306c 	ldr	r3, [pc, #108]	; 50001a30 <set_uart_baud_rate+0x320>
500019c0:	e59d2018 	ldr	r2, [sp, #24]
500019c4:	e5832000 	str	r2, [r3]
500019c8:	e1a00000 	nop			; (mov r0, r0)
500019cc:	e28dd024 	add	sp, sp, #36	; 0x24
500019d0:	e8bd8030 	pop	{r4, r5, pc}
500019d4:	4c7bc520 	cfldr64mi	mvdx12, [fp], #-128	; 0xffffff80
500019d8:	40300000 	eorsmi	r0, r0, r0
500019dc:	00000808 	andeq	r0, r0, r8, lsl #16
500019e0:	00000888 	andeq	r0, r0, r8, lsl #17
500019e4:	00002222 	andeq	r2, r0, r2, lsr #4
500019e8:	00004924 	andeq	r4, r0, r4, lsr #18
500019ec:	00004a52 	andeq	r4, r0, r2, asr sl
500019f0:	000054aa 	andeq	r5, r0, sl, lsr #9
500019f4:	00005555 	andeq	r5, r0, r5, asr r5
500019f8:	0000d555 	andeq	sp, r0, r5, asr r5
500019fc:	0000d5d5 	ldrdeq	sp, [r0], -r5
50001a00:	0000ddd5 	ldrdeq	sp, [r0], -r5
50001a04:	0000dddd 	ldrdeq	sp, [r0], -sp	; <UNPREDICTABLE>
50001a08:	0000dfdd 	ldrdeq	sp, [r0], -sp	; <UNPREDICTABLE>
50001a0c:	0000dfdf 	ldrdeq	sp, [r0], -pc	; <UNPREDICTABLE>
50001a10:	0000ffdf 	ldrdeq	pc, [r0], -pc	; <UNPREDICTABLE>
50001a14:	7f005028 	svcvc	0x00005028
50001a18:	7f00502c 	svcvc	0x0000502c
50001a1c:	7f005428 	svcvc	0x00005428
50001a20:	7f00542c 	svcvc	0x0000542c
50001a24:	7f005828 	svcvc	0x00005828
50001a28:	7f00582c 	svcvc	0x0000582c
50001a2c:	7f005c28 	svcvc	0x00005c28
50001a30:	7f005c2c 	svcvc	0x00005c2c

50001a34 <uart_0_isr>:
50001a34:	e92d4008 	push	{r3, lr}
50001a38:	e59f0020 	ldr	r0, [pc, #32]	; 50001a60 <uart_0_isr+0x2c>
50001a3c:	eb00001c 	bl	50001ab4 <uart_puts>
50001a40:	e59f301c 	ldr	r3, [pc, #28]	; 50001a64 <uart_0_isr+0x30>
50001a44:	e3a0200f 	mov	r2, #15
50001a48:	e5832000 	str	r2, [r3]
50001a4c:	e59f3014 	ldr	r3, [pc, #20]	; 50001a68 <uart_0_isr+0x34>
50001a50:	e3a02000 	mov	r2, #0
50001a54:	e5832000 	str	r2, [r3]
50001a58:	e1a00000 	nop			; (mov r0, r0)
50001a5c:	e8bd8008 	pop	{r3, pc}
50001a60:	500025c4 	andpl	r2, r0, r4, asr #11
50001a64:	7f005030 	svcvc	0x00005030
50001a68:	71300f00 	teqvc	r0, r0, lsl #30

50001a6c <uart_putc>:
50001a6c:	e24dd008 	sub	sp, sp, #8
50001a70:	e1a03000 	mov	r3, r0
50001a74:	e5cd3007 	strb	r3, [sp, #7]
50001a78:	e59f302c 	ldr	r3, [pc, #44]	; 50001aac <uart_putc+0x40>
50001a7c:	e5933000 	ldr	r3, [r3]
50001a80:	e2033006 	and	r3, r3, #6
50001a84:	e3530006 	cmp	r3, #6
50001a88:	1a000000 	bne	50001a90 <uart_putc+0x24>
50001a8c:	ea000000 	b	50001a94 <uart_putc+0x28>
50001a90:	eafffff8 	b	50001a78 <uart_putc+0xc>
50001a94:	e59f3014 	ldr	r3, [pc, #20]	; 50001ab0 <uart_putc+0x44>
50001a98:	e5dd2007 	ldrb	r2, [sp, #7]
50001a9c:	e5832000 	str	r2, [r3]
50001aa0:	e1a00000 	nop			; (mov r0, r0)
50001aa4:	e28dd008 	add	sp, sp, #8
50001aa8:	e12fff1e 	bx	lr
50001aac:	7f005010 	svcvc	0x00005010
50001ab0:	7f005020 	svcvc	0x00005020

50001ab4 <uart_puts>:
50001ab4:	e52de004 	push	{lr}		; (str lr, [sp, #-4]!)
50001ab8:	e24dd014 	sub	sp, sp, #20
50001abc:	e58d0004 	str	r0, [sp, #4]
50001ac0:	e3a03000 	mov	r3, #0
50001ac4:	e58d300c 	str	r3, [sp, #12]
50001ac8:	ea000008 	b	50001af0 <uart_puts+0x3c>
50001acc:	e59d300c 	ldr	r3, [sp, #12]
50001ad0:	e59d2004 	ldr	r2, [sp, #4]
50001ad4:	e0823003 	add	r3, r2, r3
50001ad8:	e5d33000 	ldrb	r3, [r3]
50001adc:	e1a00003 	mov	r0, r3
50001ae0:	ebffffe1 	bl	50001a6c <uart_putc>
50001ae4:	e59d300c 	ldr	r3, [sp, #12]
50001ae8:	e2833001 	add	r3, r3, #1
50001aec:	e58d300c 	str	r3, [sp, #12]
50001af0:	e59d300c 	ldr	r3, [sp, #12]
50001af4:	e59d2004 	ldr	r2, [sp, #4]
50001af8:	e0823003 	add	r3, r2, r3
50001afc:	e5d33000 	ldrb	r3, [r3]
50001b00:	e3530000 	cmp	r3, #0
50001b04:	1afffff0 	bne	50001acc <uart_puts+0x18>
50001b08:	e3a0000a 	mov	r0, #10
50001b0c:	ebffffd6 	bl	50001a6c <uart_putc>
50001b10:	e1a00000 	nop			; (mov r0, r0)
50001b14:	e28dd014 	add	sp, sp, #20
50001b18:	e49df004 	pop	{pc}		; (ldr pc, [sp], #4)

50001b1c <uart_printf>:
50001b1c:	e52de004 	push	{lr}		; (str lr, [sp, #-4]!)
50001b20:	e24dd014 	sub	sp, sp, #20
50001b24:	e58d0004 	str	r0, [sp, #4]
50001b28:	e3a03000 	mov	r3, #0
50001b2c:	e58d300c 	str	r3, [sp, #12]
50001b30:	ea000008 	b	50001b58 <uart_printf+0x3c>
50001b34:	e59d300c 	ldr	r3, [sp, #12]
50001b38:	e59d2004 	ldr	r2, [sp, #4]
50001b3c:	e0823003 	add	r3, r2, r3
50001b40:	e5d33000 	ldrb	r3, [r3]
50001b44:	e1a00003 	mov	r0, r3
50001b48:	ebffffc7 	bl	50001a6c <uart_putc>
50001b4c:	e59d300c 	ldr	r3, [sp, #12]
50001b50:	e2833001 	add	r3, r3, #1
50001b54:	e58d300c 	str	r3, [sp, #12]
50001b58:	e59d300c 	ldr	r3, [sp, #12]
50001b5c:	e59d2004 	ldr	r2, [sp, #4]
50001b60:	e0823003 	add	r3, r2, r3
50001b64:	e5d33000 	ldrb	r3, [r3]
50001b68:	e3530000 	cmp	r3, #0
50001b6c:	1afffff0 	bne	50001b34 <uart_printf+0x18>
50001b70:	e1a00000 	nop			; (mov r0, r0)
50001b74:	e28dd014 	add	sp, sp, #20
50001b78:	e49df004 	pop	{pc}		; (ldr pc, [sp], #4)

50001b7c <int_to_hex>:
50001b7c:	e24dd010 	sub	sp, sp, #16
50001b80:	e58d0004 	str	r0, [sp, #4]
50001b84:	e58d1000 	str	r1, [sp]
50001b88:	e3a03000 	mov	r3, #0
50001b8c:	e58d300c 	str	r3, [sp, #12]
50001b90:	e3a03000 	mov	r3, #0
50001b94:	e58d3008 	str	r3, [sp, #8]
50001b98:	e59d3004 	ldr	r3, [sp, #4]
50001b9c:	e203300f 	and	r3, r3, #15
50001ba0:	e58d3008 	str	r3, [sp, #8]
50001ba4:	e59d3004 	ldr	r3, [sp, #4]
50001ba8:	e1a03223 	lsr	r3, r3, #4
50001bac:	e58d3004 	str	r3, [sp, #4]
50001bb0:	e59d3008 	ldr	r3, [sp, #8]
50001bb4:	e3530009 	cmp	r3, #9
50001bb8:	da00000d 	ble	50001bf4 <int_to_hex+0x78>
50001bbc:	e59d3008 	ldr	r3, [sp, #8]
50001bc0:	e353000f 	cmp	r3, #15
50001bc4:	ca00000a 	bgt	50001bf4 <int_to_hex+0x78>
50001bc8:	e59d300c 	ldr	r3, [sp, #12]
50001bcc:	e2832001 	add	r2, r3, #1
50001bd0:	e58d200c 	str	r2, [sp, #12]
50001bd4:	e59d2000 	ldr	r2, [sp]
50001bd8:	e0823003 	add	r3, r2, r3
50001bdc:	e59d2008 	ldr	r2, [sp, #8]
50001be0:	e6ef2072 	uxtb	r2, r2
50001be4:	e2822037 	add	r2, r2, #55	; 0x37
50001be8:	e6ef2072 	uxtb	r2, r2
50001bec:	e5c32000 	strb	r2, [r3]
50001bf0:	ea000009 	b	50001c1c <int_to_hex+0xa0>
50001bf4:	e59d300c 	ldr	r3, [sp, #12]
50001bf8:	e2832001 	add	r2, r3, #1
50001bfc:	e58d200c 	str	r2, [sp, #12]
50001c00:	e59d2000 	ldr	r2, [sp]
50001c04:	e0823003 	add	r3, r2, r3
50001c08:	e59d2008 	ldr	r2, [sp, #8]
50001c0c:	e6ef2072 	uxtb	r2, r2
50001c10:	e2822030 	add	r2, r2, #48	; 0x30
50001c14:	e6ef2072 	uxtb	r2, r2
50001c18:	e5c32000 	strb	r2, [r3]
50001c1c:	e59d3004 	ldr	r3, [sp, #4]
50001c20:	e3530000 	cmp	r3, #0
50001c24:	1a000003 	bne	50001c38 <int_to_hex+0xbc>
50001c28:	e59d300c 	ldr	r3, [sp, #12]
50001c2c:	e3530008 	cmp	r3, #8
50001c30:	1a000000 	bne	50001c38 <int_to_hex+0xbc>
50001c34:	ea000000 	b	50001c3c <int_to_hex+0xc0>
50001c38:	eaffffd6 	b	50001b98 <int_to_hex+0x1c>
50001c3c:	e59d300c 	ldr	r3, [sp, #12]
50001c40:	e59d2000 	ldr	r2, [sp]
50001c44:	e0823003 	add	r3, r2, r3
50001c48:	e3a02000 	mov	r2, #0
50001c4c:	e5c32000 	strb	r2, [r3]
50001c50:	e1a00000 	nop			; (mov r0, r0)
50001c54:	e28dd010 	add	sp, sp, #16
50001c58:	e12fff1e 	bx	lr

50001c5c <uart_print_hex>:
50001c5c:	e52de004 	push	{lr}		; (str lr, [sp, #-4]!)
50001c60:	e24dd01c 	sub	sp, sp, #28
50001c64:	e58d0004 	str	r0, [sp, #4]
50001c68:	e28d3008 	add	r3, sp, #8
50001c6c:	e59d0004 	ldr	r0, [sp, #4]
50001c70:	e1a01003 	mov	r1, r3
50001c74:	ebffffc0 	bl	50001b7c <int_to_hex>
50001c78:	e3a03007 	mov	r3, #7
50001c7c:	e58d3014 	str	r3, [sp, #20]
50001c80:	ea00000a 	b	50001cb0 <uart_print_hex+0x54>
50001c84:	e3e0300f 	mvn	r3, #15
50001c88:	e59d2014 	ldr	r2, [sp, #20]
50001c8c:	e28d1018 	add	r1, sp, #24
50001c90:	e0812002 	add	r2, r1, r2
50001c94:	e0823003 	add	r3, r2, r3
50001c98:	e5d33000 	ldrb	r3, [r3]
50001c9c:	e1a00003 	mov	r0, r3
50001ca0:	ebffff71 	bl	50001a6c <uart_putc>
50001ca4:	e59d3014 	ldr	r3, [sp, #20]
50001ca8:	e2433001 	sub	r3, r3, #1
50001cac:	e58d3014 	str	r3, [sp, #20]
50001cb0:	e59d3014 	ldr	r3, [sp, #20]
50001cb4:	e3530000 	cmp	r3, #0
50001cb8:	aafffff1 	bge	50001c84 <uart_print_hex+0x28>
50001cbc:	e1a00000 	nop			; (mov r0, r0)
50001cc0:	e28dd01c 	add	sp, sp, #28
50001cc4:	e49df004 	pop	{pc}		; (ldr pc, [sp], #4)

50001cc8 <uart_print_addr>:
50001cc8:	e52de004 	push	{lr}		; (str lr, [sp, #-4]!)
50001ccc:	e24dd01c 	sub	sp, sp, #28
50001cd0:	e58d0004 	str	r0, [sp, #4]
50001cd4:	e28d300c 	add	r3, sp, #12
50001cd8:	e59d0004 	ldr	r0, [sp, #4]
50001cdc:	e1a01003 	mov	r1, r3
50001ce0:	ebffffa5 	bl	50001b7c <int_to_hex>
50001ce4:	e5dd300d 	ldrb	r3, [sp, #13]
50001ce8:	e1a00003 	mov	r0, r3
50001cec:	ebffff5e 	bl	50001a6c <uart_putc>
50001cf0:	e5dd300c 	ldrb	r3, [sp, #12]
50001cf4:	e1a00003 	mov	r0, r3
50001cf8:	ebffff5b 	bl	50001a6c <uart_putc>
50001cfc:	e5dd300f 	ldrb	r3, [sp, #15]
50001d00:	e1a00003 	mov	r0, r3
50001d04:	ebffff58 	bl	50001a6c <uart_putc>
50001d08:	e5dd300e 	ldrb	r3, [sp, #14]
50001d0c:	e1a00003 	mov	r0, r3
50001d10:	ebffff55 	bl	50001a6c <uart_putc>
50001d14:	e5dd3011 	ldrb	r3, [sp, #17]
50001d18:	e1a00003 	mov	r0, r3
50001d1c:	ebffff52 	bl	50001a6c <uart_putc>
50001d20:	e5dd3010 	ldrb	r3, [sp, #16]
50001d24:	e1a00003 	mov	r0, r3
50001d28:	ebffff4f 	bl	50001a6c <uart_putc>
50001d2c:	e5dd3013 	ldrb	r3, [sp, #19]
50001d30:	e1a00003 	mov	r0, r3
50001d34:	ebffff4c 	bl	50001a6c <uart_putc>
50001d38:	e5dd3012 	ldrb	r3, [sp, #18]
50001d3c:	e1a00003 	mov	r0, r3
50001d40:	ebffff49 	bl	50001a6c <uart_putc>
50001d44:	e1a00000 	nop			; (mov r0, r0)
50001d48:	e28dd01c 	add	sp, sp, #28
50001d4c:	e49df004 	pop	{pc}		; (ldr pc, [sp], #4)

50001d50 <uart_getc>:
50001d50:	e52de004 	push	{lr}		; (str lr, [sp, #-4]!)
50001d54:	e24dd05c 	sub	sp, sp, #92	; 0x5c
50001d58:	e3a03000 	mov	r3, #0
50001d5c:	e58d3054 	str	r3, [sp, #84]	; 0x54
50001d60:	e59f3220 	ldr	r3, [pc, #544]	; 50001f88 <uart_getc+0x238>
50001d64:	e5933000 	ldr	r3, [r3]
50001d68:	e2033001 	and	r3, r3, #1
50001d6c:	e3530000 	cmp	r3, #0
50001d70:	0a000012 	beq	50001dc0 <uart_getc+0x70>
50001d74:	e1a00000 	nop			; (mov r0, r0)
50001d78:	e59f320c 	ldr	r3, [pc, #524]	; 50001f8c <uart_getc+0x23c>
50001d7c:	e5933000 	ldr	r3, [r3]
50001d80:	e6ef2073 	uxtb	r2, r3
50001d84:	e3e03053 	mvn	r3, #83	; 0x53
50001d88:	e59d1054 	ldr	r1, [sp, #84]	; 0x54
50001d8c:	e28d0058 	add	r0, sp, #88	; 0x58
50001d90:	e0801001 	add	r1, r0, r1
50001d94:	e0813003 	add	r3, r1, r3
50001d98:	e5c32000 	strb	r2, [r3]
50001d9c:	e3e03053 	mvn	r3, #83	; 0x53
50001da0:	e59d2054 	ldr	r2, [sp, #84]	; 0x54
50001da4:	e28d1058 	add	r1, sp, #88	; 0x58
50001da8:	e0812002 	add	r2, r1, r2
50001dac:	e0823003 	add	r3, r2, r3
50001db0:	e5d33000 	ldrb	r3, [r3]
50001db4:	e3530008 	cmp	r3, #8
50001db8:	1a000020 	bne	50001e40 <uart_getc+0xf0>
50001dbc:	ea000000 	b	50001dc4 <uart_getc+0x74>
50001dc0:	eaffffe6 	b	50001d60 <uart_getc+0x10>
50001dc4:	e59d3054 	ldr	r3, [sp, #84]	; 0x54
50001dc8:	e3530000 	cmp	r3, #0
50001dcc:	da00001b 	ble	50001e40 <uart_getc+0xf0>
50001dd0:	e59d3054 	ldr	r3, [sp, #84]	; 0x54
50001dd4:	e2432001 	sub	r2, r3, #1
50001dd8:	e58d2054 	str	r2, [sp, #84]	; 0x54
50001ddc:	e3e02053 	mvn	r2, #83	; 0x53
50001de0:	e28d0058 	add	r0, sp, #88	; 0x58
50001de4:	e0803003 	add	r3, r0, r3
50001de8:	e0833002 	add	r3, r3, r2
50001dec:	e5d33000 	ldrb	r3, [r3]
50001df0:	e1a00003 	mov	r0, r3
50001df4:	ebffff1c 	bl	50001a6c <uart_putc>
50001df8:	e3e03053 	mvn	r3, #83	; 0x53
50001dfc:	e59d2054 	ldr	r2, [sp, #84]	; 0x54
50001e00:	e28d1058 	add	r1, sp, #88	; 0x58
50001e04:	e0812002 	add	r2, r1, r2
50001e08:	e0823003 	add	r3, r2, r3
50001e0c:	e3a02020 	mov	r2, #32
50001e10:	e5c32000 	strb	r2, [r3]
50001e14:	e3e03053 	mvn	r3, #83	; 0x53
50001e18:	e59d2054 	ldr	r2, [sp, #84]	; 0x54
50001e1c:	e28d0058 	add	r0, sp, #88	; 0x58
50001e20:	e0802002 	add	r2, r0, r2
50001e24:	e0823003 	add	r3, r2, r3
50001e28:	e5d33000 	ldrb	r3, [r3]
50001e2c:	e1a00003 	mov	r0, r3
50001e30:	ebffff0d 	bl	50001a6c <uart_putc>
50001e34:	e3a00008 	mov	r0, #8
50001e38:	ebffff0b 	bl	50001a6c <uart_putc>
50001e3c:	ea00004d 	b	50001f78 <uart_getc+0x228>
50001e40:	e3e03053 	mvn	r3, #83	; 0x53
50001e44:	e59d2054 	ldr	r2, [sp, #84]	; 0x54
50001e48:	e28d1058 	add	r1, sp, #88	; 0x58
50001e4c:	e0812002 	add	r2, r1, r2
50001e50:	e0823003 	add	r3, r2, r3
50001e54:	e5d33000 	ldrb	r3, [r3]
50001e58:	e3530008 	cmp	r3, #8
50001e5c:	1a000003 	bne	50001e70 <uart_getc+0x120>
50001e60:	e59d3054 	ldr	r3, [sp, #84]	; 0x54
50001e64:	e3530000 	cmp	r3, #0
50001e68:	1a000000 	bne	50001e70 <uart_getc+0x120>
50001e6c:	ea000041 	b	50001f78 <uart_getc+0x228>
50001e70:	e59d3054 	ldr	r3, [sp, #84]	; 0x54
50001e74:	e353004f 	cmp	r3, #79	; 0x4f
50001e78:	0a000008 	beq	50001ea0 <uart_getc+0x150>
50001e7c:	e3e03053 	mvn	r3, #83	; 0x53
50001e80:	e59d2054 	ldr	r2, [sp, #84]	; 0x54
50001e84:	e28d0058 	add	r0, sp, #88	; 0x58
50001e88:	e0802002 	add	r2, r0, r2
50001e8c:	e0823003 	add	r3, r2, r3
50001e90:	e5d33000 	ldrb	r3, [r3]
50001e94:	e1a00003 	mov	r0, r3
50001e98:	ebfffef3 	bl	50001a6c <uart_putc>
50001e9c:	ea00000e 	b	50001edc <uart_getc+0x18c>
50001ea0:	e59d3054 	ldr	r3, [sp, #84]	; 0x54
50001ea4:	e353004f 	cmp	r3, #79	; 0x4f
50001ea8:	1a00000b 	bne	50001edc <uart_getc+0x18c>
50001eac:	e3e03053 	mvn	r3, #83	; 0x53
50001eb0:	e59d2054 	ldr	r2, [sp, #84]	; 0x54
50001eb4:	e28d1058 	add	r1, sp, #88	; 0x58
50001eb8:	e0812002 	add	r2, r1, r2
50001ebc:	e0823003 	add	r3, r2, r3
50001ec0:	e5d33000 	ldrb	r3, [r3]
50001ec4:	e353000d 	cmp	r3, #13
50001ec8:	1a000003 	bne	50001edc <uart_getc+0x18c>
50001ecc:	e59f00bc 	ldr	r0, [pc, #188]	; 50001f90 <uart_getc+0x240>
50001ed0:	ebfffef7 	bl	50001ab4 <uart_puts>
50001ed4:	e5dd3004 	ldrb	r3, [sp, #4]
50001ed8:	ea000027 	b	50001f7c <uart_getc+0x22c>
50001edc:	e59d3054 	ldr	r3, [sp, #84]	; 0x54
50001ee0:	e3530000 	cmp	r3, #0
50001ee4:	1a00000b 	bne	50001f18 <uart_getc+0x1c8>
50001ee8:	e3e03053 	mvn	r3, #83	; 0x53
50001eec:	e59d2054 	ldr	r2, [sp, #84]	; 0x54
50001ef0:	e28d0058 	add	r0, sp, #88	; 0x58
50001ef4:	e0802002 	add	r2, r0, r2
50001ef8:	e0823003 	add	r3, r2, r3
50001efc:	e5d33000 	ldrb	r3, [r3]
50001f00:	e353000d 	cmp	r3, #13
50001f04:	1a000003 	bne	50001f18 <uart_getc+0x1c8>
50001f08:	e59f0080 	ldr	r0, [pc, #128]	; 50001f90 <uart_getc+0x240>
50001f0c:	ebfffee8 	bl	50001ab4 <uart_puts>
50001f10:	e3a03000 	mov	r3, #0
50001f14:	ea000018 	b	50001f7c <uart_getc+0x22c>
50001f18:	e59d3054 	ldr	r3, [sp, #84]	; 0x54
50001f1c:	e3530000 	cmp	r3, #0
50001f20:	da00000b 	ble	50001f54 <uart_getc+0x204>
50001f24:	e3e03053 	mvn	r3, #83	; 0x53
50001f28:	e59d2054 	ldr	r2, [sp, #84]	; 0x54
50001f2c:	e28d1058 	add	r1, sp, #88	; 0x58
50001f30:	e0812002 	add	r2, r1, r2
50001f34:	e0823003 	add	r3, r2, r3
50001f38:	e5d33000 	ldrb	r3, [r3]
50001f3c:	e353000d 	cmp	r3, #13
50001f40:	1a000003 	bne	50001f54 <uart_getc+0x204>
50001f44:	e59f0044 	ldr	r0, [pc, #68]	; 50001f90 <uart_getc+0x240>
50001f48:	ebfffed9 	bl	50001ab4 <uart_puts>
50001f4c:	e5dd3004 	ldrb	r3, [sp, #4]
50001f50:	ea000009 	b	50001f7c <uart_getc+0x22c>
50001f54:	e59d3054 	ldr	r3, [sp, #84]	; 0x54
50001f58:	e2833001 	add	r3, r3, #1
50001f5c:	e58d3054 	str	r3, [sp, #84]	; 0x54
50001f60:	e59d3054 	ldr	r3, [sp, #84]	; 0x54
50001f64:	e3530050 	cmp	r3, #80	; 0x50
50001f68:	1a000002 	bne	50001f78 <uart_getc+0x228>
50001f6c:	e3a0304f 	mov	r3, #79	; 0x4f
50001f70:	e58d3054 	str	r3, [sp, #84]	; 0x54
50001f74:	eaffff79 	b	50001d60 <uart_getc+0x10>
50001f78:	eaffff78 	b	50001d60 <uart_getc+0x10>
50001f7c:	e1a00003 	mov	r0, r3
50001f80:	e28dd05c 	add	sp, sp, #92	; 0x5c
50001f84:	e49df004 	pop	{pc}		; (ldr pc, [sp], #4)
50001f88:	7f005010 	svcvc	0x00005010
50001f8c:	7f005024 	svcvc	0x00005024
50001f90:	500025c0 	andpl	r2, r0, r0, asr #11

50001f94 <uart_gets>:
50001f94:	e52de004 	push	{lr}		; (str lr, [sp, #-4]!)
50001f98:	e24dd014 	sub	sp, sp, #20
50001f9c:	e58d0004 	str	r0, [sp, #4]
50001fa0:	e3a03000 	mov	r3, #0
50001fa4:	e58d300c 	str	r3, [sp, #12]
50001fa8:	e59f31fc 	ldr	r3, [pc, #508]	; 500021ac <uart_gets+0x218>
50001fac:	e5933000 	ldr	r3, [r3]
50001fb0:	e2033001 	and	r3, r3, #1
50001fb4:	e3530000 	cmp	r3, #0
50001fb8:	0a00000e 	beq	50001ff8 <uart_gets+0x64>
50001fbc:	e1a00000 	nop			; (mov r0, r0)
50001fc0:	e59d300c 	ldr	r3, [sp, #12]
50001fc4:	e59d2004 	ldr	r2, [sp, #4]
50001fc8:	e0823003 	add	r3, r2, r3
50001fcc:	e59f21dc 	ldr	r2, [pc, #476]	; 500021b0 <uart_gets+0x21c>
50001fd0:	e5922000 	ldr	r2, [r2]
50001fd4:	e6ef2072 	uxtb	r2, r2
50001fd8:	e5c32000 	strb	r2, [r3]
50001fdc:	e59d300c 	ldr	r3, [sp, #12]
50001fe0:	e59d2004 	ldr	r2, [sp, #4]
50001fe4:	e0823003 	add	r3, r2, r3
50001fe8:	e5d33000 	ldrb	r3, [r3]
50001fec:	e3530008 	cmp	r3, #8
50001ff0:	1a00001a 	bne	50002060 <uart_gets+0xcc>
50001ff4:	ea000000 	b	50001ffc <uart_gets+0x68>
50001ff8:	eaffffea 	b	50001fa8 <uart_gets+0x14>
50001ffc:	e59d300c 	ldr	r3, [sp, #12]
50002000:	e3530000 	cmp	r3, #0
50002004:	da000015 	ble	50002060 <uart_gets+0xcc>
50002008:	e59d300c 	ldr	r3, [sp, #12]
5000200c:	e2432001 	sub	r2, r3, #1
50002010:	e58d200c 	str	r2, [sp, #12]
50002014:	e59d2004 	ldr	r2, [sp, #4]
50002018:	e0823003 	add	r3, r2, r3
5000201c:	e5d33000 	ldrb	r3, [r3]
50002020:	e1a00003 	mov	r0, r3
50002024:	ebfffe90 	bl	50001a6c <uart_putc>
50002028:	e59d300c 	ldr	r3, [sp, #12]
5000202c:	e59d2004 	ldr	r2, [sp, #4]
50002030:	e0823003 	add	r3, r2, r3
50002034:	e3a02020 	mov	r2, #32
50002038:	e5c32000 	strb	r2, [r3]
5000203c:	e59d300c 	ldr	r3, [sp, #12]
50002040:	e59d2004 	ldr	r2, [sp, #4]
50002044:	e0823003 	add	r3, r2, r3
50002048:	e5d33000 	ldrb	r3, [r3]
5000204c:	e1a00003 	mov	r0, r3
50002050:	ebfffe85 	bl	50001a6c <uart_putc>
50002054:	e3a00008 	mov	r0, #8
50002058:	ebfffe83 	bl	50001a6c <uart_putc>
5000205c:	ea00004f 	b	500021a0 <uart_gets+0x20c>
50002060:	e59d300c 	ldr	r3, [sp, #12]
50002064:	e59d2004 	ldr	r2, [sp, #4]
50002068:	e0823003 	add	r3, r2, r3
5000206c:	e5d33000 	ldrb	r3, [r3]
50002070:	e3530008 	cmp	r3, #8
50002074:	1a000003 	bne	50002088 <uart_gets+0xf4>
50002078:	e59d300c 	ldr	r3, [sp, #12]
5000207c:	e3530000 	cmp	r3, #0
50002080:	1a000000 	bne	50002088 <uart_gets+0xf4>
50002084:	ea000045 	b	500021a0 <uart_gets+0x20c>
50002088:	e59d300c 	ldr	r3, [sp, #12]
5000208c:	e353004f 	cmp	r3, #79	; 0x4f
50002090:	0a000006 	beq	500020b0 <uart_gets+0x11c>
50002094:	e59d300c 	ldr	r3, [sp, #12]
50002098:	e59d2004 	ldr	r2, [sp, #4]
5000209c:	e0823003 	add	r3, r2, r3
500020a0:	e5d33000 	ldrb	r3, [r3]
500020a4:	e1a00003 	mov	r0, r3
500020a8:	ebfffe6f 	bl	50001a6c <uart_putc>
500020ac:	ea000010 	b	500020f4 <uart_gets+0x160>
500020b0:	e59d300c 	ldr	r3, [sp, #12]
500020b4:	e353004f 	cmp	r3, #79	; 0x4f
500020b8:	1a00000d 	bne	500020f4 <uart_gets+0x160>
500020bc:	e59d300c 	ldr	r3, [sp, #12]
500020c0:	e59d2004 	ldr	r2, [sp, #4]
500020c4:	e0823003 	add	r3, r2, r3
500020c8:	e5d33000 	ldrb	r3, [r3]
500020cc:	e353000d 	cmp	r3, #13
500020d0:	1a000007 	bne	500020f4 <uart_gets+0x160>
500020d4:	e59f00d8 	ldr	r0, [pc, #216]	; 500021b4 <uart_gets+0x220>
500020d8:	ebfffe75 	bl	50001ab4 <uart_puts>
500020dc:	e59d300c 	ldr	r3, [sp, #12]
500020e0:	e59d2004 	ldr	r2, [sp, #4]
500020e4:	e0823003 	add	r3, r2, r3
500020e8:	e3a02000 	mov	r2, #0
500020ec:	e5c32000 	strb	r2, [r3]
500020f0:	ea00002b 	b	500021a4 <uart_gets+0x210>
500020f4:	e59d300c 	ldr	r3, [sp, #12]
500020f8:	e3530000 	cmp	r3, #0
500020fc:	1a00000d 	bne	50002138 <uart_gets+0x1a4>
50002100:	e59d300c 	ldr	r3, [sp, #12]
50002104:	e59d2004 	ldr	r2, [sp, #4]
50002108:	e0823003 	add	r3, r2, r3
5000210c:	e5d33000 	ldrb	r3, [r3]
50002110:	e353000d 	cmp	r3, #13
50002114:	1a000007 	bne	50002138 <uart_gets+0x1a4>
50002118:	e59d300c 	ldr	r3, [sp, #12]
5000211c:	e59d2004 	ldr	r2, [sp, #4]
50002120:	e0823003 	add	r3, r2, r3
50002124:	e3a02000 	mov	r2, #0
50002128:	e5c32000 	strb	r2, [r3]
5000212c:	e59f0080 	ldr	r0, [pc, #128]	; 500021b4 <uart_gets+0x220>
50002130:	ebfffe5f 	bl	50001ab4 <uart_puts>
50002134:	ea00001a 	b	500021a4 <uart_gets+0x210>
50002138:	e59d300c 	ldr	r3, [sp, #12]
5000213c:	e3530000 	cmp	r3, #0
50002140:	da00000d 	ble	5000217c <uart_gets+0x1e8>
50002144:	e59d300c 	ldr	r3, [sp, #12]
50002148:	e59d2004 	ldr	r2, [sp, #4]
5000214c:	e0823003 	add	r3, r2, r3
50002150:	e5d33000 	ldrb	r3, [r3]
50002154:	e353000d 	cmp	r3, #13
50002158:	1a000007 	bne	5000217c <uart_gets+0x1e8>
5000215c:	e59f0050 	ldr	r0, [pc, #80]	; 500021b4 <uart_gets+0x220>
50002160:	ebfffe53 	bl	50001ab4 <uart_puts>
50002164:	e59d300c 	ldr	r3, [sp, #12]
50002168:	e59d2004 	ldr	r2, [sp, #4]
5000216c:	e0823003 	add	r3, r2, r3
50002170:	e3a02000 	mov	r2, #0
50002174:	e5c32000 	strb	r2, [r3]
50002178:	ea000009 	b	500021a4 <uart_gets+0x210>
5000217c:	e59d300c 	ldr	r3, [sp, #12]
50002180:	e2833001 	add	r3, r3, #1
50002184:	e58d300c 	str	r3, [sp, #12]
50002188:	e59d300c 	ldr	r3, [sp, #12]
5000218c:	e3530050 	cmp	r3, #80	; 0x50
50002190:	1a000002 	bne	500021a0 <uart_gets+0x20c>
50002194:	e3a0304f 	mov	r3, #79	; 0x4f
50002198:	e58d300c 	str	r3, [sp, #12]
5000219c:	eaffff81 	b	50001fa8 <uart_gets+0x14>
500021a0:	eaffff80 	b	50001fa8 <uart_gets+0x14>
500021a4:	e28dd014 	add	sp, sp, #20
500021a8:	e49df004 	pop	{pc}		; (ldr pc, [sp], #4)
500021ac:	7f005010 	svcvc	0x00005010
500021b0:	7f005024 	svcvc	0x00005024
500021b4:	500025c0 	andpl	r2, r0, r0, asr #11

500021b8 <uart_scanf>:
500021b8:	e24dd008 	sub	sp, sp, #8
500021bc:	e58d0004 	str	r0, [sp, #4]
500021c0:	e58d1000 	str	r1, [sp]
500021c4:	e28dd008 	add	sp, sp, #8
500021c8:	e12fff1e 	bx	lr

500021cc <uart_get_int>:
500021cc:	e52de004 	push	{lr}		; (str lr, [sp, #-4]!)
500021d0:	e24dd064 	sub	sp, sp, #100	; 0x64
500021d4:	e28d3004 	add	r3, sp, #4
500021d8:	e1a00003 	mov	r0, r3
500021dc:	ebffff6c 	bl	50001f94 <uart_gets>
500021e0:	e3a03000 	mov	r3, #0
500021e4:	e58d305c 	str	r3, [sp, #92]	; 0x5c
500021e8:	e3a03000 	mov	r3, #0
500021ec:	e58d3058 	str	r3, [sp, #88]	; 0x58
500021f0:	e3a03001 	mov	r3, #1
500021f4:	e58d3054 	str	r3, [sp, #84]	; 0x54
500021f8:	e5dd3004 	ldrb	r3, [sp, #4]
500021fc:	e353002d 	cmp	r3, #45	; 0x2d
50002200:	1a000005 	bne	5000221c <uart_get_int+0x50>
50002204:	e59d3058 	ldr	r3, [sp, #88]	; 0x58
50002208:	e2833001 	add	r3, r3, #1
5000220c:	e58d3058 	str	r3, [sp, #88]	; 0x58
50002210:	e3e03000 	mvn	r3, #0
50002214:	e58d3054 	str	r3, [sp, #84]	; 0x54
50002218:	ea000024 	b	500022b0 <uart_get_int+0xe4>
5000221c:	ea000023 	b	500022b0 <uart_get_int+0xe4>
50002220:	e3e0305b 	mvn	r3, #91	; 0x5b
50002224:	e59d2058 	ldr	r2, [sp, #88]	; 0x58
50002228:	e28d0060 	add	r0, sp, #96	; 0x60
5000222c:	e0802002 	add	r2, r0, r2
50002230:	e0823003 	add	r3, r2, r3
50002234:	e5d33000 	ldrb	r3, [r3]
50002238:	e353002f 	cmp	r3, #47	; 0x2f
5000223c:	9a000007 	bls	50002260 <uart_get_int+0x94>
50002240:	e3e0305b 	mvn	r3, #91	; 0x5b
50002244:	e59d2058 	ldr	r2, [sp, #88]	; 0x58
50002248:	e28d1060 	add	r1, sp, #96	; 0x60
5000224c:	e0812002 	add	r2, r1, r2
50002250:	e0823003 	add	r3, r2, r3
50002254:	e5d33000 	ldrb	r3, [r3]
50002258:	e3530039 	cmp	r3, #57	; 0x39
5000225c:	9a000001 	bls	50002268 <uart_get_int+0x9c>
50002260:	e3a03000 	mov	r3, #0
50002264:	ea00001c 	b	500022dc <uart_get_int+0x110>
50002268:	e59d205c 	ldr	r2, [sp, #92]	; 0x5c
5000226c:	e1a03002 	mov	r3, r2
50002270:	e1a03103 	lsl	r3, r3, #2
50002274:	e0833002 	add	r3, r3, r2
50002278:	e1a03083 	lsl	r3, r3, #1
5000227c:	e1a02003 	mov	r2, r3
50002280:	e3e0305b 	mvn	r3, #91	; 0x5b
50002284:	e59d1058 	ldr	r1, [sp, #88]	; 0x58
50002288:	e28d0060 	add	r0, sp, #96	; 0x60
5000228c:	e0801001 	add	r1, r0, r1
50002290:	e0813003 	add	r3, r1, r3
50002294:	e5d33000 	ldrb	r3, [r3]
50002298:	e0823003 	add	r3, r2, r3
5000229c:	e2433030 	sub	r3, r3, #48	; 0x30
500022a0:	e58d305c 	str	r3, [sp, #92]	; 0x5c
500022a4:	e59d3058 	ldr	r3, [sp, #88]	; 0x58
500022a8:	e2833001 	add	r3, r3, #1
500022ac:	e58d3058 	str	r3, [sp, #88]	; 0x58
500022b0:	e3e0305b 	mvn	r3, #91	; 0x5b
500022b4:	e59d2058 	ldr	r2, [sp, #88]	; 0x58
500022b8:	e28d1060 	add	r1, sp, #96	; 0x60
500022bc:	e0812002 	add	r2, r1, r2
500022c0:	e0823003 	add	r3, r2, r3
500022c4:	e5d33000 	ldrb	r3, [r3]
500022c8:	e3530000 	cmp	r3, #0
500022cc:	1affffd3 	bne	50002220 <uart_get_int+0x54>
500022d0:	e59d3054 	ldr	r3, [sp, #84]	; 0x54
500022d4:	e59d205c 	ldr	r2, [sp, #92]	; 0x5c
500022d8:	e0030392 	mul	r3, r2, r3
500022dc:	e1a00003 	mov	r0, r3
500022e0:	e28dd064 	add	sp, sp, #100	; 0x64
500022e4:	e49df004 	pop	{pc}		; (ldr pc, [sp], #4)

500022e8 <uart_print_int>:
500022e8:	e52de004 	push	{lr}		; (str lr, [sp, #-4]!)
500022ec:	e24dd064 	sub	sp, sp, #100	; 0x64
500022f0:	e58d0004 	str	r0, [sp, #4]
500022f4:	e3a03000 	mov	r3, #0
500022f8:	e58d305c 	str	r3, [sp, #92]	; 0x5c
500022fc:	e59d005c 	ldr	r0, [sp, #92]	; 0x5c
50002300:	e2803001 	add	r3, r0, #1
50002304:	e58d305c 	str	r3, [sp, #92]	; 0x5c
50002308:	e59d1004 	ldr	r1, [sp, #4]
5000230c:	e59f30dc 	ldr	r3, [pc, #220]	; 500023f0 <uart_print_int+0x108>
50002310:	e0c32193 	smull	r2, r3, r3, r1
50002314:	e1a02143 	asr	r2, r3, #2
50002318:	e1a03fc1 	asr	r3, r1, #31
5000231c:	e0632002 	rsb	r2, r3, r2
50002320:	e1a03002 	mov	r3, r2
50002324:	e1a03103 	lsl	r3, r3, #2
50002328:	e0833002 	add	r3, r3, r2
5000232c:	e1a03083 	lsl	r3, r3, #1
50002330:	e0632001 	rsb	r2, r3, r1
50002334:	e6ef3072 	uxtb	r3, r2
50002338:	e2833030 	add	r3, r3, #48	; 0x30
5000233c:	e6ef2073 	uxtb	r2, r3
50002340:	e3e03053 	mvn	r3, #83	; 0x53
50002344:	e28dc060 	add	ip, sp, #96	; 0x60
50002348:	e08c1000 	add	r1, ip, r0
5000234c:	e0813003 	add	r3, r1, r3
50002350:	e5c32000 	strb	r2, [r3]
50002354:	e59d3004 	ldr	r3, [sp, #4]
50002358:	e59f2090 	ldr	r2, [pc, #144]	; 500023f0 <uart_print_int+0x108>
5000235c:	e0c21392 	smull	r1, r2, r2, r3
50002360:	e1a02142 	asr	r2, r2, #2
50002364:	e1a03fc3 	asr	r3, r3, #31
50002368:	e0633002 	rsb	r3, r3, r2
5000236c:	e58d3004 	str	r3, [sp, #4]
50002370:	e59d3004 	ldr	r3, [sp, #4]
50002374:	e3530000 	cmp	r3, #0
50002378:	1a000004 	bne	50002390 <uart_print_int+0xa8>
5000237c:	e1a00000 	nop			; (mov r0, r0)
50002380:	e59d3004 	ldr	r3, [sp, #4]
50002384:	e3530000 	cmp	r3, #0
50002388:	aa000003 	bge	5000239c <uart_print_int+0xb4>
5000238c:	ea000000 	b	50002394 <uart_print_int+0xac>
50002390:	eaffffd9 	b	500022fc <uart_print_int+0x14>
50002394:	e3a0002d 	mov	r0, #45	; 0x2d
50002398:	ebfffdb3 	bl	50001a6c <uart_putc>
5000239c:	e59d305c 	ldr	r3, [sp, #92]	; 0x5c
500023a0:	e2433001 	sub	r3, r3, #1
500023a4:	e58d305c 	str	r3, [sp, #92]	; 0x5c
500023a8:	ea00000a 	b	500023d8 <uart_print_int+0xf0>
500023ac:	e3e03053 	mvn	r3, #83	; 0x53
500023b0:	e59d205c 	ldr	r2, [sp, #92]	; 0x5c
500023b4:	e28dc060 	add	ip, sp, #96	; 0x60
500023b8:	e08c2002 	add	r2, ip, r2
500023bc:	e0823003 	add	r3, r2, r3
500023c0:	e5d33000 	ldrb	r3, [r3]
500023c4:	e1a00003 	mov	r0, r3
500023c8:	ebfffda7 	bl	50001a6c <uart_putc>
500023cc:	e59d305c 	ldr	r3, [sp, #92]	; 0x5c
500023d0:	e2433001 	sub	r3, r3, #1
500023d4:	e58d305c 	str	r3, [sp, #92]	; 0x5c
500023d8:	e59d305c 	ldr	r3, [sp, #92]	; 0x5c
500023dc:	e3530000 	cmp	r3, #0
500023e0:	aafffff1 	bge	500023ac <uart_print_int+0xc4>
500023e4:	e1a00000 	nop			; (mov r0, r0)
500023e8:	e28dd064 	add	sp, sp, #100	; 0x64
500023ec:	e49df004 	pop	{pc}		; (ldr pc, [sp], #4)
500023f0:	66666667 	strbtvs	r6, [r6], -r7, ror #12

500023f4 <uart_get_file>:
500023f4:	e24dd008 	sub	sp, sp, #8
500023f8:	e58d0004 	str	r0, [sp, #4]
500023fc:	e59f3038 	ldr	r3, [pc, #56]	; 5000243c <uart_get_file+0x48>
50002400:	e5933000 	ldr	r3, [r3]
50002404:	e2033001 	and	r3, r3, #1
50002408:	e3530000 	cmp	r3, #0
5000240c:	0a000006 	beq	5000242c <uart_get_file+0x38>
50002410:	e59f3028 	ldr	r3, [pc, #40]	; 50002440 <uart_get_file+0x4c>
50002414:	e5933000 	ldr	r3, [r3]
50002418:	e6ef2073 	uxtb	r2, r3
5000241c:	e59d3004 	ldr	r3, [sp, #4]
50002420:	e5c32000 	strb	r2, [r3]
50002424:	e3a03001 	mov	r3, #1
50002428:	ea000000 	b	50002430 <uart_get_file+0x3c>
5000242c:	e3a03000 	mov	r3, #0
50002430:	e1a00003 	mov	r0, r3
50002434:	e28dd008 	add	sp, sp, #8
50002438:	e12fff1e 	bx	lr
5000243c:	7f005010 	svcvc	0x00005010
50002440:	7f005024 	svcvc	0x00005024

50002444 <uart_get_file_size>:
50002444:	e24dd058 	sub	sp, sp, #88	; 0x58
50002448:	e3a03000 	mov	r3, #0
5000244c:	e58d3054 	str	r3, [sp, #84]	; 0x54
50002450:	e59f3160 	ldr	r3, [pc, #352]	; 500025b8 <uart_get_file_size+0x174>
50002454:	e5933000 	ldr	r3, [r3]
50002458:	e2033001 	and	r3, r3, #1
5000245c:	e3530000 	cmp	r3, #0
50002460:	0a000012 	beq	500024b0 <uart_get_file_size+0x6c>
50002464:	e1a00000 	nop			; (mov r0, r0)
50002468:	e59f314c 	ldr	r3, [pc, #332]	; 500025bc <uart_get_file_size+0x178>
5000246c:	e5933000 	ldr	r3, [r3]
50002470:	e6ef2073 	uxtb	r2, r3
50002474:	e3e03057 	mvn	r3, #87	; 0x57
50002478:	e59d1054 	ldr	r1, [sp, #84]	; 0x54
5000247c:	e28d0058 	add	r0, sp, #88	; 0x58
50002480:	e0801001 	add	r1, r0, r1
50002484:	e0813003 	add	r3, r1, r3
50002488:	e5c32000 	strb	r2, [r3]
5000248c:	e3e03057 	mvn	r3, #87	; 0x57
50002490:	e59d2054 	ldr	r2, [sp, #84]	; 0x54
50002494:	e28d1058 	add	r1, sp, #88	; 0x58
50002498:	e0812002 	add	r2, r1, r2
5000249c:	e0823003 	add	r3, r2, r3
500024a0:	e5d33000 	ldrb	r3, [r3]
500024a4:	e353000d 	cmp	r3, #13
500024a8:	1a00000e 	bne	500024e8 <uart_get_file_size+0xa4>
500024ac:	ea000000 	b	500024b4 <uart_get_file_size+0x70>
500024b0:	eaffffe6 	b	50002450 <uart_get_file_size+0xc>
500024b4:	e3e03057 	mvn	r3, #87	; 0x57
500024b8:	e59d2054 	ldr	r2, [sp, #84]	; 0x54
500024bc:	e28d0058 	add	r0, sp, #88	; 0x58
500024c0:	e0802002 	add	r2, r0, r2
500024c4:	e0823003 	add	r3, r2, r3
500024c8:	e3a02000 	mov	r2, #0
500024cc:	e5c32000 	strb	r2, [r3]
500024d0:	e1a00000 	nop			; (mov r0, r0)
500024d4:	e3a03000 	mov	r3, #0
500024d8:	e58d3050 	str	r3, [sp, #80]	; 0x50
500024dc:	e3a03000 	mov	r3, #0
500024e0:	e58d3054 	str	r3, [sp, #84]	; 0x54
500024e4:	ea000027 	b	50002588 <uart_get_file_size+0x144>
500024e8:	e59d3054 	ldr	r3, [sp, #84]	; 0x54
500024ec:	e2833001 	add	r3, r3, #1
500024f0:	e58d3054 	str	r3, [sp, #84]	; 0x54
500024f4:	eaffffd5 	b	50002450 <uart_get_file_size+0xc>
500024f8:	e3e03057 	mvn	r3, #87	; 0x57
500024fc:	e59d2054 	ldr	r2, [sp, #84]	; 0x54
50002500:	e28d1058 	add	r1, sp, #88	; 0x58
50002504:	e0812002 	add	r2, r1, r2
50002508:	e0823003 	add	r3, r2, r3
5000250c:	e5d33000 	ldrb	r3, [r3]
50002510:	e353002f 	cmp	r3, #47	; 0x2f
50002514:	9a000007 	bls	50002538 <uart_get_file_size+0xf4>
50002518:	e3e03057 	mvn	r3, #87	; 0x57
5000251c:	e59d2054 	ldr	r2, [sp, #84]	; 0x54
50002520:	e28d0058 	add	r0, sp, #88	; 0x58
50002524:	e0802002 	add	r2, r0, r2
50002528:	e0823003 	add	r3, r2, r3
5000252c:	e5d33000 	ldrb	r3, [r3]
50002530:	e3530039 	cmp	r3, #57	; 0x39
50002534:	9a000001 	bls	50002540 <uart_get_file_size+0xfc>
50002538:	e3a03000 	mov	r3, #0
5000253c:	ea00001a 	b	500025ac <uart_get_file_size+0x168>
50002540:	e59d2050 	ldr	r2, [sp, #80]	; 0x50
50002544:	e1a03002 	mov	r3, r2
50002548:	e1a03103 	lsl	r3, r3, #2
5000254c:	e0833002 	add	r3, r3, r2
50002550:	e1a03083 	lsl	r3, r3, #1
50002554:	e1a02003 	mov	r2, r3
50002558:	e3e03057 	mvn	r3, #87	; 0x57
5000255c:	e59d1054 	ldr	r1, [sp, #84]	; 0x54
50002560:	e28d0058 	add	r0, sp, #88	; 0x58
50002564:	e0801001 	add	r1, r0, r1
50002568:	e0813003 	add	r3, r1, r3
5000256c:	e5d33000 	ldrb	r3, [r3]
50002570:	e0823003 	add	r3, r2, r3
50002574:	e2433030 	sub	r3, r3, #48	; 0x30
50002578:	e58d3050 	str	r3, [sp, #80]	; 0x50
5000257c:	e59d3054 	ldr	r3, [sp, #84]	; 0x54
50002580:	e2833001 	add	r3, r3, #1
50002584:	e58d3054 	str	r3, [sp, #84]	; 0x54
50002588:	e3e03057 	mvn	r3, #87	; 0x57
5000258c:	e59d2054 	ldr	r2, [sp, #84]	; 0x54
50002590:	e28d1058 	add	r1, sp, #88	; 0x58
50002594:	e0812002 	add	r2, r1, r2
50002598:	e0823003 	add	r3, r2, r3
5000259c:	e5d33000 	ldrb	r3, [r3]
500025a0:	e3530000 	cmp	r3, #0
500025a4:	1affffd3 	bne	500024f8 <uart_get_file_size+0xb4>
500025a8:	e59d3050 	ldr	r3, [sp, #80]	; 0x50
500025ac:	e1a00003 	mov	r0, r3
500025b0:	e28dd058 	add	sp, sp, #88	; 0x58
500025b4:	e12fff1e 	bx	lr
500025b8:	7f005010 	svcvc	0x00005010
500025bc:	7f005024 	svcvc	0x00005024
500025c0:	00000000 	andeq	r0, r0, r0
500025c4:	74726175 	ldrbtvc	r6, [r2], #-373	; 0xfffffe8b
500025c8:	69203020 	stmdbvs	r0!, {r5, ip, sp}
500025cc:	00007273 	andeq	r7, r0, r3, ror r2
500025d0:	00003741 	andeq	r3, r0, r1, asr #14
500025d4:	61656100 	cmnvs	r5, r0, lsl #2
500025d8:	01006962 	tsteq	r0, r2, ror #18
500025dc:	0000002d 	andeq	r0, r0, sp, lsr #32
500025e0:	4d524105 	ldfmie	f4, [r2, #-20]	; 0xffffffec
500025e4:	36373131 			; <UNDEFINED> instruction: 0x36373131
500025e8:	2d465a4a 	vstrcs	s11, [r6, #-296]	; 0xfffffed8
500025ec:	07060053 	smlsdeq	r6, r3, r0, r0
500025f0:	01090108 	tsteq	r9, r8, lsl #2
500025f4:	01140412 	tsteq	r4, r2, lsl r4
500025f8:	03170115 	tsteq	r7, #1073741829	; 0x40000005
500025fc:	01190118 	tsteq	r9, r8, lsl r1
50002600:	061e011a 			; <UNDEFINED> instruction: 0x061e011a
50002604:	01440122 	cmpeq	r4, r2, lsr #2

50002608 <init_adc>:
50002608:	e24dd010 	sub	sp, sp, #16
5000260c:	e58d000c 	str	r0, [sp, #12]
50002610:	e58d1008 	str	r1, [sp, #8]
50002614:	e58d2004 	str	r2, [sp, #4]
50002618:	e58d3000 	str	r3, [sp]
5000261c:	e59d300c 	ldr	r3, [sp, #12]
50002620:	e353000a 	cmp	r3, #10
50002624:	1a000005 	bne	50002640 <init_adc+0x38>
50002628:	e59f32f4 	ldr	r3, [pc, #756]	; 50002924 <init_adc+0x31c>
5000262c:	e59f22f0 	ldr	r2, [pc, #752]	; 50002924 <init_adc+0x31c>
50002630:	e5922000 	ldr	r2, [r2]
50002634:	e3c22801 	bic	r2, r2, #65536	; 0x10000
50002638:	e5832000 	str	r2, [r3]
5000263c:	ea00000a 	b	5000266c <init_adc+0x64>
50002640:	e59d300c 	ldr	r3, [sp, #12]
50002644:	e353000c 	cmp	r3, #12
50002648:	1a000005 	bne	50002664 <init_adc+0x5c>
5000264c:	e59f32d0 	ldr	r3, [pc, #720]	; 50002924 <init_adc+0x31c>
50002650:	e59f22cc 	ldr	r2, [pc, #716]	; 50002924 <init_adc+0x31c>
50002654:	e5922000 	ldr	r2, [r2]
50002658:	e3822801 	orr	r2, r2, #65536	; 0x10000
5000265c:	e5832000 	str	r2, [r3]
50002660:	ea000001 	b	5000266c <init_adc+0x64>
50002664:	e3e0300f 	mvn	r3, #15
50002668:	ea0000aa 	b	50002918 <init_adc+0x310>
5000266c:	e59d3008 	ldr	r3, [sp, #8]
50002670:	e3530005 	cmp	r3, #5
50002674:	979ff103 	ldrls	pc, [pc, r3, lsl #2]
50002678:	ea000060 	b	50002800 <init_adc+0x1f8>
5000267c:	50002694 	mulpl	r0, r4, r6
50002680:	500026c0 	andpl	r2, r0, r0, asr #13
50002684:	50002700 	andpl	r2, r0, r0, lsl #14
50002688:	50002740 	andpl	r2, r0, r0, asr #14
5000268c:	50002780 	andpl	r2, r0, r0, lsl #15
50002690:	500027c0 	andpl	r2, r0, r0, asr #15
50002694:	e59f3288 	ldr	r3, [pc, #648]	; 50002924 <init_adc+0x31c>
50002698:	e59f2284 	ldr	r2, [pc, #644]	; 50002924 <init_adc+0x31c>
5000269c:	e5922000 	ldr	r2, [r2]
500026a0:	e3c22901 	bic	r2, r2, #16384	; 0x4000
500026a4:	e5832000 	str	r2, [r3]
500026a8:	e59f3274 	ldr	r3, [pc, #628]	; 50002924 <init_adc+0x31c>
500026ac:	e59f2270 	ldr	r2, [pc, #624]	; 50002924 <init_adc+0x31c>
500026b0:	e5922000 	ldr	r2, [r2]
500026b4:	e3822dff 	orr	r2, r2, #16320	; 0x3fc0
500026b8:	e5832000 	str	r2, [r3]
500026bc:	ea000051 	b	50002808 <init_adc+0x200>
500026c0:	e59f325c 	ldr	r3, [pc, #604]	; 50002924 <init_adc+0x31c>
500026c4:	e59f2258 	ldr	r2, [pc, #600]	; 50002924 <init_adc+0x31c>
500026c8:	e5922000 	ldr	r2, [r2]
500026cc:	e3822901 	orr	r2, r2, #16384	; 0x4000
500026d0:	e5832000 	str	r2, [r3]
500026d4:	e59f3248 	ldr	r3, [pc, #584]	; 50002924 <init_adc+0x31c>
500026d8:	e59f2244 	ldr	r2, [pc, #580]	; 50002924 <init_adc+0x31c>
500026dc:	e5922000 	ldr	r2, [r2]
500026e0:	e3c22dff 	bic	r2, r2, #16320	; 0x3fc0
500026e4:	e5832000 	str	r2, [r3]
500026e8:	e59f3234 	ldr	r3, [pc, #564]	; 50002924 <init_adc+0x31c>
500026ec:	e59f2230 	ldr	r2, [pc, #560]	; 50002924 <init_adc+0x31c>
500026f0:	e5922000 	ldr	r2, [r2]
500026f4:	e3822d41 	orr	r2, r2, #4160	; 0x1040
500026f8:	e5832000 	str	r2, [r3]
500026fc:	ea000041 	b	50002808 <init_adc+0x200>
50002700:	e59f321c 	ldr	r3, [pc, #540]	; 50002924 <init_adc+0x31c>
50002704:	e59f2218 	ldr	r2, [pc, #536]	; 50002924 <init_adc+0x31c>
50002708:	e5922000 	ldr	r2, [r2]
5000270c:	e3822901 	orr	r2, r2, #16384	; 0x4000
50002710:	e5832000 	str	r2, [r3]
50002714:	e59f3208 	ldr	r3, [pc, #520]	; 50002924 <init_adc+0x31c>
50002718:	e59f2204 	ldr	r2, [pc, #516]	; 50002924 <init_adc+0x31c>
5000271c:	e5922000 	ldr	r2, [r2]
50002720:	e3c22dff 	bic	r2, r2, #16320	; 0x3fc0
50002724:	e5832000 	str	r2, [r3]
50002728:	e59f31f4 	ldr	r3, [pc, #500]	; 50002924 <init_adc+0x31c>
5000272c:	e59f21f0 	ldr	r2, [pc, #496]	; 50002924 <init_adc+0x31c>
50002730:	e5922000 	ldr	r2, [r2]
50002734:	e3822b02 	orr	r2, r2, #2048	; 0x800
50002738:	e5832000 	str	r2, [r3]
5000273c:	ea000031 	b	50002808 <init_adc+0x200>
50002740:	e59f31dc 	ldr	r3, [pc, #476]	; 50002924 <init_adc+0x31c>
50002744:	e59f21d8 	ldr	r2, [pc, #472]	; 50002924 <init_adc+0x31c>
50002748:	e5922000 	ldr	r2, [r2]
5000274c:	e3822901 	orr	r2, r2, #16384	; 0x4000
50002750:	e5832000 	str	r2, [r3]
50002754:	e59f31c8 	ldr	r3, [pc, #456]	; 50002924 <init_adc+0x31c>
50002758:	e59f21c4 	ldr	r2, [pc, #452]	; 50002924 <init_adc+0x31c>
5000275c:	e5922000 	ldr	r2, [r2]
50002760:	e3c22dff 	bic	r2, r2, #16320	; 0x3fc0
50002764:	e5832000 	str	r2, [r3]
50002768:	e59f31b4 	ldr	r3, [pc, #436]	; 50002924 <init_adc+0x31c>
5000276c:	e59f21b0 	ldr	r2, [pc, #432]	; 50002924 <init_adc+0x31c>
50002770:	e5922000 	ldr	r2, [r2]
50002774:	e3822d15 	orr	r2, r2, #1344	; 0x540
50002778:	e5832000 	str	r2, [r3]
5000277c:	ea000021 	b	50002808 <init_adc+0x200>
50002780:	e59f319c 	ldr	r3, [pc, #412]	; 50002924 <init_adc+0x31c>
50002784:	e59f2198 	ldr	r2, [pc, #408]	; 50002924 <init_adc+0x31c>
50002788:	e5922000 	ldr	r2, [r2]
5000278c:	e3822901 	orr	r2, r2, #16384	; 0x4000
50002790:	e5832000 	str	r2, [r3]
50002794:	e59f3188 	ldr	r3, [pc, #392]	; 50002924 <init_adc+0x31c>
50002798:	e59f2184 	ldr	r2, [pc, #388]	; 50002924 <init_adc+0x31c>
5000279c:	e5922000 	ldr	r2, [r2]
500027a0:	e3c22dff 	bic	r2, r2, #16320	; 0x3fc0
500027a4:	e5832000 	str	r2, [r3]
500027a8:	e59f3174 	ldr	r3, [pc, #372]	; 50002924 <init_adc+0x31c>
500027ac:	e59f2170 	ldr	r2, [pc, #368]	; 50002924 <init_adc+0x31c>
500027b0:	e5922000 	ldr	r2, [r2]
500027b4:	e3822d0f 	orr	r2, r2, #960	; 0x3c0
500027b8:	e5832000 	str	r2, [r3]
500027bc:	ea000011 	b	50002808 <init_adc+0x200>
500027c0:	e59f315c 	ldr	r3, [pc, #348]	; 50002924 <init_adc+0x31c>
500027c4:	e59f2158 	ldr	r2, [pc, #344]	; 50002924 <init_adc+0x31c>
500027c8:	e5922000 	ldr	r2, [r2]
500027cc:	e3822901 	orr	r2, r2, #16384	; 0x4000
500027d0:	e5832000 	str	r2, [r3]
500027d4:	e59f3148 	ldr	r3, [pc, #328]	; 50002924 <init_adc+0x31c>
500027d8:	e59f2144 	ldr	r2, [pc, #324]	; 50002924 <init_adc+0x31c>
500027dc:	e5922000 	ldr	r2, [r2]
500027e0:	e3c22dff 	bic	r2, r2, #16320	; 0x3fc0
500027e4:	e5832000 	str	r2, [r3]
500027e8:	e59f3134 	ldr	r3, [pc, #308]	; 50002924 <init_adc+0x31c>
500027ec:	e59f2130 	ldr	r2, [pc, #304]	; 50002924 <init_adc+0x31c>
500027f0:	e5922000 	ldr	r2, [r2]
500027f4:	e3822d0e 	orr	r2, r2, #896	; 0x380
500027f8:	e5832000 	str	r2, [r3]
500027fc:	ea000001 	b	50002808 <init_adc+0x200>
50002800:	e3e03005 	mvn	r3, #5
50002804:	ea000043 	b	50002918 <init_adc+0x310>
50002808:	e59d3004 	ldr	r3, [sp, #4]
5000280c:	e3530003 	cmp	r3, #3
50002810:	979ff103 	ldrls	pc, [pc, r3, lsl #2]
50002814:	ea00002a 	b	500028c4 <init_adc+0x2bc>
50002818:	50002828 	andpl	r2, r0, r8, lsr #16
5000281c:	50002840 	andpl	r2, r0, r0, asr #16
50002820:	5000286c 	andpl	r2, r0, ip, ror #16
50002824:	50002898 	mulpl	r0, r8, r8
50002828:	e59f30f4 	ldr	r3, [pc, #244]	; 50002924 <init_adc+0x31c>
5000282c:	e59f20f0 	ldr	r2, [pc, #240]	; 50002924 <init_adc+0x31c>
50002830:	e5922000 	ldr	r2, [r2]
50002834:	e3c22038 	bic	r2, r2, #56	; 0x38
50002838:	e5832000 	str	r2, [r3]
5000283c:	ea000022 	b	500028cc <init_adc+0x2c4>
50002840:	e59f30dc 	ldr	r3, [pc, #220]	; 50002924 <init_adc+0x31c>
50002844:	e59f20d8 	ldr	r2, [pc, #216]	; 50002924 <init_adc+0x31c>
50002848:	e5922000 	ldr	r2, [r2]
5000284c:	e3c22038 	bic	r2, r2, #56	; 0x38
50002850:	e5832000 	str	r2, [r3]
50002854:	e59f30c8 	ldr	r3, [pc, #200]	; 50002924 <init_adc+0x31c>
50002858:	e59f20c4 	ldr	r2, [pc, #196]	; 50002924 <init_adc+0x31c>
5000285c:	e5922000 	ldr	r2, [r2]
50002860:	e3822008 	orr	r2, r2, #8
50002864:	e5832000 	str	r2, [r3]
50002868:	ea000017 	b	500028cc <init_adc+0x2c4>
5000286c:	e59f30b0 	ldr	r3, [pc, #176]	; 50002924 <init_adc+0x31c>
50002870:	e59f20ac 	ldr	r2, [pc, #172]	; 50002924 <init_adc+0x31c>
50002874:	e5922000 	ldr	r2, [r2]
50002878:	e3c22038 	bic	r2, r2, #56	; 0x38
5000287c:	e5832000 	str	r2, [r3]
50002880:	e59f309c 	ldr	r3, [pc, #156]	; 50002924 <init_adc+0x31c>
50002884:	e59f2098 	ldr	r2, [pc, #152]	; 50002924 <init_adc+0x31c>
50002888:	e5922000 	ldr	r2, [r2]
5000288c:	e3822010 	orr	r2, r2, #16
50002890:	e5832000 	str	r2, [r3]
50002894:	ea00000c 	b	500028cc <init_adc+0x2c4>
50002898:	e59f3084 	ldr	r3, [pc, #132]	; 50002924 <init_adc+0x31c>
5000289c:	e59f2080 	ldr	r2, [pc, #128]	; 50002924 <init_adc+0x31c>
500028a0:	e5922000 	ldr	r2, [r2]
500028a4:	e3c22038 	bic	r2, r2, #56	; 0x38
500028a8:	e5832000 	str	r2, [r3]
500028ac:	e59f3070 	ldr	r3, [pc, #112]	; 50002924 <init_adc+0x31c>
500028b0:	e59f206c 	ldr	r2, [pc, #108]	; 50002924 <init_adc+0x31c>
500028b4:	e5922000 	ldr	r2, [r2]
500028b8:	e3822018 	orr	r2, r2, #24
500028bc:	e5832000 	str	r2, [r3]
500028c0:	ea000001 	b	500028cc <init_adc+0x2c4>
500028c4:	e3e03002 	mvn	r3, #2
500028c8:	ea000012 	b	50002918 <init_adc+0x310>
500028cc:	e59f3050 	ldr	r3, [pc, #80]	; 50002924 <init_adc+0x31c>
500028d0:	e59f204c 	ldr	r2, [pc, #76]	; 50002924 <init_adc+0x31c>
500028d4:	e5922000 	ldr	r2, [r2]
500028d8:	e3c22004 	bic	r2, r2, #4
500028dc:	e5832000 	str	r2, [r3]
500028e0:	e59f303c 	ldr	r3, [pc, #60]	; 50002924 <init_adc+0x31c>
500028e4:	e59f2038 	ldr	r2, [pc, #56]	; 50002924 <init_adc+0x31c>
500028e8:	e5922000 	ldr	r2, [r2]
500028ec:	e3c22002 	bic	r2, r2, #2
500028f0:	e5832000 	str	r2, [r3]
500028f4:	e59d3000 	ldr	r3, [sp]
500028f8:	e3530001 	cmp	r3, #1
500028fc:	1a000004 	bne	50002914 <init_adc+0x30c>
50002900:	e59f3020 	ldr	r3, [pc, #32]	; 50002928 <init_adc+0x320>
50002904:	e59f201c 	ldr	r2, [pc, #28]	; 50002928 <init_adc+0x320>
50002908:	e5922000 	ldr	r2, [r2]
5000290c:	e3822102 	orr	r2, r2, #-2147483648	; 0x80000000
50002910:	e5832000 	str	r2, [r3]
50002914:	e3a03000 	mov	r3, #0
50002918:	e1a00003 	mov	r0, r3
5000291c:	e28dd010 	add	sp, sp, #16
50002920:	e12fff1e 	bx	lr
50002924:	7e00b000 	cdpvc	0, 0, cr11, cr0, cr0, {0}
50002928:	71300010 	teqvc	r0, r0, lsl r0

5000292c <start_adc>:
5000292c:	e59f302c 	ldr	r3, [pc, #44]	; 50002960 <start_adc+0x34>
50002930:	e59f2028 	ldr	r2, [pc, #40]	; 50002960 <start_adc+0x34>
50002934:	e5922000 	ldr	r2, [r2]
50002938:	e3822001 	orr	r2, r2, #1
5000293c:	e5832000 	str	r2, [r3]
50002940:	e1a00000 	nop			; (mov r0, r0)
50002944:	e59f3014 	ldr	r3, [pc, #20]	; 50002960 <start_adc+0x34>
50002948:	e5933000 	ldr	r3, [r3]
5000294c:	e2033001 	and	r3, r3, #1
50002950:	e3530000 	cmp	r3, #0
50002954:	1afffffa 	bne	50002944 <start_adc+0x18>
50002958:	e1a00000 	nop			; (mov r0, r0)
5000295c:	e12fff1e 	bx	lr
50002960:	7e00b000 	cdpvc	0, 0, cr11, cr0, cr0, {0}

50002964 <get_adc>:
50002964:	e24dd008 	sub	sp, sp, #8
50002968:	e58d0004 	str	r0, [sp, #4]
5000296c:	e1a00000 	nop			; (mov r0, r0)
50002970:	e59f305c 	ldr	r3, [pc, #92]	; 500029d4 <get_adc+0x70>
50002974:	e5933000 	ldr	r3, [r3]
50002978:	e2033902 	and	r3, r3, #32768	; 0x8000
5000297c:	e3530000 	cmp	r3, #0
50002980:	0afffffa 	beq	50002970 <get_adc+0xc>
50002984:	e59d3004 	ldr	r3, [sp, #4]
50002988:	e353000a 	cmp	r3, #10
5000298c:	1a000004 	bne	500029a4 <get_adc+0x40>
50002990:	e59f3040 	ldr	r3, [pc, #64]	; 500029d8 <get_adc+0x74>
50002994:	e5933000 	ldr	r3, [r3]
50002998:	e1a03b03 	lsl	r3, r3, #22
5000299c:	e1a03b23 	lsr	r3, r3, #22
500029a0:	ea000008 	b	500029c8 <get_adc+0x64>
500029a4:	e59d3004 	ldr	r3, [sp, #4]
500029a8:	e353000c 	cmp	r3, #12
500029ac:	1a000004 	bne	500029c4 <get_adc+0x60>
500029b0:	e59f3020 	ldr	r3, [pc, #32]	; 500029d8 <get_adc+0x74>
500029b4:	e5933000 	ldr	r3, [r3]
500029b8:	e1a03a03 	lsl	r3, r3, #20
500029bc:	e1a03a23 	lsr	r3, r3, #20
500029c0:	ea000000 	b	500029c8 <get_adc+0x64>
500029c4:	e3a03000 	mov	r3, #0
500029c8:	e1a00003 	mov	r0, r3
500029cc:	e28dd008 	add	sp, sp, #8
500029d0:	e12fff1e 	bx	lr
500029d4:	7e00b000 	cdpvc	0, 0, cr11, cr0, cr0, {0}
500029d8:	7e00b00c 	cdpvc	0, 0, cr11, cr0, cr12, {0}

500029dc <adc_10_isr>:
500029dc:	e59f3008 	ldr	r3, [pc, #8]	; 500029ec <adc_10_isr+0x10>
500029e0:	e5933000 	ldr	r3, [r3]
500029e4:	e1a00003 	mov	r0, r3
500029e8:	e12fff1e 	bx	lr
500029ec:	7e00b00c 	cdpvc	0, 0, cr11, cr0, cr12, {0}

500029f0 <main>:
500029f0:	e52de004 	push	{lr}		; (str lr, [sp, #-4]!)
500029f4:	e24dd00c 	sub	sp, sp, #12
500029f8:	e59f3070 	ldr	r3, [pc, #112]	; 50002a70 <main+0x80>
500029fc:	e58d3004 	str	r3, [sp, #4]
50002a00:	e59f006c 	ldr	r0, [pc, #108]	; 50002a74 <main+0x84>
50002a04:	ebfffc44 	bl	50001b1c <uart_printf>
50002a08:	e59f0068 	ldr	r0, [pc, #104]	; 50002a78 <main+0x88>
50002a0c:	ebfffc42 	bl	50001b1c <uart_printf>
50002a10:	e59d0004 	ldr	r0, [sp, #4]
50002a14:	ebfffcab 	bl	50001cc8 <uart_print_addr>
50002a18:	e59f005c 	ldr	r0, [pc, #92]	; 50002a7c <main+0x8c>
50002a1c:	ebfffc3e 	bl	50001b1c <uart_printf>
50002a20:	e59f3058 	ldr	r3, [pc, #88]	; 50002a80 <main+0x90>
50002a24:	e58d3004 	str	r3, [sp, #4]
50002a28:	e59f0054 	ldr	r0, [pc, #84]	; 50002a84 <main+0x94>
50002a2c:	ebfffc3a 	bl	50001b1c <uart_printf>
50002a30:	e59d0004 	ldr	r0, [sp, #4]
50002a34:	ebfffca3 	bl	50001cc8 <uart_print_addr>
50002a38:	e59f003c 	ldr	r0, [pc, #60]	; 50002a7c <main+0x8c>
50002a3c:	ebfffc36 	bl	50001b1c <uart_printf>
50002a40:	eb000e8d 	bl	5000647c <OSInit>
50002a44:	e59f003c 	ldr	r0, [pc, #60]	; 50002a88 <main+0x98>
50002a48:	e3a01000 	mov	r1, #0
50002a4c:	e59f2038 	ldr	r2, [pc, #56]	; 50002a8c <main+0x9c>
50002a50:	e3a03000 	mov	r3, #0
50002a54:	eb00282c 	bl	5000cb0c <OSTaskCreate>
50002a58:	eb000f38 	bl	50006740 <OSStart>
50002a5c:	e3a03000 	mov	r3, #0
50002a60:	e1a00003 	mov	r0, r3
50002a64:	e28dd00c 	add	sp, sp, #12
50002a68:	e49de004 	pop	{lr}		; (ldr lr, [sp], #4)
50002a6c:	e12fff1e 	bx	lr
50002a70:	500112c8 	andpl	r1, r1, r8, asr #5
50002a74:	5000ffc8 	andpl	pc, r0, r8, asr #31
50002a78:	5000ffd8 	ldrdpl	pc, [r0], -r8
50002a7c:	5000ffec 	andpl	pc, r0, ip, ror #31
50002a80:	5001113c 	andpl	r1, r1, ip, lsr r1
50002a84:	5000fff0 	strdpl	pc, [r0], -r0
50002a88:	50002a90 	mulpl	r0, r0, sl
50002a8c:	50011338 	andpl	r1, r1, r8, lsr r3

50002a90 <MainTask>:
50002a90:	e52de004 	push	{lr}		; (str lr, [sp, #-4]!)
50002a94:	e24dd01c 	sub	sp, sp, #28
50002a98:	e58d000c 	str	r0, [sp, #12]
50002a9c:	eb0008a1 	bl	50004d28 <init_pwm>
50002aa0:	eb0005dc 	bl	50004218 <init_led>
50002aa4:	eb00025b 	bl	50003418 <init_buzzer>
50002aa8:	eb000076 	bl	50002c88 <init_hc05>
50002aac:	e59f30e4 	ldr	r3, [pc, #228]	; 50002b98 <MainTask+0x108>
50002ab0:	e5933000 	ldr	r3, [r3]
50002ab4:	e1a02003 	mov	r2, r3
50002ab8:	e59f30dc 	ldr	r3, [pc, #220]	; 50002b9c <MainTask+0x10c>
50002abc:	e5933000 	ldr	r3, [r3]
50002ac0:	e1a00002 	mov	r0, r2
50002ac4:	e1a01003 	mov	r1, r3
50002ac8:	e3a02000 	mov	r2, #0
50002acc:	eb00034f 	bl	50003810 <config_lcd>
50002ad0:	eb00036c 	bl	50003888 <init_lcd>
50002ad4:	e59f30c4 	ldr	r3, [pc, #196]	; 50002ba0 <MainTask+0x110>
50002ad8:	e58d3000 	str	r3, [sp]
50002adc:	e3a00001 	mov	r0, #1
50002ae0:	e3a01015 	mov	r1, #21
50002ae4:	e3a028ff 	mov	r2, #16711680	; 0xff0000
50002ae8:	e3e034ff 	mvn	r3, #-16777216	; 0xff000000
50002aec:	eb0005a1 	bl	50004178 <lcd_display_string>
50002af0:	e3a0000a 	mov	r0, #10
50002af4:	e3a01001 	mov	r1, #1
50002af8:	e3a02002 	mov	r2, #2
50002afc:	e3a03000 	mov	r3, #0
50002b00:	ebfffec0 	bl	50002608 <init_adc>
50002b04:	eb000f2b 	bl	500067b8 <OSStatInit>
50002b08:	e59f0094 	ldr	r0, [pc, #148]	; 50002ba4 <MainTask+0x114>
50002b0c:	e3a01000 	mov	r1, #0
50002b10:	e59f2090 	ldr	r2, [pc, #144]	; 50002ba8 <MainTask+0x118>
50002b14:	e3a03005 	mov	r3, #5
50002b18:	eb0027fb 	bl	5000cb0c <OSTaskCreate>
50002b1c:	e59f0088 	ldr	r0, [pc, #136]	; 50002bac <MainTask+0x11c>
50002b20:	ebfffbe3 	bl	50001ab4 <uart_puts>
50002b24:	e3a03041 	mov	r3, #65	; 0x41
50002b28:	e5cd3017 	strb	r3, [sp, #23]
50002b2c:	eb00012c 	bl	50002fe4 <hc05_state>
50002b30:	e1a03000 	mov	r3, r0
50002b34:	e3530000 	cmp	r3, #0
50002b38:	0a00000d 	beq	50002b74 <MainTask+0xe4>
50002b3c:	e5dd3017 	ldrb	r3, [sp, #23]
50002b40:	e353005a 	cmp	r3, #90	; 0x5a
50002b44:	9a000001 	bls	50002b50 <MainTask+0xc0>
50002b48:	e3a03041 	mov	r3, #65	; 0x41
50002b4c:	e5cd3017 	strb	r3, [sp, #23]
50002b50:	e3a00000 	mov	r0, #0
50002b54:	eb0005f1 	bl	50004320 <set_led_2>
50002b58:	e5dd3017 	ldrb	r3, [sp, #23]
50002b5c:	e1a00003 	mov	r0, r3
50002b60:	eb000127 	bl	50003004 <hc05_putc>
50002b64:	e5dd3017 	ldrb	r3, [sp, #23]
50002b68:	e2833001 	add	r3, r3, #1
50002b6c:	e5cd3017 	strb	r3, [sp, #23]
50002b70:	ea000001 	b	50002b7c <MainTask+0xec>
50002b74:	e3a00001 	mov	r0, #1
50002b78:	eb0005e8 	bl	50004320 <set_led_2>
50002b7c:	ebffff6a 	bl	5000292c <start_adc>
50002b80:	e3a00000 	mov	r0, #0
50002b84:	e3a01000 	mov	r1, #0
50002b88:	e3a02001 	mov	r2, #1
50002b8c:	e3a03000 	mov	r3, #0
50002b90:	eb002c06 	bl	5000dbb0 <OSTimeDlyHMSM>
50002b94:	eaffffe4 	b	50002b2c <MainTask+0x9c>
50002b98:	50010d14 	andpl	r0, r1, r4, lsl sp
50002b9c:	50010d18 	andpl	r0, r1, r8, lsl sp
50002ba0:	50010000 	andpl	r0, r1, r0
50002ba4:	50002bb0 			; <UNDEFINED> instruction: 0x50002bb0
50002ba8:	50010f38 	andpl	r0, r1, r8, lsr pc
50002bac:	50010014 	andpl	r0, r1, r4, lsl r0

50002bb0 <HighTask>:
50002bb0:	e52de004 	push	{lr}		; (str lr, [sp, #-4]!)
50002bb4:	e24dd014 	sub	sp, sp, #20
50002bb8:	e58d0004 	str	r0, [sp, #4]
50002bbc:	e59f3070 	ldr	r3, [pc, #112]	; 50002c34 <HighTask+0x84>
50002bc0:	e5933000 	ldr	r3, [r3]
50002bc4:	e3530000 	cmp	r3, #0
50002bc8:	0a000005 	beq	50002be4 <HighTask+0x34>
50002bcc:	e3a00000 	mov	r0, #0
50002bd0:	eb0005bb 	bl	500042c4 <set_led_1>
50002bd4:	e59f3058 	ldr	r3, [pc, #88]	; 50002c34 <HighTask+0x84>
50002bd8:	e3a02000 	mov	r2, #0
50002bdc:	e5832000 	str	r2, [r3]
50002be0:	ea000004 	b	50002bf8 <HighTask+0x48>
50002be4:	e3a00001 	mov	r0, #1
50002be8:	eb0005b5 	bl	500042c4 <set_led_1>
50002bec:	e59f3040 	ldr	r3, [pc, #64]	; 50002c34 <HighTask+0x84>
50002bf0:	e3a02001 	mov	r2, #1
50002bf4:	e5832000 	str	r2, [r3]
50002bf8:	e59f0038 	ldr	r0, [pc, #56]	; 50002c38 <HighTask+0x88>
50002bfc:	ebfffbc6 	bl	50001b1c <uart_printf>
50002c00:	e3a0000a 	mov	r0, #10
50002c04:	ebffff56 	bl	50002964 <get_adc>
50002c08:	e58d000c 	str	r0, [sp, #12]
50002c0c:	e59d000c 	ldr	r0, [sp, #12]
50002c10:	ebfffdb4 	bl	500022e8 <uart_print_int>
50002c14:	e59f0020 	ldr	r0, [pc, #32]	; 50002c3c <HighTask+0x8c>
50002c18:	ebfffba5 	bl	50001ab4 <uart_puts>
50002c1c:	e3a00000 	mov	r0, #0
50002c20:	e3a01000 	mov	r1, #0
50002c24:	e3a02001 	mov	r2, #1
50002c28:	e3a03000 	mov	r3, #0
50002c2c:	eb002bdf 	bl	5000dbb0 <OSTimeDlyHMSM>
50002c30:	eaffffe1 	b	50002bbc <HighTask+0xc>
50002c34:	50010d10 	andpl	r0, r1, r0, lsl sp
50002c38:	50010018 	andpl	r0, r1, r8, lsl r0
50002c3c:	50010014 	andpl	r0, r1, r4, lsl r0

50002c40 <MidTask>:
50002c40:	e52de004 	push	{lr}		; (str lr, [sp, #-4]!)
50002c44:	e24dd00c 	sub	sp, sp, #12
50002c48:	e58d0004 	str	r0, [sp, #4]
50002c4c:	e3a00000 	mov	r0, #0
50002c50:	e3a01000 	mov	r1, #0
50002c54:	e3a02002 	mov	r2, #2
50002c58:	e3a03000 	mov	r3, #0
50002c5c:	eb002bd3 	bl	5000dbb0 <OSTimeDlyHMSM>
50002c60:	eafffff9 	b	50002c4c <MidTask+0xc>

50002c64 <LowTask>:
50002c64:	e52de004 	push	{lr}		; (str lr, [sp, #-4]!)
50002c68:	e24dd00c 	sub	sp, sp, #12
50002c6c:	e58d0004 	str	r0, [sp, #4]
50002c70:	e3a00000 	mov	r0, #0
50002c74:	e3a01000 	mov	r1, #0
50002c78:	e3a02001 	mov	r2, #1
50002c7c:	e3a03000 	mov	r3, #0
50002c80:	eb002bca 	bl	5000dbb0 <OSTimeDlyHMSM>
50002c84:	eafffff9 	b	50002c70 <LowTask+0xc>

50002c88 <init_hc05>:
50002c88:	e92d4008 	push	{r3, lr}
50002c8c:	e59f30a8 	ldr	r3, [pc, #168]	; 50002d3c <init_hc05+0xb4>
50002c90:	e59f20a4 	ldr	r2, [pc, #164]	; 50002d3c <init_hc05+0xb4>
50002c94:	e5922000 	ldr	r2, [r2]
50002c98:	e3c2200c 	bic	r2, r2, #12
50002c9c:	e5832000 	str	r2, [r3]
50002ca0:	e59f3094 	ldr	r3, [pc, #148]	; 50002d3c <init_hc05+0xb4>
50002ca4:	e59f2090 	ldr	r2, [pc, #144]	; 50002d3c <init_hc05+0xb4>
50002ca8:	e5922000 	ldr	r2, [r2]
50002cac:	e3c22803 	bic	r2, r2, #196608	; 0x30000
50002cb0:	e5832000 	str	r2, [r3]
50002cb4:	e59f3080 	ldr	r3, [pc, #128]	; 50002d3c <init_hc05+0xb4>
50002cb8:	e59f207c 	ldr	r2, [pc, #124]	; 50002d3c <init_hc05+0xb4>
50002cbc:	e5922000 	ldr	r2, [r2]
50002cc0:	e3822801 	orr	r2, r2, #65536	; 0x10000
50002cc4:	e5832000 	str	r2, [r3]
50002cc8:	e59f3070 	ldr	r3, [pc, #112]	; 50002d40 <init_hc05+0xb8>
50002ccc:	e59f206c 	ldr	r2, [pc, #108]	; 50002d40 <init_hc05+0xb8>
50002cd0:	e5922000 	ldr	r2, [r2]
50002cd4:	e3c2200c 	bic	r2, r2, #12
50002cd8:	e5832000 	str	r2, [r3]
50002cdc:	e59f305c 	ldr	r3, [pc, #92]	; 50002d40 <init_hc05+0xb8>
50002ce0:	e59f2058 	ldr	r2, [pc, #88]	; 50002d40 <init_hc05+0xb8>
50002ce4:	e5922000 	ldr	r2, [r2]
50002ce8:	e3822004 	orr	r2, r2, #4
50002cec:	e5832000 	str	r2, [r3]
50002cf0:	e59f3048 	ldr	r3, [pc, #72]	; 50002d40 <init_hc05+0xb8>
50002cf4:	e59f2044 	ldr	r2, [pc, #68]	; 50002d40 <init_hc05+0xb8>
50002cf8:	e5922000 	ldr	r2, [r2]
50002cfc:	e3c22803 	bic	r2, r2, #196608	; 0x30000
50002d00:	e5832000 	str	r2, [r3]
50002d04:	e59f3034 	ldr	r3, [pc, #52]	; 50002d40 <init_hc05+0xb8>
50002d08:	e59f2030 	ldr	r2, [pc, #48]	; 50002d40 <init_hc05+0xb8>
50002d0c:	e5922000 	ldr	r2, [r2]
50002d10:	e3822801 	orr	r2, r2, #65536	; 0x10000
50002d14:	e5832000 	str	r2, [r3]
50002d18:	e3a00c96 	mov	r0, #38400	; 0x9600
50002d1c:	eb0000cc 	bl	50003054 <init_uart_1>
50002d20:	eb00009e 	bl	50002fa0 <hc05_exit_at>
50002d24:	e59f3018 	ldr	r3, [pc, #24]	; 50002d44 <init_hc05+0xbc>
50002d28:	e3a02000 	mov	r2, #0
50002d2c:	e5832000 	str	r2, [r3]
50002d30:	e1a00000 	nop			; (mov r0, r0)
50002d34:	e8bd4008 	pop	{r3, lr}
50002d38:	e12fff1e 	bx	lr
50002d3c:	7f008160 	svcvc	0x00008160
50002d40:	7f008168 	svcvc	0x00008168
50002d44:	50010d30 	andpl	r0, r1, r0, lsr sp

50002d48 <set_hc05>:
50002d48:	e52de004 	push	{lr}		; (str lr, [sp, #-4]!)
50002d4c:	e24dd05c 	sub	sp, sp, #92	; 0x5c
50002d50:	e321f01f 	msr	CPSR_c, #31
50002d54:	ebffffcb 	bl	50002c88 <init_hc05>
50002d58:	eb000088 	bl	50002f80 <hc05_enter_at>
50002d5c:	e59f31f0 	ldr	r3, [pc, #496]	; 50002f54 <set_hc05+0x20c>
50002d60:	e58d3054 	str	r3, [sp, #84]	; 0x54
50002d64:	e59d3054 	ldr	r3, [sp, #84]	; 0x54
50002d68:	e2433001 	sub	r3, r3, #1
50002d6c:	e58d3054 	str	r3, [sp, #84]	; 0x54
50002d70:	e59d3054 	ldr	r3, [sp, #84]	; 0x54
50002d74:	e3530000 	cmp	r3, #0
50002d78:	1afffff9 	bne	50002d64 <set_hc05+0x1c>
50002d7c:	e59f01d4 	ldr	r0, [pc, #468]	; 50002f58 <set_hc05+0x210>
50002d80:	eb00008e 	bl	50002fc0 <hc05_cmd>
50002d84:	e59f01d0 	ldr	r0, [pc, #464]	; 50002f5c <set_hc05+0x214>
50002d88:	eb00008c 	bl	50002fc0 <hc05_cmd>
50002d8c:	e59f31c0 	ldr	r3, [pc, #448]	; 50002f54 <set_hc05+0x20c>
50002d90:	e58d3054 	str	r3, [sp, #84]	; 0x54
50002d94:	e59d3054 	ldr	r3, [sp, #84]	; 0x54
50002d98:	e2433001 	sub	r3, r3, #1
50002d9c:	e58d3054 	str	r3, [sp, #84]	; 0x54
50002da0:	e59d3054 	ldr	r3, [sp, #84]	; 0x54
50002da4:	e3530000 	cmp	r3, #0
50002da8:	1afffff9 	bne	50002d94 <set_hc05+0x4c>
50002dac:	e59f01a4 	ldr	r0, [pc, #420]	; 50002f58 <set_hc05+0x210>
50002db0:	eb000082 	bl	50002fc0 <hc05_cmd>
50002db4:	e59f31a4 	ldr	r3, [pc, #420]	; 50002f60 <set_hc05+0x218>
50002db8:	e58d3054 	str	r3, [sp, #84]	; 0x54
50002dbc:	e59d3054 	ldr	r3, [sp, #84]	; 0x54
50002dc0:	e2433001 	sub	r3, r3, #1
50002dc4:	e58d3054 	str	r3, [sp, #84]	; 0x54
50002dc8:	e59d3054 	ldr	r3, [sp, #84]	; 0x54
50002dcc:	e3530000 	cmp	r3, #0
50002dd0:	1afffff9 	bne	50002dbc <set_hc05+0x74>
50002dd4:	e59f3188 	ldr	r3, [pc, #392]	; 50002f64 <set_hc05+0x21c>
50002dd8:	e3a02001 	mov	r2, #1
50002ddc:	e5832000 	str	r2, [r3]
50002de0:	e59f0180 	ldr	r0, [pc, #384]	; 50002f68 <set_hc05+0x220>
50002de4:	ebfffb32 	bl	50001ab4 <uart_puts>
50002de8:	e59f017c 	ldr	r0, [pc, #380]	; 50002f6c <set_hc05+0x224>
50002dec:	ebfffb4a 	bl	50001b1c <uart_printf>
50002df0:	e1a0300d 	mov	r3, sp
50002df4:	e1a00003 	mov	r0, r3
50002df8:	ebfffc65 	bl	50001f94 <uart_gets>
50002dfc:	e59f016c 	ldr	r0, [pc, #364]	; 50002f70 <set_hc05+0x228>
50002e00:	ebfffb2b 	bl	50001ab4 <uart_puts>
50002e04:	e5dd3000 	ldrb	r3, [sp]
50002e08:	e3530000 	cmp	r3, #0
50002e0c:	1a000009 	bne	50002e38 <set_hc05+0xf0>
50002e10:	e1a00000 	nop			; (mov r0, r0)
50002e14:	eb000061 	bl	50002fa0 <hc05_exit_at>
50002e18:	e59f3144 	ldr	r3, [pc, #324]	; 50002f64 <set_hc05+0x21c>
50002e1c:	e3a02000 	mov	r2, #0
50002e20:	e5832000 	str	r2, [r3]
50002e24:	e59f012c 	ldr	r0, [pc, #300]	; 50002f58 <set_hc05+0x210>
50002e28:	eb000064 	bl	50002fc0 <hc05_cmd>
50002e2c:	e59f3120 	ldr	r3, [pc, #288]	; 50002f54 <set_hc05+0x20c>
50002e30:	e58d3054 	str	r3, [sp, #84]	; 0x54
50002e34:	ea00003c 	b	50002f2c <set_hc05+0x1e4>
50002e38:	e3a03000 	mov	r3, #0
50002e3c:	e58d3050 	str	r3, [sp, #80]	; 0x50
50002e40:	e3e03057 	mvn	r3, #87	; 0x57
50002e44:	e59d2050 	ldr	r2, [sp, #80]	; 0x50
50002e48:	e28d1058 	add	r1, sp, #88	; 0x58
50002e4c:	e0812002 	add	r2, r1, r2
50002e50:	e0823003 	add	r3, r2, r3
50002e54:	e5d33000 	ldrb	r3, [r3]
50002e58:	e3530000 	cmp	r3, #0
50002e5c:	1a00001d 	bne	50002ed8 <set_hc05+0x190>
50002e60:	e1a00000 	nop			; (mov r0, r0)
50002e64:	e3e03057 	mvn	r3, #87	; 0x57
50002e68:	e59d2050 	ldr	r2, [sp, #80]	; 0x50
50002e6c:	e28d1058 	add	r1, sp, #88	; 0x58
50002e70:	e0812002 	add	r2, r1, r2
50002e74:	e0823003 	add	r3, r2, r3
50002e78:	e3a0200d 	mov	r2, #13
50002e7c:	e5c32000 	strb	r2, [r3]
50002e80:	e59d3050 	ldr	r3, [sp, #80]	; 0x50
50002e84:	e2832001 	add	r2, r3, #1
50002e88:	e3e03057 	mvn	r3, #87	; 0x57
50002e8c:	e28d1058 	add	r1, sp, #88	; 0x58
50002e90:	e0812002 	add	r2, r1, r2
50002e94:	e0823003 	add	r3, r2, r3
50002e98:	e3a0200a 	mov	r2, #10
50002e9c:	e5c32000 	strb	r2, [r3]
50002ea0:	e59d3050 	ldr	r3, [sp, #80]	; 0x50
50002ea4:	e2832002 	add	r2, r3, #2
50002ea8:	e3e03057 	mvn	r3, #87	; 0x57
50002eac:	e28d1058 	add	r1, sp, #88	; 0x58
50002eb0:	e0812002 	add	r2, r1, r2
50002eb4:	e0823003 	add	r3, r2, r3
50002eb8:	e3a02000 	mov	r2, #0
50002ebc:	e5c32000 	strb	r2, [r3]
50002ec0:	e59f00ac 	ldr	r0, [pc, #172]	; 50002f74 <set_hc05+0x22c>
50002ec4:	ebfffb14 	bl	50001b1c <uart_printf>
50002ec8:	e1a0300d 	mov	r3, sp
50002ecc:	e1a00003 	mov	r0, r3
50002ed0:	eb00003a 	bl	50002fc0 <hc05_cmd>
50002ed4:	ea000003 	b	50002ee8 <set_hc05+0x1a0>
50002ed8:	e59d3050 	ldr	r3, [sp, #80]	; 0x50
50002edc:	e2833001 	add	r3, r3, #1
50002ee0:	e58d3050 	str	r3, [sp, #80]	; 0x50
50002ee4:	eaffffd5 	b	50002e40 <set_hc05+0xf8>
50002ee8:	e59f3088 	ldr	r3, [pc, #136]	; 50002f78 <set_hc05+0x230>
50002eec:	e5933000 	ldr	r3, [r3]
50002ef0:	e2033001 	and	r3, r3, #1
50002ef4:	e3530000 	cmp	r3, #0
50002ef8:	0a000003 	beq	50002f0c <set_hc05+0x1c4>
50002efc:	e1a00000 	nop			; (mov r0, r0)
50002f00:	e59f304c 	ldr	r3, [pc, #76]	; 50002f54 <set_hc05+0x20c>
50002f04:	e58d3054 	str	r3, [sp, #84]	; 0x54
50002f08:	ea000000 	b	50002f10 <set_hc05+0x1c8>
50002f0c:	eafffff5 	b	50002ee8 <set_hc05+0x1a0>
50002f10:	e59d3054 	ldr	r3, [sp, #84]	; 0x54
50002f14:	e2433001 	sub	r3, r3, #1
50002f18:	e58d3054 	str	r3, [sp, #84]	; 0x54
50002f1c:	e59d3054 	ldr	r3, [sp, #84]	; 0x54
50002f20:	e3530000 	cmp	r3, #0
50002f24:	1afffff9 	bne	50002f10 <set_hc05+0x1c8>
50002f28:	eaffffac 	b	50002de0 <set_hc05+0x98>
50002f2c:	e59d3054 	ldr	r3, [sp, #84]	; 0x54
50002f30:	e2433001 	sub	r3, r3, #1
50002f34:	e58d3054 	str	r3, [sp, #84]	; 0x54
50002f38:	e59d3054 	ldr	r3, [sp, #84]	; 0x54
50002f3c:	e3530000 	cmp	r3, #0
50002f40:	1afffff9 	bne	50002f2c <set_hc05+0x1e4>
50002f44:	e1a00000 	nop			; (mov r0, r0)
50002f48:	e28dd05c 	add	sp, sp, #92	; 0x5c
50002f4c:	e49de004 	pop	{lr}		; (ldr lr, [sp], #4)
50002f50:	e12fff1e 	bx	lr
50002f54:	0000ffff 	strdeq	pc, [r0], -pc	; <UNPREDICTABLE>
50002f58:	50010024 	andpl	r0, r1, r4, lsr #32
50002f5c:	50010030 	andpl	r0, r1, r0, lsr r0
50002f60:	000fffff 	strdeq	pc, [pc], -pc	; <UNPREDICTABLE>
50002f64:	50010d30 	andpl	r0, r1, r0, lsr sp
50002f68:	50010038 	andpl	r0, r1, r8, lsr r0
50002f6c:	50010070 	andpl	r0, r1, r0, ror r0
50002f70:	50010078 	andpl	r0, r1, r8, ror r0
50002f74:	5001007c 	andpl	r0, r1, ip, ror r0
50002f78:	7f005410 	svcvc	0x00005410

50002f7c <hc05_test>:
50002f7c:	e12fff1e 	bx	lr

50002f80 <hc05_enter_at>:
50002f80:	e59f3014 	ldr	r3, [pc, #20]	; 50002f9c <hc05_enter_at+0x1c>
50002f84:	e59f2010 	ldr	r2, [pc, #16]	; 50002f9c <hc05_enter_at+0x1c>
50002f88:	e5922000 	ldr	r2, [r2]
50002f8c:	e3822c01 	orr	r2, r2, #256	; 0x100
50002f90:	e5832000 	str	r2, [r3]
50002f94:	e1a00000 	nop			; (mov r0, r0)
50002f98:	e12fff1e 	bx	lr
50002f9c:	7f008164 	svcvc	0x00008164

50002fa0 <hc05_exit_at>:
50002fa0:	e59f3014 	ldr	r3, [pc, #20]	; 50002fbc <hc05_exit_at+0x1c>
50002fa4:	e59f2010 	ldr	r2, [pc, #16]	; 50002fbc <hc05_exit_at+0x1c>
50002fa8:	e5922000 	ldr	r2, [r2]
50002fac:	e3c22c01 	bic	r2, r2, #256	; 0x100
50002fb0:	e5832000 	str	r2, [r3]
50002fb4:	e1a00000 	nop			; (mov r0, r0)
50002fb8:	e12fff1e 	bx	lr
50002fbc:	7f008164 	svcvc	0x00008164

50002fc0 <hc05_cmd>:
50002fc0:	e52de004 	push	{lr}		; (str lr, [sp, #-4]!)
50002fc4:	e24dd00c 	sub	sp, sp, #12
50002fc8:	e58d0004 	str	r0, [sp, #4]
50002fcc:	e59d0004 	ldr	r0, [sp, #4]
50002fd0:	eb000072 	bl	500031a0 <uart_1_puts>
50002fd4:	e1a00000 	nop			; (mov r0, r0)
50002fd8:	e28dd00c 	add	sp, sp, #12
50002fdc:	e49de004 	pop	{lr}		; (ldr lr, [sp], #4)
50002fe0:	e12fff1e 	bx	lr

50002fe4 <hc05_state>:
50002fe4:	e59f2014 	ldr	r2, [pc, #20]	; 50003000 <hc05_state+0x1c>
50002fe8:	e59f3010 	ldr	r3, [pc, #16]	; 50003000 <hc05_state+0x1c>
50002fec:	e5933000 	ldr	r3, [r3]
50002ff0:	e2033002 	and	r3, r3, #2
50002ff4:	e5823000 	str	r3, [r2]
50002ff8:	e1a00003 	mov	r0, r3
50002ffc:	e12fff1e 	bx	lr
50003000:	7f008164 	svcvc	0x00008164

50003004 <hc05_putc>:
50003004:	e52de004 	push	{lr}		; (str lr, [sp, #-4]!)
50003008:	e24dd00c 	sub	sp, sp, #12
5000300c:	e1a03000 	mov	r3, r0
50003010:	e5cd3007 	strb	r3, [sp, #7]
50003014:	e5dd3007 	ldrb	r3, [sp, #7]
50003018:	e1a00003 	mov	r0, r3
5000301c:	eb00004d 	bl	50003158 <uart_1_putc>
50003020:	e1a00000 	nop			; (mov r0, r0)
50003024:	e28dd00c 	add	sp, sp, #12
50003028:	e49de004 	pop	{lr}		; (ldr lr, [sp], #4)
5000302c:	e12fff1e 	bx	lr

50003030 <hc05_puts>:
50003030:	e52de004 	push	{lr}		; (str lr, [sp, #-4]!)
50003034:	e24dd00c 	sub	sp, sp, #12
50003038:	e58d0004 	str	r0, [sp, #4]
5000303c:	e59d0004 	ldr	r0, [sp, #4]
50003040:	eb000056 	bl	500031a0 <uart_1_puts>
50003044:	e1a00000 	nop			; (mov r0, r0)
50003048:	e28dd00c 	add	sp, sp, #12
5000304c:	e49de004 	pop	{lr}		; (ldr lr, [sp], #4)
50003050:	e12fff1e 	bx	lr

50003054 <init_uart_1>:
50003054:	e52de004 	push	{lr}		; (str lr, [sp, #-4]!)
50003058:	e24dd00c 	sub	sp, sp, #12
5000305c:	e58d0004 	str	r0, [sp, #4]
50003060:	e59f30c8 	ldr	r3, [pc, #200]	; 50003130 <init_uart_1+0xdc>
50003064:	e59f20c4 	ldr	r2, [pc, #196]	; 50003130 <init_uart_1+0xdc>
50003068:	e5922000 	ldr	r2, [r2]
5000306c:	e3c228ff 	bic	r2, r2, #16711680	; 0xff0000
50003070:	e5832000 	str	r2, [r3]
50003074:	e59f30b4 	ldr	r3, [pc, #180]	; 50003130 <init_uart_1+0xdc>
50003078:	e59f20b0 	ldr	r2, [pc, #176]	; 50003130 <init_uart_1+0xdc>
5000307c:	e5922000 	ldr	r2, [r2]
50003080:	e3822822 	orr	r2, r2, #2228224	; 0x220000
50003084:	e5832000 	str	r2, [r3]
50003088:	e59f30a4 	ldr	r3, [pc, #164]	; 50003134 <init_uart_1+0xe0>
5000308c:	e59f20a0 	ldr	r2, [pc, #160]	; 50003134 <init_uart_1+0xe0>
50003090:	e5922000 	ldr	r2, [r2]
50003094:	e3c22c0f 	bic	r2, r2, #3840	; 0xf00
50003098:	e5832000 	str	r2, [r3]
5000309c:	e3a00001 	mov	r0, #1
500030a0:	e59d1004 	ldr	r1, [sp, #4]
500030a4:	ebfff999 	bl	50001710 <set_uart_baud_rate>
500030a8:	e59f3088 	ldr	r3, [pc, #136]	; 50003138 <init_uart_1+0xe4>
500030ac:	e3a02003 	mov	r2, #3
500030b0:	e5832000 	str	r2, [r3]
500030b4:	e59f2080 	ldr	r2, [pc, #128]	; 5000313c <init_uart_1+0xe8>
500030b8:	e59f307c 	ldr	r3, [pc, #124]	; 5000313c <init_uart_1+0xe8>
500030bc:	e5933000 	ldr	r3, [r3]
500030c0:	e3c33eff 	bic	r3, r3, #4080	; 0xff0
500030c4:	e3c3300f 	bic	r3, r3, #15
500030c8:	e3833c0b 	orr	r3, r3, #2816	; 0xb00
500030cc:	e3833005 	orr	r3, r3, #5
500030d0:	e5823000 	str	r3, [r2]
500030d4:	e59f3064 	ldr	r3, [pc, #100]	; 50003140 <init_uart_1+0xec>
500030d8:	e3a02000 	mov	r2, #0
500030dc:	e5832000 	str	r2, [r3]
500030e0:	e59f305c 	ldr	r3, [pc, #92]	; 50003144 <init_uart_1+0xf0>
500030e4:	e3a02000 	mov	r2, #0
500030e8:	e5832000 	str	r2, [r3]
500030ec:	e59f3054 	ldr	r3, [pc, #84]	; 50003148 <init_uart_1+0xf4>
500030f0:	e59f2050 	ldr	r2, [pc, #80]	; 50003148 <init_uart_1+0xf4>
500030f4:	e5922000 	ldr	r2, [r2]
500030f8:	e3c22001 	bic	r2, r2, #1
500030fc:	e5832000 	str	r2, [r3]
50003100:	e59f3044 	ldr	r3, [pc, #68]	; 5000314c <init_uart_1+0xf8>
50003104:	e59f2040 	ldr	r2, [pc, #64]	; 5000314c <init_uart_1+0xf8>
50003108:	e5922000 	ldr	r2, [r2]
5000310c:	e3822040 	orr	r2, r2, #64	; 0x40
50003110:	e5832000 	str	r2, [r3]
50003114:	e59f3034 	ldr	r3, [pc, #52]	; 50003150 <init_uart_1+0xfc>
50003118:	e59f2034 	ldr	r2, [pc, #52]	; 50003154 <init_uart_1+0x100>
5000311c:	e5832000 	str	r2, [r3]
50003120:	e1a00000 	nop			; (mov r0, r0)
50003124:	e28dd00c 	add	sp, sp, #12
50003128:	e49de004 	pop	{lr}		; (ldr lr, [sp], #4)
5000312c:	e12fff1e 	bx	lr
50003130:	7f008000 	svcvc	0x00008000
50003134:	7f008008 	svcvc	0x00008008
50003138:	7f005400 	svcvc	0x00005400
5000313c:	7f005404 	svcvc	0x00005404
50003140:	7f005408 	svcvc	0x00005408
50003144:	7f00540c 	svcvc	0x0000540c
50003148:	7f005438 	svcvc	0x00005438
5000314c:	71300010 	teqvc	r0, r0, lsl r0
50003150:	71300118 	teqvc	r0, r8, lsl r1
50003154:	500032cc 	andpl	r3, r0, ip, asr #5

50003158 <uart_1_putc>:
50003158:	e24dd008 	sub	sp, sp, #8
5000315c:	e1a03000 	mov	r3, r0
50003160:	e5cd3007 	strb	r3, [sp, #7]
50003164:	e59f302c 	ldr	r3, [pc, #44]	; 50003198 <uart_1_putc+0x40>
50003168:	e5933000 	ldr	r3, [r3]
5000316c:	e2033006 	and	r3, r3, #6
50003170:	e3530006 	cmp	r3, #6
50003174:	1a000000 	bne	5000317c <uart_1_putc+0x24>
50003178:	ea000000 	b	50003180 <uart_1_putc+0x28>
5000317c:	eafffff8 	b	50003164 <uart_1_putc+0xc>
50003180:	e59f3014 	ldr	r3, [pc, #20]	; 5000319c <uart_1_putc+0x44>
50003184:	e5dd2007 	ldrb	r2, [sp, #7]
50003188:	e5832000 	str	r2, [r3]
5000318c:	e1a00000 	nop			; (mov r0, r0)
50003190:	e28dd008 	add	sp, sp, #8
50003194:	e12fff1e 	bx	lr
50003198:	7f005410 	svcvc	0x00005410
5000319c:	7f005420 	svcvc	0x00005420

500031a0 <uart_1_puts>:
500031a0:	e52de004 	push	{lr}		; (str lr, [sp, #-4]!)
500031a4:	e24dd014 	sub	sp, sp, #20
500031a8:	e58d0004 	str	r0, [sp, #4]
500031ac:	e3a03000 	mov	r3, #0
500031b0:	e58d300c 	str	r3, [sp, #12]
500031b4:	ea000008 	b	500031dc <uart_1_puts+0x3c>
500031b8:	e59d300c 	ldr	r3, [sp, #12]
500031bc:	e59d2004 	ldr	r2, [sp, #4]
500031c0:	e0823003 	add	r3, r2, r3
500031c4:	e5d33000 	ldrb	r3, [r3]
500031c8:	e1a00003 	mov	r0, r3
500031cc:	ebffffe1 	bl	50003158 <uart_1_putc>
500031d0:	e59d300c 	ldr	r3, [sp, #12]
500031d4:	e2833001 	add	r3, r3, #1
500031d8:	e58d300c 	str	r3, [sp, #12]
500031dc:	e59d300c 	ldr	r3, [sp, #12]
500031e0:	e59d2004 	ldr	r2, [sp, #4]
500031e4:	e0823003 	add	r3, r2, r3
500031e8:	e5d33000 	ldrb	r3, [r3]
500031ec:	e3530000 	cmp	r3, #0
500031f0:	1afffff0 	bne	500031b8 <uart_1_puts+0x18>
500031f4:	e1a00000 	nop			; (mov r0, r0)
500031f8:	e28dd014 	add	sp, sp, #20
500031fc:	e49de004 	pop	{lr}		; (ldr lr, [sp], #4)
50003200:	e12fff1e 	bx	lr

50003204 <uart_1_printf>:
50003204:	e52de004 	push	{lr}		; (str lr, [sp, #-4]!)
50003208:	e24dd014 	sub	sp, sp, #20
5000320c:	e58d0004 	str	r0, [sp, #4]
50003210:	e3a03000 	mov	r3, #0
50003214:	e58d300c 	str	r3, [sp, #12]
50003218:	ea000008 	b	50003240 <uart_1_printf+0x3c>
5000321c:	e59d300c 	ldr	r3, [sp, #12]
50003220:	e59d2004 	ldr	r2, [sp, #4]
50003224:	e0823003 	add	r3, r2, r3
50003228:	e5d33000 	ldrb	r3, [r3]
5000322c:	e1a00003 	mov	r0, r3
50003230:	ebffffc8 	bl	50003158 <uart_1_putc>
50003234:	e59d300c 	ldr	r3, [sp, #12]
50003238:	e2833001 	add	r3, r3, #1
5000323c:	e58d300c 	str	r3, [sp, #12]
50003240:	e59d300c 	ldr	r3, [sp, #12]
50003244:	e59d2004 	ldr	r2, [sp, #4]
50003248:	e0823003 	add	r3, r2, r3
5000324c:	e5d33000 	ldrb	r3, [r3]
50003250:	e3530000 	cmp	r3, #0
50003254:	1afffff0 	bne	5000321c <uart_1_printf+0x18>
50003258:	e1a00000 	nop			; (mov r0, r0)
5000325c:	e28dd014 	add	sp, sp, #20
50003260:	e49de004 	pop	{lr}		; (ldr lr, [sp], #4)
50003264:	e12fff1e 	bx	lr

50003268 <uart_1_getc>:
50003268:	e1a00000 	nop			; (mov r0, r0)
5000326c:	e59f3024 	ldr	r3, [pc, #36]	; 50003298 <uart_1_getc+0x30>
50003270:	e5933000 	ldr	r3, [r3]
50003274:	e3530000 	cmp	r3, #0
50003278:	0afffffb 	beq	5000326c <uart_1_getc+0x4>
5000327c:	e59f3014 	ldr	r3, [pc, #20]	; 50003298 <uart_1_getc+0x30>
50003280:	e3a02000 	mov	r2, #0
50003284:	e5832000 	str	r2, [r3]
50003288:	e59f300c 	ldr	r3, [pc, #12]	; 5000329c <uart_1_getc+0x34>
5000328c:	e5d33000 	ldrb	r3, [r3]
50003290:	e1a00003 	mov	r0, r3
50003294:	e12fff1e 	bx	lr
50003298:	50010d2c 	andpl	r0, r1, ip, lsr #26
5000329c:	5001153c 	andpl	r1, r1, ip, lsr r5

500032a0 <uart_1_gets>:
500032a0:	e1a00000 	nop			; (mov r0, r0)
500032a4:	e59f301c 	ldr	r3, [pc, #28]	; 500032c8 <uart_1_gets+0x28>
500032a8:	e5933000 	ldr	r3, [r3]
500032ac:	e3530000 	cmp	r3, #0
500032b0:	0afffffb 	beq	500032a4 <uart_1_gets+0x4>
500032b4:	e59f300c 	ldr	r3, [pc, #12]	; 500032c8 <uart_1_gets+0x28>
500032b8:	e3a02000 	mov	r2, #0
500032bc:	e5832000 	str	r2, [r3]
500032c0:	e1a00000 	nop			; (mov r0, r0)
500032c4:	e12fff1e 	bx	lr
500032c8:	50010d2c 	andpl	r0, r1, ip, lsr #26

500032cc <uart_1_isr>:
500032cc:	e92d4008 	push	{r3, lr}
500032d0:	e59f3120 	ldr	r3, [pc, #288]	; 500033f8 <uart_1_isr+0x12c>
500032d4:	e5933000 	ldr	r3, [r3]
500032d8:	e2033001 	and	r3, r3, #1
500032dc:	e3530000 	cmp	r3, #0
500032e0:	0a00003b 	beq	500033d4 <uart_1_isr+0x108>
500032e4:	e59f3110 	ldr	r3, [pc, #272]	; 500033fc <uart_1_isr+0x130>
500032e8:	e5933000 	ldr	r3, [r3]
500032ec:	e3530000 	cmp	r3, #0
500032f0:	0a000004 	beq	50003308 <uart_1_isr+0x3c>
500032f4:	e59f3104 	ldr	r3, [pc, #260]	; 50003400 <uart_1_isr+0x134>
500032f8:	e5933000 	ldr	r3, [r3]
500032fc:	e20330ff 	and	r3, r3, #255	; 0xff
50003300:	e1a00003 	mov	r0, r3
50003304:	ebfff9d8 	bl	50001a6c <uart_putc>
50003308:	e59f30ec 	ldr	r3, [pc, #236]	; 500033fc <uart_1_isr+0x130>
5000330c:	e5933000 	ldr	r3, [r3]
50003310:	e3530000 	cmp	r3, #0
50003314:	1a00002e 	bne	500033d4 <uart_1_isr+0x108>
50003318:	e59f30e4 	ldr	r3, [pc, #228]	; 50003404 <uart_1_isr+0x138>
5000331c:	e5933000 	ldr	r3, [r3]
50003320:	e59f20d8 	ldr	r2, [pc, #216]	; 50003400 <uart_1_isr+0x134>
50003324:	e5922000 	ldr	r2, [r2]
50003328:	e20210ff 	and	r1, r2, #255	; 0xff
5000332c:	e59f20d4 	ldr	r2, [pc, #212]	; 50003408 <uart_1_isr+0x13c>
50003330:	e7c21003 	strb	r1, [r2, r3]
50003334:	e59f30c8 	ldr	r3, [pc, #200]	; 50003404 <uart_1_isr+0x138>
50003338:	e5933000 	ldr	r3, [r3]
5000333c:	e3530000 	cmp	r3, #0
50003340:	da00001e 	ble	500033c0 <uart_1_isr+0xf4>
50003344:	e59f30b8 	ldr	r3, [pc, #184]	; 50003404 <uart_1_isr+0x138>
50003348:	e5933000 	ldr	r3, [r3]
5000334c:	e2433001 	sub	r3, r3, #1
50003350:	e59f20b0 	ldr	r2, [pc, #176]	; 50003408 <uart_1_isr+0x13c>
50003354:	e7d23003 	ldrb	r3, [r2, r3]
50003358:	e353000d 	cmp	r3, #13
5000335c:	1a000017 	bne	500033c0 <uart_1_isr+0xf4>
50003360:	e59f309c 	ldr	r3, [pc, #156]	; 50003404 <uart_1_isr+0x138>
50003364:	e5933000 	ldr	r3, [r3]
50003368:	e59f2098 	ldr	r2, [pc, #152]	; 50003408 <uart_1_isr+0x13c>
5000336c:	e7d23003 	ldrb	r3, [r2, r3]
50003370:	e353000a 	cmp	r3, #10
50003374:	1a000011 	bne	500033c0 <uart_1_isr+0xf4>
50003378:	e59f3084 	ldr	r3, [pc, #132]	; 50003404 <uart_1_isr+0x138>
5000337c:	e5933000 	ldr	r3, [r3]
50003380:	e2833001 	add	r3, r3, #1
50003384:	e59f207c 	ldr	r2, [pc, #124]	; 50003408 <uart_1_isr+0x13c>
50003388:	e3a01000 	mov	r1, #0
5000338c:	e7c21003 	strb	r1, [r2, r3]
50003390:	e59f3074 	ldr	r3, [pc, #116]	; 5000340c <uart_1_isr+0x140>
50003394:	e3a02001 	mov	r2, #1
50003398:	e5832000 	str	r2, [r3]
5000339c:	e59f3060 	ldr	r3, [pc, #96]	; 50003404 <uart_1_isr+0x138>
500033a0:	e3a02000 	mov	r2, #0
500033a4:	e5832000 	str	r2, [r3]
500033a8:	e59f0058 	ldr	r0, [pc, #88]	; 50003408 <uart_1_isr+0x13c>
500033ac:	ebfff9da 	bl	50001b1c <uart_printf>
500033b0:	e59f3054 	ldr	r3, [pc, #84]	; 5000340c <uart_1_isr+0x140>
500033b4:	e3a02000 	mov	r2, #0
500033b8:	e5832000 	str	r2, [r3]
500033bc:	ea000004 	b	500033d4 <uart_1_isr+0x108>
500033c0:	e59f303c 	ldr	r3, [pc, #60]	; 50003404 <uart_1_isr+0x138>
500033c4:	e5933000 	ldr	r3, [r3]
500033c8:	e2832001 	add	r2, r3, #1
500033cc:	e59f3030 	ldr	r3, [pc, #48]	; 50003404 <uart_1_isr+0x138>
500033d0:	e5832000 	str	r2, [r3]
500033d4:	e59f3034 	ldr	r3, [pc, #52]	; 50003410 <uart_1_isr+0x144>
500033d8:	e3a0200f 	mov	r2, #15
500033dc:	e5832000 	str	r2, [r3]
500033e0:	e59f302c 	ldr	r3, [pc, #44]	; 50003414 <uart_1_isr+0x148>
500033e4:	e3a02000 	mov	r2, #0
500033e8:	e5832000 	str	r2, [r3]
500033ec:	e1a00000 	nop			; (mov r0, r0)
500033f0:	e8bd4008 	pop	{r3, lr}
500033f4:	e12fff1e 	bx	lr
500033f8:	7f005410 	svcvc	0x00005410
500033fc:	50010d30 	andpl	r0, r1, r0, lsr sp
50003400:	7f005424 	svcvc	0x00005424
50003404:	50010d28 	andpl	r0, r1, r8, lsr #26
50003408:	5001153c 	andpl	r1, r1, ip, lsr r5
5000340c:	50010d2c 	andpl	r0, r1, ip, lsr #26
50003410:	7f005430 	svcvc	0x00005430
50003414:	71300f00 	teqvc	r0, r0, lsl #30

50003418 <init_buzzer>:
50003418:	e59f303c 	ldr	r3, [pc, #60]	; 5000345c <init_buzzer+0x44>
5000341c:	e59f2038 	ldr	r2, [pc, #56]	; 5000345c <init_buzzer+0x44>
50003420:	e5922000 	ldr	r2, [r2]
50003424:	e3c22103 	bic	r2, r2, #-1073741824	; 0xc0000000
50003428:	e5832000 	str	r2, [r3]
5000342c:	e59f3028 	ldr	r3, [pc, #40]	; 5000345c <init_buzzer+0x44>
50003430:	e59f2024 	ldr	r2, [pc, #36]	; 5000345c <init_buzzer+0x44>
50003434:	e5922000 	ldr	r2, [r2]
50003438:	e3822101 	orr	r2, r2, #1073741824	; 0x40000000
5000343c:	e5832000 	str	r2, [r3]
50003440:	e59f3018 	ldr	r3, [pc, #24]	; 50003460 <init_buzzer+0x48>
50003444:	e59f2014 	ldr	r2, [pc, #20]	; 50003460 <init_buzzer+0x48>
50003448:	e5922000 	ldr	r2, [r2]
5000344c:	e3c22103 	bic	r2, r2, #-1073741824	; 0xc0000000
50003450:	e5832000 	str	r2, [r3]
50003454:	e1a00000 	nop			; (mov r0, r0)
50003458:	e12fff1e 	bx	lr
5000345c:	7f0080a0 	svcvc	0x000080a0
50003460:	7f0080a8 	svcvc	0x000080a8

50003464 <turn_on_buzzer>:
50003464:	e59f3014 	ldr	r3, [pc, #20]	; 50003480 <turn_on_buzzer+0x1c>
50003468:	e59f2010 	ldr	r2, [pc, #16]	; 50003480 <turn_on_buzzer+0x1c>
5000346c:	e5922000 	ldr	r2, [r2]
50003470:	e3822902 	orr	r2, r2, #32768	; 0x8000
50003474:	e5832000 	str	r2, [r3]
50003478:	e1a00000 	nop			; (mov r0, r0)
5000347c:	e12fff1e 	bx	lr
50003480:	7f0080a4 	svcvc	0x000080a4

50003484 <turn_off_buzzer>:
50003484:	e59f3014 	ldr	r3, [pc, #20]	; 500034a0 <turn_off_buzzer+0x1c>
50003488:	e59f2010 	ldr	r2, [pc, #16]	; 500034a0 <turn_off_buzzer+0x1c>
5000348c:	e5922000 	ldr	r2, [r2]
50003490:	e3c22902 	bic	r2, r2, #32768	; 0x8000
50003494:	e5832000 	str	r2, [r3]
50003498:	e1a00000 	nop			; (mov r0, r0)
5000349c:	e12fff1e 	bx	lr
500034a0:	7f0080a4 	svcvc	0x000080a4

500034a4 <handle_und>:
500034a4:	e92d4008 	push	{r3, lr}
500034a8:	e59f0004 	ldr	r0, [pc, #4]	; 500034b4 <handle_und+0x10>
500034ac:	ebfff980 	bl	50001ab4 <uart_puts>
500034b0:	eafffffe 	b	500034b0 <handle_und+0xc>
500034b4:	50010084 	andpl	r0, r1, r4, lsl #1

500034b8 <handle_swi>:
500034b8:	e1a00000 	nop			; (mov r0, r0)
500034bc:	e12fff1e 	bx	lr

500034c0 <handle_pabt>:
500034c0:	e92d4008 	push	{r3, lr}
500034c4:	e59f0004 	ldr	r0, [pc, #4]	; 500034d0 <handle_pabt+0x10>
500034c8:	ebfff979 	bl	50001ab4 <uart_puts>
500034cc:	eafffffe 	b	500034cc <handle_pabt+0xc>
500034d0:	5001009c 	mulpl	r1, ip, r0

500034d4 <handle_dabt>:
500034d4:	e92d4008 	push	{r3, lr}
500034d8:	e59f0004 	ldr	r0, [pc, #4]	; 500034e4 <handle_dabt+0x10>
500034dc:	ebfff974 	bl	50001ab4 <uart_puts>
500034e0:	eafffffe 	b	500034e0 <handle_dabt+0xc>
500034e4:	500100ac 	andpl	r0, r1, ip, lsr #1

500034e8 <handle_irq>:
500034e8:	e92d4008 	push	{r3, lr}
500034ec:	e59f0004 	ldr	r0, [pc, #4]	; 500034f8 <handle_irq+0x10>
500034f0:	ebfff96f 	bl	50001ab4 <uart_puts>
500034f4:	eafffffe 	b	500034f4 <handle_irq+0xc>
500034f8:	500100b8 	strhpl	r0, [r1], -r8

500034fc <handle_fiq>:
500034fc:	e92d4008 	push	{r3, lr}
50003500:	e59f0004 	ldr	r0, [pc, #4]	; 5000350c <handle_fiq+0x10>
50003504:	ebfff96a 	bl	50001ab4 <uart_puts>
50003508:	eafffffe 	b	50003508 <handle_fiq+0xc>
5000350c:	500100c0 	andpl	r0, r1, r0, asr #1

50003510 <OS_CPU_IRQ_ISR_Handler>:
50003510:	e52de004 	push	{lr}		; (str lr, [sp, #-4]!)
50003514:	e24dd00c 	sub	sp, sp, #12
50003518:	e59f3048 	ldr	r3, [pc, #72]	; 50003568 <OS_CPU_IRQ_ISR_Handler+0x58>
5000351c:	e5933000 	ldr	r3, [r3]
50003520:	e3530000 	cmp	r3, #0
50003524:	0a000003 	beq	50003538 <OS_CPU_IRQ_ISR_Handler+0x28>
50003528:	e59f303c 	ldr	r3, [pc, #60]	; 5000356c <OS_CPU_IRQ_ISR_Handler+0x5c>
5000352c:	e5933000 	ldr	r3, [r3]
50003530:	e58d3004 	str	r3, [sp, #4]
50003534:	ea000006 	b	50003554 <OS_CPU_IRQ_ISR_Handler+0x44>
50003538:	e59f3030 	ldr	r3, [pc, #48]	; 50003570 <OS_CPU_IRQ_ISR_Handler+0x60>
5000353c:	e5933000 	ldr	r3, [r3]
50003540:	e3530000 	cmp	r3, #0
50003544:	0a000002 	beq	50003554 <OS_CPU_IRQ_ISR_Handler+0x44>
50003548:	e59f3024 	ldr	r3, [pc, #36]	; 50003574 <OS_CPU_IRQ_ISR_Handler+0x64>
5000354c:	e5933000 	ldr	r3, [r3]
50003550:	e58d3004 	str	r3, [sp, #4]
50003554:	e59d3004 	ldr	r3, [sp, #4]
50003558:	e12fff33 	blx	r3
5000355c:	e1a00000 	nop			; (mov r0, r0)
50003560:	e28dd00c 	add	sp, sp, #12
50003564:	e49df004 	pop	{pc}		; (ldr pc, [sp], #4)
50003568:	71200000 	teqvc	r0, r0
5000356c:	71200f00 	teqvc	r0, r0, lsl #30
50003570:	71300000 	teqvc	r0, r0
50003574:	71300f00 	teqvc	r0, r0, lsl #30

50003578 <OS_CPU_FIQ_ISR_Handler>:
50003578:	e92d4008 	push	{r3, lr}
5000357c:	e59f0004 	ldr	r0, [pc, #4]	; 50003588 <OS_CPU_FIQ_ISR_Handler+0x10>
50003580:	ebfff94b 	bl	50001ab4 <uart_puts>
50003584:	eafffffe 	b	50003584 <OS_CPU_FIQ_ISR_Handler+0xc>
50003588:	500100c0 	andpl	r0, r1, r0, asr #1

5000358c <init_key>:
5000358c:	e59f20b8 	ldr	r2, [pc, #184]	; 5000364c <init_key+0xc0>
50003590:	e59f30b4 	ldr	r3, [pc, #180]	; 5000364c <init_key+0xc0>
50003594:	e5933000 	ldr	r3, [r3]
50003598:	e3c33eff 	bic	r3, r3, #4080	; 0xff0
5000359c:	e3c3300f 	bic	r3, r3, #15
500035a0:	e5823000 	str	r3, [r2]
500035a4:	e59f20a0 	ldr	r2, [pc, #160]	; 5000364c <init_key+0xc0>
500035a8:	e59f309c 	ldr	r3, [pc, #156]	; 5000364c <init_key+0xc0>
500035ac:	e5933000 	ldr	r3, [r3]
500035b0:	e3833eaa 	orr	r3, r3, #2720	; 0xaa0
500035b4:	e383300a 	orr	r3, r3, #10
500035b8:	e5823000 	str	r3, [r2]
500035bc:	e59f208c 	ldr	r2, [pc, #140]	; 50003650 <init_key+0xc4>
500035c0:	e59f3088 	ldr	r3, [pc, #136]	; 50003650 <init_key+0xc4>
500035c4:	e5933000 	ldr	r3, [r3]
500035c8:	e3c33eff 	bic	r3, r3, #4080	; 0xff0
500035cc:	e3c3300f 	bic	r3, r3, #15
500035d0:	e5823000 	str	r3, [r2]
500035d4:	e59f2078 	ldr	r2, [pc, #120]	; 50003654 <init_key+0xc8>
500035d8:	e59f3074 	ldr	r3, [pc, #116]	; 50003654 <init_key+0xc8>
500035dc:	e5933000 	ldr	r3, [r3]
500035e0:	e3c33eff 	bic	r3, r3, #4080	; 0xff0
500035e4:	e3c3300f 	bic	r3, r3, #15
500035e8:	e5823000 	str	r3, [r2]
500035ec:	e59f2060 	ldr	r2, [pc, #96]	; 50003654 <init_key+0xc8>
500035f0:	e59f305c 	ldr	r3, [pc, #92]	; 50003654 <init_key+0xc8>
500035f4:	e5933000 	ldr	r3, [r3]
500035f8:	e3833d11 	orr	r3, r3, #1088	; 0x440
500035fc:	e3833004 	orr	r3, r3, #4
50003600:	e5823000 	str	r3, [r2]
50003604:	e59f304c 	ldr	r3, [pc, #76]	; 50003658 <init_key+0xcc>
50003608:	e59f2048 	ldr	r2, [pc, #72]	; 50003658 <init_key+0xcc>
5000360c:	e5922000 	ldr	r2, [r2]
50003610:	e3c2203f 	bic	r2, r2, #63	; 0x3f
50003614:	e5832000 	str	r2, [r3]
50003618:	e59f303c 	ldr	r3, [pc, #60]	; 5000365c <init_key+0xd0>
5000361c:	e59f2038 	ldr	r2, [pc, #56]	; 5000365c <init_key+0xd0>
50003620:	e5922000 	ldr	r2, [r2]
50003624:	e3822003 	orr	r2, r2, #3
50003628:	e5832000 	str	r2, [r3]
5000362c:	e59f302c 	ldr	r3, [pc, #44]	; 50003660 <init_key+0xd4>
50003630:	e59f202c 	ldr	r2, [pc, #44]	; 50003664 <init_key+0xd8>
50003634:	e5832000 	str	r2, [r3]
50003638:	e59f3028 	ldr	r3, [pc, #40]	; 50003668 <init_key+0xdc>
5000363c:	e59f2020 	ldr	r2, [pc, #32]	; 50003664 <init_key+0xd8>
50003640:	e5832000 	str	r2, [r3]
50003644:	e1a00000 	nop			; (mov r0, r0)
50003648:	e12fff1e 	bx	lr
5000364c:	7f008830 	svcvc	0x00008830
50003650:	7f008838 	svcvc	0x00008838
50003654:	7f008900 	svcvc	0x00008900
50003658:	7f008920 	svcvc	0x00008920
5000365c:	71200010 	teqvc	r0, r0, lsl r0
50003660:	71200100 	teqvc	r0, r0, lsl #2
50003664:	5000366c 	andpl	r3, r0, ip, ror #12
50003668:	71200104 	teqvc	r0, r4, lsl #2

5000366c <key_isr>:
5000366c:	e52de004 	push	{lr}		; (str lr, [sp, #-4]!)
50003670:	e24dd00c 	sub	sp, sp, #12
50003674:	e59f30fc 	ldr	r3, [pc, #252]	; 50003778 <key_isr+0x10c>
50003678:	e5933000 	ldr	r3, [r3]
5000367c:	e203303f 	and	r3, r3, #63	; 0x3f
50003680:	e58d3004 	str	r3, [sp, #4]
50003684:	e59d3004 	ldr	r3, [sp, #4]
50003688:	e2433001 	sub	r3, r3, #1
5000368c:	e353001f 	cmp	r3, #31
50003690:	979ff103 	ldrls	pc, [pc, r3, lsl #2]
50003694:	ea00002b 	b	50003748 <key_isr+0xdc>
50003698:	50003718 	andpl	r3, r0, r8, lsl r7
5000369c:	50003720 	andpl	r3, r0, r0, lsr #14
500036a0:	50003748 	andpl	r3, r0, r8, asr #14
500036a4:	50003728 	andpl	r3, r0, r8, lsr #14
500036a8:	50003748 	andpl	r3, r0, r8, asr #14
500036ac:	50003748 	andpl	r3, r0, r8, asr #14
500036b0:	50003748 	andpl	r3, r0, r8, asr #14
500036b4:	50003730 	andpl	r3, r0, r0, lsr r7
500036b8:	50003748 	andpl	r3, r0, r8, asr #14
500036bc:	50003748 	andpl	r3, r0, r8, asr #14
500036c0:	50003748 	andpl	r3, r0, r8, asr #14
500036c4:	50003748 	andpl	r3, r0, r8, asr #14
500036c8:	50003748 	andpl	r3, r0, r8, asr #14
500036cc:	50003748 	andpl	r3, r0, r8, asr #14
500036d0:	50003748 	andpl	r3, r0, r8, asr #14
500036d4:	50003738 	andpl	r3, r0, r8, lsr r7
500036d8:	50003748 	andpl	r3, r0, r8, asr #14
500036dc:	50003748 	andpl	r3, r0, r8, asr #14
500036e0:	50003748 	andpl	r3, r0, r8, asr #14
500036e4:	50003748 	andpl	r3, r0, r8, asr #14
500036e8:	50003748 	andpl	r3, r0, r8, asr #14
500036ec:	50003748 	andpl	r3, r0, r8, asr #14
500036f0:	50003748 	andpl	r3, r0, r8, asr #14
500036f4:	50003748 	andpl	r3, r0, r8, asr #14
500036f8:	50003748 	andpl	r3, r0, r8, asr #14
500036fc:	50003748 	andpl	r3, r0, r8, asr #14
50003700:	50003748 	andpl	r3, r0, r8, asr #14
50003704:	50003748 	andpl	r3, r0, r8, asr #14
50003708:	50003748 	andpl	r3, r0, r8, asr #14
5000370c:	50003748 	andpl	r3, r0, r8, asr #14
50003710:	50003748 	andpl	r3, r0, r8, asr #14
50003714:	50003740 	andpl	r3, r0, r0, asr #14
50003718:	eb000018 	bl	50003780 <key_1_handler>
5000371c:	ea00000a 	b	5000374c <key_isr+0xe0>
50003720:	eb00001c 	bl	50003798 <key_2_handler>
50003724:	ea000008 	b	5000374c <key_isr+0xe0>
50003728:	eb000020 	bl	500037b0 <key_3_handler>
5000372c:	ea000006 	b	5000374c <key_isr+0xe0>
50003730:	eb000024 	bl	500037c8 <key_4_handler>
50003734:	ea000004 	b	5000374c <key_isr+0xe0>
50003738:	eb000028 	bl	500037e0 <key_5_handler>
5000373c:	ea000002 	b	5000374c <key_isr+0xe0>
50003740:	eb00002c 	bl	500037f8 <key_6_handler>
50003744:	ea000000 	b	5000374c <key_isr+0xe0>
50003748:	e1a00000 	nop			; (mov r0, r0)
5000374c:	e59f3024 	ldr	r3, [pc, #36]	; 50003778 <key_isr+0x10c>
50003750:	e59f2020 	ldr	r2, [pc, #32]	; 50003778 <key_isr+0x10c>
50003754:	e5922000 	ldr	r2, [r2]
50003758:	e382203f 	orr	r2, r2, #63	; 0x3f
5000375c:	e5832000 	str	r2, [r3]
50003760:	e59f3014 	ldr	r3, [pc, #20]	; 5000377c <key_isr+0x110>
50003764:	e3a02000 	mov	r2, #0
50003768:	e5832000 	str	r2, [r3]
5000376c:	e1a00000 	nop			; (mov r0, r0)
50003770:	e28dd00c 	add	sp, sp, #12
50003774:	e49df004 	pop	{pc}		; (ldr pc, [sp], #4)
50003778:	7f008924 	svcvc	0x00008924
5000377c:	71200f00 	teqvc	r0, r0, lsl #30

50003780 <key_1_handler>:
50003780:	e92d4008 	push	{r3, lr}
50003784:	e59f0008 	ldr	r0, [pc, #8]	; 50003794 <key_1_handler+0x14>
50003788:	ebfff8c9 	bl	50001ab4 <uart_puts>
5000378c:	e1a00000 	nop			; (mov r0, r0)
50003790:	e8bd8008 	pop	{r3, pc}
50003794:	500100c8 	andpl	r0, r1, r8, asr #1

50003798 <key_2_handler>:
50003798:	e92d4008 	push	{r3, lr}
5000379c:	e59f0008 	ldr	r0, [pc, #8]	; 500037ac <key_2_handler+0x14>
500037a0:	ebfff8c3 	bl	50001ab4 <uart_puts>
500037a4:	e1a00000 	nop			; (mov r0, r0)
500037a8:	e8bd8008 	pop	{r3, pc}
500037ac:	500100d8 	ldrdpl	r0, [r1], -r8

500037b0 <key_3_handler>:
500037b0:	e92d4008 	push	{r3, lr}
500037b4:	e59f0008 	ldr	r0, [pc, #8]	; 500037c4 <key_3_handler+0x14>
500037b8:	ebfff8bd 	bl	50001ab4 <uart_puts>
500037bc:	e1a00000 	nop			; (mov r0, r0)
500037c0:	e8bd8008 	pop	{r3, pc}
500037c4:	500100e8 	andpl	r0, r1, r8, ror #1

500037c8 <key_4_handler>:
500037c8:	e92d4008 	push	{r3, lr}
500037cc:	e59f0008 	ldr	r0, [pc, #8]	; 500037dc <key_4_handler+0x14>
500037d0:	ebfff8b7 	bl	50001ab4 <uart_puts>
500037d4:	e1a00000 	nop			; (mov r0, r0)
500037d8:	e8bd8008 	pop	{r3, pc}
500037dc:	500100f8 	strdpl	r0, [r1], -r8

500037e0 <key_5_handler>:
500037e0:	e92d4008 	push	{r3, lr}
500037e4:	e59f0008 	ldr	r0, [pc, #8]	; 500037f4 <key_5_handler+0x14>
500037e8:	ebfff8b1 	bl	50001ab4 <uart_puts>
500037ec:	e1a00000 	nop			; (mov r0, r0)
500037f0:	e8bd8008 	pop	{r3, pc}
500037f4:	50010108 	andpl	r0, r1, r8, lsl #2

500037f8 <key_6_handler>:
500037f8:	e92d4008 	push	{r3, lr}
500037fc:	e59f0008 	ldr	r0, [pc, #8]	; 5000380c <key_6_handler+0x14>
50003800:	ebfff8ab 	bl	50001ab4 <uart_puts>
50003804:	e1a00000 	nop			; (mov r0, r0)
50003808:	e8bd8008 	pop	{r3, pc}
5000380c:	50010118 	andpl	r0, r1, r8, lsl r1

50003810 <config_lcd>:
50003810:	e24dd010 	sub	sp, sp, #16
50003814:	e58d000c 	str	r0, [sp, #12]
50003818:	e58d1008 	str	r1, [sp, #8]
5000381c:	e58d2004 	str	r2, [sp, #4]
50003820:	e59d3004 	ldr	r3, [sp, #4]
50003824:	e3530000 	cmp	r3, #0
50003828:	1a000006 	bne	50003848 <config_lcd+0x38>
5000382c:	e59f3050 	ldr	r3, [pc, #80]	; 50003884 <config_lcd+0x74>
50003830:	e59d200c 	ldr	r2, [sp, #12]
50003834:	e5832000 	str	r2, [r3]
50003838:	e59f3044 	ldr	r3, [pc, #68]	; 50003884 <config_lcd+0x74>
5000383c:	e59d2008 	ldr	r2, [sp, #8]
50003840:	e5832004 	str	r2, [r3, #4]
50003844:	ea000008 	b	5000386c <config_lcd+0x5c>
50003848:	e59d3004 	ldr	r3, [sp, #4]
5000384c:	e3530001 	cmp	r3, #1
50003850:	1a000005 	bne	5000386c <config_lcd+0x5c>
50003854:	e59f3028 	ldr	r3, [pc, #40]	; 50003884 <config_lcd+0x74>
50003858:	e59d2008 	ldr	r2, [sp, #8]
5000385c:	e5832000 	str	r2, [r3]
50003860:	e59f301c 	ldr	r3, [pc, #28]	; 50003884 <config_lcd+0x74>
50003864:	e59d200c 	ldr	r2, [sp, #12]
50003868:	e5832004 	str	r2, [r3, #4]
5000386c:	e59f3010 	ldr	r3, [pc, #16]	; 50003884 <config_lcd+0x74>
50003870:	e59d2004 	ldr	r2, [sp, #4]
50003874:	e5832008 	str	r2, [r3, #8]
50003878:	e1a00000 	nop			; (mov r0, r0)
5000387c:	e28dd010 	add	sp, sp, #16
50003880:	e12fff1e 	bx	lr
50003884:	5000160c 	andpl	r1, r0, ip, lsl #12

50003888 <init_lcd>:
50003888:	e92d4008 	push	{r3, lr}
5000388c:	e59f31e0 	ldr	r3, [pc, #480]	; 50003a74 <init_lcd+0x1ec>
50003890:	e59f21e0 	ldr	r2, [pc, #480]	; 50003a78 <init_lcd+0x1f0>
50003894:	e5832000 	str	r2, [r3]
50003898:	e59f31dc 	ldr	r3, [pc, #476]	; 50003a7c <init_lcd+0x1f4>
5000389c:	e59f21dc 	ldr	r2, [pc, #476]	; 50003a80 <init_lcd+0x1f8>
500038a0:	e5832000 	str	r2, [r3]
500038a4:	e59f31d8 	ldr	r3, [pc, #472]	; 50003a84 <init_lcd+0x1fc>
500038a8:	e59f21d4 	ldr	r2, [pc, #468]	; 50003a84 <init_lcd+0x1fc>
500038ac:	e5922000 	ldr	r2, [r2]
500038b0:	e3c22203 	bic	r2, r2, #805306368	; 0x30000000
500038b4:	e5832000 	str	r2, [r3]
500038b8:	e59f31c4 	ldr	r3, [pc, #452]	; 50003a84 <init_lcd+0x1fc>
500038bc:	e59f21c0 	ldr	r2, [pc, #448]	; 50003a84 <init_lcd+0x1fc>
500038c0:	e5922000 	ldr	r2, [r2]
500038c4:	e3822201 	orr	r2, r2, #268435456	; 0x10000000
500038c8:	e5832000 	str	r2, [r3]
500038cc:	e59f31b4 	ldr	r3, [pc, #436]	; 50003a88 <init_lcd+0x200>
500038d0:	e59f21b0 	ldr	r2, [pc, #432]	; 50003a88 <init_lcd+0x200>
500038d4:	e5922000 	ldr	r2, [r2]
500038d8:	e3c2200f 	bic	r2, r2, #15
500038dc:	e5832000 	str	r2, [r3]
500038e0:	e59f31a0 	ldr	r3, [pc, #416]	; 50003a88 <init_lcd+0x200>
500038e4:	e59f219c 	ldr	r2, [pc, #412]	; 50003a88 <init_lcd+0x200>
500038e8:	e5922000 	ldr	r2, [r2]
500038ec:	e3822001 	orr	r2, r2, #1
500038f0:	e5832000 	str	r2, [r3]
500038f4:	e59f3190 	ldr	r3, [pc, #400]	; 50003a8c <init_lcd+0x204>
500038f8:	e59f218c 	ldr	r2, [pc, #396]	; 50003a8c <init_lcd+0x204>
500038fc:	e5922000 	ldr	r2, [r2]
50003900:	e3c22008 	bic	r2, r2, #8
50003904:	e5832000 	str	r2, [r3]
50003908:	e59f3180 	ldr	r3, [pc, #384]	; 50003a90 <init_lcd+0x208>
5000390c:	e59f217c 	ldr	r2, [pc, #380]	; 50003a90 <init_lcd+0x208>
50003910:	e5922000 	ldr	r2, [r2]
50003914:	e3c22003 	bic	r2, r2, #3
50003918:	e3822001 	orr	r2, r2, #1
5000391c:	e5832000 	str	r2, [r3]
50003920:	e59f216c 	ldr	r2, [pc, #364]	; 50003a94 <init_lcd+0x20c>
50003924:	e59f3168 	ldr	r3, [pc, #360]	; 50003a94 <init_lcd+0x20c>
50003928:	e5931000 	ldr	r1, [r3]
5000392c:	e59f3164 	ldr	r3, [pc, #356]	; 50003a98 <init_lcd+0x210>
50003930:	e0013003 	and	r3, r1, r3
50003934:	e5823000 	str	r3, [r2]
50003938:	e59f3154 	ldr	r3, [pc, #340]	; 50003a94 <init_lcd+0x20c>
5000393c:	e59f2150 	ldr	r2, [pc, #336]	; 50003a94 <init_lcd+0x20c>
50003940:	e5922000 	ldr	r2, [r2]
50003944:	e3822e35 	orr	r2, r2, #848	; 0x350
50003948:	e5832000 	str	r2, [r3]
5000394c:	e59f3148 	ldr	r3, [pc, #328]	; 50003a9c <init_lcd+0x214>
50003950:	e59f2144 	ldr	r2, [pc, #324]	; 50003a9c <init_lcd+0x214>
50003954:	e5922000 	ldr	r2, [r2]
50003958:	e3c220f0 	bic	r2, r2, #240	; 0xf0
5000395c:	e5832000 	str	r2, [r3]
50003960:	e59f3134 	ldr	r3, [pc, #308]	; 50003a9c <init_lcd+0x214>
50003964:	e59f2130 	ldr	r2, [pc, #304]	; 50003a9c <init_lcd+0x214>
50003968:	e5922000 	ldr	r2, [r2]
5000396c:	e3822070 	orr	r2, r2, #112	; 0x70
50003970:	e5832000 	str	r2, [r3]
50003974:	e59f3124 	ldr	r3, [pc, #292]	; 50003aa0 <init_lcd+0x218>
50003978:	e59f2124 	ldr	r2, [pc, #292]	; 50003aa4 <init_lcd+0x21c>
5000397c:	e5832000 	str	r2, [r3]
50003980:	e59f3120 	ldr	r3, [pc, #288]	; 50003aa8 <init_lcd+0x220>
50003984:	e59f2120 	ldr	r2, [pc, #288]	; 50003aac <init_lcd+0x224>
50003988:	e5832000 	str	r2, [r3]
5000398c:	e59f311c 	ldr	r3, [pc, #284]	; 50003ab0 <init_lcd+0x228>
50003990:	e59f211c 	ldr	r2, [pc, #284]	; 50003ab4 <init_lcd+0x22c>
50003994:	e5922004 	ldr	r2, [r2, #4]
50003998:	e2422001 	sub	r2, r2, #1
5000399c:	e1a01582 	lsl	r1, r2, #11
500039a0:	e59f210c 	ldr	r2, [pc, #268]	; 50003ab4 <init_lcd+0x22c>
500039a4:	e5922000 	ldr	r2, [r2]
500039a8:	e2422001 	sub	r2, r2, #1
500039ac:	e1812002 	orr	r2, r1, r2
500039b0:	e5832000 	str	r2, [r3]
500039b4:	e59f30fc 	ldr	r3, [pc, #252]	; 50003ab8 <init_lcd+0x230>
500039b8:	e59f20f8 	ldr	r2, [pc, #248]	; 50003ab8 <init_lcd+0x230>
500039bc:	e5922000 	ldr	r2, [r2]
500039c0:	e3c2203c 	bic	r2, r2, #60	; 0x3c
500039c4:	e5832000 	str	r2, [r3]
500039c8:	e59f30e8 	ldr	r3, [pc, #232]	; 50003ab8 <init_lcd+0x230>
500039cc:	e59f20e4 	ldr	r2, [pc, #228]	; 50003ab8 <init_lcd+0x230>
500039d0:	e5922000 	ldr	r2, [r2]
500039d4:	e382202c 	orr	r2, r2, #44	; 0x2c
500039d8:	e5832000 	str	r2, [r3]
500039dc:	e59f30d8 	ldr	r3, [pc, #216]	; 50003abc <init_lcd+0x234>
500039e0:	e3a02000 	mov	r2, #0
500039e4:	e5832000 	str	r2, [r3]
500039e8:	e59f30d0 	ldr	r3, [pc, #208]	; 50003ac0 <init_lcd+0x238>
500039ec:	e59f20c0 	ldr	r2, [pc, #192]	; 50003ab4 <init_lcd+0x22c>
500039f0:	e5922000 	ldr	r2, [r2]
500039f4:	e2422001 	sub	r2, r2, #1
500039f8:	e1a01582 	lsl	r1, r2, #11
500039fc:	e59f20b0 	ldr	r2, [pc, #176]	; 50003ab4 <init_lcd+0x22c>
50003a00:	e5922004 	ldr	r2, [r2, #4]
50003a04:	e2422001 	sub	r2, r2, #1
50003a08:	e1812002 	orr	r2, r1, r2
50003a0c:	e5832000 	str	r2, [r3]
50003a10:	e59f30ac 	ldr	r3, [pc, #172]	; 50003ac4 <init_lcd+0x23c>
50003a14:	e59f2098 	ldr	r2, [pc, #152]	; 50003ab4 <init_lcd+0x22c>
50003a18:	e5922000 	ldr	r2, [r2]
50003a1c:	e59f1090 	ldr	r1, [pc, #144]	; 50003ab4 <init_lcd+0x22c>
50003a20:	e5911004 	ldr	r1, [r1, #4]
50003a24:	e0020291 	mul	r2, r1, r2
50003a28:	e5832000 	str	r2, [r3]
50003a2c:	e59f3094 	ldr	r3, [pc, #148]	; 50003ac8 <init_lcd+0x240>
50003a30:	e59f2094 	ldr	r2, [pc, #148]	; 50003acc <init_lcd+0x244>
50003a34:	e5832000 	str	r2, [r3]
50003a38:	e59f3090 	ldr	r3, [pc, #144]	; 50003ad0 <init_lcd+0x248>
50003a3c:	e59f2070 	ldr	r2, [pc, #112]	; 50003ab4 <init_lcd+0x22c>
50003a40:	e5922000 	ldr	r2, [r2]
50003a44:	e59f1068 	ldr	r1, [pc, #104]	; 50003ab4 <init_lcd+0x22c>
50003a48:	e5911004 	ldr	r1, [r1, #4]
50003a4c:	e0020291 	mul	r2, r1, r2
50003a50:	e1a02102 	lsl	r2, r2, #2
50003a54:	e5832000 	str	r2, [r3]
50003a58:	eb00001d 	bl	50003ad4 <enable_lcd_power>
50003a5c:	eb000034 	bl	50003b34 <enable_lcd_backLight>
50003a60:	eb00004b 	bl	50003b94 <enable_lcd_display>
50003a64:	e3e004ff 	mvn	r0, #-16777216	; 0xff000000
50003a68:	eb0000b3 	bl	50003d3c <display_bg_color>
50003a6c:	e1a00000 	nop			; (mov r0, r0)
50003a70:	e8bd8008 	pop	{r3, pc}
50003a74:	7f008100 	svcvc	0x00008100
50003a78:	aaaaaaaa 	bge	4eaae528 <IRQ_STACK_SIZE+0x4eaa6528>
50003a7c:	7f008120 	svcvc	0x00008120
50003a80:	00aaaaaa 	adceq	sl, sl, sl, lsr #21
50003a84:	7f0080a0 	svcvc	0x000080a0
50003a88:	7f008080 	svcvc	0x00008080
50003a8c:	7410800c 	ldrvc	r8, [r0], #-12
50003a90:	7f0081a0 	svcvc	0x000081a0
50003a94:	77100000 	ldrvc	r0, [r0, -r0]
50003a98:	f3f9c020 	vcgt.s32	d28, d16, #0
50003a9c:	77100004 	ldrvc	r0, [r0, -r4]
50003aa0:	77100010 			; <UNDEFINED> instruction: 0x77100010
50003aa4:	00010109 	andeq	r0, r1, r9, lsl #2
50003aa8:	77100014 			; <UNDEFINED> instruction: 0x77100014
50003aac:	00010128 	andeq	r0, r1, r8, lsr #2
50003ab0:	77100018 			; <UNDEFINED> instruction: 0x77100018
50003ab4:	5000160c 	andpl	r1, r0, ip, lsl #12
50003ab8:	77100020 	ldrvc	r0, [r0, -r0, lsr #32]
50003abc:	77100040 	ldrvc	r0, [r0, -r0, asr #32]
50003ac0:	77100044 	ldrvc	r0, [r0, -r4, asr #32]
50003ac4:	77100048 	ldrvc	r0, [r0, -r8, asr #32]
50003ac8:	771000a0 	ldrvc	r0, [r0, -r0, lsr #1]
50003acc:	5fa00000 	svcpl	0x00a00000
50003ad0:	771000d0 			; <UNDEFINED> instruction: 0x771000d0

50003ad4 <enable_lcd_power>:
50003ad4:	e59f3020 	ldr	r3, [pc, #32]	; 50003afc <enable_lcd_power+0x28>
50003ad8:	e59f201c 	ldr	r2, [pc, #28]	; 50003afc <enable_lcd_power+0x28>
50003adc:	e5922000 	ldr	r2, [r2]
50003ae0:	e3822001 	orr	r2, r2, #1
50003ae4:	e5832000 	str	r2, [r3]
50003ae8:	e59f3010 	ldr	r3, [pc, #16]	; 50003b00 <enable_lcd_power+0x2c>
50003aec:	e3a02001 	mov	r2, #1
50003af0:	e5832000 	str	r2, [r3]
50003af4:	e1a00000 	nop			; (mov r0, r0)
50003af8:	e12fff1e 	bx	lr
50003afc:	7f008084 	svcvc	0x00008084
50003b00:	50001604 	andpl	r1, r0, r4, lsl #12

50003b04 <disable_lcd_power>:
50003b04:	e59f3020 	ldr	r3, [pc, #32]	; 50003b2c <disable_lcd_power+0x28>
50003b08:	e59f201c 	ldr	r2, [pc, #28]	; 50003b2c <disable_lcd_power+0x28>
50003b0c:	e5922000 	ldr	r2, [r2]
50003b10:	e3c22001 	bic	r2, r2, #1
50003b14:	e5832000 	str	r2, [r3]
50003b18:	e59f3010 	ldr	r3, [pc, #16]	; 50003b30 <disable_lcd_power+0x2c>
50003b1c:	e3a02000 	mov	r2, #0
50003b20:	e5832000 	str	r2, [r3]
50003b24:	e1a00000 	nop			; (mov r0, r0)
50003b28:	e12fff1e 	bx	lr
50003b2c:	7f008084 	svcvc	0x00008084
50003b30:	50001604 	andpl	r1, r0, r4, lsl #12

50003b34 <enable_lcd_backLight>:
50003b34:	e59f3020 	ldr	r3, [pc, #32]	; 50003b5c <enable_lcd_backLight+0x28>
50003b38:	e59f201c 	ldr	r2, [pc, #28]	; 50003b5c <enable_lcd_backLight+0x28>
50003b3c:	e5922000 	ldr	r2, [r2]
50003b40:	e3822901 	orr	r2, r2, #16384	; 0x4000
50003b44:	e5832000 	str	r2, [r3]
50003b48:	e59f3010 	ldr	r3, [pc, #16]	; 50003b60 <enable_lcd_backLight+0x2c>
50003b4c:	e3a02001 	mov	r2, #1
50003b50:	e5832000 	str	r2, [r3]
50003b54:	e1a00000 	nop			; (mov r0, r0)
50003b58:	e12fff1e 	bx	lr
50003b5c:	7f0080a4 	svcvc	0x000080a4
50003b60:	50001620 	andpl	r1, r0, r0, lsr #12

50003b64 <disable_lcd_backLight>:
50003b64:	e59f3020 	ldr	r3, [pc, #32]	; 50003b8c <disable_lcd_backLight+0x28>
50003b68:	e59f201c 	ldr	r2, [pc, #28]	; 50003b8c <disable_lcd_backLight+0x28>
50003b6c:	e5922000 	ldr	r2, [r2]
50003b70:	e3c22901 	bic	r2, r2, #16384	; 0x4000
50003b74:	e5832000 	str	r2, [r3]
50003b78:	e59f3010 	ldr	r3, [pc, #16]	; 50003b90 <disable_lcd_backLight+0x2c>
50003b7c:	e3a02000 	mov	r2, #0
50003b80:	e5832000 	str	r2, [r3]
50003b84:	e1a00000 	nop			; (mov r0, r0)
50003b88:	e12fff1e 	bx	lr
50003b8c:	7f0080a4 	svcvc	0x000080a4
50003b90:	50001620 	andpl	r1, r0, r0, lsr #12

50003b94 <enable_lcd_display>:
50003b94:	e59f3034 	ldr	r3, [pc, #52]	; 50003bd0 <enable_lcd_display+0x3c>
50003b98:	e59f2030 	ldr	r2, [pc, #48]	; 50003bd0 <enable_lcd_display+0x3c>
50003b9c:	e5922000 	ldr	r2, [r2]
50003ba0:	e3822003 	orr	r2, r2, #3
50003ba4:	e5832000 	str	r2, [r3]
50003ba8:	e59f3024 	ldr	r3, [pc, #36]	; 50003bd4 <enable_lcd_display+0x40>
50003bac:	e59f2020 	ldr	r2, [pc, #32]	; 50003bd4 <enable_lcd_display+0x40>
50003bb0:	e5922000 	ldr	r2, [r2]
50003bb4:	e3822001 	orr	r2, r2, #1
50003bb8:	e5832000 	str	r2, [r3]
50003bbc:	e59f3014 	ldr	r3, [pc, #20]	; 50003bd8 <enable_lcd_display+0x44>
50003bc0:	e3a02001 	mov	r2, #1
50003bc4:	e5832000 	str	r2, [r3]
50003bc8:	e1a00000 	nop			; (mov r0, r0)
50003bcc:	e12fff1e 	bx	lr
50003bd0:	77100000 	ldrvc	r0, [r0, -r0]
50003bd4:	77100020 	ldrvc	r0, [r0, -r0, lsr #32]
50003bd8:	50001608 	andpl	r1, r0, r8, lsl #12

50003bdc <disable_lcd_display>:
50003bdc:	e59f3034 	ldr	r3, [pc, #52]	; 50003c18 <disable_lcd_display+0x3c>
50003be0:	e59f2030 	ldr	r2, [pc, #48]	; 50003c18 <disable_lcd_display+0x3c>
50003be4:	e5922000 	ldr	r2, [r2]
50003be8:	e3c22003 	bic	r2, r2, #3
50003bec:	e5832000 	str	r2, [r3]
50003bf0:	e59f3024 	ldr	r3, [pc, #36]	; 50003c1c <disable_lcd_display+0x40>
50003bf4:	e59f2020 	ldr	r2, [pc, #32]	; 50003c1c <disable_lcd_display+0x40>
50003bf8:	e5922000 	ldr	r2, [r2]
50003bfc:	e3c22001 	bic	r2, r2, #1
50003c00:	e5832000 	str	r2, [r3]
50003c04:	e59f3014 	ldr	r3, [pc, #20]	; 50003c20 <disable_lcd_display+0x44>
50003c08:	e3a02000 	mov	r2, #0
50003c0c:	e5832000 	str	r2, [r3]
50003c10:	e1a00000 	nop			; (mov r0, r0)
50003c14:	e12fff1e 	bx	lr
50003c18:	77100000 	ldrvc	r0, [r0, -r0]
50003c1c:	77100020 	ldrvc	r0, [r0, -r0, lsr #32]
50003c20:	50001608 	andpl	r1, r0, r8, lsl #12

50003c24 <change_bg_color>:
50003c24:	e52d4004 	push	{r4}		; (str r4, [sp, #-4]!)
50003c28:	e24dd02c 	sub	sp, sp, #44	; 0x2c
50003c2c:	e59f30f8 	ldr	r3, [pc, #248]	; 50003d2c <change_bg_color+0x108>
50003c30:	e58d3018 	str	r3, [sp, #24]
50003c34:	e3a03000 	mov	r3, #0
50003c38:	e58d3024 	str	r3, [sp, #36]	; 0x24
50003c3c:	e59f30ec 	ldr	r3, [pc, #236]	; 50003d30 <change_bg_color+0x10c>
50003c40:	e28dc004 	add	ip, sp, #4
50003c44:	e1a04003 	mov	r4, r3
50003c48:	e8b4000f 	ldm	r4!, {r0, r1, r2, r3}
50003c4c:	e8ac000f 	stmia	ip!, {r0, r1, r2, r3}
50003c50:	e5943000 	ldr	r3, [r4]
50003c54:	e58c3000 	str	r3, [ip]
50003c58:	e3a03000 	mov	r3, #0
50003c5c:	e58d3020 	str	r3, [sp, #32]
50003c60:	ea00001c 	b	50003cd8 <change_bg_color+0xb4>
50003c64:	e3a03000 	mov	r3, #0
50003c68:	e58d301c 	str	r3, [sp, #28]
50003c6c:	ea000011 	b	50003cb8 <change_bg_color+0x94>
50003c70:	e59d3024 	ldr	r3, [sp, #36]	; 0x24
50003c74:	e2832001 	add	r2, r3, #1
50003c78:	e58d2024 	str	r2, [sp, #36]	; 0x24
50003c7c:	e1a03103 	lsl	r3, r3, #2
50003c80:	e59d2018 	ldr	r2, [sp, #24]
50003c84:	e0823003 	add	r3, r2, r3
50003c88:	e59f20a4 	ldr	r2, [pc, #164]	; 50003d34 <change_bg_color+0x110>
50003c8c:	e5921000 	ldr	r1, [r2]
50003c90:	e3e02023 	mvn	r2, #35	; 0x23
50003c94:	e1a01101 	lsl	r1, r1, #2
50003c98:	e28d0028 	add	r0, sp, #40	; 0x28
50003c9c:	e0801001 	add	r1, r0, r1
50003ca0:	e0812002 	add	r2, r1, r2
50003ca4:	e5922000 	ldr	r2, [r2]
50003ca8:	e5832000 	str	r2, [r3]
50003cac:	e59d301c 	ldr	r3, [sp, #28]
50003cb0:	e2833001 	add	r3, r3, #1
50003cb4:	e58d301c 	str	r3, [sp, #28]
50003cb8:	e59d201c 	ldr	r2, [sp, #28]
50003cbc:	e59f3074 	ldr	r3, [pc, #116]	; 50003d38 <change_bg_color+0x114>
50003cc0:	e5933000 	ldr	r3, [r3]
50003cc4:	e1520003 	cmp	r2, r3
50003cc8:	9affffe8 	bls	50003c70 <change_bg_color+0x4c>
50003ccc:	e59d3020 	ldr	r3, [sp, #32]
50003cd0:	e2833001 	add	r3, r3, #1
50003cd4:	e58d3020 	str	r3, [sp, #32]
50003cd8:	e59d2020 	ldr	r2, [sp, #32]
50003cdc:	e59f3054 	ldr	r3, [pc, #84]	; 50003d38 <change_bg_color+0x114>
50003ce0:	e5933004 	ldr	r3, [r3, #4]
50003ce4:	e1520003 	cmp	r2, r3
50003ce8:	9affffdd 	bls	50003c64 <change_bg_color+0x40>
50003cec:	e59f3040 	ldr	r3, [pc, #64]	; 50003d34 <change_bg_color+0x110>
50003cf0:	e5933000 	ldr	r3, [r3]
50003cf4:	e2832001 	add	r2, r3, #1
50003cf8:	e59f3034 	ldr	r3, [pc, #52]	; 50003d34 <change_bg_color+0x110>
50003cfc:	e5832000 	str	r2, [r3]
50003d00:	e59f302c 	ldr	r3, [pc, #44]	; 50003d34 <change_bg_color+0x110>
50003d04:	e5933000 	ldr	r3, [r3]
50003d08:	e3530005 	cmp	r3, #5
50003d0c:	1a000002 	bne	50003d1c <change_bg_color+0xf8>
50003d10:	e59f301c 	ldr	r3, [pc, #28]	; 50003d34 <change_bg_color+0x110>
50003d14:	e3a02000 	mov	r2, #0
50003d18:	e5832000 	str	r2, [r3]
50003d1c:	e1a00000 	nop			; (mov r0, r0)
50003d20:	e28dd02c 	add	sp, sp, #44	; 0x2c
50003d24:	e49d4004 	pop	{r4}		; (ldr r4, [sp], #4)
50003d28:	e12fff1e 	bx	lr
50003d2c:	5fa00000 	svcpl	0x00a00000
50003d30:	50010928 	andpl	r0, r1, r8, lsr #18
50003d34:	50010d34 	andpl	r0, r1, r4, lsr sp
50003d38:	5000160c 	andpl	r1, r0, ip, lsl #12

50003d3c <display_bg_color>:
50003d3c:	e24dd018 	sub	sp, sp, #24
50003d40:	e58d0004 	str	r0, [sp, #4]
50003d44:	e59f308c 	ldr	r3, [pc, #140]	; 50003dd8 <display_bg_color+0x9c>
50003d48:	e58d3008 	str	r3, [sp, #8]
50003d4c:	e3a03000 	mov	r3, #0
50003d50:	e58d3014 	str	r3, [sp, #20]
50003d54:	e3a03000 	mov	r3, #0
50003d58:	e58d3010 	str	r3, [sp, #16]
50003d5c:	ea000015 	b	50003db8 <display_bg_color+0x7c>
50003d60:	e3a03000 	mov	r3, #0
50003d64:	e58d300c 	str	r3, [sp, #12]
50003d68:	ea00000a 	b	50003d98 <display_bg_color+0x5c>
50003d6c:	e59d3014 	ldr	r3, [sp, #20]
50003d70:	e2832001 	add	r2, r3, #1
50003d74:	e58d2014 	str	r2, [sp, #20]
50003d78:	e1a03103 	lsl	r3, r3, #2
50003d7c:	e59d2008 	ldr	r2, [sp, #8]
50003d80:	e0823003 	add	r3, r2, r3
50003d84:	e59d2004 	ldr	r2, [sp, #4]
50003d88:	e5832000 	str	r2, [r3]
50003d8c:	e59d300c 	ldr	r3, [sp, #12]
50003d90:	e2833001 	add	r3, r3, #1
50003d94:	e58d300c 	str	r3, [sp, #12]
50003d98:	e59d200c 	ldr	r2, [sp, #12]
50003d9c:	e59f3038 	ldr	r3, [pc, #56]	; 50003ddc <display_bg_color+0xa0>
50003da0:	e5933000 	ldr	r3, [r3]
50003da4:	e1520003 	cmp	r2, r3
50003da8:	3affffef 	bcc	50003d6c <display_bg_color+0x30>
50003dac:	e59d3010 	ldr	r3, [sp, #16]
50003db0:	e2833001 	add	r3, r3, #1
50003db4:	e58d3010 	str	r3, [sp, #16]
50003db8:	e59d2010 	ldr	r2, [sp, #16]
50003dbc:	e59f3018 	ldr	r3, [pc, #24]	; 50003ddc <display_bg_color+0xa0>
50003dc0:	e5933004 	ldr	r3, [r3, #4]
50003dc4:	e1520003 	cmp	r2, r3
50003dc8:	3affffe4 	bcc	50003d60 <display_bg_color+0x24>
50003dcc:	e1a00000 	nop			; (mov r0, r0)
50003dd0:	e28dd018 	add	sp, sp, #24
50003dd4:	e12fff1e 	bx	lr
50003dd8:	5fa00000 	svcpl	0x00a00000
50003ddc:	5000160c 	andpl	r1, r0, ip, lsl #12

50003de0 <set_lcd_cursor>:
50003de0:	e24dd008 	sub	sp, sp, #8
50003de4:	e58d0004 	str	r0, [sp, #4]
50003de8:	e58d1000 	str	r1, [sp]
50003dec:	e59f30ec 	ldr	r3, [pc, #236]	; 50003ee0 <set_lcd_cursor+0x100>
50003df0:	e5933008 	ldr	r3, [r3, #8]
50003df4:	e3530001 	cmp	r3, #1
50003df8:	1a00000b 	bne	50003e2c <set_lcd_cursor+0x4c>
50003dfc:	e59f30dc 	ldr	r3, [pc, #220]	; 50003ee0 <set_lcd_cursor+0x100>
50003e00:	e5932004 	ldr	r2, [r3, #4]
50003e04:	e59d3004 	ldr	r3, [sp, #4]
50003e08:	e1520003 	cmp	r2, r3
50003e0c:	9a000004 	bls	50003e24 <set_lcd_cursor+0x44>
50003e10:	e59f30c8 	ldr	r3, [pc, #200]	; 50003ee0 <set_lcd_cursor+0x100>
50003e14:	e5932000 	ldr	r2, [r3]
50003e18:	e59d3000 	ldr	r3, [sp]
50003e1c:	e1520003 	cmp	r2, r3
50003e20:	8a000011 	bhi	50003e6c <set_lcd_cursor+0x8c>
50003e24:	e3e03000 	mvn	r3, #0
50003e28:	ea000029 	b	50003ed4 <set_lcd_cursor+0xf4>
50003e2c:	e59f30ac 	ldr	r3, [pc, #172]	; 50003ee0 <set_lcd_cursor+0x100>
50003e30:	e5933008 	ldr	r3, [r3, #8]
50003e34:	e3530000 	cmp	r3, #0
50003e38:	1a00000b 	bne	50003e6c <set_lcd_cursor+0x8c>
50003e3c:	e59f309c 	ldr	r3, [pc, #156]	; 50003ee0 <set_lcd_cursor+0x100>
50003e40:	e5932000 	ldr	r2, [r3]
50003e44:	e59d3004 	ldr	r3, [sp, #4]
50003e48:	e1520003 	cmp	r2, r3
50003e4c:	9a000004 	bls	50003e64 <set_lcd_cursor+0x84>
50003e50:	e59f3088 	ldr	r3, [pc, #136]	; 50003ee0 <set_lcd_cursor+0x100>
50003e54:	e5932004 	ldr	r2, [r3, #4]
50003e58:	e59d3000 	ldr	r3, [sp]
50003e5c:	e1520003 	cmp	r2, r3
50003e60:	8a000001 	bhi	50003e6c <set_lcd_cursor+0x8c>
50003e64:	e3e03001 	mvn	r3, #1
50003e68:	ea000019 	b	50003ed4 <set_lcd_cursor+0xf4>
50003e6c:	e59f306c 	ldr	r3, [pc, #108]	; 50003ee0 <set_lcd_cursor+0x100>
50003e70:	e5933008 	ldr	r3, [r3, #8]
50003e74:	e3530000 	cmp	r3, #0
50003e78:	1a000006 	bne	50003e98 <set_lcd_cursor+0xb8>
50003e7c:	e59f305c 	ldr	r3, [pc, #92]	; 50003ee0 <set_lcd_cursor+0x100>
50003e80:	e59d2004 	ldr	r2, [sp, #4]
50003e84:	e583200c 	str	r2, [r3, #12]
50003e88:	e59f3050 	ldr	r3, [pc, #80]	; 50003ee0 <set_lcd_cursor+0x100>
50003e8c:	e59d2000 	ldr	r2, [sp]
50003e90:	e5832010 	str	r2, [r3, #16]
50003e94:	ea00000d 	b	50003ed0 <set_lcd_cursor+0xf0>
50003e98:	e59f3040 	ldr	r3, [pc, #64]	; 50003ee0 <set_lcd_cursor+0x100>
50003e9c:	e5933008 	ldr	r3, [r3, #8]
50003ea0:	e3530001 	cmp	r3, #1
50003ea4:	1a000009 	bne	50003ed0 <set_lcd_cursor+0xf0>
50003ea8:	e59f3030 	ldr	r3, [pc, #48]	; 50003ee0 <set_lcd_cursor+0x100>
50003eac:	e59d2000 	ldr	r2, [sp]
50003eb0:	e583200c 	str	r2, [r3, #12]
50003eb4:	e59f3024 	ldr	r3, [pc, #36]	; 50003ee0 <set_lcd_cursor+0x100>
50003eb8:	e5932004 	ldr	r2, [r3, #4]
50003ebc:	e59d3004 	ldr	r3, [sp, #4]
50003ec0:	e0633002 	rsb	r3, r3, r2
50003ec4:	e2432001 	sub	r2, r3, #1
50003ec8:	e59f3010 	ldr	r3, [pc, #16]	; 50003ee0 <set_lcd_cursor+0x100>
50003ecc:	e5832010 	str	r2, [r3, #16]
50003ed0:	e3a03000 	mov	r3, #0
50003ed4:	e1a00003 	mov	r0, r3
50003ed8:	e28dd008 	add	sp, sp, #8
50003edc:	e12fff1e 	bx	lr
50003ee0:	5000160c 	andpl	r1, r0, ip, lsl #12

50003ee4 <lcd_write_pixel>:
50003ee4:	e52de004 	push	{lr}		; (str lr, [sp, #-4]!)
50003ee8:	e24dd01c 	sub	sp, sp, #28
50003eec:	e58d000c 	str	r0, [sp, #12]
50003ef0:	e58d1008 	str	r1, [sp, #8]
50003ef4:	e58d2004 	str	r2, [sp, #4]
50003ef8:	e59d000c 	ldr	r0, [sp, #12]
50003efc:	e59d1008 	ldr	r1, [sp, #8]
50003f00:	ebffffb6 	bl	50003de0 <set_lcd_cursor>
50003f04:	e58d0014 	str	r0, [sp, #20]
50003f08:	e59d3014 	ldr	r3, [sp, #20]
50003f0c:	e3530000 	cmp	r3, #0
50003f10:	aa000001 	bge	50003f1c <lcd_write_pixel+0x38>
50003f14:	e3e03000 	mvn	r3, #0
50003f18:	ea00000f 	b	50003f5c <lcd_write_pixel+0x78>
50003f1c:	e59f3044 	ldr	r3, [pc, #68]	; 50003f68 <lcd_write_pixel+0x84>
50003f20:	e58d3010 	str	r3, [sp, #16]
50003f24:	e59f3040 	ldr	r3, [pc, #64]	; 50003f6c <lcd_write_pixel+0x88>
50003f28:	e5933010 	ldr	r3, [r3, #16]
50003f2c:	e59f2038 	ldr	r2, [pc, #56]	; 50003f6c <lcd_write_pixel+0x88>
50003f30:	e5922000 	ldr	r2, [r2]
50003f34:	e0020392 	mul	r2, r2, r3
50003f38:	e59f302c 	ldr	r3, [pc, #44]	; 50003f6c <lcd_write_pixel+0x88>
50003f3c:	e593300c 	ldr	r3, [r3, #12]
50003f40:	e0823003 	add	r3, r2, r3
50003f44:	e1a03103 	lsl	r3, r3, #2
50003f48:	e59d2010 	ldr	r2, [sp, #16]
50003f4c:	e0823003 	add	r3, r2, r3
50003f50:	e59d2004 	ldr	r2, [sp, #4]
50003f54:	e5832000 	str	r2, [r3]
50003f58:	e3a03000 	mov	r3, #0
50003f5c:	e1a00003 	mov	r0, r3
50003f60:	e28dd01c 	add	sp, sp, #28
50003f64:	e49df004 	pop	{pc}		; (ldr pc, [sp], #4)
50003f68:	5fa00000 	svcpl	0x00a00000
50003f6c:	5000160c 	andpl	r1, r0, ip, lsl #12

50003f70 <lcd_get_pixel>:
50003f70:	e52de004 	push	{lr}		; (str lr, [sp, #-4]!)
50003f74:	e24dd014 	sub	sp, sp, #20
50003f78:	e58d0004 	str	r0, [sp, #4]
50003f7c:	e58d1000 	str	r1, [sp]
50003f80:	e59d0004 	ldr	r0, [sp, #4]
50003f84:	e59d1000 	ldr	r1, [sp]
50003f88:	ebffff94 	bl	50003de0 <set_lcd_cursor>
50003f8c:	e58d000c 	str	r0, [sp, #12]
50003f90:	e59d300c 	ldr	r3, [sp, #12]
50003f94:	e3530000 	cmp	r3, #0
50003f98:	aa000001 	bge	50003fa4 <lcd_get_pixel+0x34>
50003f9c:	e3a03000 	mov	r3, #0
50003fa0:	ea00000d 	b	50003fdc <lcd_get_pixel+0x6c>
50003fa4:	e59f303c 	ldr	r3, [pc, #60]	; 50003fe8 <lcd_get_pixel+0x78>
50003fa8:	e58d3008 	str	r3, [sp, #8]
50003fac:	e59f3038 	ldr	r3, [pc, #56]	; 50003fec <lcd_get_pixel+0x7c>
50003fb0:	e5933010 	ldr	r3, [r3, #16]
50003fb4:	e59f2030 	ldr	r2, [pc, #48]	; 50003fec <lcd_get_pixel+0x7c>
50003fb8:	e5922000 	ldr	r2, [r2]
50003fbc:	e0020392 	mul	r2, r2, r3
50003fc0:	e59f3024 	ldr	r3, [pc, #36]	; 50003fec <lcd_get_pixel+0x7c>
50003fc4:	e593300c 	ldr	r3, [r3, #12]
50003fc8:	e0823003 	add	r3, r2, r3
50003fcc:	e1a03103 	lsl	r3, r3, #2
50003fd0:	e59d2008 	ldr	r2, [sp, #8]
50003fd4:	e0823003 	add	r3, r2, r3
50003fd8:	e5933000 	ldr	r3, [r3]
50003fdc:	e1a00003 	mov	r0, r3
50003fe0:	e28dd014 	add	sp, sp, #20
50003fe4:	e49df004 	pop	{pc}		; (ldr pc, [sp], #4)
50003fe8:	5fa00000 	svcpl	0x00a00000
50003fec:	5000160c 	andpl	r1, r0, ip, lsl #12

50003ff0 <lcd_display_char>:
50003ff0:	e52de004 	push	{lr}		; (str lr, [sp, #-4]!)
50003ff4:	e24dd02c 	sub	sp, sp, #44	; 0x2c
50003ff8:	e58d000c 	str	r0, [sp, #12]
50003ffc:	e58d1008 	str	r1, [sp, #8]
50004000:	e58d2004 	str	r2, [sp, #4]
50004004:	e58d3000 	str	r3, [sp]
50004008:	e5dd3030 	ldrb	r3, [sp, #48]	; 0x30
5000400c:	e58d3014 	str	r3, [sp, #20]
50004010:	e3a03000 	mov	r3, #0
50004014:	e58d3020 	str	r3, [sp, #32]
50004018:	ea00002d 	b	500040d4 <lcd_display_char+0xe4>
5000401c:	e59f20c8 	ldr	r2, [pc, #200]	; 500040ec <lcd_display_char+0xfc>
50004020:	e59d3014 	ldr	r3, [sp, #20]
50004024:	e1a01203 	lsl	r1, r3, #4
50004028:	e59d3020 	ldr	r3, [sp, #32]
5000402c:	e0813003 	add	r3, r1, r3
50004030:	e0823003 	add	r3, r2, r3
50004034:	e5d33000 	ldrb	r3, [r3]
50004038:	e5cd3027 	strb	r3, [sp, #39]	; 0x27
5000403c:	e3a03000 	mov	r3, #0
50004040:	e58d301c 	str	r3, [sp, #28]
50004044:	e59d300c 	ldr	r3, [sp, #12]
50004048:	e58d3018 	str	r3, [sp, #24]
5000404c:	ea000017 	b	500040b0 <lcd_display_char+0xc0>
50004050:	e5dd3027 	ldrb	r3, [sp, #39]	; 0x27
50004054:	e6af3073 	sxtb	r3, r3
50004058:	e3530000 	cmp	r3, #0
5000405c:	aa000005 	bge	50004078 <lcd_display_char+0x88>
50004060:	e59d3018 	ldr	r3, [sp, #24]
50004064:	e1a00003 	mov	r0, r3
50004068:	e59d1008 	ldr	r1, [sp, #8]
5000406c:	e59d2004 	ldr	r2, [sp, #4]
50004070:	ebffff9b 	bl	50003ee4 <lcd_write_pixel>
50004074:	ea000004 	b	5000408c <lcd_display_char+0x9c>
50004078:	e59d3018 	ldr	r3, [sp, #24]
5000407c:	e1a00003 	mov	r0, r3
50004080:	e59d1008 	ldr	r1, [sp, #8]
50004084:	e59d2000 	ldr	r2, [sp]
50004088:	ebffff95 	bl	50003ee4 <lcd_write_pixel>
5000408c:	e5dd3027 	ldrb	r3, [sp, #39]	; 0x27
50004090:	e1a03083 	lsl	r3, r3, #1
50004094:	e5cd3027 	strb	r3, [sp, #39]	; 0x27
50004098:	e59d301c 	ldr	r3, [sp, #28]
5000409c:	e2833001 	add	r3, r3, #1
500040a0:	e58d301c 	str	r3, [sp, #28]
500040a4:	e59d3018 	ldr	r3, [sp, #24]
500040a8:	e2833001 	add	r3, r3, #1
500040ac:	e58d3018 	str	r3, [sp, #24]
500040b0:	e59d301c 	ldr	r3, [sp, #28]
500040b4:	e3530007 	cmp	r3, #7
500040b8:	daffffe4 	ble	50004050 <lcd_display_char+0x60>
500040bc:	e59d3020 	ldr	r3, [sp, #32]
500040c0:	e2833001 	add	r3, r3, #1
500040c4:	e58d3020 	str	r3, [sp, #32]
500040c8:	e59d3008 	ldr	r3, [sp, #8]
500040cc:	e2833001 	add	r3, r3, #1
500040d0:	e58d3008 	str	r3, [sp, #8]
500040d4:	e59d3020 	ldr	r3, [sp, #32]
500040d8:	e353000f 	cmp	r3, #15
500040dc:	daffffce 	ble	5000401c <lcd_display_char+0x2c>
500040e0:	e1a00000 	nop			; (mov r0, r0)
500040e4:	e28dd02c 	add	sp, sp, #44	; 0x2c
500040e8:	e49df004 	pop	{pc}		; (ldr pc, [sp], #4)
500040ec:	50010128 	andpl	r0, r1, r8, lsr #2

500040f0 <lcd_display_str>:
500040f0:	e52de004 	push	{lr}		; (str lr, [sp, #-4]!)
500040f4:	e24dd024 	sub	sp, sp, #36	; 0x24
500040f8:	e58d0014 	str	r0, [sp, #20]
500040fc:	e58d1010 	str	r1, [sp, #16]
50004100:	e58d200c 	str	r2, [sp, #12]
50004104:	e58d3008 	str	r3, [sp, #8]
50004108:	e3a03000 	mov	r3, #0
5000410c:	e58d301c 	str	r3, [sp, #28]
50004110:	ea00000f 	b	50004154 <lcd_display_str+0x64>
50004114:	e59d301c 	ldr	r3, [sp, #28]
50004118:	e59d2028 	ldr	r2, [sp, #40]	; 0x28
5000411c:	e0823003 	add	r3, r2, r3
50004120:	e5d33000 	ldrb	r3, [r3]
50004124:	e58d3000 	str	r3, [sp]
50004128:	e59d0014 	ldr	r0, [sp, #20]
5000412c:	e59d1010 	ldr	r1, [sp, #16]
50004130:	e59d200c 	ldr	r2, [sp, #12]
50004134:	e59d3008 	ldr	r3, [sp, #8]
50004138:	ebffffac 	bl	50003ff0 <lcd_display_char>
5000413c:	e59d3014 	ldr	r3, [sp, #20]
50004140:	e2833008 	add	r3, r3, #8
50004144:	e58d3014 	str	r3, [sp, #20]
50004148:	e59d301c 	ldr	r3, [sp, #28]
5000414c:	e2833001 	add	r3, r3, #1
50004150:	e58d301c 	str	r3, [sp, #28]
50004154:	e59d301c 	ldr	r3, [sp, #28]
50004158:	e59d2028 	ldr	r2, [sp, #40]	; 0x28
5000415c:	e0823003 	add	r3, r2, r3
50004160:	e5d33000 	ldrb	r3, [r3]
50004164:	e3530000 	cmp	r3, #0
50004168:	1affffe9 	bne	50004114 <lcd_display_str+0x24>
5000416c:	e1a00000 	nop			; (mov r0, r0)
50004170:	e28dd024 	add	sp, sp, #36	; 0x24
50004174:	e49df004 	pop	{pc}		; (ldr pc, [sp], #4)

50004178 <lcd_display_string>:
50004178:	e52de004 	push	{lr}		; (str lr, [sp, #-4]!)
5000417c:	e24dd02c 	sub	sp, sp, #44	; 0x2c
50004180:	e58d0014 	str	r0, [sp, #20]
50004184:	e58d1010 	str	r1, [sp, #16]
50004188:	e58d200c 	str	r2, [sp, #12]
5000418c:	e58d3008 	str	r3, [sp, #8]
50004190:	e59d3010 	ldr	r3, [sp, #16]
50004194:	e1a03183 	lsl	r3, r3, #3
50004198:	e58d3024 	str	r3, [sp, #36]	; 0x24
5000419c:	e59d3014 	ldr	r3, [sp, #20]
500041a0:	e1a03203 	lsl	r3, r3, #4
500041a4:	e58d301c 	str	r3, [sp, #28]
500041a8:	e3a03000 	mov	r3, #0
500041ac:	e58d3020 	str	r3, [sp, #32]
500041b0:	ea00000f 	b	500041f4 <lcd_display_string+0x7c>
500041b4:	e59d3020 	ldr	r3, [sp, #32]
500041b8:	e59d2030 	ldr	r2, [sp, #48]	; 0x30
500041bc:	e0823003 	add	r3, r2, r3
500041c0:	e5d33000 	ldrb	r3, [r3]
500041c4:	e58d3000 	str	r3, [sp]
500041c8:	e59d0024 	ldr	r0, [sp, #36]	; 0x24
500041cc:	e59d101c 	ldr	r1, [sp, #28]
500041d0:	e59d200c 	ldr	r2, [sp, #12]
500041d4:	e59d3008 	ldr	r3, [sp, #8]
500041d8:	ebffff84 	bl	50003ff0 <lcd_display_char>
500041dc:	e59d3024 	ldr	r3, [sp, #36]	; 0x24
500041e0:	e2833008 	add	r3, r3, #8
500041e4:	e58d3024 	str	r3, [sp, #36]	; 0x24
500041e8:	e59d3020 	ldr	r3, [sp, #32]
500041ec:	e2833001 	add	r3, r3, #1
500041f0:	e58d3020 	str	r3, [sp, #32]
500041f4:	e59d3020 	ldr	r3, [sp, #32]
500041f8:	e59d2030 	ldr	r2, [sp, #48]	; 0x30
500041fc:	e0823003 	add	r3, r2, r3
50004200:	e5d33000 	ldrb	r3, [r3]
50004204:	e3530000 	cmp	r3, #0
50004208:	1affffe9 	bne	500041b4 <lcd_display_string+0x3c>
5000420c:	e1a00000 	nop			; (mov r0, r0)
50004210:	e28dd02c 	add	sp, sp, #44	; 0x2c
50004214:	e49df004 	pop	{pc}		; (ldr pc, [sp], #4)

50004218 <init_led>:
50004218:	e59f2058 	ldr	r2, [pc, #88]	; 50004278 <init_led+0x60>
5000421c:	e59f3054 	ldr	r3, [pc, #84]	; 50004278 <init_led+0x60>
50004220:	e5933000 	ldr	r3, [r3]
50004224:	e1a03823 	lsr	r3, r3, #16
50004228:	e1a03803 	lsl	r3, r3, #16
5000422c:	e5823000 	str	r3, [r2]
50004230:	e59f2040 	ldr	r2, [pc, #64]	; 50004278 <init_led+0x60>
50004234:	e59f303c 	ldr	r3, [pc, #60]	; 50004278 <init_led+0x60>
50004238:	e5933000 	ldr	r3, [r3]
5000423c:	e3833c11 	orr	r3, r3, #4352	; 0x1100
50004240:	e3833011 	orr	r3, r3, #17
50004244:	e5823000 	str	r3, [r2]
50004248:	e59f302c 	ldr	r3, [pc, #44]	; 5000427c <init_led+0x64>
5000424c:	e59f2028 	ldr	r2, [pc, #40]	; 5000427c <init_led+0x64>
50004250:	e5922000 	ldr	r2, [r2]
50004254:	e3c220ff 	bic	r2, r2, #255	; 0xff
50004258:	e5832000 	str	r2, [r3]
5000425c:	e59f301c 	ldr	r3, [pc, #28]	; 50004280 <init_led+0x68>
50004260:	e59f2018 	ldr	r2, [pc, #24]	; 50004280 <init_led+0x68>
50004264:	e5922000 	ldr	r2, [r2]
50004268:	e382200f 	orr	r2, r2, #15
5000426c:	e5832000 	str	r2, [r3]
50004270:	e1a00000 	nop			; (mov r0, r0)
50004274:	e12fff1e 	bx	lr
50004278:	7f008820 	svcvc	0x00008820
5000427c:	7f008828 	svcvc	0x00008828
50004280:	7f008824 	svcvc	0x00008824

50004284 <all_leds_on>:
50004284:	e59f3014 	ldr	r3, [pc, #20]	; 500042a0 <all_leds_on+0x1c>
50004288:	e59f2010 	ldr	r2, [pc, #16]	; 500042a0 <all_leds_on+0x1c>
5000428c:	e5922000 	ldr	r2, [r2]
50004290:	e3c2200f 	bic	r2, r2, #15
50004294:	e5832000 	str	r2, [r3]
50004298:	e1a00000 	nop			; (mov r0, r0)
5000429c:	e12fff1e 	bx	lr
500042a0:	7f008824 	svcvc	0x00008824

500042a4 <all_leds_off>:
500042a4:	e59f3014 	ldr	r3, [pc, #20]	; 500042c0 <all_leds_off+0x1c>
500042a8:	e59f2010 	ldr	r2, [pc, #16]	; 500042c0 <all_leds_off+0x1c>
500042ac:	e5922000 	ldr	r2, [r2]
500042b0:	e382200f 	orr	r2, r2, #15
500042b4:	e5832000 	str	r2, [r3]
500042b8:	e1a00000 	nop			; (mov r0, r0)
500042bc:	e12fff1e 	bx	lr
500042c0:	7f008824 	svcvc	0x00008824

500042c4 <set_led_1>:
500042c4:	e24dd008 	sub	sp, sp, #8
500042c8:	e58d0004 	str	r0, [sp, #4]
500042cc:	e59d3004 	ldr	r3, [sp, #4]
500042d0:	e3530001 	cmp	r3, #1
500042d4:	1a000005 	bne	500042f0 <set_led_1+0x2c>
500042d8:	e59f303c 	ldr	r3, [pc, #60]	; 5000431c <set_led_1+0x58>
500042dc:	e59f2038 	ldr	r2, [pc, #56]	; 5000431c <set_led_1+0x58>
500042e0:	e5922000 	ldr	r2, [r2]
500042e4:	e3822001 	orr	r2, r2, #1
500042e8:	e5832000 	str	r2, [r3]
500042ec:	ea000007 	b	50004310 <set_led_1+0x4c>
500042f0:	e59d3004 	ldr	r3, [sp, #4]
500042f4:	e3530000 	cmp	r3, #0
500042f8:	1a000004 	bne	50004310 <set_led_1+0x4c>
500042fc:	e59f3018 	ldr	r3, [pc, #24]	; 5000431c <set_led_1+0x58>
50004300:	e59f2014 	ldr	r2, [pc, #20]	; 5000431c <set_led_1+0x58>
50004304:	e5922000 	ldr	r2, [r2]
50004308:	e3c22001 	bic	r2, r2, #1
5000430c:	e5832000 	str	r2, [r3]
50004310:	e1a00000 	nop			; (mov r0, r0)
50004314:	e28dd008 	add	sp, sp, #8
50004318:	e12fff1e 	bx	lr
5000431c:	7f008824 	svcvc	0x00008824

50004320 <set_led_2>:
50004320:	e24dd008 	sub	sp, sp, #8
50004324:	e58d0004 	str	r0, [sp, #4]
50004328:	e59d3004 	ldr	r3, [sp, #4]
5000432c:	e3530001 	cmp	r3, #1
50004330:	1a000005 	bne	5000434c <set_led_2+0x2c>
50004334:	e59f303c 	ldr	r3, [pc, #60]	; 50004378 <set_led_2+0x58>
50004338:	e59f2038 	ldr	r2, [pc, #56]	; 50004378 <set_led_2+0x58>
5000433c:	e5922000 	ldr	r2, [r2]
50004340:	e3822002 	orr	r2, r2, #2
50004344:	e5832000 	str	r2, [r3]
50004348:	ea000007 	b	5000436c <set_led_2+0x4c>
5000434c:	e59d3004 	ldr	r3, [sp, #4]
50004350:	e3530000 	cmp	r3, #0
50004354:	1a000004 	bne	5000436c <set_led_2+0x4c>
50004358:	e59f3018 	ldr	r3, [pc, #24]	; 50004378 <set_led_2+0x58>
5000435c:	e59f2014 	ldr	r2, [pc, #20]	; 50004378 <set_led_2+0x58>
50004360:	e5922000 	ldr	r2, [r2]
50004364:	e3c22002 	bic	r2, r2, #2
50004368:	e5832000 	str	r2, [r3]
5000436c:	e1a00000 	nop			; (mov r0, r0)
50004370:	e28dd008 	add	sp, sp, #8
50004374:	e12fff1e 	bx	lr
50004378:	7f008824 	svcvc	0x00008824

5000437c <set_led_3>:
5000437c:	e24dd008 	sub	sp, sp, #8
50004380:	e58d0004 	str	r0, [sp, #4]
50004384:	e59d3004 	ldr	r3, [sp, #4]
50004388:	e3530001 	cmp	r3, #1
5000438c:	1a000005 	bne	500043a8 <set_led_3+0x2c>
50004390:	e59f303c 	ldr	r3, [pc, #60]	; 500043d4 <set_led_3+0x58>
50004394:	e59f2038 	ldr	r2, [pc, #56]	; 500043d4 <set_led_3+0x58>
50004398:	e5922000 	ldr	r2, [r2]
5000439c:	e3822004 	orr	r2, r2, #4
500043a0:	e5832000 	str	r2, [r3]
500043a4:	ea000007 	b	500043c8 <set_led_3+0x4c>
500043a8:	e59d3004 	ldr	r3, [sp, #4]
500043ac:	e3530000 	cmp	r3, #0
500043b0:	1a000004 	bne	500043c8 <set_led_3+0x4c>
500043b4:	e59f3018 	ldr	r3, [pc, #24]	; 500043d4 <set_led_3+0x58>
500043b8:	e59f2014 	ldr	r2, [pc, #20]	; 500043d4 <set_led_3+0x58>
500043bc:	e5922000 	ldr	r2, [r2]
500043c0:	e3c22004 	bic	r2, r2, #4
500043c4:	e5832000 	str	r2, [r3]
500043c8:	e1a00000 	nop			; (mov r0, r0)
500043cc:	e28dd008 	add	sp, sp, #8
500043d0:	e12fff1e 	bx	lr
500043d4:	7f008824 	svcvc	0x00008824

500043d8 <set_led_4>:
500043d8:	e24dd008 	sub	sp, sp, #8
500043dc:	e58d0004 	str	r0, [sp, #4]
500043e0:	e59d3004 	ldr	r3, [sp, #4]
500043e4:	e3530001 	cmp	r3, #1
500043e8:	1a000005 	bne	50004404 <set_led_4+0x2c>
500043ec:	e59f303c 	ldr	r3, [pc, #60]	; 50004430 <set_led_4+0x58>
500043f0:	e59f2038 	ldr	r2, [pc, #56]	; 50004430 <set_led_4+0x58>
500043f4:	e5922000 	ldr	r2, [r2]
500043f8:	e3822008 	orr	r2, r2, #8
500043fc:	e5832000 	str	r2, [r3]
50004400:	ea000007 	b	50004424 <set_led_4+0x4c>
50004404:	e59d3004 	ldr	r3, [sp, #4]
50004408:	e3530000 	cmp	r3, #0
5000440c:	1a000004 	bne	50004424 <set_led_4+0x4c>
50004410:	e59f3018 	ldr	r3, [pc, #24]	; 50004430 <set_led_4+0x58>
50004414:	e59f2014 	ldr	r2, [pc, #20]	; 50004430 <set_led_4+0x58>
50004418:	e5922000 	ldr	r2, [r2]
5000441c:	e3c22008 	bic	r2, r2, #8
50004420:	e5832000 	str	r2, [r3]
50004424:	e1a00000 	nop			; (mov r0, r0)
50004428:	e28dd008 	add	sp, sp, #8
5000442c:	e12fff1e 	bx	lr
50004430:	7f008824 	svcvc	0x00008824

50004434 <get_led_1>:
50004434:	e24dd008 	sub	sp, sp, #8
50004438:	e59f302c 	ldr	r3, [pc, #44]	; 5000446c <get_led_1+0x38>
5000443c:	e5933000 	ldr	r3, [r3]
50004440:	e2033001 	and	r3, r3, #1
50004444:	e58d3004 	str	r3, [sp, #4]
50004448:	e59d3004 	ldr	r3, [sp, #4]
5000444c:	e3530000 	cmp	r3, #0
50004450:	0a000001 	beq	5000445c <get_led_1+0x28>
50004454:	e3a03001 	mov	r3, #1
50004458:	ea000000 	b	50004460 <get_led_1+0x2c>
5000445c:	e3a03000 	mov	r3, #0
50004460:	e1a00003 	mov	r0, r3
50004464:	e28dd008 	add	sp, sp, #8
50004468:	e12fff1e 	bx	lr
5000446c:	7f008824 	svcvc	0x00008824

50004470 <get_led_2>:
50004470:	e24dd008 	sub	sp, sp, #8
50004474:	e59f302c 	ldr	r3, [pc, #44]	; 500044a8 <get_led_2+0x38>
50004478:	e5933000 	ldr	r3, [r3]
5000447c:	e2033002 	and	r3, r3, #2
50004480:	e58d3004 	str	r3, [sp, #4]
50004484:	e59d3004 	ldr	r3, [sp, #4]
50004488:	e3530000 	cmp	r3, #0
5000448c:	0a000001 	beq	50004498 <get_led_2+0x28>
50004490:	e3a03001 	mov	r3, #1
50004494:	ea000000 	b	5000449c <get_led_2+0x2c>
50004498:	e3a03000 	mov	r3, #0
5000449c:	e1a00003 	mov	r0, r3
500044a0:	e28dd008 	add	sp, sp, #8
500044a4:	e12fff1e 	bx	lr
500044a8:	7f008824 	svcvc	0x00008824

500044ac <get_led_3>:
500044ac:	e24dd008 	sub	sp, sp, #8
500044b0:	e59f302c 	ldr	r3, [pc, #44]	; 500044e4 <get_led_3+0x38>
500044b4:	e5933000 	ldr	r3, [r3]
500044b8:	e2033004 	and	r3, r3, #4
500044bc:	e58d3004 	str	r3, [sp, #4]
500044c0:	e59d3004 	ldr	r3, [sp, #4]
500044c4:	e3530000 	cmp	r3, #0
500044c8:	0a000001 	beq	500044d4 <get_led_3+0x28>
500044cc:	e3a03001 	mov	r3, #1
500044d0:	ea000000 	b	500044d8 <get_led_3+0x2c>
500044d4:	e3a03000 	mov	r3, #0
500044d8:	e1a00003 	mov	r0, r3
500044dc:	e28dd008 	add	sp, sp, #8
500044e0:	e12fff1e 	bx	lr
500044e4:	7f008824 	svcvc	0x00008824

500044e8 <get_led_4>:
500044e8:	e24dd008 	sub	sp, sp, #8
500044ec:	e59f302c 	ldr	r3, [pc, #44]	; 50004520 <get_led_4+0x38>
500044f0:	e5933000 	ldr	r3, [r3]
500044f4:	e2033008 	and	r3, r3, #8
500044f8:	e58d3004 	str	r3, [sp, #4]
500044fc:	e59d3004 	ldr	r3, [sp, #4]
50004500:	e3530000 	cmp	r3, #0
50004504:	0a000001 	beq	50004510 <get_led_4+0x28>
50004508:	e3a03001 	mov	r3, #1
5000450c:	ea000000 	b	50004514 <get_led_4+0x2c>
50004510:	e3a03000 	mov	r3, #0
50004514:	e1a00003 	mov	r0, r3
50004518:	e28dd008 	add	sp, sp, #8
5000451c:	e12fff1e 	bx	lr
50004520:	7f008824 	svcvc	0x00008824

50004524 <OS_CPU_SR_Save>:
50004524:	e10f0000 	mrs	r0, CPSR
50004528:	e38010c0 	orr	r1, r0, #192	; 0xc0
5000452c:	e121f001 	msr	CPSR_c, r1
50004530:	e10f1000 	mrs	r1, CPSR
50004534:	e20110c0 	and	r1, r1, #192	; 0xc0
50004538:	e35100c0 	cmp	r1, #192	; 0xc0
5000453c:	1afffff8 	bne	50004524 <OS_CPU_SR_Save>
50004540:	e1a0f00e 	mov	pc, lr

50004544 <OS_CPU_SR_Restore>:
50004544:	e121f000 	msr	CPSR_c, r0
50004548:	e1a0f00e 	mov	pc, lr

5000454c <OSStartHighRdy>:
5000454c:	e32ff0df 	msr	CPSR_fsxc, #223	; 0xdf
50004550:	eb00013c 	bl	50004a48 <OSTaskSwHook>
50004554:	e59f42dc 	ldr	r4, [pc, #732]	; 50004838 <OS_Running>
50004558:	e3a05001 	mov	r5, #1
5000455c:	e5c45000 	strb	r5, [r4]
50004560:	e59f42d8 	ldr	r4, [pc, #728]	; 50004840 <OS_TCBHighRdy>
50004564:	e5944000 	ldr	r4, [r4]
50004568:	e594d000 	ldr	sp, [r4]
5000456c:	e49d4004 	pop	{r4}		; (ldr r4, [sp], #4)
50004570:	e12ff004 	msr	CPSR_fsxc, r4
50004574:	e49d0004 	pop	{r0}		; (ldr r0, [sp], #4)
50004578:	e49d1004 	pop	{r1}		; (ldr r1, [sp], #4)
5000457c:	e49d2004 	pop	{r2}		; (ldr r2, [sp], #4)
50004580:	e49d3004 	pop	{r3}		; (ldr r3, [sp], #4)
50004584:	e49d4004 	pop	{r4}		; (ldr r4, [sp], #4)
50004588:	e49d5004 	pop	{r5}		; (ldr r5, [sp], #4)
5000458c:	e49d6004 	pop	{r6}		; (ldr r6, [sp], #4)
50004590:	e49d7004 	pop	{r7}		; (ldr r7, [sp], #4)
50004594:	e49d8004 	pop	{r8}		; (ldr r8, [sp], #4)
50004598:	e49d9004 	pop	{r9}		; (ldr r9, [sp], #4)
5000459c:	e49da004 	pop	{sl}		; (ldr sl, [sp], #4)
500045a0:	e49db004 	pop	{fp}		; (ldr fp, [sp], #4)
500045a4:	e49dc004 	pop	{ip}		; (ldr ip, [sp], #4)
500045a8:	e49de004 	pop	{lr}		; (ldr lr, [sp], #4)
500045ac:	e49df004 	pop	{pc}		; (ldr pc, [sp], #4)

500045b0 <OSCtxSw>:
500045b0:	e52de004 	push	{lr}		; (str lr, [sp, #-4]!)
500045b4:	e52de004 	push	{lr}		; (str lr, [sp, #-4]!)
500045b8:	e52dc004 	push	{ip}		; (str ip, [sp, #-4]!)
500045bc:	e52db004 	push	{fp}		; (str fp, [sp, #-4]!)
500045c0:	e52da004 	push	{sl}		; (str sl, [sp, #-4]!)
500045c4:	e52d9004 	push	{r9}		; (str r9, [sp, #-4]!)
500045c8:	e52d8004 	push	{r8}		; (str r8, [sp, #-4]!)
500045cc:	e52d7004 	push	{r7}		; (str r7, [sp, #-4]!)
500045d0:	e52d6004 	push	{r6}		; (str r6, [sp, #-4]!)
500045d4:	e52d5004 	push	{r5}		; (str r5, [sp, #-4]!)
500045d8:	e52d4004 	push	{r4}		; (str r4, [sp, #-4]!)
500045dc:	e52d3004 	push	{r3}		; (str r3, [sp, #-4]!)
500045e0:	e52d2004 	push	{r2}		; (str r2, [sp, #-4]!)
500045e4:	e52d1004 	push	{r1}		; (str r1, [sp, #-4]!)
500045e8:	e52d0004 	push	{r0}		; (str r0, [sp, #-4]!)
500045ec:	e10f4000 	mrs	r4, CPSR
500045f0:	e52d4004 	push	{r4}		; (str r4, [sp, #-4]!)
500045f4:	e59f4240 	ldr	r4, [pc, #576]	; 5000483c <OS_TCBCur>
500045f8:	e5945000 	ldr	r5, [r4]
500045fc:	e585d000 	str	sp, [r5]
50004600:	eb000110 	bl	50004a48 <OSTaskSwHook>
50004604:	e59f4224 	ldr	r4, [pc, #548]	; 50004830 <OS_PrioCur>
50004608:	e59f5224 	ldr	r5, [pc, #548]	; 50004834 <OS_PrioHighRdy>
5000460c:	e5d56000 	ldrb	r6, [r5]
50004610:	e5c46000 	strb	r6, [r4]
50004614:	e59f4220 	ldr	r4, [pc, #544]	; 5000483c <OS_TCBCur>
50004618:	e59f6220 	ldr	r6, [pc, #544]	; 50004840 <OS_TCBHighRdy>
5000461c:	e5966000 	ldr	r6, [r6]
50004620:	e5846000 	str	r6, [r4]
50004624:	e596d000 	ldr	sp, [r6]
50004628:	e49d4004 	pop	{r4}		; (ldr r4, [sp], #4)
5000462c:	e12ff004 	msr	CPSR_fsxc, r4
50004630:	e49d0004 	pop	{r0}		; (ldr r0, [sp], #4)
50004634:	e49d1004 	pop	{r1}		; (ldr r1, [sp], #4)
50004638:	e49d2004 	pop	{r2}		; (ldr r2, [sp], #4)
5000463c:	e49d3004 	pop	{r3}		; (ldr r3, [sp], #4)
50004640:	e49d4004 	pop	{r4}		; (ldr r4, [sp], #4)
50004644:	e49d5004 	pop	{r5}		; (ldr r5, [sp], #4)
50004648:	e49d6004 	pop	{r6}		; (ldr r6, [sp], #4)
5000464c:	e49d7004 	pop	{r7}		; (ldr r7, [sp], #4)
50004650:	e49d8004 	pop	{r8}		; (ldr r8, [sp], #4)
50004654:	e49d9004 	pop	{r9}		; (ldr r9, [sp], #4)
50004658:	e49da004 	pop	{sl}		; (ldr sl, [sp], #4)
5000465c:	e49db004 	pop	{fp}		; (ldr fp, [sp], #4)
50004660:	e49dc004 	pop	{ip}		; (ldr ip, [sp], #4)
50004664:	e49de004 	pop	{lr}		; (ldr lr, [sp], #4)
50004668:	e49df004 	pop	{pc}		; (ldr pc, [sp], #4)

5000466c <OSIntCtxSw>:
5000466c:	eb0000f5 	bl	50004a48 <OSTaskSwHook>
50004670:	e59f41b8 	ldr	r4, [pc, #440]	; 50004830 <OS_PrioCur>
50004674:	e59f51b8 	ldr	r5, [pc, #440]	; 50004834 <OS_PrioHighRdy>
50004678:	e5d56000 	ldrb	r6, [r5]
5000467c:	e5c46000 	strb	r6, [r4]
50004680:	e59f41b4 	ldr	r4, [pc, #436]	; 5000483c <OS_TCBCur>
50004684:	e59f61b4 	ldr	r6, [pc, #436]	; 50004840 <OS_TCBHighRdy>
50004688:	e5966000 	ldr	r6, [r6]
5000468c:	e5846000 	str	r6, [r4]
50004690:	e596d000 	ldr	sp, [r6]
50004694:	e49d4004 	pop	{r4}		; (ldr r4, [sp], #4)
50004698:	e12ff004 	msr	CPSR_fsxc, r4
5000469c:	e49d0004 	pop	{r0}		; (ldr r0, [sp], #4)
500046a0:	e49d1004 	pop	{r1}		; (ldr r1, [sp], #4)
500046a4:	e49d2004 	pop	{r2}		; (ldr r2, [sp], #4)
500046a8:	e49d3004 	pop	{r3}		; (ldr r3, [sp], #4)
500046ac:	e49d4004 	pop	{r4}		; (ldr r4, [sp], #4)
500046b0:	e49d5004 	pop	{r5}		; (ldr r5, [sp], #4)
500046b4:	e49d6004 	pop	{r6}		; (ldr r6, [sp], #4)
500046b8:	e49d7004 	pop	{r7}		; (ldr r7, [sp], #4)
500046bc:	e49d8004 	pop	{r8}		; (ldr r8, [sp], #4)
500046c0:	e49d9004 	pop	{r9}		; (ldr r9, [sp], #4)
500046c4:	e49da004 	pop	{sl}		; (ldr sl, [sp], #4)
500046c8:	e49db004 	pop	{fp}		; (ldr fp, [sp], #4)
500046cc:	e49dc004 	pop	{ip}		; (ldr ip, [sp], #4)
500046d0:	e49de004 	pop	{lr}		; (ldr lr, [sp], #4)
500046d4:	e49df004 	pop	{pc}		; (ldr pc, [sp], #4)

500046d8 <OS_CPU_IRQ_ISR>:
500046d8:	e52d3004 	push	{r3}		; (str r3, [sp, #-4]!)
500046dc:	e52d2004 	push	{r2}		; (str r2, [sp, #-4]!)
500046e0:	e52d1004 	push	{r1}		; (str r1, [sp, #-4]!)
500046e4:	e1a0100d 	mov	r1, sp
500046e8:	e28dd00c 	add	sp, sp, #12
500046ec:	e24e2004 	sub	r2, lr, #4
500046f0:	e14f3000 	mrs	r3, SPSR
500046f4:	e321f0df 	msr	CPSR_c, #223	; 0xdf
500046f8:	e52d2004 	push	{r2}		; (str r2, [sp, #-4]!)
500046fc:	e52de004 	push	{lr}		; (str lr, [sp, #-4]!)
50004700:	e52dc004 	push	{ip}		; (str ip, [sp, #-4]!)
50004704:	e52db004 	push	{fp}		; (str fp, [sp, #-4]!)
50004708:	e52da004 	push	{sl}		; (str sl, [sp, #-4]!)
5000470c:	e52d9004 	push	{r9}		; (str r9, [sp, #-4]!)
50004710:	e52d8004 	push	{r8}		; (str r8, [sp, #-4]!)
50004714:	e52d7004 	push	{r7}		; (str r7, [sp, #-4]!)
50004718:	e52d6004 	push	{r6}		; (str r6, [sp, #-4]!)
5000471c:	e52d5004 	push	{r5}		; (str r5, [sp, #-4]!)
50004720:	e52d4004 	push	{r4}		; (str r4, [sp, #-4]!)
50004724:	e4914004 	ldr	r4, [r1], #4
50004728:	e4915004 	ldr	r5, [r1], #4
5000472c:	e4916004 	ldr	r6, [r1], #4
50004730:	e52d6004 	push	{r6}		; (str r6, [sp, #-4]!)
50004734:	e52d5004 	push	{r5}		; (str r5, [sp, #-4]!)
50004738:	e52d4004 	push	{r4}		; (str r4, [sp, #-4]!)
5000473c:	e52d0004 	push	{r0}		; (str r0, [sp, #-4]!)
50004740:	e52d3004 	push	{r3}		; (str r3, [sp, #-4]!)
50004744:	e59f00e0 	ldr	r0, [pc, #224]	; 5000482c <OS_IntNesting>
50004748:	e5d01000 	ldrb	r1, [r0]
5000474c:	e2811001 	add	r1, r1, #1
50004750:	e5c01000 	strb	r1, [r0]
50004754:	e3510001 	cmp	r1, #1
50004758:	1a000002 	bne	50004768 <OS_CPU_IRQ_ISR_1>
5000475c:	e59f40d8 	ldr	r4, [pc, #216]	; 5000483c <OS_TCBCur>
50004760:	e5945000 	ldr	r5, [r4]
50004764:	e585d000 	str	sp, [r5]

50004768 <OS_CPU_IRQ_ISR_1>:
50004768:	e321f0d2 	msr	CPSR_c, #210	; 0xd2
5000476c:	ebfffb67 	bl	50003510 <OS_CPU_IRQ_ISR_Handler>
50004770:	e321f0df 	msr	CPSR_c, #223	; 0xdf
50004774:	eb000761 	bl	50006500 <OSIntExit>
50004778:	e49d4004 	pop	{r4}		; (ldr r4, [sp], #4)
5000477c:	e12ff004 	msr	CPSR_fsxc, r4
50004780:	e49d0004 	pop	{r0}		; (ldr r0, [sp], #4)
50004784:	e49d1004 	pop	{r1}		; (ldr r1, [sp], #4)
50004788:	e49d2004 	pop	{r2}		; (ldr r2, [sp], #4)
5000478c:	e49d3004 	pop	{r3}		; (ldr r3, [sp], #4)
50004790:	e49d4004 	pop	{r4}		; (ldr r4, [sp], #4)
50004794:	e49d5004 	pop	{r5}		; (ldr r5, [sp], #4)
50004798:	e49d6004 	pop	{r6}		; (ldr r6, [sp], #4)
5000479c:	e49d7004 	pop	{r7}		; (ldr r7, [sp], #4)
500047a0:	e49d8004 	pop	{r8}		; (ldr r8, [sp], #4)
500047a4:	e49d9004 	pop	{r9}		; (ldr r9, [sp], #4)
500047a8:	e49da004 	pop	{sl}		; (ldr sl, [sp], #4)
500047ac:	e49db004 	pop	{fp}		; (ldr fp, [sp], #4)
500047b0:	e49dc004 	pop	{ip}		; (ldr ip, [sp], #4)
500047b4:	e49de004 	pop	{lr}		; (ldr lr, [sp], #4)
500047b8:	e49df004 	pop	{pc}		; (ldr pc, [sp], #4)

500047bc <OS_CPU_FIQ_ISR>:
500047bc:	e92d000e 	push	{r1, r2, r3}
500047c0:	e1a0100d 	mov	r1, sp
500047c4:	e28dd00c 	add	sp, sp, #12
500047c8:	e24e2004 	sub	r2, lr, #4
500047cc:	e14f3000 	mrs	r3, SPSR
500047d0:	e321f0df 	msr	CPSR_c, #223	; 0xdf
500047d4:	e92d0004 	stmfd	sp!, {r2}
500047d8:	e92d5ff0 	push	{r4, r5, r6, r7, r8, r9, sl, fp, ip, lr}
500047dc:	e8b10070 	ldm	r1!, {r4, r5, r6}
500047e0:	e92d0070 	push	{r4, r5, r6}
500047e4:	e92d0001 	stmfd	sp!, {r0}
500047e8:	e92d0008 	stmfd	sp!, {r3}
500047ec:	e59f0038 	ldr	r0, [pc, #56]	; 5000482c <OS_IntNesting>
500047f0:	e5d01000 	ldrb	r1, [r0]
500047f4:	e2811001 	add	r1, r1, #1
500047f8:	e5c01000 	strb	r1, [r0]
500047fc:	e3510001 	cmp	r1, #1
50004800:	1a000002 	bne	50004810 <OS_CPU_FIQ_ISR_1>
50004804:	e59f4030 	ldr	r4, [pc, #48]	; 5000483c <OS_TCBCur>
50004808:	e5945000 	ldr	r5, [r4]
5000480c:	e585d000 	str	sp, [r5]

50004810 <OS_CPU_FIQ_ISR_1>:
50004810:	e321f0d1 	msr	CPSR_c, #209	; 0xd1
50004814:	ebfffb57 	bl	50003578 <OS_CPU_FIQ_ISR_Handler>
50004818:	e321f0df 	msr	CPSR_c, #223	; 0xdf
5000481c:	eb000737 	bl	50006500 <OSIntExit>
50004820:	e8bd0010 	ldmfd	sp!, {r4}
50004824:	e12ff004 	msr	CPSR_fsxc, r4
50004828:	e8bddfff 	pop	{r0, r1, r2, r3, r4, r5, r6, r7, r8, r9, sl, fp, ip, lr, pc}

5000482c <OS_IntNesting>:
5000482c:	50012178 	andpl	r2, r1, r8, ror r1

50004830 <OS_PrioCur>:
50004830:	50011c64 	andpl	r1, r1, r4, ror #24

50004834 <OS_PrioHighRdy>:
50004834:	50011992 	mulpl	r1, r2, r9

50004838 <OS_Running>:
50004838:	50011988 	andpl	r1, r1, r8, lsl #19

5000483c <OS_TCBCur>:
5000483c:	5001217c 	andpl	r2, r1, ip, ror r1

50004840 <OS_TCBHighRdy>:
50004840:	50011f60 	andpl	r1, r1, r0, ror #30

50004844 <OSInitHookBegin>:
50004844:	e12fff1e 	bx	lr

50004848 <OSInitHookEnd>:
50004848:	e12fff1e 	bx	lr

5000484c <OSTaskCreateHook>:
5000484c:	e24dd008 	sub	sp, sp, #8
50004850:	e58d0004 	str	r0, [sp, #4]
50004854:	e28dd008 	add	sp, sp, #8
50004858:	e12fff1e 	bx	lr

5000485c <OSTaskDelHook>:
5000485c:	e24dd008 	sub	sp, sp, #8
50004860:	e58d0004 	str	r0, [sp, #4]
50004864:	e28dd008 	add	sp, sp, #8
50004868:	e12fff1e 	bx	lr

5000486c <OSTaskIdleHook>:
5000486c:	e12fff1e 	bx	lr

50004870 <OSTaskStatHook>:
50004870:	e12fff1e 	bx	lr

50004874 <OSTaskStkInit>:
50004874:	e24dd018 	sub	sp, sp, #24
50004878:	e58d000c 	str	r0, [sp, #12]
5000487c:	e58d1008 	str	r1, [sp, #8]
50004880:	e58d2004 	str	r2, [sp, #4]
50004884:	e1cd30b2 	strh	r3, [sp, #2]
50004888:	e59d3004 	ldr	r3, [sp, #4]
5000488c:	e58d3014 	str	r3, [sp, #20]
50004890:	e59d200c 	ldr	r2, [sp, #12]
50004894:	e59d3014 	ldr	r3, [sp, #20]
50004898:	e5832000 	str	r2, [r3]
5000489c:	e59d3014 	ldr	r3, [sp, #20]
500048a0:	e2433004 	sub	r3, r3, #4
500048a4:	e58d3014 	str	r3, [sp, #20]
500048a8:	e59d3014 	ldr	r3, [sp, #20]
500048ac:	e59f2160 	ldr	r2, [pc, #352]	; 50004a14 <OSTaskStkInit+0x1a0>
500048b0:	e5832000 	str	r2, [r3]
500048b4:	e59d3014 	ldr	r3, [sp, #20]
500048b8:	e2433004 	sub	r3, r3, #4
500048bc:	e58d3014 	str	r3, [sp, #20]
500048c0:	e59d3014 	ldr	r3, [sp, #20]
500048c4:	e59f214c 	ldr	r2, [pc, #332]	; 50004a18 <OSTaskStkInit+0x1a4>
500048c8:	e5832000 	str	r2, [r3]
500048cc:	e59d3014 	ldr	r3, [sp, #20]
500048d0:	e2433004 	sub	r3, r3, #4
500048d4:	e58d3014 	str	r3, [sp, #20]
500048d8:	e59d3014 	ldr	r3, [sp, #20]
500048dc:	e59f2138 	ldr	r2, [pc, #312]	; 50004a1c <OSTaskStkInit+0x1a8>
500048e0:	e5832000 	str	r2, [r3]
500048e4:	e59d3014 	ldr	r3, [sp, #20]
500048e8:	e2433004 	sub	r3, r3, #4
500048ec:	e58d3014 	str	r3, [sp, #20]
500048f0:	e59d3014 	ldr	r3, [sp, #20]
500048f4:	e59f2124 	ldr	r2, [pc, #292]	; 50004a20 <OSTaskStkInit+0x1ac>
500048f8:	e5832000 	str	r2, [r3]
500048fc:	e59d3014 	ldr	r3, [sp, #20]
50004900:	e2433004 	sub	r3, r3, #4
50004904:	e58d3014 	str	r3, [sp, #20]
50004908:	e59d3014 	ldr	r3, [sp, #20]
5000490c:	e59f2110 	ldr	r2, [pc, #272]	; 50004a24 <OSTaskStkInit+0x1b0>
50004910:	e5832000 	str	r2, [r3]
50004914:	e59d3014 	ldr	r3, [sp, #20]
50004918:	e2433004 	sub	r3, r3, #4
5000491c:	e58d3014 	str	r3, [sp, #20]
50004920:	e59d3014 	ldr	r3, [sp, #20]
50004924:	e59f20fc 	ldr	r2, [pc, #252]	; 50004a28 <OSTaskStkInit+0x1b4>
50004928:	e5832000 	str	r2, [r3]
5000492c:	e59d3014 	ldr	r3, [sp, #20]
50004930:	e2433004 	sub	r3, r3, #4
50004934:	e58d3014 	str	r3, [sp, #20]
50004938:	e59d3014 	ldr	r3, [sp, #20]
5000493c:	e59f20e8 	ldr	r2, [pc, #232]	; 50004a2c <OSTaskStkInit+0x1b8>
50004940:	e5832000 	str	r2, [r3]
50004944:	e59d3014 	ldr	r3, [sp, #20]
50004948:	e2433004 	sub	r3, r3, #4
5000494c:	e58d3014 	str	r3, [sp, #20]
50004950:	e59d3014 	ldr	r3, [sp, #20]
50004954:	e59f20d4 	ldr	r2, [pc, #212]	; 50004a30 <OSTaskStkInit+0x1bc>
50004958:	e5832000 	str	r2, [r3]
5000495c:	e59d3014 	ldr	r3, [sp, #20]
50004960:	e2433004 	sub	r3, r3, #4
50004964:	e58d3014 	str	r3, [sp, #20]
50004968:	e59d3014 	ldr	r3, [sp, #20]
5000496c:	e59f20c0 	ldr	r2, [pc, #192]	; 50004a34 <OSTaskStkInit+0x1c0>
50004970:	e5832000 	str	r2, [r3]
50004974:	e59d3014 	ldr	r3, [sp, #20]
50004978:	e2433004 	sub	r3, r3, #4
5000497c:	e58d3014 	str	r3, [sp, #20]
50004980:	e59d3014 	ldr	r3, [sp, #20]
50004984:	e59f20ac 	ldr	r2, [pc, #172]	; 50004a38 <OSTaskStkInit+0x1c4>
50004988:	e5832000 	str	r2, [r3]
5000498c:	e59d3014 	ldr	r3, [sp, #20]
50004990:	e2433004 	sub	r3, r3, #4
50004994:	e58d3014 	str	r3, [sp, #20]
50004998:	e59d3014 	ldr	r3, [sp, #20]
5000499c:	e59f2098 	ldr	r2, [pc, #152]	; 50004a3c <OSTaskStkInit+0x1c8>
500049a0:	e5832000 	str	r2, [r3]
500049a4:	e59d3014 	ldr	r3, [sp, #20]
500049a8:	e2433004 	sub	r3, r3, #4
500049ac:	e58d3014 	str	r3, [sp, #20]
500049b0:	e59d3014 	ldr	r3, [sp, #20]
500049b4:	e59f2084 	ldr	r2, [pc, #132]	; 50004a40 <OSTaskStkInit+0x1cc>
500049b8:	e5832000 	str	r2, [r3]
500049bc:	e59d3014 	ldr	r3, [sp, #20]
500049c0:	e2433004 	sub	r3, r3, #4
500049c4:	e58d3014 	str	r3, [sp, #20]
500049c8:	e59d3014 	ldr	r3, [sp, #20]
500049cc:	e59f2070 	ldr	r2, [pc, #112]	; 50004a44 <OSTaskStkInit+0x1d0>
500049d0:	e5832000 	str	r2, [r3]
500049d4:	e59d3014 	ldr	r3, [sp, #20]
500049d8:	e2433004 	sub	r3, r3, #4
500049dc:	e58d3014 	str	r3, [sp, #20]
500049e0:	e59d2008 	ldr	r2, [sp, #8]
500049e4:	e59d3014 	ldr	r3, [sp, #20]
500049e8:	e5832000 	str	r2, [r3]
500049ec:	e59d3014 	ldr	r3, [sp, #20]
500049f0:	e2433004 	sub	r3, r3, #4
500049f4:	e58d3014 	str	r3, [sp, #20]
500049f8:	e59d3014 	ldr	r3, [sp, #20]
500049fc:	e3a0201f 	mov	r2, #31
50004a00:	e5832000 	str	r2, [r3]
50004a04:	e59d3014 	ldr	r3, [sp, #20]
50004a08:	e1a00003 	mov	r0, r3
50004a0c:	e28dd018 	add	sp, sp, #24
50004a10:	e12fff1e 	bx	lr
50004a14:	14141414 	ldrne	r1, [r4], #-1044	; 0xfffffbec
50004a18:	12121212 	andsne	r1, r2, #536870913	; 0x20000001
50004a1c:	11111111 	tstne	r1, r1, lsl r1
50004a20:	10101010 	andsne	r1, r0, r0, lsl r0
50004a24:	09090909 	stmdbeq	r9, {r0, r3, r8, fp}
50004a28:	08080808 	stmdaeq	r8, {r3, fp}
50004a2c:	07070707 	streq	r0, [r7, -r7, lsl #14]
50004a30:	06060606 	streq	r0, [r6], -r6, lsl #12
50004a34:	05050505 	streq	r0, [r5, #-1285]	; 0xfffffafb
50004a38:	04040404 	streq	r0, [r4], #-1028	; 0xfffffbfc
50004a3c:	03030303 	movweq	r0, #13059	; 0x3303
50004a40:	02020202 	andeq	r0, r2, #536870912	; 0x20000000
50004a44:	01010101 	tsteq	r1, r1, lsl #2

50004a48 <OSTaskSwHook>:
50004a48:	e12fff1e 	bx	lr

50004a4c <OSTCBInitHook>:
50004a4c:	e24dd008 	sub	sp, sp, #8
50004a50:	e58d0004 	str	r0, [sp, #4]
50004a54:	e28dd008 	add	sp, sp, #8
50004a58:	e12fff1e 	bx	lr

50004a5c <OSTimeTickHook>:
50004a5c:	e12fff1e 	bx	lr

50004a60 <OSTaskReturnHook>:
50004a60:	e24dd008 	sub	sp, sp, #8
50004a64:	e58d0004 	str	r0, [sp, #4]
50004a68:	e28dd008 	add	sp, sp, #8
50004a6c:	e12fff1e 	bx	lr

50004a70 <OSDebugInit>:
50004a70:	e24dd008 	sub	sp, sp, #8
50004a74:	e59f31c8 	ldr	r3, [pc, #456]	; 50004c44 <OSDebugInit+0x1d4>
50004a78:	e58d3004 	str	r3, [sp, #4]
50004a7c:	e59f31c4 	ldr	r3, [pc, #452]	; 50004c48 <OSDebugInit+0x1d8>
50004a80:	e58d3004 	str	r3, [sp, #4]
50004a84:	e59f31c0 	ldr	r3, [pc, #448]	; 50004c4c <OSDebugInit+0x1dc>
50004a88:	e58d3004 	str	r3, [sp, #4]
50004a8c:	e59f31bc 	ldr	r3, [pc, #444]	; 50004c50 <OSDebugInit+0x1e0>
50004a90:	e58d3004 	str	r3, [sp, #4]
50004a94:	e59f31b8 	ldr	r3, [pc, #440]	; 50004c54 <OSDebugInit+0x1e4>
50004a98:	e58d3004 	str	r3, [sp, #4]
50004a9c:	e59f31b4 	ldr	r3, [pc, #436]	; 50004c58 <OSDebugInit+0x1e8>
50004aa0:	e58d3004 	str	r3, [sp, #4]
50004aa4:	e59f31b0 	ldr	r3, [pc, #432]	; 50004c5c <OSDebugInit+0x1ec>
50004aa8:	e58d3004 	str	r3, [sp, #4]
50004aac:	e59f31ac 	ldr	r3, [pc, #428]	; 50004c60 <OSDebugInit+0x1f0>
50004ab0:	e58d3004 	str	r3, [sp, #4]
50004ab4:	e59f31a8 	ldr	r3, [pc, #424]	; 50004c64 <OSDebugInit+0x1f4>
50004ab8:	e58d3004 	str	r3, [sp, #4]
50004abc:	e59f31a4 	ldr	r3, [pc, #420]	; 50004c68 <OSDebugInit+0x1f8>
50004ac0:	e58d3004 	str	r3, [sp, #4]
50004ac4:	e59f31a0 	ldr	r3, [pc, #416]	; 50004c6c <OSDebugInit+0x1fc>
50004ac8:	e58d3004 	str	r3, [sp, #4]
50004acc:	e59f319c 	ldr	r3, [pc, #412]	; 50004c70 <OSDebugInit+0x200>
50004ad0:	e58d3004 	str	r3, [sp, #4]
50004ad4:	e59f3198 	ldr	r3, [pc, #408]	; 50004c74 <OSDebugInit+0x204>
50004ad8:	e58d3004 	str	r3, [sp, #4]
50004adc:	e59f3194 	ldr	r3, [pc, #404]	; 50004c78 <OSDebugInit+0x208>
50004ae0:	e58d3004 	str	r3, [sp, #4]
50004ae4:	e59f3190 	ldr	r3, [pc, #400]	; 50004c7c <OSDebugInit+0x20c>
50004ae8:	e58d3004 	str	r3, [sp, #4]
50004aec:	e59f318c 	ldr	r3, [pc, #396]	; 50004c80 <OSDebugInit+0x210>
50004af0:	e58d3004 	str	r3, [sp, #4]
50004af4:	e59f3188 	ldr	r3, [pc, #392]	; 50004c84 <OSDebugInit+0x214>
50004af8:	e58d3004 	str	r3, [sp, #4]
50004afc:	e59f3184 	ldr	r3, [pc, #388]	; 50004c88 <OSDebugInit+0x218>
50004b00:	e58d3004 	str	r3, [sp, #4]
50004b04:	e59f3180 	ldr	r3, [pc, #384]	; 50004c8c <OSDebugInit+0x21c>
50004b08:	e58d3004 	str	r3, [sp, #4]
50004b0c:	e59f317c 	ldr	r3, [pc, #380]	; 50004c90 <OSDebugInit+0x220>
50004b10:	e58d3004 	str	r3, [sp, #4]
50004b14:	e59f3178 	ldr	r3, [pc, #376]	; 50004c94 <OSDebugInit+0x224>
50004b18:	e58d3004 	str	r3, [sp, #4]
50004b1c:	e59f3174 	ldr	r3, [pc, #372]	; 50004c98 <OSDebugInit+0x228>
50004b20:	e58d3004 	str	r3, [sp, #4]
50004b24:	e59f3170 	ldr	r3, [pc, #368]	; 50004c9c <OSDebugInit+0x22c>
50004b28:	e58d3004 	str	r3, [sp, #4]
50004b2c:	e59f316c 	ldr	r3, [pc, #364]	; 50004ca0 <OSDebugInit+0x230>
50004b30:	e58d3004 	str	r3, [sp, #4]
50004b34:	e59f3168 	ldr	r3, [pc, #360]	; 50004ca4 <OSDebugInit+0x234>
50004b38:	e58d3004 	str	r3, [sp, #4]
50004b3c:	e59f3164 	ldr	r3, [pc, #356]	; 50004ca8 <OSDebugInit+0x238>
50004b40:	e58d3004 	str	r3, [sp, #4]
50004b44:	e59f3160 	ldr	r3, [pc, #352]	; 50004cac <OSDebugInit+0x23c>
50004b48:	e58d3004 	str	r3, [sp, #4]
50004b4c:	e59f315c 	ldr	r3, [pc, #348]	; 50004cb0 <OSDebugInit+0x240>
50004b50:	e58d3004 	str	r3, [sp, #4]
50004b54:	e59f3158 	ldr	r3, [pc, #344]	; 50004cb4 <OSDebugInit+0x244>
50004b58:	e58d3004 	str	r3, [sp, #4]
50004b5c:	e59f3154 	ldr	r3, [pc, #340]	; 50004cb8 <OSDebugInit+0x248>
50004b60:	e58d3004 	str	r3, [sp, #4]
50004b64:	e59f3150 	ldr	r3, [pc, #336]	; 50004cbc <OSDebugInit+0x24c>
50004b68:	e58d3004 	str	r3, [sp, #4]
50004b6c:	e59f314c 	ldr	r3, [pc, #332]	; 50004cc0 <OSDebugInit+0x250>
50004b70:	e58d3004 	str	r3, [sp, #4]
50004b74:	e59f3148 	ldr	r3, [pc, #328]	; 50004cc4 <OSDebugInit+0x254>
50004b78:	e58d3004 	str	r3, [sp, #4]
50004b7c:	e59f3144 	ldr	r3, [pc, #324]	; 50004cc8 <OSDebugInit+0x258>
50004b80:	e58d3004 	str	r3, [sp, #4]
50004b84:	e59f3140 	ldr	r3, [pc, #320]	; 50004ccc <OSDebugInit+0x25c>
50004b88:	e58d3004 	str	r3, [sp, #4]
50004b8c:	e59f313c 	ldr	r3, [pc, #316]	; 50004cd0 <OSDebugInit+0x260>
50004b90:	e58d3004 	str	r3, [sp, #4]
50004b94:	e59f3138 	ldr	r3, [pc, #312]	; 50004cd4 <OSDebugInit+0x264>
50004b98:	e58d3004 	str	r3, [sp, #4]
50004b9c:	e59f3134 	ldr	r3, [pc, #308]	; 50004cd8 <OSDebugInit+0x268>
50004ba0:	e58d3004 	str	r3, [sp, #4]
50004ba4:	e59f3130 	ldr	r3, [pc, #304]	; 50004cdc <OSDebugInit+0x26c>
50004ba8:	e58d3004 	str	r3, [sp, #4]
50004bac:	e59f312c 	ldr	r3, [pc, #300]	; 50004ce0 <OSDebugInit+0x270>
50004bb0:	e58d3004 	str	r3, [sp, #4]
50004bb4:	e59f3128 	ldr	r3, [pc, #296]	; 50004ce4 <OSDebugInit+0x274>
50004bb8:	e58d3004 	str	r3, [sp, #4]
50004bbc:	e59f3124 	ldr	r3, [pc, #292]	; 50004ce8 <OSDebugInit+0x278>
50004bc0:	e58d3004 	str	r3, [sp, #4]
50004bc4:	e59f3120 	ldr	r3, [pc, #288]	; 50004cec <OSDebugInit+0x27c>
50004bc8:	e58d3004 	str	r3, [sp, #4]
50004bcc:	e59f311c 	ldr	r3, [pc, #284]	; 50004cf0 <OSDebugInit+0x280>
50004bd0:	e58d3004 	str	r3, [sp, #4]
50004bd4:	e59f3118 	ldr	r3, [pc, #280]	; 50004cf4 <OSDebugInit+0x284>
50004bd8:	e58d3004 	str	r3, [sp, #4]
50004bdc:	e59f3114 	ldr	r3, [pc, #276]	; 50004cf8 <OSDebugInit+0x288>
50004be0:	e58d3004 	str	r3, [sp, #4]
50004be4:	e59f3110 	ldr	r3, [pc, #272]	; 50004cfc <OSDebugInit+0x28c>
50004be8:	e58d3004 	str	r3, [sp, #4]
50004bec:	e59f310c 	ldr	r3, [pc, #268]	; 50004d00 <OSDebugInit+0x290>
50004bf0:	e58d3004 	str	r3, [sp, #4]
50004bf4:	e59f3108 	ldr	r3, [pc, #264]	; 50004d04 <OSDebugInit+0x294>
50004bf8:	e58d3004 	str	r3, [sp, #4]
50004bfc:	e59f3104 	ldr	r3, [pc, #260]	; 50004d08 <OSDebugInit+0x298>
50004c00:	e58d3004 	str	r3, [sp, #4]
50004c04:	e59f3100 	ldr	r3, [pc, #256]	; 50004d0c <OSDebugInit+0x29c>
50004c08:	e58d3004 	str	r3, [sp, #4]
50004c0c:	e59f30fc 	ldr	r3, [pc, #252]	; 50004d10 <OSDebugInit+0x2a0>
50004c10:	e58d3004 	str	r3, [sp, #4]
50004c14:	e59f30f8 	ldr	r3, [pc, #248]	; 50004d14 <OSDebugInit+0x2a4>
50004c18:	e58d3004 	str	r3, [sp, #4]
50004c1c:	e59f30f4 	ldr	r3, [pc, #244]	; 50004d18 <OSDebugInit+0x2a8>
50004c20:	e58d3004 	str	r3, [sp, #4]
50004c24:	e59f30f0 	ldr	r3, [pc, #240]	; 50004d1c <OSDebugInit+0x2ac>
50004c28:	e58d3004 	str	r3, [sp, #4]
50004c2c:	e59f30ec 	ldr	r3, [pc, #236]	; 50004d20 <OSDebugInit+0x2b0>
50004c30:	e58d3004 	str	r3, [sp, #4]
50004c34:	e59f30e8 	ldr	r3, [pc, #232]	; 50004d24 <OSDebugInit+0x2b4>
50004c38:	e58d3004 	str	r3, [sp, #4]
50004c3c:	e28dd008 	add	sp, sp, #8
50004c40:	e12fff1e 	bx	lr
50004c44:	5001093c 	andpl	r0, r1, ip, lsr r9
50004c48:	50010940 	andpl	r0, r1, r0, asr #18
50004c4c:	50010946 	andpl	r0, r1, r6, asr #18
50004c50:	50010948 	andpl	r0, r1, r8, asr #18
50004c54:	50010944 	andpl	r0, r1, r4, asr #18
50004c58:	5001094a 	andpl	r0, r1, sl, asr #18
50004c5c:	5001094c 	andpl	r0, r1, ip, asr #18
50004c60:	5001094e 	andpl	r0, r1, lr, asr #18
50004c64:	50010950 	andpl	r0, r1, r0, asr r9
50004c68:	50010952 	andpl	r0, r1, r2, asr r9
50004c6c:	50010954 	andpl	r0, r1, r4, asr r9
50004c70:	50010956 	andpl	r0, r1, r6, asr r9
50004c74:	50010958 	andpl	r0, r1, r8, asr r9
50004c78:	5001095a 	andpl	r0, r1, sl, asr r9
50004c7c:	5001095c 	andpl	r0, r1, ip, asr r9
50004c80:	5001095e 	andpl	r0, r1, lr, asr r9
50004c84:	50010960 	andpl	r0, r1, r0, ror #18
50004c88:	50010962 	andpl	r0, r1, r2, ror #18
50004c8c:	50010964 	andpl	r0, r1, r4, ror #18
50004c90:	50010966 	andpl	r0, r1, r6, ror #18
50004c94:	50010968 	andpl	r0, r1, r8, ror #18
50004c98:	5001096a 	andpl	r0, r1, sl, ror #18
50004c9c:	5001096c 	andpl	r0, r1, ip, ror #18
50004ca0:	5001096e 	andpl	r0, r1, lr, ror #18
50004ca4:	50010970 	andpl	r0, r1, r0, ror r9
50004ca8:	50010972 	andpl	r0, r1, r2, ror r9
50004cac:	50010974 	andpl	r0, r1, r4, ror r9
50004cb0:	50010976 	andpl	r0, r1, r6, ror r9
50004cb4:	50010978 	andpl	r0, r1, r8, ror r9
50004cb8:	5001097a 	andpl	r0, r1, sl, ror r9
50004cbc:	5001097c 	andpl	r0, r1, ip, ror r9
50004cc0:	5001097e 	andpl	r0, r1, lr, ror r9
50004cc4:	50010980 	andpl	r0, r1, r0, lsl #19
50004cc8:	50010982 	andpl	r0, r1, r2, lsl #19
50004ccc:	50010984 	andpl	r0, r1, r4, lsl #19
50004cd0:	50010986 	andpl	r0, r1, r6, lsl #19
50004cd4:	50010988 	andpl	r0, r1, r8, lsl #19
50004cd8:	5001098a 	andpl	r0, r1, sl, lsl #19
50004cdc:	5001098c 	andpl	r0, r1, ip, lsl #19
50004ce0:	5001098e 	andpl	r0, r1, lr, lsl #19
50004ce4:	50010992 	mulpl	r1, r2, r9
50004ce8:	50010994 	mulpl	r1, r4, r9
50004cec:	50010996 	mulpl	r1, r6, r9
50004cf0:	50010998 	mulpl	r1, r8, r9
50004cf4:	500119e4 	andpl	r1, r1, r4, ror #19
50004cf8:	50011940 	andpl	r1, r1, r0, asr #18
50004cfc:	5001099c 	mulpl	r1, ip, r9
50004d00:	5001099e 	mulpl	r1, lr, r9
50004d04:	500109a0 	andpl	r0, r1, r0, lsr #19
50004d08:	500109a2 	andpl	r0, r1, r2, lsr #19
50004d0c:	500109a4 	andpl	r0, r1, r4, lsr #19
50004d10:	500109a6 	andpl	r0, r1, r6, lsr #19
50004d14:	500109a8 	andpl	r0, r1, r8, lsr #19
50004d18:	500109aa 	andpl	r0, r1, sl, lsr #19
50004d1c:	500109ac 	andpl	r0, r1, ip, lsr #19
50004d20:	5001099a 	mulpl	r1, sl, r9
50004d24:	500109ae 	andpl	r0, r1, lr, lsr #19

50004d28 <init_pwm>:
50004d28:	e59f3080 	ldr	r3, [pc, #128]	; 50004db0 <init_pwm+0x88>
50004d2c:	e59f207c 	ldr	r2, [pc, #124]	; 50004db0 <init_pwm+0x88>
50004d30:	e5922000 	ldr	r2, [r2]
50004d34:	e3c220ff 	bic	r2, r2, #255	; 0xff
50004d38:	e3822041 	orr	r2, r2, #65	; 0x41
50004d3c:	e5832000 	str	r2, [r3]
50004d40:	e59f306c 	ldr	r3, [pc, #108]	; 50004db4 <init_pwm+0x8c>
50004d44:	e3a02000 	mov	r2, #0
50004d48:	e5832000 	str	r2, [r3]
50004d4c:	e59f3064 	ldr	r3, [pc, #100]	; 50004db8 <init_pwm+0x90>
50004d50:	e59f2064 	ldr	r2, [pc, #100]	; 50004dbc <init_pwm+0x94>
50004d54:	e5832000 	str	r2, [r3]
50004d58:	e59f3060 	ldr	r3, [pc, #96]	; 50004dc0 <init_pwm+0x98>
50004d5c:	e59f205c 	ldr	r2, [pc, #92]	; 50004dc0 <init_pwm+0x98>
50004d60:	e5922000 	ldr	r2, [r2]
50004d64:	e3822001 	orr	r2, r2, #1
50004d68:	e5832000 	str	r2, [r3]
50004d6c:	e59f3050 	ldr	r3, [pc, #80]	; 50004dc4 <init_pwm+0x9c>
50004d70:	e3a0200b 	mov	r2, #11
50004d74:	e5832000 	str	r2, [r3]
50004d78:	e59f3044 	ldr	r3, [pc, #68]	; 50004dc4 <init_pwm+0x9c>
50004d7c:	e59f2040 	ldr	r2, [pc, #64]	; 50004dc4 <init_pwm+0x9c>
50004d80:	e5922000 	ldr	r2, [r2]
50004d84:	e3c22002 	bic	r2, r2, #2
50004d88:	e5832000 	str	r2, [r3]
50004d8c:	e59f3034 	ldr	r3, [pc, #52]	; 50004dc8 <init_pwm+0xa0>
50004d90:	e59f2030 	ldr	r2, [pc, #48]	; 50004dc8 <init_pwm+0xa0>
50004d94:	e5922000 	ldr	r2, [r2]
50004d98:	e3822502 	orr	r2, r2, #8388608	; 0x800000
50004d9c:	e5832000 	str	r2, [r3]
50004da0:	e59f3024 	ldr	r3, [pc, #36]	; 50004dcc <init_pwm+0xa4>
50004da4:	e59f2024 	ldr	r2, [pc, #36]	; 50004dd0 <init_pwm+0xa8>
50004da8:	e5832000 	str	r2, [r3]
50004dac:	e12fff1e 	bx	lr
50004db0:	7f006000 	svcvc	0x00006000
50004db4:	7f006004 	svcvc	0x00006004
50004db8:	7f00600c 	svcvc	0x0000600c
50004dbc:	00002710 	andeq	r2, r0, r0, lsl r7
50004dc0:	7f006044 	svcvc	0x00006044
50004dc4:	7f006008 	svcvc	0x00006008
50004dc8:	71200010 	teqvc	r0, r0, lsl r0
50004dcc:	7120015c 	teqvc	r0, ip, asr r1
50004dd0:	50004dd4 	ldrdpl	r4, [r0], -r4	; <UNPREDICTABLE>

50004dd4 <pwm_isr>:
50004dd4:	e92d4008 	push	{r3, lr}
50004dd8:	e59f3024 	ldr	r3, [pc, #36]	; 50004e04 <pwm_isr+0x30>
50004ddc:	e59f2020 	ldr	r2, [pc, #32]	; 50004e04 <pwm_isr+0x30>
50004de0:	e5922000 	ldr	r2, [r2]
50004de4:	e3822020 	orr	r2, r2, #32
50004de8:	e5832000 	str	r2, [r3]
50004dec:	e59f3014 	ldr	r3, [pc, #20]	; 50004e08 <pwm_isr+0x34>
50004df0:	e3a02000 	mov	r2, #0
50004df4:	e5832000 	str	r2, [r3]
50004df8:	eb00068e 	bl	50006838 <OSTimeTick>
50004dfc:	e1a00000 	nop			; (mov r0, r0)
50004e00:	e8bd8008 	pop	{r3, pc}
50004e04:	7f006044 	svcvc	0x00006044
50004e08:	71200f00 	teqvc	r0, r0, lsl #30

50004e0c <init_timer_1>:
50004e0c:	e92d4070 	push	{r4, r5, r6, lr}
50004e10:	e59f3218 	ldr	r3, [pc, #536]	; 50005030 <init_timer_1+0x224>
50004e14:	e59f2214 	ldr	r2, [pc, #532]	; 50005030 <init_timer_1+0x224>
50004e18:	e5922000 	ldr	r2, [r2]
50004e1c:	e3c22103 	bic	r2, r2, #-1073741824	; 0xc0000000
50004e20:	e5832000 	str	r2, [r3]
50004e24:	e59f3204 	ldr	r3, [pc, #516]	; 50005030 <init_timer_1+0x224>
50004e28:	e59f2200 	ldr	r2, [pc, #512]	; 50005030 <init_timer_1+0x224>
50004e2c:	e5922000 	ldr	r2, [r2]
50004e30:	e3822102 	orr	r2, r2, #-2147483648	; 0x80000000
50004e34:	e5832000 	str	r2, [r3]
50004e38:	e59f41f4 	ldr	r4, [pc, #500]	; 50005034 <init_timer_1+0x228>
50004e3c:	e59f31f4 	ldr	r3, [pc, #500]	; 50005038 <init_timer_1+0x22c>
50004e40:	e5933000 	ldr	r3, [r3]
50004e44:	e1a00003 	mov	r0, r3
50004e48:	eb002c47 	bl	5000ff6c <__aeabi_f2iz>
50004e4c:	e1a03000 	mov	r3, r0
50004e50:	e5843000 	str	r3, [r4]
50004e54:	e59f61e0 	ldr	r6, [pc, #480]	; 5000503c <init_timer_1+0x230>
50004e58:	e59f31d8 	ldr	r3, [pc, #472]	; 50005038 <init_timer_1+0x22c>
50004e5c:	e5933000 	ldr	r3, [r3]
50004e60:	e1a00003 	mov	r0, r3
50004e64:	eb00291b 	bl	5000f2d8 <__aeabi_f2d>
50004e68:	e1a04000 	mov	r4, r0
50004e6c:	e1a05001 	mov	r5, r1
50004e70:	e59f31c8 	ldr	r3, [pc, #456]	; 50005040 <init_timer_1+0x234>
50004e74:	e5933000 	ldr	r3, [r3]
50004e78:	e1a00003 	mov	r0, r3
50004e7c:	e59f11c0 	ldr	r1, [pc, #448]	; 50005044 <init_timer_1+0x238>
50004e80:	eb002be1 	bl	5000fe0c <__aeabi_fdiv>
50004e84:	e1a03000 	mov	r3, r0
50004e88:	e1a00003 	mov	r0, r3
50004e8c:	eb002911 	bl	5000f2d8 <__aeabi_f2d>
50004e90:	e1a02000 	mov	r2, r0
50004e94:	e1a03001 	mov	r3, r1
50004e98:	e3a00000 	mov	r0, #0
50004e9c:	e59f11a4 	ldr	r1, [pc, #420]	; 50005048 <init_timer_1+0x23c>
50004ea0:	eb002834 	bl	5000ef78 <__aeabi_dsub>
50004ea4:	e1a02000 	mov	r2, r0
50004ea8:	e1a03001 	mov	r3, r1
50004eac:	e1a00004 	mov	r0, r4
50004eb0:	e1a01005 	mov	r1, r5
50004eb4:	eb002934 	bl	5000f38c <__aeabi_dmul>
50004eb8:	e1a02000 	mov	r2, r0
50004ebc:	e1a03001 	mov	r3, r1
50004ec0:	e1a00002 	mov	r0, r2
50004ec4:	e1a01003 	mov	r1, r3
50004ec8:	eb002aa7 	bl	5000f96c <__aeabi_d2iz>
50004ecc:	e1a03000 	mov	r3, r0
50004ed0:	e5863000 	str	r3, [r6]
50004ed4:	e59f3164 	ldr	r3, [pc, #356]	; 50005040 <init_timer_1+0x234>
50004ed8:	e5933000 	ldr	r3, [r3]
50004edc:	e1a00003 	mov	r0, r3
50004ee0:	e3a015fe 	mov	r1, #1065353216	; 0x3f800000
50004ee4:	eb002aba 	bl	5000f9d4 <__addsf3>
50004ee8:	e1a03000 	mov	r3, r0
50004eec:	e1a02003 	mov	r2, r3
50004ef0:	e59f3148 	ldr	r3, [pc, #328]	; 50005040 <init_timer_1+0x234>
50004ef4:	e5832000 	str	r2, [r3]
50004ef8:	e59f314c 	ldr	r3, [pc, #332]	; 5000504c <init_timer_1+0x240>
50004efc:	e59f2148 	ldr	r2, [pc, #328]	; 5000504c <init_timer_1+0x240>
50004f00:	e5922000 	ldr	r2, [r2]
50004f04:	e3822c02 	orr	r2, r2, #512	; 0x200
50004f08:	e5832000 	str	r2, [r3]
50004f0c:	e59f3138 	ldr	r3, [pc, #312]	; 5000504c <init_timer_1+0x240>
50004f10:	e59f2134 	ldr	r2, [pc, #308]	; 5000504c <init_timer_1+0x240>
50004f14:	e5922000 	ldr	r2, [r2]
50004f18:	e3c22b01 	bic	r2, r2, #1024	; 0x400
50004f1c:	e5832000 	str	r2, [r3]
50004f20:	e59f410c 	ldr	r4, [pc, #268]	; 50005034 <init_timer_1+0x228>
50004f24:	e59f310c 	ldr	r3, [pc, #268]	; 50005038 <init_timer_1+0x22c>
50004f28:	e5933000 	ldr	r3, [r3]
50004f2c:	e1a00003 	mov	r0, r3
50004f30:	eb002c0d 	bl	5000ff6c <__aeabi_f2iz>
50004f34:	e1a03000 	mov	r3, r0
50004f38:	e5843000 	str	r3, [r4]
50004f3c:	e59f60f8 	ldr	r6, [pc, #248]	; 5000503c <init_timer_1+0x230>
50004f40:	e59f30f0 	ldr	r3, [pc, #240]	; 50005038 <init_timer_1+0x22c>
50004f44:	e5933000 	ldr	r3, [r3]
50004f48:	e1a00003 	mov	r0, r3
50004f4c:	eb0028e1 	bl	5000f2d8 <__aeabi_f2d>
50004f50:	e1a04000 	mov	r4, r0
50004f54:	e1a05001 	mov	r5, r1
50004f58:	e59f30e0 	ldr	r3, [pc, #224]	; 50005040 <init_timer_1+0x234>
50004f5c:	e5933000 	ldr	r3, [r3]
50004f60:	e1a00003 	mov	r0, r3
50004f64:	e59f10d8 	ldr	r1, [pc, #216]	; 50005044 <init_timer_1+0x238>
50004f68:	eb002ba7 	bl	5000fe0c <__aeabi_fdiv>
50004f6c:	e1a03000 	mov	r3, r0
50004f70:	e1a00003 	mov	r0, r3
50004f74:	eb0028d7 	bl	5000f2d8 <__aeabi_f2d>
50004f78:	e1a02000 	mov	r2, r0
50004f7c:	e1a03001 	mov	r3, r1
50004f80:	e3a00000 	mov	r0, #0
50004f84:	e59f10bc 	ldr	r1, [pc, #188]	; 50005048 <init_timer_1+0x23c>
50004f88:	eb0027fa 	bl	5000ef78 <__aeabi_dsub>
50004f8c:	e1a02000 	mov	r2, r0
50004f90:	e1a03001 	mov	r3, r1
50004f94:	e1a00004 	mov	r0, r4
50004f98:	e1a01005 	mov	r1, r5
50004f9c:	eb0028fa 	bl	5000f38c <__aeabi_dmul>
50004fa0:	e1a02000 	mov	r2, r0
50004fa4:	e1a03001 	mov	r3, r1
50004fa8:	e1a00002 	mov	r0, r2
50004fac:	e1a01003 	mov	r1, r3
50004fb0:	eb002a6d 	bl	5000f96c <__aeabi_d2iz>
50004fb4:	e1a03000 	mov	r3, r0
50004fb8:	e5863000 	str	r3, [r6]
50004fbc:	e59f307c 	ldr	r3, [pc, #124]	; 50005040 <init_timer_1+0x234>
50004fc0:	e5933000 	ldr	r3, [r3]
50004fc4:	e1a00003 	mov	r0, r3
50004fc8:	e3a015fe 	mov	r1, #1065353216	; 0x3f800000
50004fcc:	eb002a80 	bl	5000f9d4 <__addsf3>
50004fd0:	e1a03000 	mov	r3, r0
50004fd4:	e1a02003 	mov	r2, r3
50004fd8:	e59f3060 	ldr	r3, [pc, #96]	; 50005040 <init_timer_1+0x234>
50004fdc:	e5832000 	str	r2, [r3]
50004fe0:	e59f3064 	ldr	r3, [pc, #100]	; 5000504c <init_timer_1+0x240>
50004fe4:	e59f2060 	ldr	r2, [pc, #96]	; 5000504c <init_timer_1+0x240>
50004fe8:	e5922000 	ldr	r2, [r2]
50004fec:	e3822b02 	orr	r2, r2, #2048	; 0x800
50004ff0:	e5832000 	str	r2, [r3]
50004ff4:	e59f3054 	ldr	r3, [pc, #84]	; 50005050 <init_timer_1+0x244>
50004ff8:	e59f2050 	ldr	r2, [pc, #80]	; 50005050 <init_timer_1+0x244>
50004ffc:	e5922000 	ldr	r2, [r2]
50005000:	e3822002 	orr	r2, r2, #2
50005004:	e5832000 	str	r2, [r3]
50005008:	e59f3044 	ldr	r3, [pc, #68]	; 50005054 <init_timer_1+0x248>
5000500c:	e59f2040 	ldr	r2, [pc, #64]	; 50005054 <init_timer_1+0x248>
50005010:	e5922000 	ldr	r2, [r2]
50005014:	e3822401 	orr	r2, r2, #16777216	; 0x1000000
50005018:	e5832000 	str	r2, [r3]
5000501c:	e59f3034 	ldr	r3, [pc, #52]	; 50005058 <init_timer_1+0x24c>
50005020:	e59f2034 	ldr	r2, [pc, #52]	; 5000505c <init_timer_1+0x250>
50005024:	e5832000 	str	r2, [r3]
50005028:	e1a00000 	nop			; (mov r0, r0)
5000502c:	e8bd8070 	pop	{r4, r5, r6, pc}
50005030:	7f0080a0 	svcvc	0x000080a0
50005034:	7f006018 	svcvc	0x00006018
50005038:	50010d1c 	andpl	r0, r1, ip, lsl sp
5000503c:	7f00601c 	svcvc	0x0000601c
50005040:	50010d20 	andpl	r0, r1, r0, lsr #26
50005044:	42c80000 	sbcmi	r0, r8, #0
50005048:	3ff00000 	svccc	0x00f00000	; IMB
5000504c:	7f006008 	svcvc	0x00006008
50005050:	7f006044 	svcvc	0x00006044
50005054:	71200010 	teqvc	r0, r0, lsl r0
50005058:	71200160 	teqvc	r0, r0, ror #2
5000505c:	50005094 	mulpl	r0, r4, r0

50005060 <start_timer_1>:
50005060:	e59f3028 	ldr	r3, [pc, #40]	; 50005090 <start_timer_1+0x30>
50005064:	e59f2024 	ldr	r2, [pc, #36]	; 50005090 <start_timer_1+0x30>
50005068:	e5922000 	ldr	r2, [r2]
5000506c:	e3822c01 	orr	r2, r2, #256	; 0x100
50005070:	e5832000 	str	r2, [r3]
50005074:	e59f3014 	ldr	r3, [pc, #20]	; 50005090 <start_timer_1+0x30>
50005078:	e59f2010 	ldr	r2, [pc, #16]	; 50005090 <start_timer_1+0x30>
5000507c:	e5922000 	ldr	r2, [r2]
50005080:	e3c22c02 	bic	r2, r2, #512	; 0x200
50005084:	e5832000 	str	r2, [r3]
50005088:	e1a00000 	nop			; (mov r0, r0)
5000508c:	e12fff1e 	bx	lr
50005090:	7f006008 	svcvc	0x00006008

50005094 <timer_1_isr>:
50005094:	e92d4070 	push	{r4, r5, r6, lr}
50005098:	e59f4198 	ldr	r4, [pc, #408]	; 50005238 <timer_1_isr+0x1a4>
5000509c:	e59f3198 	ldr	r3, [pc, #408]	; 5000523c <timer_1_isr+0x1a8>
500050a0:	e5933000 	ldr	r3, [r3]
500050a4:	e1a00003 	mov	r0, r3
500050a8:	eb002baf 	bl	5000ff6c <__aeabi_f2iz>
500050ac:	e1a03000 	mov	r3, r0
500050b0:	e5843000 	str	r3, [r4]
500050b4:	e59f6184 	ldr	r6, [pc, #388]	; 50005240 <timer_1_isr+0x1ac>
500050b8:	e59f317c 	ldr	r3, [pc, #380]	; 5000523c <timer_1_isr+0x1a8>
500050bc:	e5933000 	ldr	r3, [r3]
500050c0:	e1a00003 	mov	r0, r3
500050c4:	eb002883 	bl	5000f2d8 <__aeabi_f2d>
500050c8:	e1a04000 	mov	r4, r0
500050cc:	e1a05001 	mov	r5, r1
500050d0:	e59f316c 	ldr	r3, [pc, #364]	; 50005244 <timer_1_isr+0x1b0>
500050d4:	e5933000 	ldr	r3, [r3]
500050d8:	e1a00003 	mov	r0, r3
500050dc:	e59f1164 	ldr	r1, [pc, #356]	; 50005248 <timer_1_isr+0x1b4>
500050e0:	eb002b49 	bl	5000fe0c <__aeabi_fdiv>
500050e4:	e1a03000 	mov	r3, r0
500050e8:	e1a00003 	mov	r0, r3
500050ec:	eb002879 	bl	5000f2d8 <__aeabi_f2d>
500050f0:	e1a02000 	mov	r2, r0
500050f4:	e1a03001 	mov	r3, r1
500050f8:	e3a00000 	mov	r0, #0
500050fc:	e59f1148 	ldr	r1, [pc, #328]	; 5000524c <timer_1_isr+0x1b8>
50005100:	eb00279c 	bl	5000ef78 <__aeabi_dsub>
50005104:	e1a02000 	mov	r2, r0
50005108:	e1a03001 	mov	r3, r1
5000510c:	e1a00004 	mov	r0, r4
50005110:	e1a01005 	mov	r1, r5
50005114:	eb00289c 	bl	5000f38c <__aeabi_dmul>
50005118:	e1a02000 	mov	r2, r0
5000511c:	e1a03001 	mov	r3, r1
50005120:	e1a00002 	mov	r0, r2
50005124:	e1a01003 	mov	r1, r3
50005128:	eb002a0f 	bl	5000f96c <__aeabi_d2iz>
5000512c:	e1a03000 	mov	r3, r0
50005130:	e5863000 	str	r3, [r6]
50005134:	e59f0114 	ldr	r0, [pc, #276]	; 50005250 <timer_1_isr+0x1bc>
50005138:	ebfff277 	bl	50001b1c <uart_printf>
5000513c:	e59f3100 	ldr	r3, [pc, #256]	; 50005244 <timer_1_isr+0x1b0>
50005140:	e5933000 	ldr	r3, [r3]
50005144:	e1a00003 	mov	r0, r3
50005148:	eb002b87 	bl	5000ff6c <__aeabi_f2iz>
5000514c:	e1a03000 	mov	r3, r0
50005150:	e1a00003 	mov	r0, r3
50005154:	ebfff463 	bl	500022e8 <uart_print_int>
50005158:	e59f00f4 	ldr	r0, [pc, #244]	; 50005254 <timer_1_isr+0x1c0>
5000515c:	ebfff254 	bl	50001ab4 <uart_puts>
50005160:	e59f30f0 	ldr	r3, [pc, #240]	; 50005258 <timer_1_isr+0x1c4>
50005164:	e5933000 	ldr	r3, [r3]
50005168:	e3530000 	cmp	r3, #0
5000516c:	0a000009 	beq	50005198 <timer_1_isr+0x104>
50005170:	e59f30cc 	ldr	r3, [pc, #204]	; 50005244 <timer_1_isr+0x1b0>
50005174:	e5933000 	ldr	r3, [r3]
50005178:	e1a00003 	mov	r0, r3
5000517c:	e3a015fe 	mov	r1, #1065353216	; 0x3f800000
50005180:	eb002a13 	bl	5000f9d4 <__addsf3>
50005184:	e1a03000 	mov	r3, r0
50005188:	e1a02003 	mov	r2, r3
5000518c:	e59f30b0 	ldr	r3, [pc, #176]	; 50005244 <timer_1_isr+0x1b0>
50005190:	e5832000 	str	r2, [r3]
50005194:	ea000008 	b	500051bc <timer_1_isr+0x128>
50005198:	e59f30a4 	ldr	r3, [pc, #164]	; 50005244 <timer_1_isr+0x1b0>
5000519c:	e5933000 	ldr	r3, [r3]
500051a0:	e1a00003 	mov	r0, r3
500051a4:	e3a015fe 	mov	r1, #1065353216	; 0x3f800000
500051a8:	eb002a08 	bl	5000f9d0 <__aeabi_fsub>
500051ac:	e1a03000 	mov	r3, r0
500051b0:	e1a02003 	mov	r2, r3
500051b4:	e59f3088 	ldr	r3, [pc, #136]	; 50005244 <timer_1_isr+0x1b0>
500051b8:	e5832000 	str	r2, [r3]
500051bc:	e59f3080 	ldr	r3, [pc, #128]	; 50005244 <timer_1_isr+0x1b0>
500051c0:	e5933000 	ldr	r3, [r3]
500051c4:	e1a00003 	mov	r0, r3
500051c8:	eb002b67 	bl	5000ff6c <__aeabi_f2iz>
500051cc:	e1a03000 	mov	r3, r0
500051d0:	e353005a 	cmp	r3, #90	; 0x5a
500051d4:	1a000003 	bne	500051e8 <timer_1_isr+0x154>
500051d8:	e59f3078 	ldr	r3, [pc, #120]	; 50005258 <timer_1_isr+0x1c4>
500051dc:	e3a02000 	mov	r2, #0
500051e0:	e5832000 	str	r2, [r3]
500051e4:	ea000009 	b	50005210 <timer_1_isr+0x17c>
500051e8:	e59f3054 	ldr	r3, [pc, #84]	; 50005244 <timer_1_isr+0x1b0>
500051ec:	e5933000 	ldr	r3, [r3]
500051f0:	e1a00003 	mov	r0, r3
500051f4:	eb002b5c 	bl	5000ff6c <__aeabi_f2iz>
500051f8:	e1a03000 	mov	r3, r0
500051fc:	e353000a 	cmp	r3, #10
50005200:	1a000002 	bne	50005210 <timer_1_isr+0x17c>
50005204:	e59f304c 	ldr	r3, [pc, #76]	; 50005258 <timer_1_isr+0x1c4>
50005208:	e3a02001 	mov	r2, #1
5000520c:	e5832000 	str	r2, [r3]
50005210:	e59f3044 	ldr	r3, [pc, #68]	; 5000525c <timer_1_isr+0x1c8>
50005214:	e59f2040 	ldr	r2, [pc, #64]	; 5000525c <timer_1_isr+0x1c8>
50005218:	e5922000 	ldr	r2, [r2]
5000521c:	e3822040 	orr	r2, r2, #64	; 0x40
50005220:	e5832000 	str	r2, [r3]
50005224:	e59f3034 	ldr	r3, [pc, #52]	; 50005260 <timer_1_isr+0x1cc>
50005228:	e3a02000 	mov	r2, #0
5000522c:	e5832000 	str	r2, [r3]
50005230:	e1a00000 	nop			; (mov r0, r0)
50005234:	e8bd8070 	pop	{r4, r5, r6, pc}
50005238:	7f006018 	svcvc	0x00006018
5000523c:	50010d1c 	andpl	r0, r1, ip, lsl sp
50005240:	7f00601c 	svcvc	0x0000601c
50005244:	50010d20 	andpl	r0, r1, r0, lsr #26
50005248:	42c80000 	sbcmi	r0, r8, #0
5000524c:	3ff00000 	svccc	0x00f00000	; IMB
50005250:	500109b0 			; <UNDEFINED> instruction: 0x500109b0
50005254:	500109c0 	andpl	r0, r1, r0, asr #19
50005258:	50010d24 	andpl	r0, r1, r4, lsr #26
5000525c:	7f006044 	svcvc	0x00006044
50005260:	71200f00 	teqvc	r0, r0, lsl #30

50005264 <stop_timer_1>:
50005264:	e59f3014 	ldr	r3, [pc, #20]	; 50005280 <stop_timer_1+0x1c>
50005268:	e59f2010 	ldr	r2, [pc, #16]	; 50005280 <stop_timer_1+0x1c>
5000526c:	e5922000 	ldr	r2, [r2]
50005270:	e3c22c01 	bic	r2, r2, #256	; 0x100
50005274:	e5832000 	str	r2, [r3]
50005278:	e1a00000 	nop			; (mov r0, r0)
5000527c:	e12fff1e 	bx	lr
50005280:	7f006008 	svcvc	0x00006008

50005284 <get_rtc_time>:
50005284:	e52d4004 	push	{r4}		; (str r4, [sp, #-4]!)
50005288:	e24dd02c 	sub	sp, sp, #44	; 0x2c
5000528c:	e58d0004 	str	r0, [sp, #4]
50005290:	e59f31e4 	ldr	r3, [pc, #484]	; 5000547c <get_rtc_time+0x1f8>
50005294:	e59f21e0 	ldr	r2, [pc, #480]	; 5000547c <get_rtc_time+0x1f8>
50005298:	e5922000 	ldr	r2, [r2]
5000529c:	e3822001 	orr	r2, r2, #1
500052a0:	e5832000 	str	r2, [r3]
500052a4:	e59f31d4 	ldr	r3, [pc, #468]	; 50005480 <get_rtc_time+0x1fc>
500052a8:	e5933000 	ldr	r3, [r3]
500052ac:	e5cd3027 	strb	r3, [sp, #39]	; 0x27
500052b0:	e5dd3027 	ldrb	r3, [sp, #39]	; 0x27
500052b4:	e1a03223 	lsr	r3, r3, #4
500052b8:	e6ef3073 	uxtb	r3, r3
500052bc:	e2032007 	and	r2, r3, #7
500052c0:	e1a03002 	mov	r3, r2
500052c4:	e1a03103 	lsl	r3, r3, #2
500052c8:	e0833002 	add	r3, r3, r2
500052cc:	e1a03083 	lsl	r3, r3, #1
500052d0:	e1a02003 	mov	r2, r3
500052d4:	e5dd3027 	ldrb	r3, [sp, #39]	; 0x27
500052d8:	e203300f 	and	r3, r3, #15
500052dc:	e0823003 	add	r3, r2, r3
500052e0:	e58d3008 	str	r3, [sp, #8]
500052e4:	e59f3198 	ldr	r3, [pc, #408]	; 50005484 <get_rtc_time+0x200>
500052e8:	e5933000 	ldr	r3, [r3]
500052ec:	e5cd3027 	strb	r3, [sp, #39]	; 0x27
500052f0:	e5dd3027 	ldrb	r3, [sp, #39]	; 0x27
500052f4:	e1a03223 	lsr	r3, r3, #4
500052f8:	e6ef3073 	uxtb	r3, r3
500052fc:	e2032007 	and	r2, r3, #7
50005300:	e1a03002 	mov	r3, r2
50005304:	e1a03103 	lsl	r3, r3, #2
50005308:	e0833002 	add	r3, r3, r2
5000530c:	e1a03083 	lsl	r3, r3, #1
50005310:	e1a02003 	mov	r2, r3
50005314:	e5dd3027 	ldrb	r3, [sp, #39]	; 0x27
50005318:	e203300f 	and	r3, r3, #15
5000531c:	e0823003 	add	r3, r2, r3
50005320:	e58d300c 	str	r3, [sp, #12]
50005324:	e59f315c 	ldr	r3, [pc, #348]	; 50005488 <get_rtc_time+0x204>
50005328:	e5933000 	ldr	r3, [r3]
5000532c:	e5cd3027 	strb	r3, [sp, #39]	; 0x27
50005330:	e5dd3027 	ldrb	r3, [sp, #39]	; 0x27
50005334:	e1a03223 	lsr	r3, r3, #4
50005338:	e6ef3073 	uxtb	r3, r3
5000533c:	e2032003 	and	r2, r3, #3
50005340:	e1a03002 	mov	r3, r2
50005344:	e1a03103 	lsl	r3, r3, #2
50005348:	e0833002 	add	r3, r3, r2
5000534c:	e1a03083 	lsl	r3, r3, #1
50005350:	e1a02003 	mov	r2, r3
50005354:	e5dd3027 	ldrb	r3, [sp, #39]	; 0x27
50005358:	e203300f 	and	r3, r3, #15
5000535c:	e0823003 	add	r3, r2, r3
50005360:	e58d3010 	str	r3, [sp, #16]
50005364:	e59f3120 	ldr	r3, [pc, #288]	; 5000548c <get_rtc_time+0x208>
50005368:	e5933000 	ldr	r3, [r3]
5000536c:	e5cd3027 	strb	r3, [sp, #39]	; 0x27
50005370:	e5dd3027 	ldrb	r3, [sp, #39]	; 0x27
50005374:	e2033007 	and	r3, r3, #7
50005378:	e58d3014 	str	r3, [sp, #20]
5000537c:	e59f310c 	ldr	r3, [pc, #268]	; 50005490 <get_rtc_time+0x20c>
50005380:	e5933000 	ldr	r3, [r3]
50005384:	e5cd3027 	strb	r3, [sp, #39]	; 0x27
50005388:	e5dd3027 	ldrb	r3, [sp, #39]	; 0x27
5000538c:	e1a03223 	lsr	r3, r3, #4
50005390:	e6ef3073 	uxtb	r3, r3
50005394:	e2032003 	and	r2, r3, #3
50005398:	e1a03002 	mov	r3, r2
5000539c:	e1a03103 	lsl	r3, r3, #2
500053a0:	e0833002 	add	r3, r3, r2
500053a4:	e1a03083 	lsl	r3, r3, #1
500053a8:	e1a02003 	mov	r2, r3
500053ac:	e5dd3027 	ldrb	r3, [sp, #39]	; 0x27
500053b0:	e203300f 	and	r3, r3, #15
500053b4:	e0823003 	add	r3, r2, r3
500053b8:	e58d3018 	str	r3, [sp, #24]
500053bc:	e59f30d0 	ldr	r3, [pc, #208]	; 50005494 <get_rtc_time+0x210>
500053c0:	e5933000 	ldr	r3, [r3]
500053c4:	e5cd3027 	strb	r3, [sp, #39]	; 0x27
500053c8:	e5dd3027 	ldrb	r3, [sp, #39]	; 0x27
500053cc:	e1a03223 	lsr	r3, r3, #4
500053d0:	e6ef3073 	uxtb	r3, r3
500053d4:	e2032001 	and	r2, r3, #1
500053d8:	e1a03002 	mov	r3, r2
500053dc:	e1a03103 	lsl	r3, r3, #2
500053e0:	e0833002 	add	r3, r3, r2
500053e4:	e1a03083 	lsl	r3, r3, #1
500053e8:	e1a02003 	mov	r2, r3
500053ec:	e5dd3027 	ldrb	r3, [sp, #39]	; 0x27
500053f0:	e203300f 	and	r3, r3, #15
500053f4:	e0823003 	add	r3, r2, r3
500053f8:	e58d301c 	str	r3, [sp, #28]
500053fc:	e59f3094 	ldr	r3, [pc, #148]	; 50005498 <get_rtc_time+0x214>
50005400:	e5933000 	ldr	r3, [r3]
50005404:	e5cd3027 	strb	r3, [sp, #39]	; 0x27
50005408:	e5dd3027 	ldrb	r3, [sp, #39]	; 0x27
5000540c:	e1a03223 	lsr	r3, r3, #4
50005410:	e6ef3073 	uxtb	r3, r3
50005414:	e203200f 	and	r2, r3, #15
50005418:	e1a03002 	mov	r3, r2
5000541c:	e1a03103 	lsl	r3, r3, #2
50005420:	e0833002 	add	r3, r3, r2
50005424:	e1a03083 	lsl	r3, r3, #1
50005428:	e1a02003 	mov	r2, r3
5000542c:	e5dd3027 	ldrb	r3, [sp, #39]	; 0x27
50005430:	e203300f 	and	r3, r3, #15
50005434:	e0823003 	add	r3, r2, r3
50005438:	e58d3020 	str	r3, [sp, #32]
5000543c:	e59f3038 	ldr	r3, [pc, #56]	; 5000547c <get_rtc_time+0x1f8>
50005440:	e59f2034 	ldr	r2, [pc, #52]	; 5000547c <get_rtc_time+0x1f8>
50005444:	e5922000 	ldr	r2, [r2]
50005448:	e3c22001 	bic	r2, r2, #1
5000544c:	e5832000 	str	r2, [r3]
50005450:	e59d3004 	ldr	r3, [sp, #4]
50005454:	e1a0c003 	mov	ip, r3
50005458:	e28d4008 	add	r4, sp, #8
5000545c:	e8b4000f 	ldm	r4!, {r0, r1, r2, r3}
50005460:	e8ac000f 	stmia	ip!, {r0, r1, r2, r3}
50005464:	e8940007 	ldm	r4, {r0, r1, r2}
50005468:	e88c0007 	stm	ip, {r0, r1, r2}
5000546c:	e59d0004 	ldr	r0, [sp, #4]
50005470:	e28dd02c 	add	sp, sp, #44	; 0x2c
50005474:	e49d4004 	pop	{r4}		; (ldr r4, [sp], #4)
50005478:	e12fff1e 	bx	lr
5000547c:	7e005040 	cdpvc	0, 0, cr5, cr0, cr0, {2}
50005480:	7e005070 	mcrvc	0, 0, r5, cr0, cr0, {3}
50005484:	7e005074 	mcrvc	0, 0, r5, cr0, cr4, {3}
50005488:	7e005078 	mcrvc	0, 0, r5, cr0, cr8, {3}
5000548c:	7e005080 	cdpvc	0, 0, cr5, cr0, cr0, {4}
50005490:	7e00507c 	mcrvc	0, 0, r5, cr0, cr12, {3}
50005494:	7e005084 	cdpvc	0, 0, cr5, cr0, cr4, {4}
50005498:	7e005088 	cdpvc	0, 0, cr5, cr0, cr8, {4}

5000549c <change_rtc_time>:
5000549c:	e52de004 	push	{lr}		; (str lr, [sp, #-4]!)
500054a0:	e24dd00c 	sub	sp, sp, #12
500054a4:	e3a03000 	mov	r3, #0
500054a8:	e58d3004 	str	r3, [sp, #4]
500054ac:	e59f025c 	ldr	r0, [pc, #604]	; 50005710 <change_rtc_time+0x274>
500054b0:	ebfff17f 	bl	50001ab4 <uart_puts>
500054b4:	e59f0258 	ldr	r0, [pc, #600]	; 50005714 <change_rtc_time+0x278>
500054b8:	ebfff17d 	bl	50001ab4 <uart_puts>
500054bc:	e59f0254 	ldr	r0, [pc, #596]	; 50005718 <change_rtc_time+0x27c>
500054c0:	ebfff195 	bl	50001b1c <uart_printf>
500054c4:	ebfff340 	bl	500021cc <uart_get_int>
500054c8:	e58d0004 	str	r0, [sp, #4]
500054cc:	e59d3004 	ldr	r3, [sp, #4]
500054d0:	e3530000 	cmp	r3, #0
500054d4:	ba000008 	blt	500054fc <change_rtc_time+0x60>
500054d8:	e59d3004 	ldr	r3, [sp, #4]
500054dc:	e3530063 	cmp	r3, #99	; 0x63
500054e0:	ca000005 	bgt	500054fc <change_rtc_time+0x60>
500054e4:	e1a00000 	nop			; (mov r0, r0)
500054e8:	e59f0220 	ldr	r0, [pc, #544]	; 50005710 <change_rtc_time+0x274>
500054ec:	ebfff170 	bl	50001ab4 <uart_puts>
500054f0:	e59d0004 	ldr	r0, [sp, #4]
500054f4:	eb00008f 	bl	50005738 <change_rtc_year>
500054f8:	ea000002 	b	50005508 <change_rtc_time+0x6c>
500054fc:	e59f020c 	ldr	r0, [pc, #524]	; 50005710 <change_rtc_time+0x274>
50005500:	ebfff16b 	bl	50001ab4 <uart_puts>
50005504:	eaffffea 	b	500054b4 <change_rtc_time+0x18>
50005508:	e59f020c 	ldr	r0, [pc, #524]	; 5000571c <change_rtc_time+0x280>
5000550c:	ebfff168 	bl	50001ab4 <uart_puts>
50005510:	e59f0200 	ldr	r0, [pc, #512]	; 50005718 <change_rtc_time+0x27c>
50005514:	ebfff180 	bl	50001b1c <uart_printf>
50005518:	ebfff32b 	bl	500021cc <uart_get_int>
5000551c:	e58d0004 	str	r0, [sp, #4]
50005520:	e59d3004 	ldr	r3, [sp, #4]
50005524:	e3530000 	cmp	r3, #0
50005528:	da000008 	ble	50005550 <change_rtc_time+0xb4>
5000552c:	e59d3004 	ldr	r3, [sp, #4]
50005530:	e353000c 	cmp	r3, #12
50005534:	ca000005 	bgt	50005550 <change_rtc_time+0xb4>
50005538:	e1a00000 	nop			; (mov r0, r0)
5000553c:	e59f01cc 	ldr	r0, [pc, #460]	; 50005710 <change_rtc_time+0x274>
50005540:	ebfff15b 	bl	50001ab4 <uart_puts>
50005544:	e59d0004 	ldr	r0, [sp, #4]
50005548:	eb0000b1 	bl	50005814 <change_rtc_month>
5000554c:	ea000002 	b	5000555c <change_rtc_time+0xc0>
50005550:	e59f01b8 	ldr	r0, [pc, #440]	; 50005710 <change_rtc_time+0x274>
50005554:	ebfff156 	bl	50001ab4 <uart_puts>
50005558:	eaffffea 	b	50005508 <change_rtc_time+0x6c>
5000555c:	e59f01bc 	ldr	r0, [pc, #444]	; 50005720 <change_rtc_time+0x284>
50005560:	ebfff153 	bl	50001ab4 <uart_puts>
50005564:	e59f01ac 	ldr	r0, [pc, #428]	; 50005718 <change_rtc_time+0x27c>
50005568:	ebfff16b 	bl	50001b1c <uart_printf>
5000556c:	ebfff316 	bl	500021cc <uart_get_int>
50005570:	e58d0004 	str	r0, [sp, #4]
50005574:	e59d3004 	ldr	r3, [sp, #4]
50005578:	e3530000 	cmp	r3, #0
5000557c:	da000008 	ble	500055a4 <change_rtc_time+0x108>
50005580:	e59d3004 	ldr	r3, [sp, #4]
50005584:	e353001f 	cmp	r3, #31
50005588:	ca000005 	bgt	500055a4 <change_rtc_time+0x108>
5000558c:	e1a00000 	nop			; (mov r0, r0)
50005590:	e59f0178 	ldr	r0, [pc, #376]	; 50005710 <change_rtc_time+0x274>
50005594:	ebfff146 	bl	50001ab4 <uart_puts>
50005598:	e59d0004 	ldr	r0, [sp, #4]
5000559c:	eb0000d3 	bl	500058f0 <change_rtc_date>
500055a0:	ea000002 	b	500055b0 <change_rtc_time+0x114>
500055a4:	e59f0164 	ldr	r0, [pc, #356]	; 50005710 <change_rtc_time+0x274>
500055a8:	ebfff141 	bl	50001ab4 <uart_puts>
500055ac:	eaffffea 	b	5000555c <change_rtc_time+0xc0>
500055b0:	e59f016c 	ldr	r0, [pc, #364]	; 50005724 <change_rtc_time+0x288>
500055b4:	ebfff13e 	bl	50001ab4 <uart_puts>
500055b8:	e59f0158 	ldr	r0, [pc, #344]	; 50005718 <change_rtc_time+0x27c>
500055bc:	ebfff156 	bl	50001b1c <uart_printf>
500055c0:	ebfff301 	bl	500021cc <uart_get_int>
500055c4:	e58d0004 	str	r0, [sp, #4]
500055c8:	e59d3004 	ldr	r3, [sp, #4]
500055cc:	e3530000 	cmp	r3, #0
500055d0:	da000008 	ble	500055f8 <change_rtc_time+0x15c>
500055d4:	e59d3004 	ldr	r3, [sp, #4]
500055d8:	e3530007 	cmp	r3, #7
500055dc:	ca000005 	bgt	500055f8 <change_rtc_time+0x15c>
500055e0:	e1a00000 	nop			; (mov r0, r0)
500055e4:	e59f0124 	ldr	r0, [pc, #292]	; 50005710 <change_rtc_time+0x274>
500055e8:	ebfff131 	bl	50001ab4 <uart_puts>
500055ec:	e59d0004 	ldr	r0, [sp, #4]
500055f0:	eb0000f5 	bl	500059cc <change_rtc_day>
500055f4:	ea000002 	b	50005604 <change_rtc_time+0x168>
500055f8:	e59f0110 	ldr	r0, [pc, #272]	; 50005710 <change_rtc_time+0x274>
500055fc:	ebfff12c 	bl	50001ab4 <uart_puts>
50005600:	eaffffea 	b	500055b0 <change_rtc_time+0x114>
50005604:	e59f011c 	ldr	r0, [pc, #284]	; 50005728 <change_rtc_time+0x28c>
50005608:	ebfff129 	bl	50001ab4 <uart_puts>
5000560c:	e59f0104 	ldr	r0, [pc, #260]	; 50005718 <change_rtc_time+0x27c>
50005610:	ebfff141 	bl	50001b1c <uart_printf>
50005614:	ebfff2ec 	bl	500021cc <uart_get_int>
50005618:	e58d0004 	str	r0, [sp, #4]
5000561c:	e59d3004 	ldr	r3, [sp, #4]
50005620:	e3530000 	cmp	r3, #0
50005624:	ba000008 	blt	5000564c <change_rtc_time+0x1b0>
50005628:	e59d3004 	ldr	r3, [sp, #4]
5000562c:	e3530017 	cmp	r3, #23
50005630:	ca000005 	bgt	5000564c <change_rtc_time+0x1b0>
50005634:	e1a00000 	nop			; (mov r0, r0)
50005638:	e59f00d0 	ldr	r0, [pc, #208]	; 50005710 <change_rtc_time+0x274>
5000563c:	ebfff11c 	bl	50001ab4 <uart_puts>
50005640:	e59d0004 	ldr	r0, [sp, #4]
50005644:	eb000100 	bl	50005a4c <change_rtc_hour>
50005648:	ea000002 	b	50005658 <change_rtc_time+0x1bc>
5000564c:	e59f00bc 	ldr	r0, [pc, #188]	; 50005710 <change_rtc_time+0x274>
50005650:	ebfff117 	bl	50001ab4 <uart_puts>
50005654:	eaffffea 	b	50005604 <change_rtc_time+0x168>
50005658:	e59f00cc 	ldr	r0, [pc, #204]	; 5000572c <change_rtc_time+0x290>
5000565c:	ebfff114 	bl	50001ab4 <uart_puts>
50005660:	e59f00b0 	ldr	r0, [pc, #176]	; 50005718 <change_rtc_time+0x27c>
50005664:	ebfff12c 	bl	50001b1c <uart_printf>
50005668:	ebfff2d7 	bl	500021cc <uart_get_int>
5000566c:	e58d0004 	str	r0, [sp, #4]
50005670:	e59d3004 	ldr	r3, [sp, #4]
50005674:	e3530000 	cmp	r3, #0
50005678:	ba000008 	blt	500056a0 <change_rtc_time+0x204>
5000567c:	e59d3004 	ldr	r3, [sp, #4]
50005680:	e353003b 	cmp	r3, #59	; 0x3b
50005684:	ca000005 	bgt	500056a0 <change_rtc_time+0x204>
50005688:	e1a00000 	nop			; (mov r0, r0)
5000568c:	e59f007c 	ldr	r0, [pc, #124]	; 50005710 <change_rtc_time+0x274>
50005690:	ebfff107 	bl	50001ab4 <uart_puts>
50005694:	e59d0004 	ldr	r0, [sp, #4]
50005698:	eb000122 	bl	50005b28 <change_rtc_minute>
5000569c:	ea000002 	b	500056ac <change_rtc_time+0x210>
500056a0:	e59f0068 	ldr	r0, [pc, #104]	; 50005710 <change_rtc_time+0x274>
500056a4:	ebfff102 	bl	50001ab4 <uart_puts>
500056a8:	eaffffea 	b	50005658 <change_rtc_time+0x1bc>
500056ac:	e59f007c 	ldr	r0, [pc, #124]	; 50005730 <change_rtc_time+0x294>
500056b0:	ebfff0ff 	bl	50001ab4 <uart_puts>
500056b4:	e59f005c 	ldr	r0, [pc, #92]	; 50005718 <change_rtc_time+0x27c>
500056b8:	ebfff117 	bl	50001b1c <uart_printf>
500056bc:	ebfff2c2 	bl	500021cc <uart_get_int>
500056c0:	e58d0004 	str	r0, [sp, #4]
500056c4:	e59d3004 	ldr	r3, [sp, #4]
500056c8:	e3530000 	cmp	r3, #0
500056cc:	ba000003 	blt	500056e0 <change_rtc_time+0x244>
500056d0:	e59d3004 	ldr	r3, [sp, #4]
500056d4:	e353003b 	cmp	r3, #59	; 0x3b
500056d8:	ca000000 	bgt	500056e0 <change_rtc_time+0x244>
500056dc:	ea000002 	b	500056ec <change_rtc_time+0x250>
500056e0:	e59f0028 	ldr	r0, [pc, #40]	; 50005710 <change_rtc_time+0x274>
500056e4:	ebfff0f2 	bl	50001ab4 <uart_puts>
500056e8:	eaffffef 	b	500056ac <change_rtc_time+0x210>
500056ec:	e59f001c 	ldr	r0, [pc, #28]	; 50005710 <change_rtc_time+0x274>
500056f0:	ebfff0ef 	bl	50001ab4 <uart_puts>
500056f4:	e59d0004 	ldr	r0, [sp, #4]
500056f8:	eb000141 	bl	50005c04 <change_rtc_second>
500056fc:	e59f0030 	ldr	r0, [pc, #48]	; 50005734 <change_rtc_time+0x298>
50005700:	ebfff0eb 	bl	50001ab4 <uart_puts>
50005704:	e1a00000 	nop			; (mov r0, r0)
50005708:	e28dd00c 	add	sp, sp, #12
5000570c:	e49df004 	pop	{pc}		; (ldr pc, [sp], #4)
50005710:	500109c4 	andpl	r0, r1, r4, asr #19
50005714:	500109c8 	andpl	r0, r1, r8, asr #19
50005718:	500109e8 	andpl	r0, r1, r8, ror #19
5000571c:	500109f0 	strdpl	r0, [r1], -r0	; <UNPREDICTABLE>
50005720:	50010a10 	andpl	r0, r1, r0, lsl sl
50005724:	50010a2c 	andpl	r0, r1, ip, lsr #20
50005728:	50010a48 	andpl	r0, r1, r8, asr #20
5000572c:	50010a64 	andpl	r0, r1, r4, ror #20
50005730:	50010a84 	andpl	r0, r1, r4, lsl #21
50005734:	50010aa4 	andpl	r0, r1, r4, lsr #21

50005738 <change_rtc_year>:
50005738:	e52de004 	push	{lr}		; (str lr, [sp, #-4]!)
5000573c:	e24dd014 	sub	sp, sp, #20
50005740:	e58d0004 	str	r0, [sp, #4]
50005744:	e59d3004 	ldr	r3, [sp, #4]
50005748:	e3530000 	cmp	r3, #0
5000574c:	ba000002 	blt	5000575c <change_rtc_year+0x24>
50005750:	e59d3004 	ldr	r3, [sp, #4]
50005754:	e3530063 	cmp	r3, #99	; 0x63
50005758:	da000002 	ble	50005768 <change_rtc_year+0x30>
5000575c:	e59f00a0 	ldr	r0, [pc, #160]	; 50005804 <change_rtc_year+0xcc>
50005760:	ebfff0d3 	bl	50001ab4 <uart_puts>
50005764:	ea000024 	b	500057fc <change_rtc_year+0xc4>
50005768:	e59d2004 	ldr	r2, [sp, #4]
5000576c:	e59f3094 	ldr	r3, [pc, #148]	; 50005808 <change_rtc_year+0xd0>
50005770:	e0c31293 	smull	r1, r3, r3, r2
50005774:	e1a01143 	asr	r1, r3, #2
50005778:	e1a03fc2 	asr	r3, r2, #31
5000577c:	e0631001 	rsb	r1, r3, r1
50005780:	e1a03001 	mov	r3, r1
50005784:	e1a03103 	lsl	r3, r3, #2
50005788:	e0833001 	add	r3, r3, r1
5000578c:	e1a03083 	lsl	r3, r3, #1
50005790:	e0633002 	rsb	r3, r3, r2
50005794:	e58d300c 	str	r3, [sp, #12]
50005798:	e59d3004 	ldr	r3, [sp, #4]
5000579c:	e59f2064 	ldr	r2, [pc, #100]	; 50005808 <change_rtc_year+0xd0>
500057a0:	e0c21392 	smull	r1, r2, r2, r3
500057a4:	e1a02142 	asr	r2, r2, #2
500057a8:	e1a03fc3 	asr	r3, r3, #31
500057ac:	e0633002 	rsb	r3, r3, r2
500057b0:	e58d3008 	str	r3, [sp, #8]
500057b4:	e59f3050 	ldr	r3, [pc, #80]	; 5000580c <change_rtc_year+0xd4>
500057b8:	e59f204c 	ldr	r2, [pc, #76]	; 5000580c <change_rtc_year+0xd4>
500057bc:	e5922000 	ldr	r2, [r2]
500057c0:	e3822008 	orr	r2, r2, #8
500057c4:	e5832000 	str	r2, [r3]
500057c8:	e59f303c 	ldr	r3, [pc, #60]	; 5000580c <change_rtc_year+0xd4>
500057cc:	e3a02001 	mov	r2, #1
500057d0:	e5832000 	str	r2, [r3]
500057d4:	e59f3034 	ldr	r3, [pc, #52]	; 50005810 <change_rtc_year+0xd8>
500057d8:	e59d2008 	ldr	r2, [sp, #8]
500057dc:	e1a01202 	lsl	r1, r2, #4
500057e0:	e59d200c 	ldr	r2, [sp, #12]
500057e4:	e1812002 	orr	r2, r1, r2
500057e8:	e5832000 	str	r2, [r3]
500057ec:	e59f3018 	ldr	r3, [pc, #24]	; 5000580c <change_rtc_year+0xd4>
500057f0:	e3a02000 	mov	r2, #0
500057f4:	e5832000 	str	r2, [r3]
500057f8:	e1a00000 	nop			; (mov r0, r0)
500057fc:	e28dd014 	add	sp, sp, #20
50005800:	e49df004 	pop	{pc}		; (ldr pc, [sp], #4)
50005804:	50010ab0 			; <UNDEFINED> instruction: 0x50010ab0
50005808:	66666667 	strbtvs	r6, [r6], -r7, ror #12
5000580c:	7e005040 	cdpvc	0, 0, cr5, cr0, cr0, {2}
50005810:	7e005088 	cdpvc	0, 0, cr5, cr0, cr8, {4}

50005814 <change_rtc_month>:
50005814:	e52de004 	push	{lr}		; (str lr, [sp, #-4]!)
50005818:	e24dd014 	sub	sp, sp, #20
5000581c:	e58d0004 	str	r0, [sp, #4]
50005820:	e59d3004 	ldr	r3, [sp, #4]
50005824:	e3530000 	cmp	r3, #0
50005828:	da000002 	ble	50005838 <change_rtc_month+0x24>
5000582c:	e59d3004 	ldr	r3, [sp, #4]
50005830:	e353000c 	cmp	r3, #12
50005834:	da000002 	ble	50005844 <change_rtc_month+0x30>
50005838:	e59f00a0 	ldr	r0, [pc, #160]	; 500058e0 <change_rtc_month+0xcc>
5000583c:	ebfff09c 	bl	50001ab4 <uart_puts>
50005840:	ea000024 	b	500058d8 <change_rtc_month+0xc4>
50005844:	e59d2004 	ldr	r2, [sp, #4]
50005848:	e59f3094 	ldr	r3, [pc, #148]	; 500058e4 <change_rtc_month+0xd0>
5000584c:	e0c31293 	smull	r1, r3, r3, r2
50005850:	e1a01143 	asr	r1, r3, #2
50005854:	e1a03fc2 	asr	r3, r2, #31
50005858:	e0631001 	rsb	r1, r3, r1
5000585c:	e1a03001 	mov	r3, r1
50005860:	e1a03103 	lsl	r3, r3, #2
50005864:	e0833001 	add	r3, r3, r1
50005868:	e1a03083 	lsl	r3, r3, #1
5000586c:	e0633002 	rsb	r3, r3, r2
50005870:	e58d300c 	str	r3, [sp, #12]
50005874:	e59d3004 	ldr	r3, [sp, #4]
50005878:	e59f2064 	ldr	r2, [pc, #100]	; 500058e4 <change_rtc_month+0xd0>
5000587c:	e0c21392 	smull	r1, r2, r2, r3
50005880:	e1a02142 	asr	r2, r2, #2
50005884:	e1a03fc3 	asr	r3, r3, #31
50005888:	e0633002 	rsb	r3, r3, r2
5000588c:	e58d3008 	str	r3, [sp, #8]
50005890:	e59f3050 	ldr	r3, [pc, #80]	; 500058e8 <change_rtc_month+0xd4>
50005894:	e59f204c 	ldr	r2, [pc, #76]	; 500058e8 <change_rtc_month+0xd4>
50005898:	e5922000 	ldr	r2, [r2]
5000589c:	e3822008 	orr	r2, r2, #8
500058a0:	e5832000 	str	r2, [r3]
500058a4:	e59f303c 	ldr	r3, [pc, #60]	; 500058e8 <change_rtc_month+0xd4>
500058a8:	e3a02001 	mov	r2, #1
500058ac:	e5832000 	str	r2, [r3]
500058b0:	e59f3034 	ldr	r3, [pc, #52]	; 500058ec <change_rtc_month+0xd8>
500058b4:	e59d2008 	ldr	r2, [sp, #8]
500058b8:	e1a01202 	lsl	r1, r2, #4
500058bc:	e59d200c 	ldr	r2, [sp, #12]
500058c0:	e1812002 	orr	r2, r1, r2
500058c4:	e5832000 	str	r2, [r3]
500058c8:	e59f3018 	ldr	r3, [pc, #24]	; 500058e8 <change_rtc_month+0xd4>
500058cc:	e3a02000 	mov	r2, #0
500058d0:	e5832000 	str	r2, [r3]
500058d4:	e1a00000 	nop			; (mov r0, r0)
500058d8:	e28dd014 	add	sp, sp, #20
500058dc:	e49df004 	pop	{pc}		; (ldr pc, [sp], #4)
500058e0:	50010ad4 	ldrdpl	r0, [r1], -r4
500058e4:	66666667 	strbtvs	r6, [r6], -r7, ror #12
500058e8:	7e005040 	cdpvc	0, 0, cr5, cr0, cr0, {2}
500058ec:	7e005084 	cdpvc	0, 0, cr5, cr0, cr4, {4}

500058f0 <change_rtc_date>:
500058f0:	e52de004 	push	{lr}		; (str lr, [sp, #-4]!)
500058f4:	e24dd014 	sub	sp, sp, #20
500058f8:	e58d0004 	str	r0, [sp, #4]
500058fc:	e59d3004 	ldr	r3, [sp, #4]
50005900:	e3530000 	cmp	r3, #0
50005904:	da000002 	ble	50005914 <change_rtc_date+0x24>
50005908:	e59d3004 	ldr	r3, [sp, #4]
5000590c:	e353001f 	cmp	r3, #31
50005910:	da000002 	ble	50005920 <change_rtc_date+0x30>
50005914:	e59f00a0 	ldr	r0, [pc, #160]	; 500059bc <change_rtc_date+0xcc>
50005918:	ebfff065 	bl	50001ab4 <uart_puts>
5000591c:	ea000024 	b	500059b4 <change_rtc_date+0xc4>
50005920:	e59d2004 	ldr	r2, [sp, #4]
50005924:	e59f3094 	ldr	r3, [pc, #148]	; 500059c0 <change_rtc_date+0xd0>
50005928:	e0c31293 	smull	r1, r3, r3, r2
5000592c:	e1a01143 	asr	r1, r3, #2
50005930:	e1a03fc2 	asr	r3, r2, #31
50005934:	e0631001 	rsb	r1, r3, r1
50005938:	e1a03001 	mov	r3, r1
5000593c:	e1a03103 	lsl	r3, r3, #2
50005940:	e0833001 	add	r3, r3, r1
50005944:	e1a03083 	lsl	r3, r3, #1
50005948:	e0633002 	rsb	r3, r3, r2
5000594c:	e58d300c 	str	r3, [sp, #12]
50005950:	e59d3004 	ldr	r3, [sp, #4]
50005954:	e59f2064 	ldr	r2, [pc, #100]	; 500059c0 <change_rtc_date+0xd0>
50005958:	e0c21392 	smull	r1, r2, r2, r3
5000595c:	e1a02142 	asr	r2, r2, #2
50005960:	e1a03fc3 	asr	r3, r3, #31
50005964:	e0633002 	rsb	r3, r3, r2
50005968:	e58d3008 	str	r3, [sp, #8]
5000596c:	e59f3050 	ldr	r3, [pc, #80]	; 500059c4 <change_rtc_date+0xd4>
50005970:	e59f204c 	ldr	r2, [pc, #76]	; 500059c4 <change_rtc_date+0xd4>
50005974:	e5922000 	ldr	r2, [r2]
50005978:	e3822008 	orr	r2, r2, #8
5000597c:	e5832000 	str	r2, [r3]
50005980:	e59f303c 	ldr	r3, [pc, #60]	; 500059c4 <change_rtc_date+0xd4>
50005984:	e3a02001 	mov	r2, #1
50005988:	e5832000 	str	r2, [r3]
5000598c:	e59f3034 	ldr	r3, [pc, #52]	; 500059c8 <change_rtc_date+0xd8>
50005990:	e59d2008 	ldr	r2, [sp, #8]
50005994:	e1a01202 	lsl	r1, r2, #4
50005998:	e59d200c 	ldr	r2, [sp, #12]
5000599c:	e1812002 	orr	r2, r1, r2
500059a0:	e5832000 	str	r2, [r3]
500059a4:	e59f3018 	ldr	r3, [pc, #24]	; 500059c4 <change_rtc_date+0xd4>
500059a8:	e3a02000 	mov	r2, #0
500059ac:	e5832000 	str	r2, [r3]
500059b0:	e1a00000 	nop			; (mov r0, r0)
500059b4:	e28dd014 	add	sp, sp, #20
500059b8:	e49df004 	pop	{pc}		; (ldr pc, [sp], #4)
500059bc:	50010af8 	strdpl	r0, [r1], -r8
500059c0:	66666667 	strbtvs	r6, [r6], -r7, ror #12
500059c4:	7e005040 	cdpvc	0, 0, cr5, cr0, cr0, {2}
500059c8:	7e00507c 	mcrvc	0, 0, r5, cr0, cr12, {3}

500059cc <change_rtc_day>:
500059cc:	e52de004 	push	{lr}		; (str lr, [sp, #-4]!)
500059d0:	e24dd00c 	sub	sp, sp, #12
500059d4:	e58d0004 	str	r0, [sp, #4]
500059d8:	e59d3004 	ldr	r3, [sp, #4]
500059dc:	e3530000 	cmp	r3, #0
500059e0:	da000002 	ble	500059f0 <change_rtc_day+0x24>
500059e4:	e59d3004 	ldr	r3, [sp, #4]
500059e8:	e3530007 	cmp	r3, #7
500059ec:	da000002 	ble	500059fc <change_rtc_day+0x30>
500059f0:	e59f0048 	ldr	r0, [pc, #72]	; 50005a40 <change_rtc_day+0x74>
500059f4:	ebfff02e 	bl	50001ab4 <uart_puts>
500059f8:	ea00000e 	b	50005a38 <change_rtc_day+0x6c>
500059fc:	e59f3040 	ldr	r3, [pc, #64]	; 50005a44 <change_rtc_day+0x78>
50005a00:	e59f203c 	ldr	r2, [pc, #60]	; 50005a44 <change_rtc_day+0x78>
50005a04:	e5922000 	ldr	r2, [r2]
50005a08:	e3822008 	orr	r2, r2, #8
50005a0c:	e5832000 	str	r2, [r3]
50005a10:	e59f302c 	ldr	r3, [pc, #44]	; 50005a44 <change_rtc_day+0x78>
50005a14:	e3a02001 	mov	r2, #1
50005a18:	e5832000 	str	r2, [r3]
50005a1c:	e59f3024 	ldr	r3, [pc, #36]	; 50005a48 <change_rtc_day+0x7c>
50005a20:	e59d2004 	ldr	r2, [sp, #4]
50005a24:	e5832000 	str	r2, [r3]
50005a28:	e59f3014 	ldr	r3, [pc, #20]	; 50005a44 <change_rtc_day+0x78>
50005a2c:	e3a02000 	mov	r2, #0
50005a30:	e5832000 	str	r2, [r3]
50005a34:	e1a00000 	nop			; (mov r0, r0)
50005a38:	e28dd00c 	add	sp, sp, #12
50005a3c:	e49df004 	pop	{pc}		; (ldr pc, [sp], #4)
50005a40:	50010b1c 	andpl	r0, r1, ip, lsl fp
50005a44:	7e005040 	cdpvc	0, 0, cr5, cr0, cr0, {2}
50005a48:	7e005080 	cdpvc	0, 0, cr5, cr0, cr0, {4}

50005a4c <change_rtc_hour>:
50005a4c:	e52de004 	push	{lr}		; (str lr, [sp, #-4]!)
50005a50:	e24dd014 	sub	sp, sp, #20
50005a54:	e58d0004 	str	r0, [sp, #4]
50005a58:	e59d3004 	ldr	r3, [sp, #4]
50005a5c:	e3530000 	cmp	r3, #0
50005a60:	ba000002 	blt	50005a70 <change_rtc_hour+0x24>
50005a64:	e59d3004 	ldr	r3, [sp, #4]
50005a68:	e3530017 	cmp	r3, #23
50005a6c:	da000002 	ble	50005a7c <change_rtc_hour+0x30>
50005a70:	e59f00a0 	ldr	r0, [pc, #160]	; 50005b18 <change_rtc_hour+0xcc>
50005a74:	ebfff00e 	bl	50001ab4 <uart_puts>
50005a78:	ea000024 	b	50005b10 <change_rtc_hour+0xc4>
50005a7c:	e59d2004 	ldr	r2, [sp, #4]
50005a80:	e59f3094 	ldr	r3, [pc, #148]	; 50005b1c <change_rtc_hour+0xd0>
50005a84:	e0c31293 	smull	r1, r3, r3, r2
50005a88:	e1a01143 	asr	r1, r3, #2
50005a8c:	e1a03fc2 	asr	r3, r2, #31
50005a90:	e0631001 	rsb	r1, r3, r1
50005a94:	e1a03001 	mov	r3, r1
50005a98:	e1a03103 	lsl	r3, r3, #2
50005a9c:	e0833001 	add	r3, r3, r1
50005aa0:	e1a03083 	lsl	r3, r3, #1
50005aa4:	e0633002 	rsb	r3, r3, r2
50005aa8:	e58d300c 	str	r3, [sp, #12]
50005aac:	e59d3004 	ldr	r3, [sp, #4]
50005ab0:	e59f2064 	ldr	r2, [pc, #100]	; 50005b1c <change_rtc_hour+0xd0>
50005ab4:	e0c21392 	smull	r1, r2, r2, r3
50005ab8:	e1a02142 	asr	r2, r2, #2
50005abc:	e1a03fc3 	asr	r3, r3, #31
50005ac0:	e0633002 	rsb	r3, r3, r2
50005ac4:	e58d3008 	str	r3, [sp, #8]
50005ac8:	e59f3050 	ldr	r3, [pc, #80]	; 50005b20 <change_rtc_hour+0xd4>
50005acc:	e59f204c 	ldr	r2, [pc, #76]	; 50005b20 <change_rtc_hour+0xd4>
50005ad0:	e5922000 	ldr	r2, [r2]
50005ad4:	e3822008 	orr	r2, r2, #8
50005ad8:	e5832000 	str	r2, [r3]
50005adc:	e59f303c 	ldr	r3, [pc, #60]	; 50005b20 <change_rtc_hour+0xd4>
50005ae0:	e3a02001 	mov	r2, #1
50005ae4:	e5832000 	str	r2, [r3]
50005ae8:	e59f3034 	ldr	r3, [pc, #52]	; 50005b24 <change_rtc_hour+0xd8>
50005aec:	e59d2008 	ldr	r2, [sp, #8]
50005af0:	e1a01202 	lsl	r1, r2, #4
50005af4:	e59d200c 	ldr	r2, [sp, #12]
50005af8:	e1812002 	orr	r2, r1, r2
50005afc:	e5832000 	str	r2, [r3]
50005b00:	e59f3018 	ldr	r3, [pc, #24]	; 50005b20 <change_rtc_hour+0xd4>
50005b04:	e3a02000 	mov	r2, #0
50005b08:	e5832000 	str	r2, [r3]
50005b0c:	e1a00000 	nop			; (mov r0, r0)
50005b10:	e28dd014 	add	sp, sp, #20
50005b14:	e49df004 	pop	{pc}		; (ldr pc, [sp], #4)
50005b18:	50010b40 	andpl	r0, r1, r0, asr #22
50005b1c:	66666667 	strbtvs	r6, [r6], -r7, ror #12
50005b20:	7e005040 	cdpvc	0, 0, cr5, cr0, cr0, {2}
50005b24:	7e005078 	mcrvc	0, 0, r5, cr0, cr8, {3}

50005b28 <change_rtc_minute>:
50005b28:	e52de004 	push	{lr}		; (str lr, [sp, #-4]!)
50005b2c:	e24dd014 	sub	sp, sp, #20
50005b30:	e58d0004 	str	r0, [sp, #4]
50005b34:	e59d3004 	ldr	r3, [sp, #4]
50005b38:	e3530000 	cmp	r3, #0
50005b3c:	ba000002 	blt	50005b4c <change_rtc_minute+0x24>
50005b40:	e59d3004 	ldr	r3, [sp, #4]
50005b44:	e353003b 	cmp	r3, #59	; 0x3b
50005b48:	da000002 	ble	50005b58 <change_rtc_minute+0x30>
50005b4c:	e59f00a0 	ldr	r0, [pc, #160]	; 50005bf4 <change_rtc_minute+0xcc>
50005b50:	ebffefd7 	bl	50001ab4 <uart_puts>
50005b54:	ea000024 	b	50005bec <change_rtc_minute+0xc4>
50005b58:	e59d2004 	ldr	r2, [sp, #4]
50005b5c:	e59f3094 	ldr	r3, [pc, #148]	; 50005bf8 <change_rtc_minute+0xd0>
50005b60:	e0c31293 	smull	r1, r3, r3, r2
50005b64:	e1a01143 	asr	r1, r3, #2
50005b68:	e1a03fc2 	asr	r3, r2, #31
50005b6c:	e0631001 	rsb	r1, r3, r1
50005b70:	e1a03001 	mov	r3, r1
50005b74:	e1a03103 	lsl	r3, r3, #2
50005b78:	e0833001 	add	r3, r3, r1
50005b7c:	e1a03083 	lsl	r3, r3, #1
50005b80:	e0633002 	rsb	r3, r3, r2
50005b84:	e58d300c 	str	r3, [sp, #12]
50005b88:	e59d3004 	ldr	r3, [sp, #4]
50005b8c:	e59f2064 	ldr	r2, [pc, #100]	; 50005bf8 <change_rtc_minute+0xd0>
50005b90:	e0c21392 	smull	r1, r2, r2, r3
50005b94:	e1a02142 	asr	r2, r2, #2
50005b98:	e1a03fc3 	asr	r3, r3, #31
50005b9c:	e0633002 	rsb	r3, r3, r2
50005ba0:	e58d3008 	str	r3, [sp, #8]
50005ba4:	e59f3050 	ldr	r3, [pc, #80]	; 50005bfc <change_rtc_minute+0xd4>
50005ba8:	e59f204c 	ldr	r2, [pc, #76]	; 50005bfc <change_rtc_minute+0xd4>
50005bac:	e5922000 	ldr	r2, [r2]
50005bb0:	e3822008 	orr	r2, r2, #8
50005bb4:	e5832000 	str	r2, [r3]
50005bb8:	e59f303c 	ldr	r3, [pc, #60]	; 50005bfc <change_rtc_minute+0xd4>
50005bbc:	e3a02001 	mov	r2, #1
50005bc0:	e5832000 	str	r2, [r3]
50005bc4:	e59f3034 	ldr	r3, [pc, #52]	; 50005c00 <change_rtc_minute+0xd8>
50005bc8:	e59d2008 	ldr	r2, [sp, #8]
50005bcc:	e1a01202 	lsl	r1, r2, #4
50005bd0:	e59d200c 	ldr	r2, [sp, #12]
50005bd4:	e1812002 	orr	r2, r1, r2
50005bd8:	e5832000 	str	r2, [r3]
50005bdc:	e59f3018 	ldr	r3, [pc, #24]	; 50005bfc <change_rtc_minute+0xd4>
50005be0:	e3a02000 	mov	r2, #0
50005be4:	e5832000 	str	r2, [r3]
50005be8:	e1a00000 	nop			; (mov r0, r0)
50005bec:	e28dd014 	add	sp, sp, #20
50005bf0:	e49df004 	pop	{pc}		; (ldr pc, [sp], #4)
50005bf4:	50010b64 	andpl	r0, r1, r4, ror #22
50005bf8:	66666667 	strbtvs	r6, [r6], -r7, ror #12
50005bfc:	7e005040 	cdpvc	0, 0, cr5, cr0, cr0, {2}
50005c00:	7e005074 	mcrvc	0, 0, r5, cr0, cr4, {3}

50005c04 <change_rtc_second>:
50005c04:	e52de004 	push	{lr}		; (str lr, [sp, #-4]!)
50005c08:	e24dd014 	sub	sp, sp, #20
50005c0c:	e58d0004 	str	r0, [sp, #4]
50005c10:	e59d3004 	ldr	r3, [sp, #4]
50005c14:	e3530000 	cmp	r3, #0
50005c18:	ba000002 	blt	50005c28 <change_rtc_second+0x24>
50005c1c:	e59d3004 	ldr	r3, [sp, #4]
50005c20:	e353003b 	cmp	r3, #59	; 0x3b
50005c24:	da000002 	ble	50005c34 <change_rtc_second+0x30>
50005c28:	e59f00a0 	ldr	r0, [pc, #160]	; 50005cd0 <change_rtc_second+0xcc>
50005c2c:	ebffefa0 	bl	50001ab4 <uart_puts>
50005c30:	ea000024 	b	50005cc8 <change_rtc_second+0xc4>
50005c34:	e59d2004 	ldr	r2, [sp, #4]
50005c38:	e59f3094 	ldr	r3, [pc, #148]	; 50005cd4 <change_rtc_second+0xd0>
50005c3c:	e0c31293 	smull	r1, r3, r3, r2
50005c40:	e1a01143 	asr	r1, r3, #2
50005c44:	e1a03fc2 	asr	r3, r2, #31
50005c48:	e0631001 	rsb	r1, r3, r1
50005c4c:	e1a03001 	mov	r3, r1
50005c50:	e1a03103 	lsl	r3, r3, #2
50005c54:	e0833001 	add	r3, r3, r1
50005c58:	e1a03083 	lsl	r3, r3, #1
50005c5c:	e0633002 	rsb	r3, r3, r2
50005c60:	e58d300c 	str	r3, [sp, #12]
50005c64:	e59d3004 	ldr	r3, [sp, #4]
50005c68:	e59f2064 	ldr	r2, [pc, #100]	; 50005cd4 <change_rtc_second+0xd0>
50005c6c:	e0c21392 	smull	r1, r2, r2, r3
50005c70:	e1a02142 	asr	r2, r2, #2
50005c74:	e1a03fc3 	asr	r3, r3, #31
50005c78:	e0633002 	rsb	r3, r3, r2
50005c7c:	e58d3008 	str	r3, [sp, #8]
50005c80:	e59f3050 	ldr	r3, [pc, #80]	; 50005cd8 <change_rtc_second+0xd4>
50005c84:	e59f204c 	ldr	r2, [pc, #76]	; 50005cd8 <change_rtc_second+0xd4>
50005c88:	e5922000 	ldr	r2, [r2]
50005c8c:	e3822008 	orr	r2, r2, #8
50005c90:	e5832000 	str	r2, [r3]
50005c94:	e59f303c 	ldr	r3, [pc, #60]	; 50005cd8 <change_rtc_second+0xd4>
50005c98:	e3a02001 	mov	r2, #1
50005c9c:	e5832000 	str	r2, [r3]
50005ca0:	e59f3034 	ldr	r3, [pc, #52]	; 50005cdc <change_rtc_second+0xd8>
50005ca4:	e59d2008 	ldr	r2, [sp, #8]
50005ca8:	e1a01202 	lsl	r1, r2, #4
50005cac:	e59d200c 	ldr	r2, [sp, #12]
50005cb0:	e1812002 	orr	r2, r1, r2
50005cb4:	e5832000 	str	r2, [r3]
50005cb8:	e59f3018 	ldr	r3, [pc, #24]	; 50005cd8 <change_rtc_second+0xd4>
50005cbc:	e3a02000 	mov	r2, #0
50005cc0:	e5832000 	str	r2, [r3]
50005cc4:	e1a00000 	nop			; (mov r0, r0)
50005cc8:	e28dd014 	add	sp, sp, #20
50005ccc:	e49df004 	pop	{pc}		; (ldr pc, [sp], #4)
50005cd0:	50010b8c 	andpl	r0, r1, ip, lsl #23
50005cd4:	66666667 	strbtvs	r6, [r6], -r7, ror #12
50005cd8:	7e005040 	cdpvc	0, 0, cr5, cr0, cr0, {2}
50005cdc:	7e005070 	mcrvc	0, 0, r5, cr0, cr0, {3}

50005ce0 <init_wdt>:
50005ce0:	e12fff1e 	bx	lr

50005ce4 <reboot>:
50005ce4:	e59f3018 	ldr	r3, [pc, #24]	; 50005d04 <reboot+0x20>
50005ce8:	e59f2018 	ldr	r2, [pc, #24]	; 50005d08 <reboot+0x24>
50005cec:	e5832000 	str	r2, [r3]
50005cf0:	e59f3014 	ldr	r3, [pc, #20]	; 50005d0c <reboot+0x28>
50005cf4:	e3a02010 	mov	r2, #16
50005cf8:	e5832000 	str	r2, [r3]
50005cfc:	e1a00000 	nop			; (mov r0, r0)
50005d00:	e12fff1e 	bx	lr
50005d04:	7e004000 	cdpvc	0, 0, cr4, cr0, cr0, {0}
50005d08:	00004121 	andeq	r4, r0, r1, lsr #2
50005d0c:	7e004004 	cdpvc	0, 0, cr4, cr0, cr4, {0}

50005d10 <OSEventNameGet>:
50005d10:	e52de004 	push	{lr}		; (str lr, [sp, #-4]!)
50005d14:	e24dd01c 	sub	sp, sp, #28
50005d18:	e58d000c 	str	r0, [sp, #12]
50005d1c:	e58d1008 	str	r1, [sp, #8]
50005d20:	e58d2004 	str	r2, [sp, #4]
50005d24:	e3a03000 	mov	r3, #0
50005d28:	e58d3014 	str	r3, [sp, #20]
50005d2c:	e59f30a0 	ldr	r3, [pc, #160]	; 50005dd4 <OSEventNameGet+0xc4>
50005d30:	e5d33000 	ldrb	r3, [r3]
50005d34:	e3530000 	cmp	r3, #0
50005d38:	0a000004 	beq	50005d50 <OSEventNameGet+0x40>
50005d3c:	e59d3004 	ldr	r3, [sp, #4]
50005d40:	e3a02011 	mov	r2, #17
50005d44:	e5c32000 	strb	r2, [r3]
50005d48:	e3a03000 	mov	r3, #0
50005d4c:	ea00001c 	b	50005dc4 <OSEventNameGet+0xb4>
50005d50:	e59d300c 	ldr	r3, [sp, #12]
50005d54:	e5d33000 	ldrb	r3, [r3]
50005d58:	e2433001 	sub	r3, r3, #1
50005d5c:	e3530003 	cmp	r3, #3
50005d60:	9a000004 	bls	50005d78 <OSEventNameGet+0x68>
50005d64:	e59d3004 	ldr	r3, [sp, #4]
50005d68:	e3a02001 	mov	r2, #1
50005d6c:	e5c32000 	strb	r2, [r3]
50005d70:	e3a03000 	mov	r3, #0
50005d74:	ea000012 	b	50005dc4 <OSEventNameGet+0xb4>
50005d78:	e1a00000 	nop			; (mov r0, r0)
50005d7c:	ebfff9e8 	bl	50004524 <OS_CPU_SR_Save>
50005d80:	e58d0014 	str	r0, [sp, #20]
50005d84:	e59d300c 	ldr	r3, [sp, #12]
50005d88:	e5932014 	ldr	r2, [r3, #20]
50005d8c:	e59d3008 	ldr	r3, [sp, #8]
50005d90:	e5832000 	str	r2, [r3]
50005d94:	e59d3008 	ldr	r3, [sp, #8]
50005d98:	e5933000 	ldr	r3, [r3]
50005d9c:	e1a00003 	mov	r0, r3
50005da0:	eb000642 	bl	500076b0 <OS_StrLen>
50005da4:	e1a03000 	mov	r3, r0
50005da8:	e5cd3013 	strb	r3, [sp, #19]
50005dac:	e59d0014 	ldr	r0, [sp, #20]
50005db0:	ebfff9e3 	bl	50004544 <OS_CPU_SR_Restore>
50005db4:	e59d3004 	ldr	r3, [sp, #4]
50005db8:	e3a02000 	mov	r2, #0
50005dbc:	e5c32000 	strb	r2, [r3]
50005dc0:	e5dd3013 	ldrb	r3, [sp, #19]
50005dc4:	e1a00003 	mov	r0, r3
50005dc8:	e28dd01c 	add	sp, sp, #28
50005dcc:	e49de004 	pop	{lr}		; (ldr lr, [sp], #4)
50005dd0:	e12fff1e 	bx	lr
50005dd4:	50012178 	andpl	r2, r1, r8, ror r1

50005dd8 <OSEventNameSet>:
50005dd8:	e52de004 	push	{lr}		; (str lr, [sp, #-4]!)
50005ddc:	e24dd01c 	sub	sp, sp, #28
50005de0:	e58d000c 	str	r0, [sp, #12]
50005de4:	e58d1008 	str	r1, [sp, #8]
50005de8:	e58d2004 	str	r2, [sp, #4]
50005dec:	e3a03000 	mov	r3, #0
50005df0:	e58d3014 	str	r3, [sp, #20]
50005df4:	e59f3074 	ldr	r3, [pc, #116]	; 50005e70 <OSEventNameSet+0x98>
50005df8:	e5d33000 	ldrb	r3, [r3]
50005dfc:	e3530000 	cmp	r3, #0
50005e00:	0a000003 	beq	50005e14 <OSEventNameSet+0x3c>
50005e04:	e59d3004 	ldr	r3, [sp, #4]
50005e08:	e3a02012 	mov	r2, #18
50005e0c:	e5c32000 	strb	r2, [r3]
50005e10:	ea000013 	b	50005e64 <OSEventNameSet+0x8c>
50005e14:	e59d300c 	ldr	r3, [sp, #12]
50005e18:	e5d33000 	ldrb	r3, [r3]
50005e1c:	e2433001 	sub	r3, r3, #1
50005e20:	e3530003 	cmp	r3, #3
50005e24:	9a000003 	bls	50005e38 <OSEventNameSet+0x60>
50005e28:	e59d3004 	ldr	r3, [sp, #4]
50005e2c:	e3a02001 	mov	r2, #1
50005e30:	e5c32000 	strb	r2, [r3]
50005e34:	ea00000a 	b	50005e64 <OSEventNameSet+0x8c>
50005e38:	e1a00000 	nop			; (mov r0, r0)
50005e3c:	ebfff9b8 	bl	50004524 <OS_CPU_SR_Save>
50005e40:	e58d0014 	str	r0, [sp, #20]
50005e44:	e59d300c 	ldr	r3, [sp, #12]
50005e48:	e59d2008 	ldr	r2, [sp, #8]
50005e4c:	e5832014 	str	r2, [r3, #20]
50005e50:	e59d0014 	ldr	r0, [sp, #20]
50005e54:	ebfff9ba 	bl	50004544 <OS_CPU_SR_Restore>
50005e58:	e59d3004 	ldr	r3, [sp, #4]
50005e5c:	e3a02000 	mov	r2, #0
50005e60:	e5c32000 	strb	r2, [r3]
50005e64:	e28dd01c 	add	sp, sp, #28
50005e68:	e49de004 	pop	{lr}		; (ldr lr, [sp], #4)
50005e6c:	e12fff1e 	bx	lr
50005e70:	50012178 	andpl	r2, r1, r8, ror r1

50005e74 <OSEventPendMulti>:
50005e74:	e52de004 	push	{lr}		; (str lr, [sp, #-4]!)
50005e78:	e24dd02c 	sub	sp, sp, #44	; 0x2c
50005e7c:	e58d000c 	str	r0, [sp, #12]
50005e80:	e58d1008 	str	r1, [sp, #8]
50005e84:	e58d2004 	str	r2, [sp, #4]
50005e88:	e58d3000 	str	r3, [sp]
50005e8c:	e3a03000 	mov	r3, #0
50005e90:	e58d3014 	str	r3, [sp, #20]
50005e94:	e59d3008 	ldr	r3, [sp, #8]
50005e98:	e3a02000 	mov	r2, #0
50005e9c:	e5832000 	str	r2, [r3]
50005ea0:	e59d300c 	ldr	r3, [sp, #12]
50005ea4:	e58d3024 	str	r3, [sp, #36]	; 0x24
50005ea8:	e59d3024 	ldr	r3, [sp, #36]	; 0x24
50005eac:	e5933000 	ldr	r3, [r3]
50005eb0:	e58d3020 	str	r3, [sp, #32]
50005eb4:	ea000017 	b	50005f18 <OSEventPendMulti+0xa4>
50005eb8:	e59d3020 	ldr	r3, [sp, #32]
50005ebc:	e5d33000 	ldrb	r3, [r3]
50005ec0:	e3530002 	cmp	r3, #2
50005ec4:	0a000008 	beq	50005eec <OSEventPendMulti+0x78>
50005ec8:	e3530003 	cmp	r3, #3
50005ecc:	0a000008 	beq	50005ef4 <OSEventPendMulti+0x80>
50005ed0:	e3530001 	cmp	r3, #1
50005ed4:	0a000008 	beq	50005efc <OSEventPendMulti+0x88>
50005ed8:	e59d3030 	ldr	r3, [sp, #48]	; 0x30
50005edc:	e3a02001 	mov	r2, #1
50005ee0:	e5c32000 	strb	r2, [r3]
50005ee4:	e3a03000 	mov	r3, #0
50005ee8:	ea00015c 	b	50006460 <OSEventPendMulti+0x5ec>
50005eec:	e1a00000 	nop			; (mov r0, r0)
50005ef0:	ea000002 	b	50005f00 <OSEventPendMulti+0x8c>
50005ef4:	e1a00000 	nop			; (mov r0, r0)
50005ef8:	ea000000 	b	50005f00 <OSEventPendMulti+0x8c>
50005efc:	e1a00000 	nop			; (mov r0, r0)
50005f00:	e59d3024 	ldr	r3, [sp, #36]	; 0x24
50005f04:	e2833004 	add	r3, r3, #4
50005f08:	e58d3024 	str	r3, [sp, #36]	; 0x24
50005f0c:	e59d3024 	ldr	r3, [sp, #36]	; 0x24
50005f10:	e5933000 	ldr	r3, [r3]
50005f14:	e58d3020 	str	r3, [sp, #32]
50005f18:	e59d3020 	ldr	r3, [sp, #32]
50005f1c:	e3530000 	cmp	r3, #0
50005f20:	1affffe4 	bne	50005eb8 <OSEventPendMulti+0x44>
50005f24:	e59f3544 	ldr	r3, [pc, #1348]	; 50006470 <OSEventPendMulti+0x5fc>
50005f28:	e5d33000 	ldrb	r3, [r3]
50005f2c:	e3530000 	cmp	r3, #0
50005f30:	0a000004 	beq	50005f48 <OSEventPendMulti+0xd4>
50005f34:	e59d3030 	ldr	r3, [sp, #48]	; 0x30
50005f38:	e3a02002 	mov	r2, #2
50005f3c:	e5c32000 	strb	r2, [r3]
50005f40:	e3a03000 	mov	r3, #0
50005f44:	ea000145 	b	50006460 <OSEventPendMulti+0x5ec>
50005f48:	e59f3524 	ldr	r3, [pc, #1316]	; 50006474 <OSEventPendMulti+0x600>
50005f4c:	e5d33000 	ldrb	r3, [r3]
50005f50:	e3530000 	cmp	r3, #0
50005f54:	0a000004 	beq	50005f6c <OSEventPendMulti+0xf8>
50005f58:	e59d3030 	ldr	r3, [sp, #48]	; 0x30
50005f5c:	e3a0200d 	mov	r2, #13
50005f60:	e5c32000 	strb	r2, [r3]
50005f64:	e3a03000 	mov	r3, #0
50005f68:	ea00013c 	b	50006460 <OSEventPendMulti+0x5ec>
50005f6c:	ebfff96c 	bl	50004524 <OS_CPU_SR_Save>
50005f70:	e58d0014 	str	r0, [sp, #20]
50005f74:	e3a03000 	mov	r3, #0
50005f78:	e5cd301f 	strb	r3, [sp, #31]
50005f7c:	e3a03000 	mov	r3, #0
50005f80:	e1cd31bc 	strh	r3, [sp, #28]
50005f84:	e3a03000 	mov	r3, #0
50005f88:	e5cd301b 	strb	r3, [sp, #27]
50005f8c:	e59d300c 	ldr	r3, [sp, #12]
50005f90:	e58d3024 	str	r3, [sp, #36]	; 0x24
50005f94:	e59d3024 	ldr	r3, [sp, #36]	; 0x24
50005f98:	e5933000 	ldr	r3, [r3]
50005f9c:	e58d3020 	str	r3, [sp, #32]
50005fa0:	ea000084 	b	500061b8 <OSEventPendMulti+0x344>
50005fa4:	e59d3020 	ldr	r3, [sp, #32]
50005fa8:	e5d33000 	ldrb	r3, [r3]
50005fac:	e3530002 	cmp	r3, #2
50005fb0:	0a00003f 	beq	500060b4 <OSEventPendMulti+0x240>
50005fb4:	e3530003 	cmp	r3, #3
50005fb8:	0a000002 	beq	50005fc8 <OSEventPendMulti+0x154>
50005fbc:	e3530001 	cmp	r3, #1
50005fc0:	0a00001f 	beq	50006044 <OSEventPendMulti+0x1d0>
50005fc4:	ea00006b 	b	50006178 <OSEventPendMulti+0x304>
50005fc8:	e59d3020 	ldr	r3, [sp, #32]
50005fcc:	e1d330b8 	ldrh	r3, [r3, #8]
50005fd0:	e3530000 	cmp	r3, #0
50005fd4:	0a000016 	beq	50006034 <OSEventPendMulti+0x1c0>
50005fd8:	e59d3020 	ldr	r3, [sp, #32]
50005fdc:	e1d330b8 	ldrh	r3, [r3, #8]
50005fe0:	e2433001 	sub	r3, r3, #1
50005fe4:	e1a03803 	lsl	r3, r3, #16
50005fe8:	e1a02823 	lsr	r2, r3, #16
50005fec:	e59d3020 	ldr	r3, [sp, #32]
50005ff0:	e1c320b8 	strh	r2, [r3, #8]
50005ff4:	e59d3008 	ldr	r3, [sp, #8]
50005ff8:	e2832004 	add	r2, r3, #4
50005ffc:	e58d2008 	str	r2, [sp, #8]
50006000:	e59d2020 	ldr	r2, [sp, #32]
50006004:	e5832000 	str	r2, [r3]
50006008:	e3a03001 	mov	r3, #1
5000600c:	e5cd301f 	strb	r3, [sp, #31]
50006010:	e59d3004 	ldr	r3, [sp, #4]
50006014:	e2832004 	add	r2, r3, #4
50006018:	e58d2004 	str	r2, [sp, #4]
5000601c:	e3a02000 	mov	r2, #0
50006020:	e5832000 	str	r2, [r3]
50006024:	e1dd31bc 	ldrh	r3, [sp, #28]
50006028:	e2833001 	add	r3, r3, #1
5000602c:	e1cd31bc 	strh	r3, [sp, #28]
50006030:	ea00005a 	b	500061a0 <OSEventPendMulti+0x32c>
50006034:	e5dd301b 	ldrb	r3, [sp, #27]
50006038:	e3833001 	orr	r3, r3, #1
5000603c:	e5cd301b 	strb	r3, [sp, #27]
50006040:	ea000056 	b	500061a0 <OSEventPendMulti+0x32c>
50006044:	e59d3020 	ldr	r3, [sp, #32]
50006048:	e5933004 	ldr	r3, [r3, #4]
5000604c:	e3530000 	cmp	r3, #0
50006050:	0a000013 	beq	500060a4 <OSEventPendMulti+0x230>
50006054:	e59d3004 	ldr	r3, [sp, #4]
50006058:	e2832004 	add	r2, r3, #4
5000605c:	e58d2004 	str	r2, [sp, #4]
50006060:	e59d2020 	ldr	r2, [sp, #32]
50006064:	e5922004 	ldr	r2, [r2, #4]
50006068:	e5832000 	str	r2, [r3]
5000606c:	e59d3020 	ldr	r3, [sp, #32]
50006070:	e3a02000 	mov	r2, #0
50006074:	e5832004 	str	r2, [r3, #4]
50006078:	e59d3008 	ldr	r3, [sp, #8]
5000607c:	e2832004 	add	r2, r3, #4
50006080:	e58d2008 	str	r2, [sp, #8]
50006084:	e59d2020 	ldr	r2, [sp, #32]
50006088:	e5832000 	str	r2, [r3]
5000608c:	e3a03001 	mov	r3, #1
50006090:	e5cd301f 	strb	r3, [sp, #31]
50006094:	e1dd31bc 	ldrh	r3, [sp, #28]
50006098:	e2833001 	add	r3, r3, #1
5000609c:	e1cd31bc 	strh	r3, [sp, #28]
500060a0:	ea00003e 	b	500061a0 <OSEventPendMulti+0x32c>
500060a4:	e5dd301b 	ldrb	r3, [sp, #27]
500060a8:	e3833002 	orr	r3, r3, #2
500060ac:	e5cd301b 	strb	r3, [sp, #27]
500060b0:	ea00003a 	b	500061a0 <OSEventPendMulti+0x32c>
500060b4:	e59d3020 	ldr	r3, [sp, #32]
500060b8:	e5933004 	ldr	r3, [r3, #4]
500060bc:	e58d3010 	str	r3, [sp, #16]
500060c0:	e59d3010 	ldr	r3, [sp, #16]
500060c4:	e1d331b6 	ldrh	r3, [r3, #22]
500060c8:	e3530000 	cmp	r3, #0
500060cc:	0a000025 	beq	50006168 <OSEventPendMulti+0x2f4>
500060d0:	e59d3004 	ldr	r3, [sp, #4]
500060d4:	e2832004 	add	r2, r3, #4
500060d8:	e58d2004 	str	r2, [sp, #4]
500060dc:	e59d2010 	ldr	r2, [sp, #16]
500060e0:	e5922010 	ldr	r2, [r2, #16]
500060e4:	e2820004 	add	r0, r2, #4
500060e8:	e59d1010 	ldr	r1, [sp, #16]
500060ec:	e5810010 	str	r0, [r1, #16]
500060f0:	e5922000 	ldr	r2, [r2]
500060f4:	e5832000 	str	r2, [r3]
500060f8:	e59d3010 	ldr	r3, [sp, #16]
500060fc:	e5932010 	ldr	r2, [r3, #16]
50006100:	e59d3010 	ldr	r3, [sp, #16]
50006104:	e5933008 	ldr	r3, [r3, #8]
50006108:	e1520003 	cmp	r2, r3
5000610c:	1a000003 	bne	50006120 <OSEventPendMulti+0x2ac>
50006110:	e59d3010 	ldr	r3, [sp, #16]
50006114:	e5932004 	ldr	r2, [r3, #4]
50006118:	e59d3010 	ldr	r3, [sp, #16]
5000611c:	e5832010 	str	r2, [r3, #16]
50006120:	e59d3010 	ldr	r3, [sp, #16]
50006124:	e1d331b6 	ldrh	r3, [r3, #22]
50006128:	e2433001 	sub	r3, r3, #1
5000612c:	e1a03803 	lsl	r3, r3, #16
50006130:	e1a02823 	lsr	r2, r3, #16
50006134:	e59d3010 	ldr	r3, [sp, #16]
50006138:	e1c321b6 	strh	r2, [r3, #22]
5000613c:	e59d3008 	ldr	r3, [sp, #8]
50006140:	e2832004 	add	r2, r3, #4
50006144:	e58d2008 	str	r2, [sp, #8]
50006148:	e59d2020 	ldr	r2, [sp, #32]
5000614c:	e5832000 	str	r2, [r3]
50006150:	e3a03001 	mov	r3, #1
50006154:	e5cd301f 	strb	r3, [sp, #31]
50006158:	e1dd31bc 	ldrh	r3, [sp, #28]
5000615c:	e2833001 	add	r3, r3, #1
50006160:	e1cd31bc 	strh	r3, [sp, #28]
50006164:	ea00000d 	b	500061a0 <OSEventPendMulti+0x32c>
50006168:	e5dd301b 	ldrb	r3, [sp, #27]
5000616c:	e3833004 	orr	r3, r3, #4
50006170:	e5cd301b 	strb	r3, [sp, #27]
50006174:	ea000009 	b	500061a0 <OSEventPendMulti+0x32c>
50006178:	e59d0014 	ldr	r0, [sp, #20]
5000617c:	ebfff8f0 	bl	50004544 <OS_CPU_SR_Restore>
50006180:	e59d3008 	ldr	r3, [sp, #8]
50006184:	e3a02000 	mov	r2, #0
50006188:	e5832000 	str	r2, [r3]
5000618c:	e59d3030 	ldr	r3, [sp, #48]	; 0x30
50006190:	e3a02001 	mov	r2, #1
50006194:	e5c32000 	strb	r2, [r3]
50006198:	e1dd31bc 	ldrh	r3, [sp, #28]
5000619c:	ea0000af 	b	50006460 <OSEventPendMulti+0x5ec>
500061a0:	e59d3024 	ldr	r3, [sp, #36]	; 0x24
500061a4:	e2833004 	add	r3, r3, #4
500061a8:	e58d3024 	str	r3, [sp, #36]	; 0x24
500061ac:	e59d3024 	ldr	r3, [sp, #36]	; 0x24
500061b0:	e5933000 	ldr	r3, [r3]
500061b4:	e58d3020 	str	r3, [sp, #32]
500061b8:	e59d3020 	ldr	r3, [sp, #32]
500061bc:	e3530000 	cmp	r3, #0
500061c0:	1affff77 	bne	50005fa4 <OSEventPendMulti+0x130>
500061c4:	e5dd301f 	ldrb	r3, [sp, #31]
500061c8:	e3530001 	cmp	r3, #1
500061cc:	1a000009 	bne	500061f8 <OSEventPendMulti+0x384>
500061d0:	e59d3008 	ldr	r3, [sp, #8]
500061d4:	e3a02000 	mov	r2, #0
500061d8:	e5832000 	str	r2, [r3]
500061dc:	e59d0014 	ldr	r0, [sp, #20]
500061e0:	ebfff8d7 	bl	50004544 <OS_CPU_SR_Restore>
500061e4:	e59d3030 	ldr	r3, [sp, #48]	; 0x30
500061e8:	e3a02000 	mov	r2, #0
500061ec:	e5c32000 	strb	r2, [r3]
500061f0:	e1dd31bc 	ldrh	r3, [sp, #28]
500061f4:	ea000099 	b	50006460 <OSEventPendMulti+0x5ec>
500061f8:	e59f3278 	ldr	r3, [pc, #632]	; 50006478 <OSEventPendMulti+0x604>
500061fc:	e5932000 	ldr	r2, [r3]
50006200:	e59f3270 	ldr	r3, [pc, #624]	; 50006478 <OSEventPendMulti+0x604>
50006204:	e5933000 	ldr	r3, [r3]
50006208:	e5d31034 	ldrb	r1, [r3, #52]	; 0x34
5000620c:	e5dd301b 	ldrb	r3, [sp, #27]
50006210:	e1813003 	orr	r3, r1, r3
50006214:	e20330ff 	and	r3, r3, #255	; 0xff
50006218:	e1e03c83 	mvn	r3, r3, lsl #25
5000621c:	e1e03ca3 	mvn	r3, r3, lsr #25
50006220:	e20330ff 	and	r3, r3, #255	; 0xff
50006224:	e5c23034 	strb	r3, [r2, #52]	; 0x34
50006228:	e59f3248 	ldr	r3, [pc, #584]	; 50006478 <OSEventPendMulti+0x604>
5000622c:	e5933000 	ldr	r3, [r3]
50006230:	e3a02000 	mov	r2, #0
50006234:	e5c32035 	strb	r2, [r3, #53]	; 0x35
50006238:	e59f3238 	ldr	r3, [pc, #568]	; 50006478 <OSEventPendMulti+0x604>
5000623c:	e5933000 	ldr	r3, [r3]
50006240:	e59d2000 	ldr	r2, [sp]
50006244:	e5832030 	str	r2, [r3, #48]	; 0x30
50006248:	e59d000c 	ldr	r0, [sp, #12]
5000624c:	eb0002a9 	bl	50006cf8 <OS_EventTaskWaitMulti>
50006250:	e59d0014 	ldr	r0, [sp, #20]
50006254:	ebfff8ba 	bl	50004544 <OS_CPU_SR_Restore>
50006258:	eb0004c9 	bl	50007584 <OS_Sched>
5000625c:	ebfff8b0 	bl	50004524 <OS_CPU_SR_Save>
50006260:	e58d0014 	str	r0, [sp, #20]
50006264:	e59f320c 	ldr	r3, [pc, #524]	; 50006478 <OSEventPendMulti+0x604>
50006268:	e5933000 	ldr	r3, [r3]
5000626c:	e5d33035 	ldrb	r3, [r3, #53]	; 0x35
50006270:	e3530000 	cmp	r3, #0
50006274:	0a000001 	beq	50006280 <OSEventPendMulti+0x40c>
50006278:	e3530002 	cmp	r3, #2
5000627c:	1a00001c 	bne	500062f4 <OSEventPendMulti+0x480>
50006280:	e59f31f0 	ldr	r3, [pc, #496]	; 50006478 <OSEventPendMulti+0x604>
50006284:	e5933000 	ldr	r3, [r3]
50006288:	e593301c 	ldr	r3, [r3, #28]
5000628c:	e58d3020 	str	r3, [sp, #32]
50006290:	e59d3020 	ldr	r3, [sp, #32]
50006294:	e3530000 	cmp	r3, #0
50006298:	0a00000b 	beq	500062cc <OSEventPendMulti+0x458>
5000629c:	e59d3008 	ldr	r3, [sp, #8]
500062a0:	e2832004 	add	r2, r3, #4
500062a4:	e58d2008 	str	r2, [sp, #8]
500062a8:	e59d2020 	ldr	r2, [sp, #32]
500062ac:	e5832000 	str	r2, [r3]
500062b0:	e59d3008 	ldr	r3, [sp, #8]
500062b4:	e3a02000 	mov	r2, #0
500062b8:	e5832000 	str	r2, [r3]
500062bc:	e1dd31bc 	ldrh	r3, [sp, #28]
500062c0:	e2833001 	add	r3, r3, #1
500062c4:	e1cd31bc 	strh	r3, [sp, #28]
500062c8:	ea00000f 	b	5000630c <OSEventPendMulti+0x498>
500062cc:	e59f31a4 	ldr	r3, [pc, #420]	; 50006478 <OSEventPendMulti+0x604>
500062d0:	e5933000 	ldr	r3, [r3]
500062d4:	e3a02001 	mov	r2, #1
500062d8:	e5c32035 	strb	r2, [r3, #53]	; 0x35
500062dc:	e59f3194 	ldr	r3, [pc, #404]	; 50006478 <OSEventPendMulti+0x604>
500062e0:	e5933000 	ldr	r3, [r3]
500062e4:	e1a00003 	mov	r0, r3
500062e8:	e59d100c 	ldr	r1, [sp, #12]
500062ec:	eb00030c 	bl	50006f24 <OS_EventTaskRemoveMulti>
500062f0:	ea000005 	b	5000630c <OSEventPendMulti+0x498>
500062f4:	e59f317c 	ldr	r3, [pc, #380]	; 50006478 <OSEventPendMulti+0x604>
500062f8:	e5933000 	ldr	r3, [r3]
500062fc:	e1a00003 	mov	r0, r3
50006300:	e59d100c 	ldr	r1, [sp, #12]
50006304:	eb000306 	bl	50006f24 <OS_EventTaskRemoveMulti>
50006308:	e1a00000 	nop			; (mov r0, r0)
5000630c:	e59f3164 	ldr	r3, [pc, #356]	; 50006478 <OSEventPendMulti+0x604>
50006310:	e5933000 	ldr	r3, [r3]
50006314:	e5d33035 	ldrb	r3, [r3, #53]	; 0x35
50006318:	e3530000 	cmp	r3, #0
5000631c:	0a000002 	beq	5000632c <OSEventPendMulti+0x4b8>
50006320:	e3530002 	cmp	r3, #2
50006324:	0a000024 	beq	500063bc <OSEventPendMulti+0x548>
50006328:	ea00002c 	b	500063e0 <OSEventPendMulti+0x56c>
5000632c:	e59d3020 	ldr	r3, [sp, #32]
50006330:	e5d33000 	ldrb	r3, [r3]
50006334:	e3530001 	cmp	r3, #1
50006338:	ba000011 	blt	50006384 <OSEventPendMulti+0x510>
5000633c:	e3530002 	cmp	r3, #2
50006340:	da000007 	ble	50006364 <OSEventPendMulti+0x4f0>
50006344:	e3530003 	cmp	r3, #3
50006348:	1a00000d 	bne	50006384 <OSEventPendMulti+0x510>
5000634c:	e59d3004 	ldr	r3, [sp, #4]
50006350:	e2832004 	add	r2, r3, #4
50006354:	e58d2004 	str	r2, [sp, #4]
50006358:	e3a02000 	mov	r2, #0
5000635c:	e5832000 	str	r2, [r3]
50006360:	ea000011 	b	500063ac <OSEventPendMulti+0x538>
50006364:	e59d3004 	ldr	r3, [sp, #4]
50006368:	e2832004 	add	r2, r3, #4
5000636c:	e58d2004 	str	r2, [sp, #4]
50006370:	e59f2100 	ldr	r2, [pc, #256]	; 50006478 <OSEventPendMulti+0x604>
50006374:	e5922000 	ldr	r2, [r2]
50006378:	e5922024 	ldr	r2, [r2, #36]	; 0x24
5000637c:	e5832000 	str	r2, [r3]
50006380:	ea000009 	b	500063ac <OSEventPendMulti+0x538>
50006384:	e59d0014 	ldr	r0, [sp, #20]
50006388:	ebfff86d 	bl	50004544 <OS_CPU_SR_Restore>
5000638c:	e59d3008 	ldr	r3, [sp, #8]
50006390:	e3a02000 	mov	r2, #0
50006394:	e5832000 	str	r2, [r3]
50006398:	e59d3030 	ldr	r3, [sp, #48]	; 0x30
5000639c:	e3a02001 	mov	r2, #1
500063a0:	e5c32000 	strb	r2, [r3]
500063a4:	e1dd31bc 	ldrh	r3, [sp, #28]
500063a8:	ea00002c 	b	50006460 <OSEventPendMulti+0x5ec>
500063ac:	e59d3030 	ldr	r3, [sp, #48]	; 0x30
500063b0:	e3a02000 	mov	r2, #0
500063b4:	e5c32000 	strb	r2, [r3]
500063b8:	ea000011 	b	50006404 <OSEventPendMulti+0x590>
500063bc:	e59d3004 	ldr	r3, [sp, #4]
500063c0:	e2832004 	add	r2, r3, #4
500063c4:	e58d2004 	str	r2, [sp, #4]
500063c8:	e3a02000 	mov	r2, #0
500063cc:	e5832000 	str	r2, [r3]
500063d0:	e59d3030 	ldr	r3, [sp, #48]	; 0x30
500063d4:	e3a0200e 	mov	r2, #14
500063d8:	e5c32000 	strb	r2, [r3]
500063dc:	ea000008 	b	50006404 <OSEventPendMulti+0x590>
500063e0:	e59d3004 	ldr	r3, [sp, #4]
500063e4:	e2832004 	add	r2, r3, #4
500063e8:	e58d2004 	str	r2, [sp, #4]
500063ec:	e3a02000 	mov	r2, #0
500063f0:	e5832000 	str	r2, [r3]
500063f4:	e59d3030 	ldr	r3, [sp, #48]	; 0x30
500063f8:	e3a0200a 	mov	r2, #10
500063fc:	e5c32000 	strb	r2, [r3]
50006400:	e1a00000 	nop			; (mov r0, r0)
50006404:	e59f306c 	ldr	r3, [pc, #108]	; 50006478 <OSEventPendMulti+0x604>
50006408:	e5933000 	ldr	r3, [r3]
5000640c:	e3a02000 	mov	r2, #0
50006410:	e5c32034 	strb	r2, [r3, #52]	; 0x34
50006414:	e59f305c 	ldr	r3, [pc, #92]	; 50006478 <OSEventPendMulti+0x604>
50006418:	e5933000 	ldr	r3, [r3]
5000641c:	e3a02000 	mov	r2, #0
50006420:	e5c32035 	strb	r2, [r3, #53]	; 0x35
50006424:	e59f304c 	ldr	r3, [pc, #76]	; 50006478 <OSEventPendMulti+0x604>
50006428:	e5933000 	ldr	r3, [r3]
5000642c:	e3a02000 	mov	r2, #0
50006430:	e583201c 	str	r2, [r3, #28]
50006434:	e59f303c 	ldr	r3, [pc, #60]	; 50006478 <OSEventPendMulti+0x604>
50006438:	e5933000 	ldr	r3, [r3]
5000643c:	e3a02000 	mov	r2, #0
50006440:	e5832020 	str	r2, [r3, #32]
50006444:	e59f302c 	ldr	r3, [pc, #44]	; 50006478 <OSEventPendMulti+0x604>
50006448:	e5933000 	ldr	r3, [r3]
5000644c:	e3a02000 	mov	r2, #0
50006450:	e5832024 	str	r2, [r3, #36]	; 0x24
50006454:	e59d0014 	ldr	r0, [sp, #20]
50006458:	ebfff839 	bl	50004544 <OS_CPU_SR_Restore>
5000645c:	e1dd31bc 	ldrh	r3, [sp, #28]
50006460:	e1a00003 	mov	r0, r3
50006464:	e28dd02c 	add	sp, sp, #44	; 0x2c
50006468:	e49de004 	pop	{lr}		; (ldr lr, [sp], #4)
5000646c:	e12fff1e 	bx	lr
50006470:	50012178 	andpl	r2, r1, r8, ror r1
50006474:	50011980 	andpl	r1, r1, r0, lsl #19
50006478:	5001217c 	andpl	r2, r1, ip, ror r1

5000647c <OSInit>:
5000647c:	e92d4008 	push	{r3, lr}
50006480:	ebfff8ef 	bl	50004844 <OSInitHookBegin>
50006484:	eb000340 	bl	5000718c <OS_InitMisc>
50006488:	eb000368 	bl	50007230 <OS_InitRdyList>
5000648c:	eb0003c8 	bl	500073b4 <OS_InitTCBList>
50006490:	eb0002f9 	bl	5000707c <OS_InitEventList>
50006494:	eb000a56 	bl	50008df4 <OS_FlagInit>
50006498:	eb000e50 	bl	50009de0 <OS_MemInit>
5000649c:	eb00160d 	bl	5000bcd8 <OS_QInit>
500064a0:	eb000387 	bl	500072c4 <OS_InitTaskIdle>
500064a4:	eb0003a4 	bl	5000733c <OS_InitTaskStat>
500064a8:	eb0020f0 	bl	5000e870 <OSTmr_Init>
500064ac:	ebfff8e5 	bl	50004848 <OSInitHookEnd>
500064b0:	ebfff96e 	bl	50004a70 <OSDebugInit>
500064b4:	e8bd4008 	pop	{r3, lr}
500064b8:	e12fff1e 	bx	lr

500064bc <OSIntEnter>:
500064bc:	e59f3034 	ldr	r3, [pc, #52]	; 500064f8 <OSIntEnter+0x3c>
500064c0:	e5d33000 	ldrb	r3, [r3]
500064c4:	e3530001 	cmp	r3, #1
500064c8:	1a000009 	bne	500064f4 <OSIntEnter+0x38>
500064cc:	e59f3028 	ldr	r3, [pc, #40]	; 500064fc <OSIntEnter+0x40>
500064d0:	e5d33000 	ldrb	r3, [r3]
500064d4:	e35300ff 	cmp	r3, #255	; 0xff
500064d8:	0a000005 	beq	500064f4 <OSIntEnter+0x38>
500064dc:	e59f3018 	ldr	r3, [pc, #24]	; 500064fc <OSIntEnter+0x40>
500064e0:	e5d33000 	ldrb	r3, [r3]
500064e4:	e2833001 	add	r3, r3, #1
500064e8:	e20320ff 	and	r2, r3, #255	; 0xff
500064ec:	e59f3008 	ldr	r3, [pc, #8]	; 500064fc <OSIntEnter+0x40>
500064f0:	e5c32000 	strb	r2, [r3]
500064f4:	e12fff1e 	bx	lr
500064f8:	50011988 	andpl	r1, r1, r8, lsl #19
500064fc:	50012178 	andpl	r2, r1, r8, ror r1

50006500 <OSIntExit>:
50006500:	e52de004 	push	{lr}		; (str lr, [sp, #-4]!)
50006504:	e24dd00c 	sub	sp, sp, #12
50006508:	e3a03000 	mov	r3, #0
5000650c:	e58d3004 	str	r3, [sp, #4]
50006510:	e59f30d0 	ldr	r3, [pc, #208]	; 500065e8 <OSIntExit+0xe8>
50006514:	e5d33000 	ldrb	r3, [r3]
50006518:	e3530001 	cmp	r3, #1
5000651c:	1a00002e 	bne	500065dc <OSIntExit+0xdc>
50006520:	ebfff7ff 	bl	50004524 <OS_CPU_SR_Save>
50006524:	e58d0004 	str	r0, [sp, #4]
50006528:	e59f30bc 	ldr	r3, [pc, #188]	; 500065ec <OSIntExit+0xec>
5000652c:	e5d33000 	ldrb	r3, [r3]
50006530:	e3530000 	cmp	r3, #0
50006534:	0a000005 	beq	50006550 <OSIntExit+0x50>
50006538:	e59f30ac 	ldr	r3, [pc, #172]	; 500065ec <OSIntExit+0xec>
5000653c:	e5d33000 	ldrb	r3, [r3]
50006540:	e2433001 	sub	r3, r3, #1
50006544:	e20320ff 	and	r2, r3, #255	; 0xff
50006548:	e59f309c 	ldr	r3, [pc, #156]	; 500065ec <OSIntExit+0xec>
5000654c:	e5c32000 	strb	r2, [r3]
50006550:	e59f3094 	ldr	r3, [pc, #148]	; 500065ec <OSIntExit+0xec>
50006554:	e5d33000 	ldrb	r3, [r3]
50006558:	e3530000 	cmp	r3, #0
5000655c:	1a00001c 	bne	500065d4 <OSIntExit+0xd4>
50006560:	e59f3088 	ldr	r3, [pc, #136]	; 500065f0 <OSIntExit+0xf0>
50006564:	e5d33000 	ldrb	r3, [r3]
50006568:	e3530000 	cmp	r3, #0
5000656c:	1a000018 	bne	500065d4 <OSIntExit+0xd4>
50006570:	eb000436 	bl	50007650 <OS_SchedNew>
50006574:	e59f3078 	ldr	r3, [pc, #120]	; 500065f4 <OSIntExit+0xf4>
50006578:	e5d33000 	ldrb	r3, [r3]
5000657c:	e1a02003 	mov	r2, r3
50006580:	e59f3070 	ldr	r3, [pc, #112]	; 500065f8 <OSIntExit+0xf8>
50006584:	e7932102 	ldr	r2, [r3, r2, lsl #2]
50006588:	e59f306c 	ldr	r3, [pc, #108]	; 500065fc <OSIntExit+0xfc>
5000658c:	e5832000 	str	r2, [r3]
50006590:	e59f305c 	ldr	r3, [pc, #92]	; 500065f4 <OSIntExit+0xf4>
50006594:	e5d32000 	ldrb	r2, [r3]
50006598:	e59f3060 	ldr	r3, [pc, #96]	; 50006600 <OSIntExit+0x100>
5000659c:	e5d33000 	ldrb	r3, [r3]
500065a0:	e1520003 	cmp	r2, r3
500065a4:	0a00000a 	beq	500065d4 <OSIntExit+0xd4>
500065a8:	e59f304c 	ldr	r3, [pc, #76]	; 500065fc <OSIntExit+0xfc>
500065ac:	e5933000 	ldr	r3, [r3]
500065b0:	e593203c 	ldr	r2, [r3, #60]	; 0x3c
500065b4:	e2822001 	add	r2, r2, #1
500065b8:	e583203c 	str	r2, [r3, #60]	; 0x3c
500065bc:	e59f3040 	ldr	r3, [pc, #64]	; 50006604 <OSIntExit+0x104>
500065c0:	e5933000 	ldr	r3, [r3]
500065c4:	e2832001 	add	r2, r3, #1
500065c8:	e59f3034 	ldr	r3, [pc, #52]	; 50006604 <OSIntExit+0x104>
500065cc:	e5832000 	str	r2, [r3]
500065d0:	ebfff825 	bl	5000466c <OSIntCtxSw>
500065d4:	e59d0004 	ldr	r0, [sp, #4]
500065d8:	ebfff7d9 	bl	50004544 <OS_CPU_SR_Restore>
500065dc:	e28dd00c 	add	sp, sp, #12
500065e0:	e49de004 	pop	{lr}		; (ldr lr, [sp], #4)
500065e4:	e12fff1e 	bx	lr
500065e8:	50011988 	andpl	r1, r1, r8, lsl #19
500065ec:	50012178 	andpl	r2, r1, r8, ror r1
500065f0:	50011980 	andpl	r1, r1, r0, lsl #19
500065f4:	50011992 	mulpl	r1, r2, r9
500065f8:	50012c14 	andpl	r2, r1, r4, lsl ip
500065fc:	50011f60 	andpl	r1, r1, r0, ror #30
50006600:	50011c64 	andpl	r1, r1, r4, ror #24
50006604:	50011ee8 	andpl	r1, r1, r8, ror #29

50006608 <OSSchedLock>:
50006608:	e52de004 	push	{lr}		; (str lr, [sp, #-4]!)
5000660c:	e24dd00c 	sub	sp, sp, #12
50006610:	e3a03000 	mov	r3, #0
50006614:	e58d3004 	str	r3, [sp, #4]
50006618:	e59f305c 	ldr	r3, [pc, #92]	; 5000667c <OSSchedLock+0x74>
5000661c:	e5d33000 	ldrb	r3, [r3]
50006620:	e3530001 	cmp	r3, #1
50006624:	1a000011 	bne	50006670 <OSSchedLock+0x68>
50006628:	ebfff7bd 	bl	50004524 <OS_CPU_SR_Save>
5000662c:	e58d0004 	str	r0, [sp, #4]
50006630:	e59f3048 	ldr	r3, [pc, #72]	; 50006680 <OSSchedLock+0x78>
50006634:	e5d33000 	ldrb	r3, [r3]
50006638:	e3530000 	cmp	r3, #0
5000663c:	1a000009 	bne	50006668 <OSSchedLock+0x60>
50006640:	e59f303c 	ldr	r3, [pc, #60]	; 50006684 <OSSchedLock+0x7c>
50006644:	e5d33000 	ldrb	r3, [r3]
50006648:	e35300ff 	cmp	r3, #255	; 0xff
5000664c:	0a000005 	beq	50006668 <OSSchedLock+0x60>
50006650:	e59f302c 	ldr	r3, [pc, #44]	; 50006684 <OSSchedLock+0x7c>
50006654:	e5d33000 	ldrb	r3, [r3]
50006658:	e2833001 	add	r3, r3, #1
5000665c:	e20320ff 	and	r2, r3, #255	; 0xff
50006660:	e59f301c 	ldr	r3, [pc, #28]	; 50006684 <OSSchedLock+0x7c>
50006664:	e5c32000 	strb	r2, [r3]
50006668:	e59d0004 	ldr	r0, [sp, #4]
5000666c:	ebfff7b4 	bl	50004544 <OS_CPU_SR_Restore>
50006670:	e28dd00c 	add	sp, sp, #12
50006674:	e49de004 	pop	{lr}		; (ldr lr, [sp], #4)
50006678:	e12fff1e 	bx	lr
5000667c:	50011988 	andpl	r1, r1, r8, lsl #19
50006680:	50012178 	andpl	r2, r1, r8, ror r1
50006684:	50011980 	andpl	r1, r1, r0, lsl #19

50006688 <OSSchedUnlock>:
50006688:	e52de004 	push	{lr}		; (str lr, [sp, #-4]!)
5000668c:	e24dd00c 	sub	sp, sp, #12
50006690:	e3a03000 	mov	r3, #0
50006694:	e58d3004 	str	r3, [sp, #4]
50006698:	e59f3094 	ldr	r3, [pc, #148]	; 50006734 <OSSchedUnlock+0xac>
5000669c:	e5d33000 	ldrb	r3, [r3]
500066a0:	e3530001 	cmp	r3, #1
500066a4:	1a00001f 	bne	50006728 <OSSchedUnlock+0xa0>
500066a8:	ebfff79d 	bl	50004524 <OS_CPU_SR_Save>
500066ac:	e58d0004 	str	r0, [sp, #4]
500066b0:	e59f3080 	ldr	r3, [pc, #128]	; 50006738 <OSSchedUnlock+0xb0>
500066b4:	e5d33000 	ldrb	r3, [r3]
500066b8:	e3530000 	cmp	r3, #0
500066bc:	0a000017 	beq	50006720 <OSSchedUnlock+0x98>
500066c0:	e59f3070 	ldr	r3, [pc, #112]	; 50006738 <OSSchedUnlock+0xb0>
500066c4:	e5d33000 	ldrb	r3, [r3]
500066c8:	e2433001 	sub	r3, r3, #1
500066cc:	e20320ff 	and	r2, r3, #255	; 0xff
500066d0:	e59f3060 	ldr	r3, [pc, #96]	; 50006738 <OSSchedUnlock+0xb0>
500066d4:	e5c32000 	strb	r2, [r3]
500066d8:	e59f3058 	ldr	r3, [pc, #88]	; 50006738 <OSSchedUnlock+0xb0>
500066dc:	e5d33000 	ldrb	r3, [r3]
500066e0:	e3530000 	cmp	r3, #0
500066e4:	1a00000a 	bne	50006714 <OSSchedUnlock+0x8c>
500066e8:	e59f304c 	ldr	r3, [pc, #76]	; 5000673c <OSSchedUnlock+0xb4>
500066ec:	e5d33000 	ldrb	r3, [r3]
500066f0:	e3530000 	cmp	r3, #0
500066f4:	1a000003 	bne	50006708 <OSSchedUnlock+0x80>
500066f8:	e59d0004 	ldr	r0, [sp, #4]
500066fc:	ebfff790 	bl	50004544 <OS_CPU_SR_Restore>
50006700:	eb00039f 	bl	50007584 <OS_Sched>
50006704:	ea000007 	b	50006728 <OSSchedUnlock+0xa0>
50006708:	e59d0004 	ldr	r0, [sp, #4]
5000670c:	ebfff78c 	bl	50004544 <OS_CPU_SR_Restore>
50006710:	ea000004 	b	50006728 <OSSchedUnlock+0xa0>
50006714:	e59d0004 	ldr	r0, [sp, #4]
50006718:	ebfff789 	bl	50004544 <OS_CPU_SR_Restore>
5000671c:	ea000001 	b	50006728 <OSSchedUnlock+0xa0>
50006720:	e59d0004 	ldr	r0, [sp, #4]
50006724:	ebfff786 	bl	50004544 <OS_CPU_SR_Restore>
50006728:	e28dd00c 	add	sp, sp, #12
5000672c:	e49de004 	pop	{lr}		; (ldr lr, [sp], #4)
50006730:	e12fff1e 	bx	lr
50006734:	50011988 	andpl	r1, r1, r8, lsl #19
50006738:	50011980 	andpl	r1, r1, r0, lsl #19
5000673c:	50012178 	andpl	r2, r1, r8, ror r1

50006740 <OSStart>:
50006740:	e92d4008 	push	{r3, lr}
50006744:	e59f3054 	ldr	r3, [pc, #84]	; 500067a0 <OSStart+0x60>
50006748:	e5d33000 	ldrb	r3, [r3]
5000674c:	e3530000 	cmp	r3, #0
50006750:	1a000010 	bne	50006798 <OSStart+0x58>
50006754:	eb0003bd 	bl	50007650 <OS_SchedNew>
50006758:	e59f3044 	ldr	r3, [pc, #68]	; 500067a4 <OSStart+0x64>
5000675c:	e5d32000 	ldrb	r2, [r3]
50006760:	e59f3040 	ldr	r3, [pc, #64]	; 500067a8 <OSStart+0x68>
50006764:	e5c32000 	strb	r2, [r3]
50006768:	e59f3034 	ldr	r3, [pc, #52]	; 500067a4 <OSStart+0x64>
5000676c:	e5d33000 	ldrb	r3, [r3]
50006770:	e1a02003 	mov	r2, r3
50006774:	e59f3030 	ldr	r3, [pc, #48]	; 500067ac <OSStart+0x6c>
50006778:	e7932102 	ldr	r2, [r3, r2, lsl #2]
5000677c:	e59f302c 	ldr	r3, [pc, #44]	; 500067b0 <OSStart+0x70>
50006780:	e5832000 	str	r2, [r3]
50006784:	e59f3024 	ldr	r3, [pc, #36]	; 500067b0 <OSStart+0x70>
50006788:	e5932000 	ldr	r2, [r3]
5000678c:	e59f3020 	ldr	r3, [pc, #32]	; 500067b4 <OSStart+0x74>
50006790:	e5832000 	str	r2, [r3]
50006794:	ebfff76c 	bl	5000454c <OSStartHighRdy>
50006798:	e8bd4008 	pop	{r3, lr}
5000679c:	e12fff1e 	bx	lr
500067a0:	50011988 	andpl	r1, r1, r8, lsl #19
500067a4:	50011992 	mulpl	r1, r2, r9
500067a8:	50011c64 	andpl	r1, r1, r4, ror #24
500067ac:	50012c14 	andpl	r2, r1, r4, lsl ip
500067b0:	50011f60 	andpl	r1, r1, r0, ror #30
500067b4:	5001217c 	andpl	r2, r1, ip, ror r1

500067b8 <OSStatInit>:
500067b8:	e52de004 	push	{lr}		; (str lr, [sp, #-4]!)
500067bc:	e24dd00c 	sub	sp, sp, #12
500067c0:	e3a03000 	mov	r3, #0
500067c4:	e58d3004 	str	r3, [sp, #4]
500067c8:	e3a00002 	mov	r0, #2
500067cc:	eb001cb3 	bl	5000daa0 <OSTimeDly>
500067d0:	ebfff753 	bl	50004524 <OS_CPU_SR_Save>
500067d4:	e58d0004 	str	r0, [sp, #4]
500067d8:	e59f304c 	ldr	r3, [pc, #76]	; 5000682c <OSStatInit+0x74>
500067dc:	e3a02000 	mov	r2, #0
500067e0:	e5832000 	str	r2, [r3]
500067e4:	e59d0004 	ldr	r0, [sp, #4]
500067e8:	ebfff755 	bl	50004544 <OS_CPU_SR_Restore>
500067ec:	e3a0000a 	mov	r0, #10
500067f0:	eb001caa 	bl	5000daa0 <OSTimeDly>
500067f4:	ebfff74a 	bl	50004524 <OS_CPU_SR_Save>
500067f8:	e58d0004 	str	r0, [sp, #4]
500067fc:	e59f3028 	ldr	r3, [pc, #40]	; 5000682c <OSStatInit+0x74>
50006800:	e5932000 	ldr	r2, [r3]
50006804:	e59f3024 	ldr	r3, [pc, #36]	; 50006830 <OSStatInit+0x78>
50006808:	e5832000 	str	r2, [r3]
5000680c:	e59f3020 	ldr	r3, [pc, #32]	; 50006834 <OSStatInit+0x7c>
50006810:	e3a02001 	mov	r2, #1
50006814:	e5c32000 	strb	r2, [r3]
50006818:	e59d0004 	ldr	r0, [sp, #4]
5000681c:	ebfff748 	bl	50004544 <OS_CPU_SR_Restore>
50006820:	e28dd00c 	add	sp, sp, #12
50006824:	e49de004 	pop	{lr}		; (ldr lr, [sp], #4)
50006828:	e12fff1e 	bx	lr
5000682c:	5001198c 	andpl	r1, r1, ip, lsl #19
50006830:	50011ef0 	strdpl	r1, [r1], -r0
50006834:	50012c10 	andpl	r2, r1, r0, lsl ip

50006838 <OSTimeTick>:
50006838:	e52de004 	push	{lr}		; (str lr, [sp, #-4]!)
5000683c:	e24dd014 	sub	sp, sp, #20
50006840:	e3a03000 	mov	r3, #0
50006844:	e58d3004 	str	r3, [sp, #4]
50006848:	ebfff883 	bl	50004a5c <OSTimeTickHook>
5000684c:	ebfff734 	bl	50004524 <OS_CPU_SR_Save>
50006850:	e58d0004 	str	r0, [sp, #4]
50006854:	e59f31c4 	ldr	r3, [pc, #452]	; 50006a20 <OSTimeTick+0x1e8>
50006858:	e5933000 	ldr	r3, [r3]
5000685c:	e2832001 	add	r2, r3, #1
50006860:	e59f31b8 	ldr	r3, [pc, #440]	; 50006a20 <OSTimeTick+0x1e8>
50006864:	e5832000 	str	r2, [r3]
50006868:	e59d0004 	ldr	r0, [sp, #4]
5000686c:	ebfff734 	bl	50004544 <OS_CPU_SR_Restore>
50006870:	e59f31ac 	ldr	r3, [pc, #428]	; 50006a24 <OSTimeTick+0x1ec>
50006874:	e5d33000 	ldrb	r3, [r3]
50006878:	e3530001 	cmp	r3, #1
5000687c:	1a000064 	bne	50006a14 <OSTimeTick+0x1dc>
50006880:	e59f31a0 	ldr	r3, [pc, #416]	; 50006a28 <OSTimeTick+0x1f0>
50006884:	e5d33000 	ldrb	r3, [r3]
50006888:	e3530001 	cmp	r3, #1
5000688c:	0a000006 	beq	500068ac <OSTimeTick+0x74>
50006890:	e3530002 	cmp	r3, #2
50006894:	0a000007 	beq	500068b8 <OSTimeTick+0x80>
50006898:	e3530000 	cmp	r3, #0
5000689c:	1a00000b 	bne	500068d0 <OSTimeTick+0x98>
500068a0:	e3a03001 	mov	r3, #1
500068a4:	e5cd300b 	strb	r3, [sp, #11]
500068a8:	ea00000e 	b	500068e8 <OSTimeTick+0xb0>
500068ac:	e3a03000 	mov	r3, #0
500068b0:	e5cd300b 	strb	r3, [sp, #11]
500068b4:	ea00000b 	b	500068e8 <OSTimeTick+0xb0>
500068b8:	e3a03001 	mov	r3, #1
500068bc:	e5cd300b 	strb	r3, [sp, #11]
500068c0:	e59f3160 	ldr	r3, [pc, #352]	; 50006a28 <OSTimeTick+0x1f0>
500068c4:	e3a02001 	mov	r2, #1
500068c8:	e5c32000 	strb	r2, [r3]
500068cc:	ea000005 	b	500068e8 <OSTimeTick+0xb0>
500068d0:	e3a03001 	mov	r3, #1
500068d4:	e5cd300b 	strb	r3, [sp, #11]
500068d8:	e59f3148 	ldr	r3, [pc, #328]	; 50006a28 <OSTimeTick+0x1f0>
500068dc:	e3a02000 	mov	r2, #0
500068e0:	e5c32000 	strb	r2, [r3]
500068e4:	e1a00000 	nop			; (mov r0, r0)
500068e8:	e5dd300b 	ldrb	r3, [sp, #11]
500068ec:	e3530000 	cmp	r3, #0
500068f0:	1a000000 	bne	500068f8 <OSTimeTick+0xc0>
500068f4:	ea000046 	b	50006a14 <OSTimeTick+0x1dc>
500068f8:	e59f312c 	ldr	r3, [pc, #300]	; 50006a2c <OSTimeTick+0x1f4>
500068fc:	e5933000 	ldr	r3, [r3]
50006900:	e58d300c 	str	r3, [sp, #12]
50006904:	ea00003e 	b	50006a04 <OSTimeTick+0x1cc>
50006908:	ebfff705 	bl	50004524 <OS_CPU_SR_Save>
5000690c:	e58d0004 	str	r0, [sp, #4]
50006910:	e59d300c 	ldr	r3, [sp, #12]
50006914:	e5933030 	ldr	r3, [r3, #48]	; 0x30
50006918:	e3530000 	cmp	r3, #0
5000691c:	0a000033 	beq	500069f0 <OSTimeTick+0x1b8>
50006920:	e59d300c 	ldr	r3, [sp, #12]
50006924:	e5933030 	ldr	r3, [r3, #48]	; 0x30
50006928:	e2432001 	sub	r2, r3, #1
5000692c:	e59d300c 	ldr	r3, [sp, #12]
50006930:	e5832030 	str	r2, [r3, #48]	; 0x30
50006934:	e59d300c 	ldr	r3, [sp, #12]
50006938:	e5933030 	ldr	r3, [r3, #48]	; 0x30
5000693c:	e3530000 	cmp	r3, #0
50006940:	1a00002a 	bne	500069f0 <OSTimeTick+0x1b8>
50006944:	e59d300c 	ldr	r3, [sp, #12]
50006948:	e5d33034 	ldrb	r3, [r3, #52]	; 0x34
5000694c:	e2033037 	and	r3, r3, #55	; 0x37
50006950:	e3530000 	cmp	r3, #0
50006954:	0a000009 	beq	50006980 <OSTimeTick+0x148>
50006958:	e59d300c 	ldr	r3, [sp, #12]
5000695c:	e5d33034 	ldrb	r3, [r3, #52]	; 0x34
50006960:	e3c33037 	bic	r3, r3, #55	; 0x37
50006964:	e20320ff 	and	r2, r3, #255	; 0xff
50006968:	e59d300c 	ldr	r3, [sp, #12]
5000696c:	e5c32034 	strb	r2, [r3, #52]	; 0x34
50006970:	e59d300c 	ldr	r3, [sp, #12]
50006974:	e3a02001 	mov	r2, #1
50006978:	e5c32035 	strb	r2, [r3, #53]	; 0x35
5000697c:	ea000002 	b	5000698c <OSTimeTick+0x154>
50006980:	e59d300c 	ldr	r3, [sp, #12]
50006984:	e3a02000 	mov	r2, #0
50006988:	e5c32035 	strb	r2, [r3, #53]	; 0x35
5000698c:	e59d300c 	ldr	r3, [sp, #12]
50006990:	e5d33034 	ldrb	r3, [r3, #52]	; 0x34
50006994:	e2033008 	and	r3, r3, #8
50006998:	e3530000 	cmp	r3, #0
5000699c:	1a000013 	bne	500069f0 <OSTimeTick+0x1b8>
500069a0:	e59d300c 	ldr	r3, [sp, #12]
500069a4:	e5d3203a 	ldrb	r2, [r3, #58]	; 0x3a
500069a8:	e59f3080 	ldr	r3, [pc, #128]	; 50006a30 <OSTimeTick+0x1f8>
500069ac:	e5d33000 	ldrb	r3, [r3]
500069b0:	e1823003 	orr	r3, r2, r3
500069b4:	e20320ff 	and	r2, r3, #255	; 0xff
500069b8:	e59f3070 	ldr	r3, [pc, #112]	; 50006a30 <OSTimeTick+0x1f8>
500069bc:	e5c32000 	strb	r2, [r3]
500069c0:	e59d300c 	ldr	r3, [sp, #12]
500069c4:	e5d33038 	ldrb	r3, [r3, #56]	; 0x38
500069c8:	e59d200c 	ldr	r2, [sp, #12]
500069cc:	e5d22038 	ldrb	r2, [r2, #56]	; 0x38
500069d0:	e59f105c 	ldr	r1, [pc, #92]	; 50006a34 <OSTimeTick+0x1fc>
500069d4:	e7d11002 	ldrb	r1, [r1, r2]
500069d8:	e59d200c 	ldr	r2, [sp, #12]
500069dc:	e5d22039 	ldrb	r2, [r2, #57]	; 0x39
500069e0:	e1812002 	orr	r2, r1, r2
500069e4:	e20210ff 	and	r1, r2, #255	; 0xff
500069e8:	e59f2044 	ldr	r2, [pc, #68]	; 50006a34 <OSTimeTick+0x1fc>
500069ec:	e7c21003 	strb	r1, [r2, r3]
500069f0:	e59d300c 	ldr	r3, [sp, #12]
500069f4:	e5933014 	ldr	r3, [r3, #20]
500069f8:	e58d300c 	str	r3, [sp, #12]
500069fc:	e59d0004 	ldr	r0, [sp, #4]
50006a00:	ebfff6cf 	bl	50004544 <OS_CPU_SR_Restore>
50006a04:	e59d300c 	ldr	r3, [sp, #12]
50006a08:	e5d33036 	ldrb	r3, [r3, #54]	; 0x36
50006a0c:	e353003f 	cmp	r3, #63	; 0x3f
50006a10:	1affffbc 	bne	50006908 <OSTimeTick+0xd0>
50006a14:	e28dd014 	add	sp, sp, #20
50006a18:	e49de004 	pop	{lr}		; (ldr lr, [sp], #4)
50006a1c:	e12fff1e 	bx	lr
50006a20:	50012184 	andpl	r2, r1, r4, lsl #3
50006a24:	50011988 	andpl	r1, r1, r8, lsl #19
50006a28:	50011ce4 	andpl	r1, r1, r4, ror #25
50006a2c:	50011c68 	andpl	r1, r1, r8, ror #24
50006a30:	50011f68 	andpl	r1, r1, r8, ror #30
50006a34:	50011f6c 	andpl	r1, r1, ip, ror #30

50006a38 <OSVersion>:
50006a38:	e59f3004 	ldr	r3, [pc, #4]	; 50006a44 <OSVersion+0xc>
50006a3c:	e1a00003 	mov	r0, r3
50006a40:	e12fff1e 	bx	lr
50006a44:	00000123 	andeq	r0, r0, r3, lsr #2

50006a48 <OS_Dummy>:
50006a48:	e12fff1e 	bx	lr

50006a4c <OS_EventTaskRdy>:
50006a4c:	e52de004 	push	{lr}		; (str lr, [sp, #-4]!)
50006a50:	e24dd01c 	sub	sp, sp, #28
50006a54:	e58d000c 	str	r0, [sp, #12]
50006a58:	e58d1008 	str	r1, [sp, #8]
50006a5c:	e5cd2007 	strb	r2, [sp, #7]
50006a60:	e5cd3006 	strb	r3, [sp, #6]
50006a64:	e59d300c 	ldr	r3, [sp, #12]
50006a68:	e5d3300a 	ldrb	r3, [r3, #10]
50006a6c:	e59f2144 	ldr	r2, [pc, #324]	; 50006bb8 <OS_EventTaskRdy+0x16c>
50006a70:	e7d23003 	ldrb	r3, [r2, r3]
50006a74:	e5cd3017 	strb	r3, [sp, #23]
50006a78:	e5dd2017 	ldrb	r2, [sp, #23]
50006a7c:	e59d100c 	ldr	r1, [sp, #12]
50006a80:	e3a03008 	mov	r3, #8
50006a84:	e0812002 	add	r2, r1, r2
50006a88:	e0823003 	add	r3, r2, r3
50006a8c:	e5d33003 	ldrb	r3, [r3, #3]
50006a90:	e59f2120 	ldr	r2, [pc, #288]	; 50006bb8 <OS_EventTaskRdy+0x16c>
50006a94:	e7d23003 	ldrb	r3, [r2, r3]
50006a98:	e5cd3016 	strb	r3, [sp, #22]
50006a9c:	e5dd3017 	ldrb	r3, [sp, #23]
50006aa0:	e1a03183 	lsl	r3, r3, #3
50006aa4:	e20320ff 	and	r2, r3, #255	; 0xff
50006aa8:	e5dd3016 	ldrb	r3, [sp, #22]
50006aac:	e0823003 	add	r3, r2, r3
50006ab0:	e5cd3015 	strb	r3, [sp, #21]
50006ab4:	e5dd2015 	ldrb	r2, [sp, #21]
50006ab8:	e59f30fc 	ldr	r3, [pc, #252]	; 50006bbc <OS_EventTaskRdy+0x170>
50006abc:	e7933102 	ldr	r3, [r3, r2, lsl #2]
50006ac0:	e58d3010 	str	r3, [sp, #16]
50006ac4:	e59d3010 	ldr	r3, [sp, #16]
50006ac8:	e3a02000 	mov	r2, #0
50006acc:	e5832030 	str	r2, [r3, #48]	; 0x30
50006ad0:	e59d3010 	ldr	r3, [sp, #16]
50006ad4:	e59d2008 	ldr	r2, [sp, #8]
50006ad8:	e5832024 	str	r2, [r3, #36]	; 0x24
50006adc:	e59d3010 	ldr	r3, [sp, #16]
50006ae0:	e5d32034 	ldrb	r2, [r3, #52]	; 0x34
50006ae4:	e5dd3007 	ldrb	r3, [sp, #7]
50006ae8:	e1e03003 	mvn	r3, r3
50006aec:	e20330ff 	and	r3, r3, #255	; 0xff
50006af0:	e0023003 	and	r3, r2, r3
50006af4:	e20320ff 	and	r2, r3, #255	; 0xff
50006af8:	e59d3010 	ldr	r3, [sp, #16]
50006afc:	e5c32034 	strb	r2, [r3, #52]	; 0x34
50006b00:	e59d3010 	ldr	r3, [sp, #16]
50006b04:	e5dd2006 	ldrb	r2, [sp, #6]
50006b08:	e5c32035 	strb	r2, [r3, #53]	; 0x35
50006b0c:	e59d3010 	ldr	r3, [sp, #16]
50006b10:	e5d33034 	ldrb	r3, [r3, #52]	; 0x34
50006b14:	e2033008 	and	r3, r3, #8
50006b18:	e3530000 	cmp	r3, #0
50006b1c:	1a000011 	bne	50006b68 <OS_EventTaskRdy+0x11c>
50006b20:	e59d3010 	ldr	r3, [sp, #16]
50006b24:	e5d3203a 	ldrb	r2, [r3, #58]	; 0x3a
50006b28:	e59f3090 	ldr	r3, [pc, #144]	; 50006bc0 <OS_EventTaskRdy+0x174>
50006b2c:	e5d33000 	ldrb	r3, [r3]
50006b30:	e1823003 	orr	r3, r2, r3
50006b34:	e20320ff 	and	r2, r3, #255	; 0xff
50006b38:	e59f3080 	ldr	r3, [pc, #128]	; 50006bc0 <OS_EventTaskRdy+0x174>
50006b3c:	e5c32000 	strb	r2, [r3]
50006b40:	e5dd3017 	ldrb	r3, [sp, #23]
50006b44:	e5dd2017 	ldrb	r2, [sp, #23]
50006b48:	e59f1074 	ldr	r1, [pc, #116]	; 50006bc4 <OS_EventTaskRdy+0x178>
50006b4c:	e7d11002 	ldrb	r1, [r1, r2]
50006b50:	e59d2010 	ldr	r2, [sp, #16]
50006b54:	e5d22039 	ldrb	r2, [r2, #57]	; 0x39
50006b58:	e1812002 	orr	r2, r1, r2
50006b5c:	e20210ff 	and	r1, r2, #255	; 0xff
50006b60:	e59f205c 	ldr	r2, [pc, #92]	; 50006bc4 <OS_EventTaskRdy+0x178>
50006b64:	e7c21003 	strb	r1, [r2, r3]
50006b68:	e59d0010 	ldr	r0, [sp, #16]
50006b6c:	e59d100c 	ldr	r1, [sp, #12]
50006b70:	eb0000bf 	bl	50006e74 <OS_EventTaskRemove>
50006b74:	e59d3010 	ldr	r3, [sp, #16]
50006b78:	e5933020 	ldr	r3, [r3, #32]
50006b7c:	e3530000 	cmp	r3, #0
50006b80:	0a000007 	beq	50006ba4 <OS_EventTaskRdy+0x158>
50006b84:	e59d3010 	ldr	r3, [sp, #16]
50006b88:	e5933020 	ldr	r3, [r3, #32]
50006b8c:	e59d0010 	ldr	r0, [sp, #16]
50006b90:	e1a01003 	mov	r1, r3
50006b94:	eb0000e2 	bl	50006f24 <OS_EventTaskRemoveMulti>
50006b98:	e59d3010 	ldr	r3, [sp, #16]
50006b9c:	e59d200c 	ldr	r2, [sp, #12]
50006ba0:	e583201c 	str	r2, [r3, #28]
50006ba4:	e5dd3015 	ldrb	r3, [sp, #21]
50006ba8:	e1a00003 	mov	r0, r3
50006bac:	e28dd01c 	add	sp, sp, #28
50006bb0:	e49de004 	pop	{lr}		; (ldr lr, [sp], #4)
50006bb4:	e12fff1e 	bx	lr
50006bb8:	50010bb4 			; <UNDEFINED> instruction: 0x50010bb4
50006bbc:	50012c14 	andpl	r2, r1, r4, lsl ip
50006bc0:	50011f68 	andpl	r1, r1, r8, ror #30
50006bc4:	50011f6c 	andpl	r1, r1, ip, ror #30

50006bc8 <OS_EventTaskWait>:
50006bc8:	e24dd010 	sub	sp, sp, #16
50006bcc:	e58d0004 	str	r0, [sp, #4]
50006bd0:	e59f3114 	ldr	r3, [pc, #276]	; 50006cec <OS_EventTaskWait+0x124>
50006bd4:	e5933000 	ldr	r3, [r3]
50006bd8:	e59d2004 	ldr	r2, [sp, #4]
50006bdc:	e583201c 	str	r2, [r3, #28]
50006be0:	e59f3104 	ldr	r3, [pc, #260]	; 50006cec <OS_EventTaskWait+0x124>
50006be4:	e5933000 	ldr	r3, [r3]
50006be8:	e5d33038 	ldrb	r3, [r3, #56]	; 0x38
50006bec:	e1a01003 	mov	r1, r3
50006bf0:	e59f30f4 	ldr	r3, [pc, #244]	; 50006cec <OS_EventTaskWait+0x124>
50006bf4:	e5933000 	ldr	r3, [r3]
50006bf8:	e5d33038 	ldrb	r3, [r3, #56]	; 0x38
50006bfc:	e1a02003 	mov	r2, r3
50006c00:	e59d0004 	ldr	r0, [sp, #4]
50006c04:	e3a03008 	mov	r3, #8
50006c08:	e0802002 	add	r2, r0, r2
50006c0c:	e0823003 	add	r3, r2, r3
50006c10:	e5d32003 	ldrb	r2, [r3, #3]
50006c14:	e59f30d0 	ldr	r3, [pc, #208]	; 50006cec <OS_EventTaskWait+0x124>
50006c18:	e5933000 	ldr	r3, [r3]
50006c1c:	e5d33039 	ldrb	r3, [r3, #57]	; 0x39
50006c20:	e1823003 	orr	r3, r2, r3
50006c24:	e20320ff 	and	r2, r3, #255	; 0xff
50006c28:	e59d0004 	ldr	r0, [sp, #4]
50006c2c:	e3a03008 	mov	r3, #8
50006c30:	e0801001 	add	r1, r0, r1
50006c34:	e0813003 	add	r3, r1, r3
50006c38:	e5c32003 	strb	r2, [r3, #3]
50006c3c:	e59d3004 	ldr	r3, [sp, #4]
50006c40:	e5d3200a 	ldrb	r2, [r3, #10]
50006c44:	e59f30a0 	ldr	r3, [pc, #160]	; 50006cec <OS_EventTaskWait+0x124>
50006c48:	e5933000 	ldr	r3, [r3]
50006c4c:	e5d3303a 	ldrb	r3, [r3, #58]	; 0x3a
50006c50:	e1823003 	orr	r3, r2, r3
50006c54:	e20320ff 	and	r2, r3, #255	; 0xff
50006c58:	e59d3004 	ldr	r3, [sp, #4]
50006c5c:	e5c3200a 	strb	r2, [r3, #10]
50006c60:	e59f3084 	ldr	r3, [pc, #132]	; 50006cec <OS_EventTaskWait+0x124>
50006c64:	e5933000 	ldr	r3, [r3]
50006c68:	e5d33038 	ldrb	r3, [r3, #56]	; 0x38
50006c6c:	e5cd300f 	strb	r3, [sp, #15]
50006c70:	e5dd300f 	ldrb	r3, [sp, #15]
50006c74:	e5dd200f 	ldrb	r2, [sp, #15]
50006c78:	e59f1070 	ldr	r1, [pc, #112]	; 50006cf0 <OS_EventTaskWait+0x128>
50006c7c:	e7d11002 	ldrb	r1, [r1, r2]
50006c80:	e59f2064 	ldr	r2, [pc, #100]	; 50006cec <OS_EventTaskWait+0x124>
50006c84:	e5922000 	ldr	r2, [r2]
50006c88:	e5d22039 	ldrb	r2, [r2, #57]	; 0x39
50006c8c:	e1e02002 	mvn	r2, r2
50006c90:	e20220ff 	and	r2, r2, #255	; 0xff
50006c94:	e0012002 	and	r2, r1, r2
50006c98:	e20210ff 	and	r1, r2, #255	; 0xff
50006c9c:	e59f204c 	ldr	r2, [pc, #76]	; 50006cf0 <OS_EventTaskWait+0x128>
50006ca0:	e7c21003 	strb	r1, [r2, r3]
50006ca4:	e5dd300f 	ldrb	r3, [sp, #15]
50006ca8:	e59f2040 	ldr	r2, [pc, #64]	; 50006cf0 <OS_EventTaskWait+0x128>
50006cac:	e7d23003 	ldrb	r3, [r2, r3]
50006cb0:	e3530000 	cmp	r3, #0
50006cb4:	1a00000a 	bne	50006ce4 <OS_EventTaskWait+0x11c>
50006cb8:	e59f302c 	ldr	r3, [pc, #44]	; 50006cec <OS_EventTaskWait+0x124>
50006cbc:	e5933000 	ldr	r3, [r3]
50006cc0:	e5d3303a 	ldrb	r3, [r3, #58]	; 0x3a
50006cc4:	e1e03003 	mvn	r3, r3
50006cc8:	e20320ff 	and	r2, r3, #255	; 0xff
50006ccc:	e59f3020 	ldr	r3, [pc, #32]	; 50006cf4 <OS_EventTaskWait+0x12c>
50006cd0:	e5d33000 	ldrb	r3, [r3]
50006cd4:	e0023003 	and	r3, r2, r3
50006cd8:	e20320ff 	and	r2, r3, #255	; 0xff
50006cdc:	e59f3010 	ldr	r3, [pc, #16]	; 50006cf4 <OS_EventTaskWait+0x12c>
50006ce0:	e5c32000 	strb	r2, [r3]
50006ce4:	e28dd010 	add	sp, sp, #16
50006ce8:	e12fff1e 	bx	lr
50006cec:	5001217c 	andpl	r2, r1, ip, ror r1
50006cf0:	50011f6c 	andpl	r1, r1, ip, ror #30
50006cf4:	50011f68 	andpl	r1, r1, r8, ror #30

50006cf8 <OS_EventTaskWaitMulti>:
50006cf8:	e24dd018 	sub	sp, sp, #24
50006cfc:	e58d0004 	str	r0, [sp, #4]
50006d00:	e59f3160 	ldr	r3, [pc, #352]	; 50006e68 <OS_EventTaskWaitMulti+0x170>
50006d04:	e5933000 	ldr	r3, [r3]
50006d08:	e3a02000 	mov	r2, #0
50006d0c:	e583201c 	str	r2, [r3, #28]
50006d10:	e59f3150 	ldr	r3, [pc, #336]	; 50006e68 <OS_EventTaskWaitMulti+0x170>
50006d14:	e5933000 	ldr	r3, [r3]
50006d18:	e59d2004 	ldr	r2, [sp, #4]
50006d1c:	e5832020 	str	r2, [r3, #32]
50006d20:	e59d3004 	ldr	r3, [sp, #4]
50006d24:	e58d3014 	str	r3, [sp, #20]
50006d28:	e59d3014 	ldr	r3, [sp, #20]
50006d2c:	e5933000 	ldr	r3, [r3]
50006d30:	e58d3010 	str	r3, [sp, #16]
50006d34:	ea000025 	b	50006dd0 <OS_EventTaskWaitMulti+0xd8>
50006d38:	e59f3128 	ldr	r3, [pc, #296]	; 50006e68 <OS_EventTaskWaitMulti+0x170>
50006d3c:	e5933000 	ldr	r3, [r3]
50006d40:	e5d33038 	ldrb	r3, [r3, #56]	; 0x38
50006d44:	e1a01003 	mov	r1, r3
50006d48:	e59f3118 	ldr	r3, [pc, #280]	; 50006e68 <OS_EventTaskWaitMulti+0x170>
50006d4c:	e5933000 	ldr	r3, [r3]
50006d50:	e5d33038 	ldrb	r3, [r3, #56]	; 0x38
50006d54:	e1a02003 	mov	r2, r3
50006d58:	e59d0010 	ldr	r0, [sp, #16]
50006d5c:	e3a03008 	mov	r3, #8
50006d60:	e0802002 	add	r2, r0, r2
50006d64:	e0823003 	add	r3, r2, r3
50006d68:	e5d32003 	ldrb	r2, [r3, #3]
50006d6c:	e59f30f4 	ldr	r3, [pc, #244]	; 50006e68 <OS_EventTaskWaitMulti+0x170>
50006d70:	e5933000 	ldr	r3, [r3]
50006d74:	e5d33039 	ldrb	r3, [r3, #57]	; 0x39
50006d78:	e1823003 	orr	r3, r2, r3
50006d7c:	e20320ff 	and	r2, r3, #255	; 0xff
50006d80:	e59d0010 	ldr	r0, [sp, #16]
50006d84:	e3a03008 	mov	r3, #8
50006d88:	e0801001 	add	r1, r0, r1
50006d8c:	e0813003 	add	r3, r1, r3
50006d90:	e5c32003 	strb	r2, [r3, #3]
50006d94:	e59d3010 	ldr	r3, [sp, #16]
50006d98:	e5d3200a 	ldrb	r2, [r3, #10]
50006d9c:	e59f30c4 	ldr	r3, [pc, #196]	; 50006e68 <OS_EventTaskWaitMulti+0x170>
50006da0:	e5933000 	ldr	r3, [r3]
50006da4:	e5d3303a 	ldrb	r3, [r3, #58]	; 0x3a
50006da8:	e1823003 	orr	r3, r2, r3
50006dac:	e20320ff 	and	r2, r3, #255	; 0xff
50006db0:	e59d3010 	ldr	r3, [sp, #16]
50006db4:	e5c3200a 	strb	r2, [r3, #10]
50006db8:	e59d3014 	ldr	r3, [sp, #20]
50006dbc:	e2833004 	add	r3, r3, #4
50006dc0:	e58d3014 	str	r3, [sp, #20]
50006dc4:	e59d3014 	ldr	r3, [sp, #20]
50006dc8:	e5933000 	ldr	r3, [r3]
50006dcc:	e58d3010 	str	r3, [sp, #16]
50006dd0:	e59d3010 	ldr	r3, [sp, #16]
50006dd4:	e3530000 	cmp	r3, #0
50006dd8:	1affffd6 	bne	50006d38 <OS_EventTaskWaitMulti+0x40>
50006ddc:	e59f3084 	ldr	r3, [pc, #132]	; 50006e68 <OS_EventTaskWaitMulti+0x170>
50006de0:	e5933000 	ldr	r3, [r3]
50006de4:	e5d33038 	ldrb	r3, [r3, #56]	; 0x38
50006de8:	e5cd300f 	strb	r3, [sp, #15]
50006dec:	e5dd300f 	ldrb	r3, [sp, #15]
50006df0:	e5dd200f 	ldrb	r2, [sp, #15]
50006df4:	e59f1070 	ldr	r1, [pc, #112]	; 50006e6c <OS_EventTaskWaitMulti+0x174>
50006df8:	e7d11002 	ldrb	r1, [r1, r2]
50006dfc:	e59f2064 	ldr	r2, [pc, #100]	; 50006e68 <OS_EventTaskWaitMulti+0x170>
50006e00:	e5922000 	ldr	r2, [r2]
50006e04:	e5d22039 	ldrb	r2, [r2, #57]	; 0x39
50006e08:	e1e02002 	mvn	r2, r2
50006e0c:	e20220ff 	and	r2, r2, #255	; 0xff
50006e10:	e0012002 	and	r2, r1, r2
50006e14:	e20210ff 	and	r1, r2, #255	; 0xff
50006e18:	e59f204c 	ldr	r2, [pc, #76]	; 50006e6c <OS_EventTaskWaitMulti+0x174>
50006e1c:	e7c21003 	strb	r1, [r2, r3]
50006e20:	e5dd300f 	ldrb	r3, [sp, #15]
50006e24:	e59f2040 	ldr	r2, [pc, #64]	; 50006e6c <OS_EventTaskWaitMulti+0x174>
50006e28:	e7d23003 	ldrb	r3, [r2, r3]
50006e2c:	e3530000 	cmp	r3, #0
50006e30:	1a00000a 	bne	50006e60 <OS_EventTaskWaitMulti+0x168>
50006e34:	e59f302c 	ldr	r3, [pc, #44]	; 50006e68 <OS_EventTaskWaitMulti+0x170>
50006e38:	e5933000 	ldr	r3, [r3]
50006e3c:	e5d3303a 	ldrb	r3, [r3, #58]	; 0x3a
50006e40:	e1e03003 	mvn	r3, r3
50006e44:	e20320ff 	and	r2, r3, #255	; 0xff
50006e48:	e59f3020 	ldr	r3, [pc, #32]	; 50006e70 <OS_EventTaskWaitMulti+0x178>
50006e4c:	e5d33000 	ldrb	r3, [r3]
50006e50:	e0023003 	and	r3, r2, r3
50006e54:	e20320ff 	and	r2, r3, #255	; 0xff
50006e58:	e59f3010 	ldr	r3, [pc, #16]	; 50006e70 <OS_EventTaskWaitMulti+0x178>
50006e5c:	e5c32000 	strb	r2, [r3]
50006e60:	e28dd018 	add	sp, sp, #24
50006e64:	e12fff1e 	bx	lr
50006e68:	5001217c 	andpl	r2, r1, ip, ror r1
50006e6c:	50011f6c 	andpl	r1, r1, ip, ror #30
50006e70:	50011f68 	andpl	r1, r1, r8, ror #30

50006e74 <OS_EventTaskRemove>:
50006e74:	e24dd010 	sub	sp, sp, #16
50006e78:	e58d0004 	str	r0, [sp, #4]
50006e7c:	e58d1000 	str	r1, [sp]
50006e80:	e59d3004 	ldr	r3, [sp, #4]
50006e84:	e5d33038 	ldrb	r3, [r3, #56]	; 0x38
50006e88:	e5cd300f 	strb	r3, [sp, #15]
50006e8c:	e5dd100f 	ldrb	r1, [sp, #15]
50006e90:	e5dd200f 	ldrb	r2, [sp, #15]
50006e94:	e59d0000 	ldr	r0, [sp]
50006e98:	e3a03008 	mov	r3, #8
50006e9c:	e0802002 	add	r2, r0, r2
50006ea0:	e0823003 	add	r3, r2, r3
50006ea4:	e5d32003 	ldrb	r2, [r3, #3]
50006ea8:	e59d3004 	ldr	r3, [sp, #4]
50006eac:	e5d33039 	ldrb	r3, [r3, #57]	; 0x39
50006eb0:	e1e03003 	mvn	r3, r3
50006eb4:	e20330ff 	and	r3, r3, #255	; 0xff
50006eb8:	e0023003 	and	r3, r2, r3
50006ebc:	e20320ff 	and	r2, r3, #255	; 0xff
50006ec0:	e59d0000 	ldr	r0, [sp]
50006ec4:	e3a03008 	mov	r3, #8
50006ec8:	e0801001 	add	r1, r0, r1
50006ecc:	e0813003 	add	r3, r1, r3
50006ed0:	e5c32003 	strb	r2, [r3, #3]
50006ed4:	e5dd200f 	ldrb	r2, [sp, #15]
50006ed8:	e59d1000 	ldr	r1, [sp]
50006edc:	e3a03008 	mov	r3, #8
50006ee0:	e0812002 	add	r2, r1, r2
50006ee4:	e0823003 	add	r3, r2, r3
50006ee8:	e5d33003 	ldrb	r3, [r3, #3]
50006eec:	e3530000 	cmp	r3, #0
50006ef0:	1a000009 	bne	50006f1c <OS_EventTaskRemove+0xa8>
50006ef4:	e59d3000 	ldr	r3, [sp]
50006ef8:	e5d3200a 	ldrb	r2, [r3, #10]
50006efc:	e59d3004 	ldr	r3, [sp, #4]
50006f00:	e5d3303a 	ldrb	r3, [r3, #58]	; 0x3a
50006f04:	e1e03003 	mvn	r3, r3
50006f08:	e20330ff 	and	r3, r3, #255	; 0xff
50006f0c:	e0023003 	and	r3, r2, r3
50006f10:	e20320ff 	and	r2, r3, #255	; 0xff
50006f14:	e59d3000 	ldr	r3, [sp]
50006f18:	e5c3200a 	strb	r2, [r3, #10]
50006f1c:	e28dd010 	add	sp, sp, #16
50006f20:	e12fff1e 	bx	lr

50006f24 <OS_EventTaskRemoveMulti>:
50006f24:	e24dd018 	sub	sp, sp, #24
50006f28:	e58d0004 	str	r0, [sp, #4]
50006f2c:	e58d1000 	str	r1, [sp]
50006f30:	e59d3004 	ldr	r3, [sp, #4]
50006f34:	e5d33038 	ldrb	r3, [r3, #56]	; 0x38
50006f38:	e5cd300f 	strb	r3, [sp, #15]
50006f3c:	e59d3004 	ldr	r3, [sp, #4]
50006f40:	e5d3303a 	ldrb	r3, [r3, #58]	; 0x3a
50006f44:	e5cd300e 	strb	r3, [sp, #14]
50006f48:	e59d3004 	ldr	r3, [sp, #4]
50006f4c:	e5d33039 	ldrb	r3, [r3, #57]	; 0x39
50006f50:	e5cd300d 	strb	r3, [sp, #13]
50006f54:	e59d3000 	ldr	r3, [sp]
50006f58:	e58d3014 	str	r3, [sp, #20]
50006f5c:	e59d3014 	ldr	r3, [sp, #20]
50006f60:	e5933000 	ldr	r3, [r3]
50006f64:	e58d3010 	str	r3, [sp, #16]
50006f68:	ea000027 	b	5000700c <OS_EventTaskRemoveMulti+0xe8>
50006f6c:	e5dd100f 	ldrb	r1, [sp, #15]
50006f70:	e5dd200f 	ldrb	r2, [sp, #15]
50006f74:	e59d0010 	ldr	r0, [sp, #16]
50006f78:	e3a03008 	mov	r3, #8
50006f7c:	e0802002 	add	r2, r0, r2
50006f80:	e0823003 	add	r3, r2, r3
50006f84:	e5d32003 	ldrb	r2, [r3, #3]
50006f88:	e5dd300d 	ldrb	r3, [sp, #13]
50006f8c:	e1e03003 	mvn	r3, r3
50006f90:	e20330ff 	and	r3, r3, #255	; 0xff
50006f94:	e0023003 	and	r3, r2, r3
50006f98:	e20320ff 	and	r2, r3, #255	; 0xff
50006f9c:	e59d0010 	ldr	r0, [sp, #16]
50006fa0:	e3a03008 	mov	r3, #8
50006fa4:	e0801001 	add	r1, r0, r1
50006fa8:	e0813003 	add	r3, r1, r3
50006fac:	e5c32003 	strb	r2, [r3, #3]
50006fb0:	e5dd200f 	ldrb	r2, [sp, #15]
50006fb4:	e59d1010 	ldr	r1, [sp, #16]
50006fb8:	e3a03008 	mov	r3, #8
50006fbc:	e0812002 	add	r2, r1, r2
50006fc0:	e0823003 	add	r3, r2, r3
50006fc4:	e5d33003 	ldrb	r3, [r3, #3]
50006fc8:	e3530000 	cmp	r3, #0
50006fcc:	1a000008 	bne	50006ff4 <OS_EventTaskRemoveMulti+0xd0>
50006fd0:	e59d3010 	ldr	r3, [sp, #16]
50006fd4:	e5d3200a 	ldrb	r2, [r3, #10]
50006fd8:	e5dd300e 	ldrb	r3, [sp, #14]
50006fdc:	e1e03003 	mvn	r3, r3
50006fe0:	e20330ff 	and	r3, r3, #255	; 0xff
50006fe4:	e0023003 	and	r3, r2, r3
50006fe8:	e20320ff 	and	r2, r3, #255	; 0xff
50006fec:	e59d3010 	ldr	r3, [sp, #16]
50006ff0:	e5c3200a 	strb	r2, [r3, #10]
50006ff4:	e59d3014 	ldr	r3, [sp, #20]
50006ff8:	e2833004 	add	r3, r3, #4
50006ffc:	e58d3014 	str	r3, [sp, #20]
50007000:	e59d3014 	ldr	r3, [sp, #20]
50007004:	e5933000 	ldr	r3, [r3]
50007008:	e58d3010 	str	r3, [sp, #16]
5000700c:	e59d3010 	ldr	r3, [sp, #16]
50007010:	e3530000 	cmp	r3, #0
50007014:	1affffd4 	bne	50006f6c <OS_EventTaskRemoveMulti+0x48>
50007018:	e28dd018 	add	sp, sp, #24
5000701c:	e12fff1e 	bx	lr

50007020 <OS_EventWaitListInit>:
50007020:	e24dd010 	sub	sp, sp, #16
50007024:	e58d0004 	str	r0, [sp, #4]
50007028:	e59d3004 	ldr	r3, [sp, #4]
5000702c:	e3a02000 	mov	r2, #0
50007030:	e5c3200a 	strb	r2, [r3, #10]
50007034:	e3a03000 	mov	r3, #0
50007038:	e5cd300f 	strb	r3, [sp, #15]
5000703c:	ea000009 	b	50007068 <OS_EventWaitListInit+0x48>
50007040:	e5dd200f 	ldrb	r2, [sp, #15]
50007044:	e59d1004 	ldr	r1, [sp, #4]
50007048:	e3a03008 	mov	r3, #8
5000704c:	e0812002 	add	r2, r1, r2
50007050:	e0823003 	add	r3, r2, r3
50007054:	e3a02000 	mov	r2, #0
50007058:	e5c32003 	strb	r2, [r3, #3]
5000705c:	e5dd300f 	ldrb	r3, [sp, #15]
50007060:	e2833001 	add	r3, r3, #1
50007064:	e5cd300f 	strb	r3, [sp, #15]
50007068:	e5dd300f 	ldrb	r3, [sp, #15]
5000706c:	e3530007 	cmp	r3, #7
50007070:	9afffff2 	bls	50007040 <OS_EventWaitListInit+0x20>
50007074:	e28dd010 	add	sp, sp, #16
50007078:	e12fff1e 	bx	lr

5000707c <OS_InitEventList>:
5000707c:	e52de004 	push	{lr}		; (str lr, [sp, #-4]!)
50007080:	e24dd014 	sub	sp, sp, #20
50007084:	e59f00f4 	ldr	r0, [pc, #244]	; 50007180 <OS_InitEventList+0x104>
50007088:	e3a010f0 	mov	r1, #240	; 0xf0
5000708c:	eb000114 	bl	500074e4 <OS_MemClr>
50007090:	e3a03000 	mov	r3, #0
50007094:	e1cd30be 	strh	r3, [sp, #14]
50007098:	ea00001e 	b	50007118 <OS_InitEventList+0x9c>
5000709c:	e1dd30be 	ldrh	r3, [sp, #14]
500070a0:	e2833001 	add	r3, r3, #1
500070a4:	e1cd30bc 	strh	r3, [sp, #12]
500070a8:	e1dd20be 	ldrh	r2, [sp, #14]
500070ac:	e1a03002 	mov	r3, r2
500070b0:	e1a03083 	lsl	r3, r3, #1
500070b4:	e0833002 	add	r3, r3, r2
500070b8:	e1a03183 	lsl	r3, r3, #3
500070bc:	e59f20bc 	ldr	r2, [pc, #188]	; 50007180 <OS_InitEventList+0x104>
500070c0:	e0833002 	add	r3, r3, r2
500070c4:	e58d3008 	str	r3, [sp, #8]
500070c8:	e1dd20bc 	ldrh	r2, [sp, #12]
500070cc:	e1a03002 	mov	r3, r2
500070d0:	e1a03083 	lsl	r3, r3, #1
500070d4:	e0833002 	add	r3, r3, r2
500070d8:	e1a03183 	lsl	r3, r3, #3
500070dc:	e59f209c 	ldr	r2, [pc, #156]	; 50007180 <OS_InitEventList+0x104>
500070e0:	e0833002 	add	r3, r3, r2
500070e4:	e58d3004 	str	r3, [sp, #4]
500070e8:	e59d3008 	ldr	r3, [sp, #8]
500070ec:	e3a02000 	mov	r2, #0
500070f0:	e5c32000 	strb	r2, [r3]
500070f4:	e59d3008 	ldr	r3, [sp, #8]
500070f8:	e59d2004 	ldr	r2, [sp, #4]
500070fc:	e5832004 	str	r2, [r3, #4]
50007100:	e59d3008 	ldr	r3, [sp, #8]
50007104:	e59f2078 	ldr	r2, [pc, #120]	; 50007184 <OS_InitEventList+0x108>
50007108:	e5832014 	str	r2, [r3, #20]
5000710c:	e1dd30be 	ldrh	r3, [sp, #14]
50007110:	e2833001 	add	r3, r3, #1
50007114:	e1cd30be 	strh	r3, [sp, #14]
50007118:	e1dd30be 	ldrh	r3, [sp, #14]
5000711c:	e3530008 	cmp	r3, #8
50007120:	9affffdd 	bls	5000709c <OS_InitEventList+0x20>
50007124:	e1dd20be 	ldrh	r2, [sp, #14]
50007128:	e1a03002 	mov	r3, r2
5000712c:	e1a03083 	lsl	r3, r3, #1
50007130:	e0833002 	add	r3, r3, r2
50007134:	e1a03183 	lsl	r3, r3, #3
50007138:	e59f2040 	ldr	r2, [pc, #64]	; 50007180 <OS_InitEventList+0x104>
5000713c:	e0833002 	add	r3, r3, r2
50007140:	e58d3008 	str	r3, [sp, #8]
50007144:	e59d3008 	ldr	r3, [sp, #8]
50007148:	e3a02000 	mov	r2, #0
5000714c:	e5c32000 	strb	r2, [r3]
50007150:	e59d3008 	ldr	r3, [sp, #8]
50007154:	e3a02000 	mov	r2, #0
50007158:	e5832004 	str	r2, [r3, #4]
5000715c:	e59d3008 	ldr	r3, [sp, #8]
50007160:	e59f201c 	ldr	r2, [pc, #28]	; 50007184 <OS_InitEventList+0x108>
50007164:	e5832014 	str	r2, [r3, #20]
50007168:	e59f3018 	ldr	r3, [pc, #24]	; 50007188 <OS_InitEventList+0x10c>
5000716c:	e59f200c 	ldr	r2, [pc, #12]	; 50007180 <OS_InitEventList+0x104>
50007170:	e5832000 	str	r2, [r3]
50007174:	e28dd014 	add	sp, sp, #20
50007178:	e49de004 	pop	{lr}		; (ldr lr, [sp], #4)
5000717c:	e12fff1e 	bx	lr
50007180:	5001238c 	andpl	r2, r1, ip, lsl #7
50007184:	50010cb4 			; <UNDEFINED> instruction: 0x50010cb4
50007188:	50012174 	andpl	r2, r1, r4, ror r1

5000718c <OS_InitMisc>:
5000718c:	e59f3074 	ldr	r3, [pc, #116]	; 50007208 <OS_InitMisc+0x7c>
50007190:	e3a02000 	mov	r2, #0
50007194:	e5832000 	str	r2, [r3]
50007198:	e59f306c 	ldr	r3, [pc, #108]	; 5000720c <OS_InitMisc+0x80>
5000719c:	e3a02000 	mov	r2, #0
500071a0:	e5c32000 	strb	r2, [r3]
500071a4:	e59f3064 	ldr	r3, [pc, #100]	; 50007210 <OS_InitMisc+0x84>
500071a8:	e3a02000 	mov	r2, #0
500071ac:	e5c32000 	strb	r2, [r3]
500071b0:	e59f305c 	ldr	r3, [pc, #92]	; 50007214 <OS_InitMisc+0x88>
500071b4:	e3a02000 	mov	r2, #0
500071b8:	e5c32000 	strb	r2, [r3]
500071bc:	e59f3054 	ldr	r3, [pc, #84]	; 50007218 <OS_InitMisc+0x8c>
500071c0:	e3a02000 	mov	r2, #0
500071c4:	e5c32000 	strb	r2, [r3]
500071c8:	e59f304c 	ldr	r3, [pc, #76]	; 5000721c <OS_InitMisc+0x90>
500071cc:	e3a02000 	mov	r2, #0
500071d0:	e5832000 	str	r2, [r3]
500071d4:	e59f3044 	ldr	r3, [pc, #68]	; 50007220 <OS_InitMisc+0x94>
500071d8:	e3a02000 	mov	r2, #0
500071dc:	e5832000 	str	r2, [r3]
500071e0:	e59f303c 	ldr	r3, [pc, #60]	; 50007224 <OS_InitMisc+0x98>
500071e4:	e3a02000 	mov	r2, #0
500071e8:	e5832000 	str	r2, [r3]
500071ec:	e59f3034 	ldr	r3, [pc, #52]	; 50007228 <OS_InitMisc+0x9c>
500071f0:	e3a02000 	mov	r2, #0
500071f4:	e5832000 	str	r2, [r3]
500071f8:	e59f302c 	ldr	r3, [pc, #44]	; 5000722c <OS_InitMisc+0xa0>
500071fc:	e3a02000 	mov	r2, #0
50007200:	e5c32000 	strb	r2, [r3]
50007204:	e12fff1e 	bx	lr
50007208:	50012184 	andpl	r2, r1, r4, lsl #3
5000720c:	50012178 	andpl	r2, r1, r8, ror r1
50007210:	50011980 	andpl	r1, r1, r0, lsl #19
50007214:	50011ef9 	strdpl	r1, [r1], -r9
50007218:	50011988 	andpl	r1, r1, r8, lsl #19
5000721c:	50011ee8 	andpl	r1, r1, r8, ror #29
50007220:	5001198c 	andpl	r1, r1, ip, lsl #19
50007224:	50012d14 	andpl	r2, r1, r4, lsl sp
50007228:	50011ef0 	strdpl	r1, [r1], -r0
5000722c:	50012c10 	andpl	r2, r1, r0, lsl ip

50007230 <OS_InitRdyList>:
50007230:	e24dd008 	sub	sp, sp, #8
50007234:	e59f3070 	ldr	r3, [pc, #112]	; 500072ac <OS_InitRdyList+0x7c>
50007238:	e3a02000 	mov	r2, #0
5000723c:	e5c32000 	strb	r2, [r3]
50007240:	e3a03000 	mov	r3, #0
50007244:	e5cd3007 	strb	r3, [sp, #7]
50007248:	ea000006 	b	50007268 <OS_InitRdyList+0x38>
5000724c:	e5dd3007 	ldrb	r3, [sp, #7]
50007250:	e59f2058 	ldr	r2, [pc, #88]	; 500072b0 <OS_InitRdyList+0x80>
50007254:	e3a01000 	mov	r1, #0
50007258:	e7c21003 	strb	r1, [r2, r3]
5000725c:	e5dd3007 	ldrb	r3, [sp, #7]
50007260:	e2833001 	add	r3, r3, #1
50007264:	e5cd3007 	strb	r3, [sp, #7]
50007268:	e5dd3007 	ldrb	r3, [sp, #7]
5000726c:	e3530007 	cmp	r3, #7
50007270:	9afffff5 	bls	5000724c <OS_InitRdyList+0x1c>
50007274:	e59f3038 	ldr	r3, [pc, #56]	; 500072b4 <OS_InitRdyList+0x84>
50007278:	e3a02000 	mov	r2, #0
5000727c:	e5c32000 	strb	r2, [r3]
50007280:	e59f3030 	ldr	r3, [pc, #48]	; 500072b8 <OS_InitRdyList+0x88>
50007284:	e3a02000 	mov	r2, #0
50007288:	e5c32000 	strb	r2, [r3]
5000728c:	e59f3028 	ldr	r3, [pc, #40]	; 500072bc <OS_InitRdyList+0x8c>
50007290:	e3a02000 	mov	r2, #0
50007294:	e5832000 	str	r2, [r3]
50007298:	e59f3020 	ldr	r3, [pc, #32]	; 500072c0 <OS_InitRdyList+0x90>
5000729c:	e3a02000 	mov	r2, #0
500072a0:	e5832000 	str	r2, [r3]
500072a4:	e28dd008 	add	sp, sp, #8
500072a8:	e12fff1e 	bx	lr
500072ac:	50011f68 	andpl	r1, r1, r8, ror #30
500072b0:	50011f6c 	andpl	r1, r1, ip, ror #30
500072b4:	50011c64 	andpl	r1, r1, r4, ror #24
500072b8:	50011992 	mulpl	r1, r2, r9
500072bc:	50011f60 	andpl	r1, r1, r0, ror #30
500072c0:	5001217c 	andpl	r2, r1, ip, ror r1

500072c4 <OS_InitTaskIdle>:
500072c4:	e52de004 	push	{lr}		; (str lr, [sp, #-4]!)
500072c8:	e24dd024 	sub	sp, sp, #36	; 0x24
500072cc:	e59f3054 	ldr	r3, [pc, #84]	; 50007328 <OS_InitTaskIdle+0x64>
500072d0:	e58d3000 	str	r3, [sp]
500072d4:	e59f3050 	ldr	r3, [pc, #80]	; 5000732c <OS_InitTaskIdle+0x68>
500072d8:	e58d3004 	str	r3, [sp, #4]
500072dc:	e3a03080 	mov	r3, #128	; 0x80
500072e0:	e58d3008 	str	r3, [sp, #8]
500072e4:	e3a03000 	mov	r3, #0
500072e8:	e58d300c 	str	r3, [sp, #12]
500072ec:	e3a03003 	mov	r3, #3
500072f0:	e58d3010 	str	r3, [sp, #16]
500072f4:	e59f0034 	ldr	r0, [pc, #52]	; 50007330 <OS_InitTaskIdle+0x6c>
500072f8:	e3a01000 	mov	r1, #0
500072fc:	e59f2030 	ldr	r2, [pc, #48]	; 50007334 <OS_InitTaskIdle+0x70>
50007300:	e3a0303f 	mov	r3, #63	; 0x3f
50007304:	eb00164e 	bl	5000cc44 <OSTaskCreateExt>
50007308:	e28d301f 	add	r3, sp, #31
5000730c:	e3a0003f 	mov	r0, #63	; 0x3f
50007310:	e59f1020 	ldr	r1, [pc, #32]	; 50007338 <OS_InitTaskIdle+0x74>
50007314:	e1a02003 	mov	r2, r3
50007318:	eb0017e7 	bl	5000d2bc <OSTaskNameSet>
5000731c:	e28dd024 	add	sp, sp, #36	; 0x24
50007320:	e49de004 	pop	{lr}		; (ldr lr, [sp], #4)
50007324:	e12fff1e 	bx	lr
50007328:	0000ffff 	strdeq	pc, [r0], -pc	; <UNPREDICTABLE>
5000732c:	5001218c 	andpl	r2, r1, ip, lsl #3
50007330:	500076fc 	strdpl	r7, [r0], -ip
50007334:	50012388 	andpl	r2, r1, r8, lsl #7
50007338:	50010cb8 			; <UNDEFINED> instruction: 0x50010cb8

5000733c <OS_InitTaskStat>:
5000733c:	e52de004 	push	{lr}		; (str lr, [sp, #-4]!)
50007340:	e24dd024 	sub	sp, sp, #36	; 0x24
50007344:	e59f3054 	ldr	r3, [pc, #84]	; 500073a0 <OS_InitTaskStat+0x64>
50007348:	e58d3000 	str	r3, [sp]
5000734c:	e59f3050 	ldr	r3, [pc, #80]	; 500073a4 <OS_InitTaskStat+0x68>
50007350:	e58d3004 	str	r3, [sp, #4]
50007354:	e3a03080 	mov	r3, #128	; 0x80
50007358:	e58d3008 	str	r3, [sp, #8]
5000735c:	e3a03000 	mov	r3, #0
50007360:	e58d300c 	str	r3, [sp, #12]
50007364:	e3a03003 	mov	r3, #3
50007368:	e58d3010 	str	r3, [sp, #16]
5000736c:	e59f0034 	ldr	r0, [pc, #52]	; 500073a8 <OS_InitTaskStat+0x6c>
50007370:	e3a01000 	mov	r1, #0
50007374:	e59f2030 	ldr	r2, [pc, #48]	; 500073ac <OS_InitTaskStat+0x70>
50007378:	e3a0303e 	mov	r3, #62	; 0x3e
5000737c:	eb001630 	bl	5000cc44 <OSTaskCreateExt>
50007380:	e28d301f 	add	r3, sp, #31
50007384:	e3a0003e 	mov	r0, #62	; 0x3e
50007388:	e59f1020 	ldr	r1, [pc, #32]	; 500073b0 <OS_InitTaskStat+0x74>
5000738c:	e1a02003 	mov	r2, r3
50007390:	eb0017c9 	bl	5000d2bc <OSTaskNameSet>
50007394:	e28dd024 	add	sp, sp, #36	; 0x24
50007398:	e49de004 	pop	{lr}		; (ldr lr, [sp], #4)
5000739c:	e12fff1e 	bx	lr
500073a0:	0000fffe 	strdeq	pc, [r0], -lr
500073a4:	50011ce8 	andpl	r1, r1, r8, ror #25
500073a8:	50007740 	andpl	r7, r0, r0, asr #14
500073ac:	50011ee4 	andpl	r1, r1, r4, ror #29
500073b0:	50010cc8 	andpl	r0, r1, r8, asr #25

500073b4 <OS_InitTCBList>:
500073b4:	e52de004 	push	{lr}		; (str lr, [sp, #-4]!)
500073b8:	e24dd014 	sub	sp, sp, #20
500073bc:	e59f010c 	ldr	r0, [pc, #268]	; 500074d0 <OS_InitTCBList+0x11c>
500073c0:	e3a01e79 	mov	r1, #1936	; 0x790
500073c4:	eb000046 	bl	500074e4 <OS_MemClr>
500073c8:	e59f0104 	ldr	r0, [pc, #260]	; 500074d4 <OS_InitTCBList+0x120>
500073cc:	e3a01c01 	mov	r1, #256	; 0x100
500073d0:	eb000043 	bl	500074e4 <OS_MemClr>
500073d4:	e3a03000 	mov	r3, #0
500073d8:	e5cd300f 	strb	r3, [sp, #15]
500073dc:	ea00001f 	b	50007460 <OS_InitTCBList+0xac>
500073e0:	e5dd300f 	ldrb	r3, [sp, #15]
500073e4:	e2833001 	add	r3, r3, #1
500073e8:	e5cd300e 	strb	r3, [sp, #14]
500073ec:	e5dd200f 	ldrb	r2, [sp, #15]
500073f0:	e1a03002 	mov	r3, r2
500073f4:	e1a03103 	lsl	r3, r3, #2
500073f8:	e0833002 	add	r3, r3, r2
500073fc:	e1a03083 	lsl	r3, r3, #1
50007400:	e0833002 	add	r3, r3, r2
50007404:	e1a03183 	lsl	r3, r3, #3
50007408:	e59f20c0 	ldr	r2, [pc, #192]	; 500074d0 <OS_InitTCBList+0x11c>
5000740c:	e0833002 	add	r3, r3, r2
50007410:	e58d3008 	str	r3, [sp, #8]
50007414:	e5dd200e 	ldrb	r2, [sp, #14]
50007418:	e1a03002 	mov	r3, r2
5000741c:	e1a03103 	lsl	r3, r3, #2
50007420:	e0833002 	add	r3, r3, r2
50007424:	e1a03083 	lsl	r3, r3, #1
50007428:	e0833002 	add	r3, r3, r2
5000742c:	e1a03183 	lsl	r3, r3, #3
50007430:	e59f2098 	ldr	r2, [pc, #152]	; 500074d0 <OS_InitTCBList+0x11c>
50007434:	e0833002 	add	r3, r3, r2
50007438:	e58d3004 	str	r3, [sp, #4]
5000743c:	e59d3008 	ldr	r3, [sp, #8]
50007440:	e59d2004 	ldr	r2, [sp, #4]
50007444:	e5832014 	str	r2, [r3, #20]
50007448:	e59d3008 	ldr	r3, [sp, #8]
5000744c:	e59f2084 	ldr	r2, [pc, #132]	; 500074d8 <OS_InitTCBList+0x124>
50007450:	e5832050 	str	r2, [r3, #80]	; 0x50
50007454:	e5dd300f 	ldrb	r3, [sp, #15]
50007458:	e2833001 	add	r3, r3, #1
5000745c:	e5cd300f 	strb	r3, [sp, #15]
50007460:	e5dd300f 	ldrb	r3, [sp, #15]
50007464:	e3530014 	cmp	r3, #20
50007468:	9affffdc 	bls	500073e0 <OS_InitTCBList+0x2c>
5000746c:	e5dd200f 	ldrb	r2, [sp, #15]
50007470:	e1a03002 	mov	r3, r2
50007474:	e1a03103 	lsl	r3, r3, #2
50007478:	e0833002 	add	r3, r3, r2
5000747c:	e1a03083 	lsl	r3, r3, #1
50007480:	e0833002 	add	r3, r3, r2
50007484:	e1a03183 	lsl	r3, r3, #3
50007488:	e59f2040 	ldr	r2, [pc, #64]	; 500074d0 <OS_InitTCBList+0x11c>
5000748c:	e0833002 	add	r3, r3, r2
50007490:	e58d3008 	str	r3, [sp, #8]
50007494:	e59d3008 	ldr	r3, [sp, #8]
50007498:	e3a02000 	mov	r2, #0
5000749c:	e5832014 	str	r2, [r3, #20]
500074a0:	e59d3008 	ldr	r3, [sp, #8]
500074a4:	e59f202c 	ldr	r2, [pc, #44]	; 500074d8 <OS_InitTCBList+0x124>
500074a8:	e5832050 	str	r2, [r3, #80]	; 0x50
500074ac:	e59f3028 	ldr	r3, [pc, #40]	; 500074dc <OS_InitTCBList+0x128>
500074b0:	e3a02000 	mov	r2, #0
500074b4:	e5832000 	str	r2, [r3]
500074b8:	e59f3020 	ldr	r3, [pc, #32]	; 500074e0 <OS_InitTCBList+0x12c>
500074bc:	e59f200c 	ldr	r2, [pc, #12]	; 500074d0 <OS_InitTCBList+0x11c>
500074c0:	e5832000 	str	r2, [r3]
500074c4:	e28dd014 	add	sp, sp, #20
500074c8:	e49de004 	pop	{lr}		; (ldr lr, [sp], #4)
500074cc:	e12fff1e 	bx	lr
500074d0:	5001247c 	andpl	r2, r1, ip, ror r4
500074d4:	50012c14 	andpl	r2, r1, r4, lsl ip
500074d8:	50010cb4 			; <UNDEFINED> instruction: 0x50010cb4
500074dc:	50011c68 	andpl	r1, r1, r8, ror #24
500074e0:	50011ef4 	strdpl	r1, [r1], -r4

500074e4 <OS_MemClr>:
500074e4:	e24dd008 	sub	sp, sp, #8
500074e8:	e58d0004 	str	r0, [sp, #4]
500074ec:	e1a03001 	mov	r3, r1
500074f0:	e1cd30b2 	strh	r3, [sp, #2]
500074f4:	ea000007 	b	50007518 <OS_MemClr+0x34>
500074f8:	e59d3004 	ldr	r3, [sp, #4]
500074fc:	e2832001 	add	r2, r3, #1
50007500:	e58d2004 	str	r2, [sp, #4]
50007504:	e3a02000 	mov	r2, #0
50007508:	e5c32000 	strb	r2, [r3]
5000750c:	e1dd30b2 	ldrh	r3, [sp, #2]
50007510:	e2433001 	sub	r3, r3, #1
50007514:	e1cd30b2 	strh	r3, [sp, #2]
50007518:	e1dd30b2 	ldrh	r3, [sp, #2]
5000751c:	e3530000 	cmp	r3, #0
50007520:	1afffff4 	bne	500074f8 <OS_MemClr+0x14>
50007524:	e28dd008 	add	sp, sp, #8
50007528:	e12fff1e 	bx	lr

5000752c <OS_MemCopy>:
5000752c:	e24dd010 	sub	sp, sp, #16
50007530:	e58d000c 	str	r0, [sp, #12]
50007534:	e58d1008 	str	r1, [sp, #8]
50007538:	e1a03002 	mov	r3, r2
5000753c:	e1cd30b6 	strh	r3, [sp, #6]
50007540:	ea00000a 	b	50007570 <OS_MemCopy+0x44>
50007544:	e59d300c 	ldr	r3, [sp, #12]
50007548:	e2832001 	add	r2, r3, #1
5000754c:	e58d200c 	str	r2, [sp, #12]
50007550:	e59d2008 	ldr	r2, [sp, #8]
50007554:	e2821001 	add	r1, r2, #1
50007558:	e58d1008 	str	r1, [sp, #8]
5000755c:	e5d22000 	ldrb	r2, [r2]
50007560:	e5c32000 	strb	r2, [r3]
50007564:	e1dd30b6 	ldrh	r3, [sp, #6]
50007568:	e2433001 	sub	r3, r3, #1
5000756c:	e1cd30b6 	strh	r3, [sp, #6]
50007570:	e1dd30b6 	ldrh	r3, [sp, #6]
50007574:	e3530000 	cmp	r3, #0
50007578:	1afffff1 	bne	50007544 <OS_MemCopy+0x18>
5000757c:	e28dd010 	add	sp, sp, #16
50007580:	e12fff1e 	bx	lr

50007584 <OS_Sched>:
50007584:	e52de004 	push	{lr}		; (str lr, [sp, #-4]!)
50007588:	e24dd00c 	sub	sp, sp, #12
5000758c:	e3a03000 	mov	r3, #0
50007590:	e58d3004 	str	r3, [sp, #4]
50007594:	ebfff3e2 	bl	50004524 <OS_CPU_SR_Save>
50007598:	e58d0004 	str	r0, [sp, #4]
5000759c:	e59f3090 	ldr	r3, [pc, #144]	; 50007634 <OS_Sched+0xb0>
500075a0:	e5d33000 	ldrb	r3, [r3]
500075a4:	e3530000 	cmp	r3, #0
500075a8:	1a00001c 	bne	50007620 <OS_Sched+0x9c>
500075ac:	e59f3084 	ldr	r3, [pc, #132]	; 50007638 <OS_Sched+0xb4>
500075b0:	e5d33000 	ldrb	r3, [r3]
500075b4:	e3530000 	cmp	r3, #0
500075b8:	1a000018 	bne	50007620 <OS_Sched+0x9c>
500075bc:	eb000023 	bl	50007650 <OS_SchedNew>
500075c0:	e59f3074 	ldr	r3, [pc, #116]	; 5000763c <OS_Sched+0xb8>
500075c4:	e5d33000 	ldrb	r3, [r3]
500075c8:	e1a02003 	mov	r2, r3
500075cc:	e59f306c 	ldr	r3, [pc, #108]	; 50007640 <OS_Sched+0xbc>
500075d0:	e7932102 	ldr	r2, [r3, r2, lsl #2]
500075d4:	e59f3068 	ldr	r3, [pc, #104]	; 50007644 <OS_Sched+0xc0>
500075d8:	e5832000 	str	r2, [r3]
500075dc:	e59f3058 	ldr	r3, [pc, #88]	; 5000763c <OS_Sched+0xb8>
500075e0:	e5d32000 	ldrb	r2, [r3]
500075e4:	e59f305c 	ldr	r3, [pc, #92]	; 50007648 <OS_Sched+0xc4>
500075e8:	e5d33000 	ldrb	r3, [r3]
500075ec:	e1520003 	cmp	r2, r3
500075f0:	0a00000a 	beq	50007620 <OS_Sched+0x9c>
500075f4:	e59f3048 	ldr	r3, [pc, #72]	; 50007644 <OS_Sched+0xc0>
500075f8:	e5933000 	ldr	r3, [r3]
500075fc:	e593203c 	ldr	r2, [r3, #60]	; 0x3c
50007600:	e2822001 	add	r2, r2, #1
50007604:	e583203c 	str	r2, [r3, #60]	; 0x3c
50007608:	e59f303c 	ldr	r3, [pc, #60]	; 5000764c <OS_Sched+0xc8>
5000760c:	e5933000 	ldr	r3, [r3]
50007610:	e2832001 	add	r2, r3, #1
50007614:	e59f3030 	ldr	r3, [pc, #48]	; 5000764c <OS_Sched+0xc8>
50007618:	e5832000 	str	r2, [r3]
5000761c:	ebfff3e3 	bl	500045b0 <OSCtxSw>
50007620:	e59d0004 	ldr	r0, [sp, #4]
50007624:	ebfff3c6 	bl	50004544 <OS_CPU_SR_Restore>
50007628:	e28dd00c 	add	sp, sp, #12
5000762c:	e49de004 	pop	{lr}		; (ldr lr, [sp], #4)
50007630:	e12fff1e 	bx	lr
50007634:	50012178 	andpl	r2, r1, r8, ror r1
50007638:	50011980 	andpl	r1, r1, r0, lsl #19
5000763c:	50011992 	mulpl	r1, r2, r9
50007640:	50012c14 	andpl	r2, r1, r4, lsl ip
50007644:	50011f60 	andpl	r1, r1, r0, ror #30
50007648:	50011c64 	andpl	r1, r1, r4, ror #24
5000764c:	50011ee8 	andpl	r1, r1, r8, ror #29

50007650 <OS_SchedNew>:
50007650:	e24dd008 	sub	sp, sp, #8
50007654:	e59f3044 	ldr	r3, [pc, #68]	; 500076a0 <OS_SchedNew+0x50>
50007658:	e5d33000 	ldrb	r3, [r3]
5000765c:	e59f2040 	ldr	r2, [pc, #64]	; 500076a4 <OS_SchedNew+0x54>
50007660:	e7d23003 	ldrb	r3, [r2, r3]
50007664:	e5cd3007 	strb	r3, [sp, #7]
50007668:	e5dd3007 	ldrb	r3, [sp, #7]
5000766c:	e1a03183 	lsl	r3, r3, #3
50007670:	e20320ff 	and	r2, r3, #255	; 0xff
50007674:	e5dd3007 	ldrb	r3, [sp, #7]
50007678:	e59f1028 	ldr	r1, [pc, #40]	; 500076a8 <OS_SchedNew+0x58>
5000767c:	e7d13003 	ldrb	r3, [r1, r3]
50007680:	e59f101c 	ldr	r1, [pc, #28]	; 500076a4 <OS_SchedNew+0x54>
50007684:	e7d13003 	ldrb	r3, [r1, r3]
50007688:	e0823003 	add	r3, r2, r3
5000768c:	e20320ff 	and	r2, r3, #255	; 0xff
50007690:	e59f3014 	ldr	r3, [pc, #20]	; 500076ac <OS_SchedNew+0x5c>
50007694:	e5c32000 	strb	r2, [r3]
50007698:	e28dd008 	add	sp, sp, #8
5000769c:	e12fff1e 	bx	lr
500076a0:	50011f68 	andpl	r1, r1, r8, ror #30
500076a4:	50010bb4 			; <UNDEFINED> instruction: 0x50010bb4
500076a8:	50011f6c 	andpl	r1, r1, ip, ror #30
500076ac:	50011992 	mulpl	r1, r2, r9

500076b0 <OS_StrLen>:
500076b0:	e24dd010 	sub	sp, sp, #16
500076b4:	e58d0004 	str	r0, [sp, #4]
500076b8:	e3a03000 	mov	r3, #0
500076bc:	e5cd300f 	strb	r3, [sp, #15]
500076c0:	ea000005 	b	500076dc <OS_StrLen+0x2c>
500076c4:	e59d3004 	ldr	r3, [sp, #4]
500076c8:	e2833001 	add	r3, r3, #1
500076cc:	e58d3004 	str	r3, [sp, #4]
500076d0:	e5dd300f 	ldrb	r3, [sp, #15]
500076d4:	e2833001 	add	r3, r3, #1
500076d8:	e5cd300f 	strb	r3, [sp, #15]
500076dc:	e59d3004 	ldr	r3, [sp, #4]
500076e0:	e5d33000 	ldrb	r3, [r3]
500076e4:	e3530000 	cmp	r3, #0
500076e8:	1afffff5 	bne	500076c4 <OS_StrLen+0x14>
500076ec:	e5dd300f 	ldrb	r3, [sp, #15]
500076f0:	e1a00003 	mov	r0, r3
500076f4:	e28dd010 	add	sp, sp, #16
500076f8:	e12fff1e 	bx	lr

500076fc <OS_TaskIdle>:
500076fc:	e52de004 	push	{lr}		; (str lr, [sp, #-4]!)
50007700:	e24dd014 	sub	sp, sp, #20
50007704:	e58d0004 	str	r0, [sp, #4]
50007708:	e3a03000 	mov	r3, #0
5000770c:	e58d300c 	str	r3, [sp, #12]
50007710:	ebfff383 	bl	50004524 <OS_CPU_SR_Save>
50007714:	e58d000c 	str	r0, [sp, #12]
50007718:	e59f301c 	ldr	r3, [pc, #28]	; 5000773c <OS_TaskIdle+0x40>
5000771c:	e5933000 	ldr	r3, [r3]
50007720:	e2832001 	add	r2, r3, #1
50007724:	e59f3010 	ldr	r3, [pc, #16]	; 5000773c <OS_TaskIdle+0x40>
50007728:	e5832000 	str	r2, [r3]
5000772c:	e59d000c 	ldr	r0, [sp, #12]
50007730:	ebfff383 	bl	50004544 <OS_CPU_SR_Restore>
50007734:	ebfff44c 	bl	5000486c <OSTaskIdleHook>
50007738:	eafffff4 	b	50007710 <OS_TaskIdle+0x14>
5000773c:	5001198c 	andpl	r1, r1, ip, lsl #19

50007740 <OS_TaskStat>:
50007740:	e52de004 	push	{lr}		; (str lr, [sp, #-4]!)
50007744:	e24dd014 	sub	sp, sp, #20
50007748:	e58d0004 	str	r0, [sp, #4]
5000774c:	e3a03000 	mov	r3, #0
50007750:	e58d300c 	str	r3, [sp, #12]
50007754:	ea000001 	b	50007760 <OS_TaskStat+0x20>
50007758:	e3a00014 	mov	r0, #20
5000775c:	eb0018cf 	bl	5000daa0 <OSTimeDly>
50007760:	e59f30bc 	ldr	r3, [pc, #188]	; 50007824 <OS_TaskStat+0xe4>
50007764:	e5d33000 	ldrb	r3, [r3]
50007768:	e3530000 	cmp	r3, #0
5000776c:	0afffff9 	beq	50007758 <OS_TaskStat+0x18>
50007770:	e59f30b0 	ldr	r3, [pc, #176]	; 50007828 <OS_TaskStat+0xe8>
50007774:	e5932000 	ldr	r2, [r3]
50007778:	e59f30ac 	ldr	r3, [pc, #172]	; 5000782c <OS_TaskStat+0xec>
5000777c:	e0831392 	umull	r1, r3, r2, r3
50007780:	e1a022a3 	lsr	r2, r3, #5
50007784:	e59f309c 	ldr	r3, [pc, #156]	; 50007828 <OS_TaskStat+0xe8>
50007788:	e5832000 	str	r2, [r3]
5000778c:	e59f3094 	ldr	r3, [pc, #148]	; 50007828 <OS_TaskStat+0xe8>
50007790:	e5933000 	ldr	r3, [r3]
50007794:	e3530000 	cmp	r3, #0
50007798:	1a000004 	bne	500077b0 <OS_TaskStat+0x70>
5000779c:	e59f308c 	ldr	r3, [pc, #140]	; 50007830 <OS_TaskStat+0xf0>
500077a0:	e3a02000 	mov	r2, #0
500077a4:	e5c32000 	strb	r2, [r3]
500077a8:	e3a000ff 	mov	r0, #255	; 0xff
500077ac:	eb0017b0 	bl	5000d674 <OSTaskSuspend>
500077b0:	ebfff35b 	bl	50004524 <OS_CPU_SR_Save>
500077b4:	e58d000c 	str	r0, [sp, #12]
500077b8:	e59f3074 	ldr	r3, [pc, #116]	; 50007834 <OS_TaskStat+0xf4>
500077bc:	e5932000 	ldr	r2, [r3]
500077c0:	e59f3070 	ldr	r3, [pc, #112]	; 50007838 <OS_TaskStat+0xf8>
500077c4:	e5832000 	str	r2, [r3]
500077c8:	e59f3064 	ldr	r3, [pc, #100]	; 50007834 <OS_TaskStat+0xf4>
500077cc:	e3a02000 	mov	r2, #0
500077d0:	e5832000 	str	r2, [r3]
500077d4:	e59d000c 	ldr	r0, [sp, #12]
500077d8:	ebfff359 	bl	50004544 <OS_CPU_SR_Restore>
500077dc:	e59f3054 	ldr	r3, [pc, #84]	; 50007838 <OS_TaskStat+0xf8>
500077e0:	e5932000 	ldr	r2, [r3]
500077e4:	e59f303c 	ldr	r3, [pc, #60]	; 50007828 <OS_TaskStat+0xe8>
500077e8:	e5933000 	ldr	r3, [r3]
500077ec:	e1a00002 	mov	r0, r2
500077f0:	e1a01003 	mov	r1, r3
500077f4:	eb001d97 	bl	5000ee58 <__aeabi_uidiv>
500077f8:	e1a03000 	mov	r3, r0
500077fc:	e20330ff 	and	r3, r3, #255	; 0xff
50007800:	e2633064 	rsb	r3, r3, #100	; 0x64
50007804:	e20320ff 	and	r2, r3, #255	; 0xff
50007808:	e59f3020 	ldr	r3, [pc, #32]	; 50007830 <OS_TaskStat+0xf0>
5000780c:	e5c32000 	strb	r2, [r3]
50007810:	ebfff416 	bl	50004870 <OSTaskStatHook>
50007814:	eb000008 	bl	5000783c <OS_TaskStatStkChk>
50007818:	e3a0000a 	mov	r0, #10
5000781c:	eb00189f 	bl	5000daa0 <OSTimeDly>
50007820:	eaffffe2 	b	500077b0 <OS_TaskStat+0x70>
50007824:	50012c10 	andpl	r2, r1, r0, lsl ip
50007828:	50011ef0 	strdpl	r1, [r1], -r0
5000782c:	51eb851f 	mvnpl	r8, pc, lsl r5
50007830:	50011ef8 	strdpl	r1, [r1], -r8
50007834:	5001198c 	andpl	r1, r1, ip, lsl #19
50007838:	50012d14 	andpl	r2, r1, r4, lsl sp

5000783c <OS_TaskStatStkChk>:
5000783c:	e52de004 	push	{lr}		; (str lr, [sp, #-4]!)
50007840:	e24dd014 	sub	sp, sp, #20
50007844:	e3a03000 	mov	r3, #0
50007848:	e5cd300f 	strb	r3, [sp, #15]
5000784c:	ea000021 	b	500078d8 <OS_TaskStatStkChk+0x9c>
50007850:	e5dd200f 	ldrb	r2, [sp, #15]
50007854:	e1a0300d 	mov	r3, sp
50007858:	e1a00002 	mov	r0, r2
5000785c:	e1a01003 	mov	r1, r3
50007860:	eb00172d 	bl	5000d51c <OSTaskStkChk>
50007864:	e1a03000 	mov	r3, r0
50007868:	e5cd300e 	strb	r3, [sp, #14]
5000786c:	e5dd300e 	ldrb	r3, [sp, #14]
50007870:	e3530000 	cmp	r3, #0
50007874:	1a000014 	bne	500078cc <OS_TaskStatStkChk+0x90>
50007878:	e5dd200f 	ldrb	r2, [sp, #15]
5000787c:	e59f306c 	ldr	r3, [pc, #108]	; 500078f0 <OS_TaskStatStkChk+0xb4>
50007880:	e7933102 	ldr	r3, [r3, r2, lsl #2]
50007884:	e58d3008 	str	r3, [sp, #8]
50007888:	e59d3008 	ldr	r3, [sp, #8]
5000788c:	e3530000 	cmp	r3, #0
50007890:	0a00000d 	beq	500078cc <OS_TaskStatStkChk+0x90>
50007894:	e59d3008 	ldr	r3, [sp, #8]
50007898:	e3530001 	cmp	r3, #1
5000789c:	0a00000a 	beq	500078cc <OS_TaskStatStkChk+0x90>
500078a0:	e59d3008 	ldr	r3, [sp, #8]
500078a4:	e5932008 	ldr	r2, [r3, #8]
500078a8:	e59d3008 	ldr	r3, [sp, #8]
500078ac:	e593300c 	ldr	r3, [r3, #12]
500078b0:	e1a03103 	lsl	r3, r3, #2
500078b4:	e0822003 	add	r2, r2, r3
500078b8:	e59d3008 	ldr	r3, [sp, #8]
500078bc:	e5832048 	str	r2, [r3, #72]	; 0x48
500078c0:	e59d2004 	ldr	r2, [sp, #4]
500078c4:	e59d3008 	ldr	r3, [sp, #8]
500078c8:	e583204c 	str	r2, [r3, #76]	; 0x4c
500078cc:	e5dd300f 	ldrb	r3, [sp, #15]
500078d0:	e2833001 	add	r3, r3, #1
500078d4:	e5cd300f 	strb	r3, [sp, #15]
500078d8:	e5dd300f 	ldrb	r3, [sp, #15]
500078dc:	e353003f 	cmp	r3, #63	; 0x3f
500078e0:	9affffda 	bls	50007850 <OS_TaskStatStkChk+0x14>
500078e4:	e28dd014 	add	sp, sp, #20
500078e8:	e49de004 	pop	{lr}		; (ldr lr, [sp], #4)
500078ec:	e12fff1e 	bx	lr
500078f0:	50012c14 	andpl	r2, r1, r4, lsl ip

500078f4 <OS_TCBInit>:
500078f4:	e52de004 	push	{lr}		; (str lr, [sp, #-4]!)
500078f8:	e24dd024 	sub	sp, sp, #36	; 0x24
500078fc:	e58d1008 	str	r1, [sp, #8]
50007900:	e58d2004 	str	r2, [sp, #4]
50007904:	e1a02000 	mov	r2, r0
50007908:	e5cd200f 	strb	r2, [sp, #15]
5000790c:	e1cd30bc 	strh	r3, [sp, #12]
50007910:	e3a03000 	mov	r3, #0
50007914:	e58d3018 	str	r3, [sp, #24]
50007918:	ebfff301 	bl	50004524 <OS_CPU_SR_Save>
5000791c:	e58d0018 	str	r0, [sp, #24]
50007920:	e59f32d0 	ldr	r3, [pc, #720]	; 50007bf8 <OS_TCBInit+0x304>
50007924:	e5933000 	ldr	r3, [r3]
50007928:	e58d3014 	str	r3, [sp, #20]
5000792c:	e59d3014 	ldr	r3, [sp, #20]
50007930:	e3530000 	cmp	r3, #0
50007934:	0a0000a8 	beq	50007bdc <OS_TCBInit+0x2e8>
50007938:	e59d3014 	ldr	r3, [sp, #20]
5000793c:	e5932014 	ldr	r2, [r3, #20]
50007940:	e59f32b0 	ldr	r3, [pc, #688]	; 50007bf8 <OS_TCBInit+0x304>
50007944:	e5832000 	str	r2, [r3]
50007948:	e59d0018 	ldr	r0, [sp, #24]
5000794c:	ebfff2fc 	bl	50004544 <OS_CPU_SR_Restore>
50007950:	e59d3014 	ldr	r3, [sp, #20]
50007954:	e59d2008 	ldr	r2, [sp, #8]
50007958:	e5832000 	str	r2, [r3]
5000795c:	e59d3014 	ldr	r3, [sp, #20]
50007960:	e5dd200f 	ldrb	r2, [sp, #15]
50007964:	e5c32036 	strb	r2, [r3, #54]	; 0x36
50007968:	e59d3014 	ldr	r3, [sp, #20]
5000796c:	e3a02000 	mov	r2, #0
50007970:	e5c32034 	strb	r2, [r3, #52]	; 0x34
50007974:	e59d3014 	ldr	r3, [sp, #20]
50007978:	e3a02000 	mov	r2, #0
5000797c:	e5c32035 	strb	r2, [r3, #53]	; 0x35
50007980:	e59d3014 	ldr	r3, [sp, #20]
50007984:	e3a02000 	mov	r2, #0
50007988:	e5832030 	str	r2, [r3, #48]	; 0x30
5000798c:	e59d3014 	ldr	r3, [sp, #20]
50007990:	e59d202c 	ldr	r2, [sp, #44]	; 0x2c
50007994:	e5832004 	str	r2, [r3, #4]
50007998:	e59d3014 	ldr	r3, [sp, #20]
5000799c:	e59d2028 	ldr	r2, [sp, #40]	; 0x28
500079a0:	e583200c 	str	r2, [r3, #12]
500079a4:	e59d3014 	ldr	r3, [sp, #20]
500079a8:	e59d2004 	ldr	r2, [sp, #4]
500079ac:	e5832008 	str	r2, [r3, #8]
500079b0:	e59d3014 	ldr	r3, [sp, #20]
500079b4:	e1dd23b0 	ldrh	r2, [sp, #48]	; 0x30
500079b8:	e1c321b0 	strh	r2, [r3, #16]
500079bc:	e59d3014 	ldr	r3, [sp, #20]
500079c0:	e1dd20bc 	ldrh	r2, [sp, #12]
500079c4:	e1c321b2 	strh	r2, [r3, #18]
500079c8:	e59d3014 	ldr	r3, [sp, #20]
500079cc:	e3a02000 	mov	r2, #0
500079d0:	e5c3203b 	strb	r2, [r3, #59]	; 0x3b
500079d4:	e5dd300f 	ldrb	r3, [sp, #15]
500079d8:	e1a031a3 	lsr	r3, r3, #3
500079dc:	e20320ff 	and	r2, r3, #255	; 0xff
500079e0:	e59d3014 	ldr	r3, [sp, #20]
500079e4:	e5c32038 	strb	r2, [r3, #56]	; 0x38
500079e8:	e5dd300f 	ldrb	r3, [sp, #15]
500079ec:	e2033007 	and	r3, r3, #7
500079f0:	e20320ff 	and	r2, r3, #255	; 0xff
500079f4:	e59d3014 	ldr	r3, [sp, #20]
500079f8:	e5c32037 	strb	r2, [r3, #55]	; 0x37
500079fc:	e59d3014 	ldr	r3, [sp, #20]
50007a00:	e5d33038 	ldrb	r3, [r3, #56]	; 0x38
50007a04:	e3a02001 	mov	r2, #1
50007a08:	e1a03312 	lsl	r3, r2, r3
50007a0c:	e20320ff 	and	r2, r3, #255	; 0xff
50007a10:	e59d3014 	ldr	r3, [sp, #20]
50007a14:	e5c3203a 	strb	r2, [r3, #58]	; 0x3a
50007a18:	e59d3014 	ldr	r3, [sp, #20]
50007a1c:	e5d33037 	ldrb	r3, [r3, #55]	; 0x37
50007a20:	e3a02001 	mov	r2, #1
50007a24:	e1a03312 	lsl	r3, r2, r3
50007a28:	e20320ff 	and	r2, r3, #255	; 0xff
50007a2c:	e59d3014 	ldr	r3, [sp, #20]
50007a30:	e5c32039 	strb	r2, [r3, #57]	; 0x39
50007a34:	e59d3014 	ldr	r3, [sp, #20]
50007a38:	e3a02000 	mov	r2, #0
50007a3c:	e583201c 	str	r2, [r3, #28]
50007a40:	e59d3014 	ldr	r3, [sp, #20]
50007a44:	e3a02000 	mov	r2, #0
50007a48:	e5832020 	str	r2, [r3, #32]
50007a4c:	e59d3014 	ldr	r3, [sp, #20]
50007a50:	e3a02000 	mov	r2, #0
50007a54:	e5832028 	str	r2, [r3, #40]	; 0x28
50007a58:	e59d3014 	ldr	r3, [sp, #20]
50007a5c:	e3a02000 	mov	r2, #0
50007a60:	e5832024 	str	r2, [r3, #36]	; 0x24
50007a64:	e59d3014 	ldr	r3, [sp, #20]
50007a68:	e3a02000 	mov	r2, #0
50007a6c:	e583203c 	str	r2, [r3, #60]	; 0x3c
50007a70:	e59d3014 	ldr	r3, [sp, #20]
50007a74:	e3a02000 	mov	r2, #0
50007a78:	e5832044 	str	r2, [r3, #68]	; 0x44
50007a7c:	e59d3014 	ldr	r3, [sp, #20]
50007a80:	e3a02000 	mov	r2, #0
50007a84:	e5832040 	str	r2, [r3, #64]	; 0x40
50007a88:	e59d3014 	ldr	r3, [sp, #20]
50007a8c:	e3a02000 	mov	r2, #0
50007a90:	e5832048 	str	r2, [r3, #72]	; 0x48
50007a94:	e59d3014 	ldr	r3, [sp, #20]
50007a98:	e3a02000 	mov	r2, #0
50007a9c:	e583204c 	str	r2, [r3, #76]	; 0x4c
50007aa0:	e59d3014 	ldr	r3, [sp, #20]
50007aa4:	e59f2150 	ldr	r2, [pc, #336]	; 50007bfc <OS_TCBInit+0x308>
50007aa8:	e5832050 	str	r2, [r3, #80]	; 0x50
50007aac:	e3a03000 	mov	r3, #0
50007ab0:	e5cd301f 	strb	r3, [sp, #31]
50007ab4:	ea00000b 	b	50007ae8 <OS_TCBInit+0x1f4>
50007ab8:	e5dd301f 	ldrb	r3, [sp, #31]
50007abc:	e59d1014 	ldr	r1, [sp, #20]
50007ac0:	e2832014 	add	r2, r3, #20
50007ac4:	e3a03004 	mov	r3, #4
50007ac8:	e1a02102 	lsl	r2, r2, #2
50007acc:	e0812002 	add	r2, r1, r2
50007ad0:	e0823003 	add	r3, r2, r3
50007ad4:	e3a02000 	mov	r2, #0
50007ad8:	e5832000 	str	r2, [r3]
50007adc:	e5dd301f 	ldrb	r3, [sp, #31]
50007ae0:	e2833001 	add	r3, r3, #1
50007ae4:	e5cd301f 	strb	r3, [sp, #31]
50007ae8:	e5dd301f 	ldrb	r3, [sp, #31]
50007aec:	e3530000 	cmp	r3, #0
50007af0:	0afffff0 	beq	50007ab8 <OS_TCBInit+0x1c4>
50007af4:	e59d0014 	ldr	r0, [sp, #20]
50007af8:	ebfff3d3 	bl	50004a4c <OSTCBInitHook>
50007afc:	e59d0014 	ldr	r0, [sp, #20]
50007b00:	ebfff351 	bl	5000484c <OSTaskCreateHook>
50007b04:	ebfff286 	bl	50004524 <OS_CPU_SR_Save>
50007b08:	e58d0018 	str	r0, [sp, #24]
50007b0c:	e5dd200f 	ldrb	r2, [sp, #15]
50007b10:	e59f30e8 	ldr	r3, [pc, #232]	; 50007c00 <OS_TCBInit+0x30c>
50007b14:	e59d1014 	ldr	r1, [sp, #20]
50007b18:	e7831102 	str	r1, [r3, r2, lsl #2]
50007b1c:	e59f30e0 	ldr	r3, [pc, #224]	; 50007c04 <OS_TCBInit+0x310>
50007b20:	e5932000 	ldr	r2, [r3]
50007b24:	e59d3014 	ldr	r3, [sp, #20]
50007b28:	e5832014 	str	r2, [r3, #20]
50007b2c:	e59d3014 	ldr	r3, [sp, #20]
50007b30:	e3a02000 	mov	r2, #0
50007b34:	e5832018 	str	r2, [r3, #24]
50007b38:	e59f30c4 	ldr	r3, [pc, #196]	; 50007c04 <OS_TCBInit+0x310>
50007b3c:	e5933000 	ldr	r3, [r3]
50007b40:	e3530000 	cmp	r3, #0
50007b44:	0a000003 	beq	50007b58 <OS_TCBInit+0x264>
50007b48:	e59f30b4 	ldr	r3, [pc, #180]	; 50007c04 <OS_TCBInit+0x310>
50007b4c:	e5933000 	ldr	r3, [r3]
50007b50:	e59d2014 	ldr	r2, [sp, #20]
50007b54:	e5832018 	str	r2, [r3, #24]
50007b58:	e59f30a4 	ldr	r3, [pc, #164]	; 50007c04 <OS_TCBInit+0x310>
50007b5c:	e59d2014 	ldr	r2, [sp, #20]
50007b60:	e5832000 	str	r2, [r3]
50007b64:	e59d3014 	ldr	r3, [sp, #20]
50007b68:	e5d3203a 	ldrb	r2, [r3, #58]	; 0x3a
50007b6c:	e59f3094 	ldr	r3, [pc, #148]	; 50007c08 <OS_TCBInit+0x314>
50007b70:	e5d33000 	ldrb	r3, [r3]
50007b74:	e1823003 	orr	r3, r2, r3
50007b78:	e20320ff 	and	r2, r3, #255	; 0xff
50007b7c:	e59f3084 	ldr	r3, [pc, #132]	; 50007c08 <OS_TCBInit+0x314>
50007b80:	e5c32000 	strb	r2, [r3]
50007b84:	e59d3014 	ldr	r3, [sp, #20]
50007b88:	e5d33038 	ldrb	r3, [r3, #56]	; 0x38
50007b8c:	e59d2014 	ldr	r2, [sp, #20]
50007b90:	e5d22038 	ldrb	r2, [r2, #56]	; 0x38
50007b94:	e59f1070 	ldr	r1, [pc, #112]	; 50007c0c <OS_TCBInit+0x318>
50007b98:	e7d11002 	ldrb	r1, [r1, r2]
50007b9c:	e59d2014 	ldr	r2, [sp, #20]
50007ba0:	e5d22039 	ldrb	r2, [r2, #57]	; 0x39
50007ba4:	e1812002 	orr	r2, r1, r2
50007ba8:	e20210ff 	and	r1, r2, #255	; 0xff
50007bac:	e59f2058 	ldr	r2, [pc, #88]	; 50007c0c <OS_TCBInit+0x318>
50007bb0:	e7c21003 	strb	r1, [r2, r3]
50007bb4:	e59f3054 	ldr	r3, [pc, #84]	; 50007c10 <OS_TCBInit+0x31c>
50007bb8:	e5d33000 	ldrb	r3, [r3]
50007bbc:	e2833001 	add	r3, r3, #1
50007bc0:	e20320ff 	and	r2, r3, #255	; 0xff
50007bc4:	e59f3044 	ldr	r3, [pc, #68]	; 50007c10 <OS_TCBInit+0x31c>
50007bc8:	e5c32000 	strb	r2, [r3]
50007bcc:	e59d0018 	ldr	r0, [sp, #24]
50007bd0:	ebfff25b 	bl	50004544 <OS_CPU_SR_Restore>
50007bd4:	e3a03000 	mov	r3, #0
50007bd8:	ea000002 	b	50007be8 <OS_TCBInit+0x2f4>
50007bdc:	e59d0018 	ldr	r0, [sp, #24]
50007be0:	ebfff257 	bl	50004544 <OS_CPU_SR_Restore>
50007be4:	e3a03042 	mov	r3, #66	; 0x42
50007be8:	e1a00003 	mov	r0, r3
50007bec:	e28dd024 	add	sp, sp, #36	; 0x24
50007bf0:	e49de004 	pop	{lr}		; (ldr lr, [sp], #4)
50007bf4:	e12fff1e 	bx	lr
50007bf8:	50011ef4 	strdpl	r1, [r1], -r4
50007bfc:	50010cb4 			; <UNDEFINED> instruction: 0x50010cb4
50007c00:	50012c14 	andpl	r2, r1, r4, lsl ip
50007c04:	50011c68 	andpl	r1, r1, r8, ror #24
50007c08:	50011f68 	andpl	r1, r1, r8, ror #30
50007c0c:	50011f6c 	andpl	r1, r1, ip, ror #30
50007c10:	50011ef9 	strdpl	r1, [r1], -r9

50007c14 <OSFlagAccept>:
50007c14:	e52de004 	push	{lr}		; (str lr, [sp, #-4]!)
50007c18:	e24dd024 	sub	sp, sp, #36	; 0x24
50007c1c:	e58d000c 	str	r0, [sp, #12]
50007c20:	e58d3004 	str	r3, [sp, #4]
50007c24:	e1cd10ba 	strh	r1, [sp, #10]
50007c28:	e1a03002 	mov	r3, r2
50007c2c:	e5cd3009 	strb	r3, [sp, #9]
50007c30:	e3a03000 	mov	r3, #0
50007c34:	e58d3018 	str	r3, [sp, #24]
50007c38:	e59d300c 	ldr	r3, [sp, #12]
50007c3c:	e5d33000 	ldrb	r3, [r3]
50007c40:	e3530005 	cmp	r3, #5
50007c44:	0a000004 	beq	50007c5c <OSFlagAccept+0x48>
50007c48:	e59d3004 	ldr	r3, [sp, #4]
50007c4c:	e3a02001 	mov	r2, #1
50007c50:	e5c32000 	strb	r2, [r3]
50007c54:	e3a03000 	mov	r3, #0
50007c58:	ea000099 	b	50007ec4 <OSFlagAccept+0x2b0>
50007c5c:	e5dd3009 	ldrb	r3, [sp, #9]
50007c60:	e3c3307f 	bic	r3, r3, #127	; 0x7f
50007c64:	e5cd3017 	strb	r3, [sp, #23]
50007c68:	e5dd3017 	ldrb	r3, [sp, #23]
50007c6c:	e3530000 	cmp	r3, #0
50007c70:	0a000005 	beq	50007c8c <OSFlagAccept+0x78>
50007c74:	e5dd3009 	ldrb	r3, [sp, #9]
50007c78:	e203307f 	and	r3, r3, #127	; 0x7f
50007c7c:	e5cd3009 	strb	r3, [sp, #9]
50007c80:	e3a03001 	mov	r3, #1
50007c84:	e5cd301d 	strb	r3, [sp, #29]
50007c88:	ea000001 	b	50007c94 <OSFlagAccept+0x80>
50007c8c:	e3a03000 	mov	r3, #0
50007c90:	e5cd301d 	strb	r3, [sp, #29]
50007c94:	e59d3004 	ldr	r3, [sp, #4]
50007c98:	e3a02000 	mov	r2, #0
50007c9c:	e5c32000 	strb	r2, [r3]
50007ca0:	ebfff21f 	bl	50004524 <OS_CPU_SR_Save>
50007ca4:	e58d0018 	str	r0, [sp, #24]
50007ca8:	e5dd3009 	ldrb	r3, [sp, #9]
50007cac:	e3530003 	cmp	r3, #3
50007cb0:	979ff103 	ldrls	pc, [pc, r3, lsl #2]
50007cb4:	ea000079 	b	50007ea0 <OSFlagAccept+0x28c>
50007cb8:	50007db4 			; <UNDEFINED> instruction: 0x50007db4
50007cbc:	50007e2c 	andpl	r7, r0, ip, lsr #28
50007cc0:	50007cc8 	andpl	r7, r0, r8, asr #25
50007cc4:	50007d40 	andpl	r7, r0, r0, asr #26
50007cc8:	e59d300c 	ldr	r3, [sp, #12]
50007ccc:	e1d320b8 	ldrh	r2, [r3, #8]
50007cd0:	e1dd30ba 	ldrh	r3, [sp, #10]
50007cd4:	e0023003 	and	r3, r2, r3
50007cd8:	e1cd31be 	strh	r3, [sp, #30]
50007cdc:	e1dd21be 	ldrh	r2, [sp, #30]
50007ce0:	e1dd30ba 	ldrh	r3, [sp, #10]
50007ce4:	e1520003 	cmp	r2, r3
50007ce8:	1a00000e 	bne	50007d28 <OSFlagAccept+0x114>
50007cec:	e5dd301d 	ldrb	r3, [sp, #29]
50007cf0:	e3530001 	cmp	r3, #1
50007cf4:	1a00000e 	bne	50007d34 <OSFlagAccept+0x120>
50007cf8:	e59d300c 	ldr	r3, [sp, #12]
50007cfc:	e1d320b8 	ldrh	r2, [r3, #8]
50007d00:	e1dd31be 	ldrh	r3, [sp, #30]
50007d04:	e1e03003 	mvn	r3, r3
50007d08:	e1a03803 	lsl	r3, r3, #16
50007d0c:	e1a03823 	lsr	r3, r3, #16
50007d10:	e0023003 	and	r3, r2, r3
50007d14:	e1a03803 	lsl	r3, r3, #16
50007d18:	e1a02823 	lsr	r2, r3, #16
50007d1c:	e59d300c 	ldr	r3, [sp, #12]
50007d20:	e1c320b8 	strh	r2, [r3, #8]
50007d24:	ea000002 	b	50007d34 <OSFlagAccept+0x120>
50007d28:	e59d3004 	ldr	r3, [sp, #4]
50007d2c:	e3a02070 	mov	r2, #112	; 0x70
50007d30:	e5c32000 	strb	r2, [r3]
50007d34:	e59d0018 	ldr	r0, [sp, #24]
50007d38:	ebfff201 	bl	50004544 <OS_CPU_SR_Restore>
50007d3c:	ea00005f 	b	50007ec0 <OSFlagAccept+0x2ac>
50007d40:	e59d300c 	ldr	r3, [sp, #12]
50007d44:	e1d320b8 	ldrh	r2, [r3, #8]
50007d48:	e1dd30ba 	ldrh	r3, [sp, #10]
50007d4c:	e0023003 	and	r3, r2, r3
50007d50:	e1cd31be 	strh	r3, [sp, #30]
50007d54:	e1dd31be 	ldrh	r3, [sp, #30]
50007d58:	e3530000 	cmp	r3, #0
50007d5c:	0a00000e 	beq	50007d9c <OSFlagAccept+0x188>
50007d60:	e5dd301d 	ldrb	r3, [sp, #29]
50007d64:	e3530001 	cmp	r3, #1
50007d68:	1a00000e 	bne	50007da8 <OSFlagAccept+0x194>
50007d6c:	e59d300c 	ldr	r3, [sp, #12]
50007d70:	e1d320b8 	ldrh	r2, [r3, #8]
50007d74:	e1dd31be 	ldrh	r3, [sp, #30]
50007d78:	e1e03003 	mvn	r3, r3
50007d7c:	e1a03803 	lsl	r3, r3, #16
50007d80:	e1a03823 	lsr	r3, r3, #16
50007d84:	e0023003 	and	r3, r2, r3
50007d88:	e1a03803 	lsl	r3, r3, #16
50007d8c:	e1a02823 	lsr	r2, r3, #16
50007d90:	e59d300c 	ldr	r3, [sp, #12]
50007d94:	e1c320b8 	strh	r2, [r3, #8]
50007d98:	ea000002 	b	50007da8 <OSFlagAccept+0x194>
50007d9c:	e59d3004 	ldr	r3, [sp, #4]
50007da0:	e3a02070 	mov	r2, #112	; 0x70
50007da4:	e5c32000 	strb	r2, [r3]
50007da8:	e59d0018 	ldr	r0, [sp, #24]
50007dac:	ebfff1e4 	bl	50004544 <OS_CPU_SR_Restore>
50007db0:	ea000042 	b	50007ec0 <OSFlagAccept+0x2ac>
50007db4:	e59d300c 	ldr	r3, [sp, #12]
50007db8:	e1d330b8 	ldrh	r3, [r3, #8]
50007dbc:	e1e03003 	mvn	r3, r3
50007dc0:	e1a03803 	lsl	r3, r3, #16
50007dc4:	e1a02823 	lsr	r2, r3, #16
50007dc8:	e1dd30ba 	ldrh	r3, [sp, #10]
50007dcc:	e0023003 	and	r3, r2, r3
50007dd0:	e1cd31be 	strh	r3, [sp, #30]
50007dd4:	e1dd21be 	ldrh	r2, [sp, #30]
50007dd8:	e1dd30ba 	ldrh	r3, [sp, #10]
50007ddc:	e1520003 	cmp	r2, r3
50007de0:	1a00000b 	bne	50007e14 <OSFlagAccept+0x200>
50007de4:	e5dd301d 	ldrb	r3, [sp, #29]
50007de8:	e3530001 	cmp	r3, #1
50007dec:	1a00000b 	bne	50007e20 <OSFlagAccept+0x20c>
50007df0:	e59d300c 	ldr	r3, [sp, #12]
50007df4:	e1d320b8 	ldrh	r2, [r3, #8]
50007df8:	e1dd31be 	ldrh	r3, [sp, #30]
50007dfc:	e1823003 	orr	r3, r2, r3
50007e00:	e1a03803 	lsl	r3, r3, #16
50007e04:	e1a02823 	lsr	r2, r3, #16
50007e08:	e59d300c 	ldr	r3, [sp, #12]
50007e0c:	e1c320b8 	strh	r2, [r3, #8]
50007e10:	ea000002 	b	50007e20 <OSFlagAccept+0x20c>
50007e14:	e59d3004 	ldr	r3, [sp, #4]
50007e18:	e3a02070 	mov	r2, #112	; 0x70
50007e1c:	e5c32000 	strb	r2, [r3]
50007e20:	e59d0018 	ldr	r0, [sp, #24]
50007e24:	ebfff1c6 	bl	50004544 <OS_CPU_SR_Restore>
50007e28:	ea000024 	b	50007ec0 <OSFlagAccept+0x2ac>
50007e2c:	e59d300c 	ldr	r3, [sp, #12]
50007e30:	e1d330b8 	ldrh	r3, [r3, #8]
50007e34:	e1e03003 	mvn	r3, r3
50007e38:	e1a03803 	lsl	r3, r3, #16
50007e3c:	e1a02823 	lsr	r2, r3, #16
50007e40:	e1dd30ba 	ldrh	r3, [sp, #10]
50007e44:	e0023003 	and	r3, r2, r3
50007e48:	e1cd31be 	strh	r3, [sp, #30]
50007e4c:	e1dd31be 	ldrh	r3, [sp, #30]
50007e50:	e3530000 	cmp	r3, #0
50007e54:	0a00000b 	beq	50007e88 <OSFlagAccept+0x274>
50007e58:	e5dd301d 	ldrb	r3, [sp, #29]
50007e5c:	e3530001 	cmp	r3, #1
50007e60:	1a00000b 	bne	50007e94 <OSFlagAccept+0x280>
50007e64:	e59d300c 	ldr	r3, [sp, #12]
50007e68:	e1d320b8 	ldrh	r2, [r3, #8]
50007e6c:	e1dd31be 	ldrh	r3, [sp, #30]
50007e70:	e1823003 	orr	r3, r2, r3
50007e74:	e1a03803 	lsl	r3, r3, #16
50007e78:	e1a02823 	lsr	r2, r3, #16
50007e7c:	e59d300c 	ldr	r3, [sp, #12]
50007e80:	e1c320b8 	strh	r2, [r3, #8]
50007e84:	ea000002 	b	50007e94 <OSFlagAccept+0x280>
50007e88:	e59d3004 	ldr	r3, [sp, #4]
50007e8c:	e3a02070 	mov	r2, #112	; 0x70
50007e90:	e5c32000 	strb	r2, [r3]
50007e94:	e59d0018 	ldr	r0, [sp, #24]
50007e98:	ebfff1a9 	bl	50004544 <OS_CPU_SR_Restore>
50007e9c:	ea000007 	b	50007ec0 <OSFlagAccept+0x2ac>
50007ea0:	e59d0018 	ldr	r0, [sp, #24]
50007ea4:	ebfff1a6 	bl	50004544 <OS_CPU_SR_Restore>
50007ea8:	e3a03000 	mov	r3, #0
50007eac:	e1cd31be 	strh	r3, [sp, #30]
50007eb0:	e59d3004 	ldr	r3, [sp, #4]
50007eb4:	e3a0206f 	mov	r2, #111	; 0x6f
50007eb8:	e5c32000 	strb	r2, [r3]
50007ebc:	e1a00000 	nop			; (mov r0, r0)
50007ec0:	e1dd31be 	ldrh	r3, [sp, #30]
50007ec4:	e1a00003 	mov	r0, r3
50007ec8:	e28dd024 	add	sp, sp, #36	; 0x24
50007ecc:	e49de004 	pop	{lr}		; (ldr lr, [sp], #4)
50007ed0:	e12fff1e 	bx	lr

50007ed4 <OSFlagCreate>:
50007ed4:	e52de004 	push	{lr}		; (str lr, [sp, #-4]!)
50007ed8:	e24dd014 	sub	sp, sp, #20
50007edc:	e1a03000 	mov	r3, r0
50007ee0:	e58d1000 	str	r1, [sp]
50007ee4:	e1cd30b6 	strh	r3, [sp, #6]
50007ee8:	e3a03000 	mov	r3, #0
50007eec:	e58d300c 	str	r3, [sp, #12]
50007ef0:	e59f30c0 	ldr	r3, [pc, #192]	; 50007fb8 <OSFlagCreate+0xe4>
50007ef4:	e5d33000 	ldrb	r3, [r3]
50007ef8:	e3530000 	cmp	r3, #0
50007efc:	0a000004 	beq	50007f14 <OSFlagCreate+0x40>
50007f00:	e59d3000 	ldr	r3, [sp]
50007f04:	e3a02010 	mov	r2, #16
50007f08:	e5c32000 	strb	r2, [r3]
50007f0c:	e3a03000 	mov	r3, #0
50007f10:	ea000024 	b	50007fa8 <OSFlagCreate+0xd4>
50007f14:	ebfff182 	bl	50004524 <OS_CPU_SR_Save>
50007f18:	e58d000c 	str	r0, [sp, #12]
50007f1c:	e59f3098 	ldr	r3, [pc, #152]	; 50007fbc <OSFlagCreate+0xe8>
50007f20:	e5933000 	ldr	r3, [r3]
50007f24:	e58d3008 	str	r3, [sp, #8]
50007f28:	e59d3008 	ldr	r3, [sp, #8]
50007f2c:	e3530000 	cmp	r3, #0
50007f30:	0a000016 	beq	50007f90 <OSFlagCreate+0xbc>
50007f34:	e59f3080 	ldr	r3, [pc, #128]	; 50007fbc <OSFlagCreate+0xe8>
50007f38:	e5933000 	ldr	r3, [r3]
50007f3c:	e5932004 	ldr	r2, [r3, #4]
50007f40:	e59f3074 	ldr	r3, [pc, #116]	; 50007fbc <OSFlagCreate+0xe8>
50007f44:	e5832000 	str	r2, [r3]
50007f48:	e59d3008 	ldr	r3, [sp, #8]
50007f4c:	e3a02005 	mov	r2, #5
50007f50:	e5c32000 	strb	r2, [r3]
50007f54:	e59d3008 	ldr	r3, [sp, #8]
50007f58:	e1dd20b6 	ldrh	r2, [sp, #6]
50007f5c:	e1c320b8 	strh	r2, [r3, #8]
50007f60:	e59d3008 	ldr	r3, [sp, #8]
50007f64:	e3a02000 	mov	r2, #0
50007f68:	e5832004 	str	r2, [r3, #4]
50007f6c:	e59d3008 	ldr	r3, [sp, #8]
50007f70:	e59f2048 	ldr	r2, [pc, #72]	; 50007fc0 <OSFlagCreate+0xec>
50007f74:	e583200c 	str	r2, [r3, #12]
50007f78:	e59d000c 	ldr	r0, [sp, #12]
50007f7c:	ebfff170 	bl	50004544 <OS_CPU_SR_Restore>
50007f80:	e59d3000 	ldr	r3, [sp]
50007f84:	e3a02000 	mov	r2, #0
50007f88:	e5c32000 	strb	r2, [r3]
50007f8c:	ea000004 	b	50007fa4 <OSFlagCreate+0xd0>
50007f90:	e59d000c 	ldr	r0, [sp, #12]
50007f94:	ebfff16a 	bl	50004544 <OS_CPU_SR_Restore>
50007f98:	e59d3000 	ldr	r3, [sp]
50007f9c:	e3a02072 	mov	r2, #114	; 0x72
50007fa0:	e5c32000 	strb	r2, [r3]
50007fa4:	e59d3008 	ldr	r3, [sp, #8]
50007fa8:	e1a00003 	mov	r0, r3
50007fac:	e28dd014 	add	sp, sp, #20
50007fb0:	e49de004 	pop	{lr}		; (ldr lr, [sp], #4)
50007fb4:	e12fff1e 	bx	lr
50007fb8:	50012178 	andpl	r2, r1, r8, ror r1
50007fbc:	50012c0c 	andpl	r2, r1, ip, lsl #24
50007fc0:	50010cb4 			; <UNDEFINED> instruction: 0x50010cb4

50007fc4 <OSFlagDel>:
50007fc4:	e52de004 	push	{lr}		; (str lr, [sp, #-4]!)
50007fc8:	e24dd024 	sub	sp, sp, #36	; 0x24
50007fcc:	e58d000c 	str	r0, [sp, #12]
50007fd0:	e1a03001 	mov	r3, r1
50007fd4:	e58d2004 	str	r2, [sp, #4]
50007fd8:	e5cd300b 	strb	r3, [sp, #11]
50007fdc:	e3a03000 	mov	r3, #0
50007fe0:	e58d3010 	str	r3, [sp, #16]
50007fe4:	e59f31e8 	ldr	r3, [pc, #488]	; 500081d4 <OSFlagDel+0x210>
50007fe8:	e5d33000 	ldrb	r3, [r3]
50007fec:	e3530000 	cmp	r3, #0
50007ff0:	0a000004 	beq	50008008 <OSFlagDel+0x44>
50007ff4:	e59d3004 	ldr	r3, [sp, #4]
50007ff8:	e3a0200f 	mov	r2, #15
50007ffc:	e5c32000 	strb	r2, [r3]
50008000:	e59d300c 	ldr	r3, [sp, #12]
50008004:	ea00006e 	b	500081c4 <OSFlagDel+0x200>
50008008:	e59d300c 	ldr	r3, [sp, #12]
5000800c:	e5d33000 	ldrb	r3, [r3]
50008010:	e3530005 	cmp	r3, #5
50008014:	0a000004 	beq	5000802c <OSFlagDel+0x68>
50008018:	e59d3004 	ldr	r3, [sp, #4]
5000801c:	e3a02001 	mov	r2, #1
50008020:	e5c32000 	strb	r2, [r3]
50008024:	e59d300c 	ldr	r3, [sp, #12]
50008028:	ea000065 	b	500081c4 <OSFlagDel+0x200>
5000802c:	ebfff13c 	bl	50004524 <OS_CPU_SR_Save>
50008030:	e58d0010 	str	r0, [sp, #16]
50008034:	e59d300c 	ldr	r3, [sp, #12]
50008038:	e5933004 	ldr	r3, [r3, #4]
5000803c:	e3530000 	cmp	r3, #0
50008040:	0a000002 	beq	50008050 <OSFlagDel+0x8c>
50008044:	e3a03001 	mov	r3, #1
50008048:	e5cd301f 	strb	r3, [sp, #31]
5000804c:	ea000001 	b	50008058 <OSFlagDel+0x94>
50008050:	e3a03000 	mov	r3, #0
50008054:	e5cd301f 	strb	r3, [sp, #31]
50008058:	e5dd300b 	ldrb	r3, [sp, #11]
5000805c:	e3530000 	cmp	r3, #0
50008060:	0a000002 	beq	50008070 <OSFlagDel+0xac>
50008064:	e3530001 	cmp	r3, #1
50008068:	0a000023 	beq	500080fc <OSFlagDel+0x138>
5000806c:	ea00004b 	b	500081a0 <OSFlagDel+0x1dc>
50008070:	e5dd301f 	ldrb	r3, [sp, #31]
50008074:	e3530000 	cmp	r3, #0
50008078:	1a000017 	bne	500080dc <OSFlagDel+0x118>
5000807c:	e59d300c 	ldr	r3, [sp, #12]
50008080:	e59f2150 	ldr	r2, [pc, #336]	; 500081d8 <OSFlagDel+0x214>
50008084:	e583200c 	str	r2, [r3, #12]
50008088:	e59d300c 	ldr	r3, [sp, #12]
5000808c:	e3a02000 	mov	r2, #0
50008090:	e5c32000 	strb	r2, [r3]
50008094:	e59f3140 	ldr	r3, [pc, #320]	; 500081dc <OSFlagDel+0x218>
50008098:	e5932000 	ldr	r2, [r3]
5000809c:	e59d300c 	ldr	r3, [sp, #12]
500080a0:	e5832004 	str	r2, [r3, #4]
500080a4:	e59d300c 	ldr	r3, [sp, #12]
500080a8:	e3a02000 	mov	r2, #0
500080ac:	e1c320b8 	strh	r2, [r3, #8]
500080b0:	e59f3124 	ldr	r3, [pc, #292]	; 500081dc <OSFlagDel+0x218>
500080b4:	e59d200c 	ldr	r2, [sp, #12]
500080b8:	e5832000 	str	r2, [r3]
500080bc:	e59d0010 	ldr	r0, [sp, #16]
500080c0:	ebfff11f 	bl	50004544 <OS_CPU_SR_Restore>
500080c4:	e59d3004 	ldr	r3, [sp, #4]
500080c8:	e3a02000 	mov	r2, #0
500080cc:	e5c32000 	strb	r2, [r3]
500080d0:	e3a03000 	mov	r3, #0
500080d4:	e58d3014 	str	r3, [sp, #20]
500080d8:	ea000038 	b	500081c0 <OSFlagDel+0x1fc>
500080dc:	e59d0010 	ldr	r0, [sp, #16]
500080e0:	ebfff117 	bl	50004544 <OS_CPU_SR_Restore>
500080e4:	e59d3004 	ldr	r3, [sp, #4]
500080e8:	e3a02049 	mov	r2, #73	; 0x49
500080ec:	e5c32000 	strb	r2, [r3]
500080f0:	e59d300c 	ldr	r3, [sp, #12]
500080f4:	e58d3014 	str	r3, [sp, #20]
500080f8:	ea000030 	b	500081c0 <OSFlagDel+0x1fc>
500080fc:	e59d300c 	ldr	r3, [sp, #12]
50008100:	e5933004 	ldr	r3, [r3, #4]
50008104:	e58d3018 	str	r3, [sp, #24]
50008108:	ea000005 	b	50008124 <OSFlagDel+0x160>
5000810c:	e59d0018 	ldr	r0, [sp, #24]
50008110:	e3a01000 	mov	r1, #0
50008114:	eb000371 	bl	50008ee0 <OS_FlagTaskRdy>
50008118:	e59d3018 	ldr	r3, [sp, #24]
5000811c:	e5933000 	ldr	r3, [r3]
50008120:	e58d3018 	str	r3, [sp, #24]
50008124:	e59d3018 	ldr	r3, [sp, #24]
50008128:	e3530000 	cmp	r3, #0
5000812c:	1afffff6 	bne	5000810c <OSFlagDel+0x148>
50008130:	e59d300c 	ldr	r3, [sp, #12]
50008134:	e59f209c 	ldr	r2, [pc, #156]	; 500081d8 <OSFlagDel+0x214>
50008138:	e583200c 	str	r2, [r3, #12]
5000813c:	e59d300c 	ldr	r3, [sp, #12]
50008140:	e3a02000 	mov	r2, #0
50008144:	e5c32000 	strb	r2, [r3]
50008148:	e59f308c 	ldr	r3, [pc, #140]	; 500081dc <OSFlagDel+0x218>
5000814c:	e5932000 	ldr	r2, [r3]
50008150:	e59d300c 	ldr	r3, [sp, #12]
50008154:	e5832004 	str	r2, [r3, #4]
50008158:	e59d300c 	ldr	r3, [sp, #12]
5000815c:	e3a02000 	mov	r2, #0
50008160:	e1c320b8 	strh	r2, [r3, #8]
50008164:	e59f3070 	ldr	r3, [pc, #112]	; 500081dc <OSFlagDel+0x218>
50008168:	e59d200c 	ldr	r2, [sp, #12]
5000816c:	e5832000 	str	r2, [r3]
50008170:	e59d0010 	ldr	r0, [sp, #16]
50008174:	ebfff0f2 	bl	50004544 <OS_CPU_SR_Restore>
50008178:	e5dd301f 	ldrb	r3, [sp, #31]
5000817c:	e3530001 	cmp	r3, #1
50008180:	1a000000 	bne	50008188 <OSFlagDel+0x1c4>
50008184:	ebfffcfe 	bl	50007584 <OS_Sched>
50008188:	e59d3004 	ldr	r3, [sp, #4]
5000818c:	e3a02000 	mov	r2, #0
50008190:	e5c32000 	strb	r2, [r3]
50008194:	e3a03000 	mov	r3, #0
50008198:	e58d3014 	str	r3, [sp, #20]
5000819c:	ea000007 	b	500081c0 <OSFlagDel+0x1fc>
500081a0:	e59d0010 	ldr	r0, [sp, #16]
500081a4:	ebfff0e6 	bl	50004544 <OS_CPU_SR_Restore>
500081a8:	e59d3004 	ldr	r3, [sp, #4]
500081ac:	e3a02007 	mov	r2, #7
500081b0:	e5c32000 	strb	r2, [r3]
500081b4:	e59d300c 	ldr	r3, [sp, #12]
500081b8:	e58d3014 	str	r3, [sp, #20]
500081bc:	e1a00000 	nop			; (mov r0, r0)
500081c0:	e59d3014 	ldr	r3, [sp, #20]
500081c4:	e1a00003 	mov	r0, r3
500081c8:	e28dd024 	add	sp, sp, #36	; 0x24
500081cc:	e49de004 	pop	{lr}		; (ldr lr, [sp], #4)
500081d0:	e12fff1e 	bx	lr
500081d4:	50012178 	andpl	r2, r1, r8, ror r1
500081d8:	50010cb4 			; <UNDEFINED> instruction: 0x50010cb4
500081dc:	50012c0c 	andpl	r2, r1, ip, lsl #24

500081e0 <OSFlagNameGet>:
500081e0:	e52de004 	push	{lr}		; (str lr, [sp, #-4]!)
500081e4:	e24dd01c 	sub	sp, sp, #28
500081e8:	e58d000c 	str	r0, [sp, #12]
500081ec:	e58d1008 	str	r1, [sp, #8]
500081f0:	e58d2004 	str	r2, [sp, #4]
500081f4:	e3a03000 	mov	r3, #0
500081f8:	e58d3014 	str	r3, [sp, #20]
500081fc:	e59f30a0 	ldr	r3, [pc, #160]	; 500082a4 <OSFlagNameGet+0xc4>
50008200:	e5d33000 	ldrb	r3, [r3]
50008204:	e3530000 	cmp	r3, #0
50008208:	0a000004 	beq	50008220 <OSFlagNameGet+0x40>
5000820c:	e59d3004 	ldr	r3, [sp, #4]
50008210:	e3a02011 	mov	r2, #17
50008214:	e5c32000 	strb	r2, [r3]
50008218:	e3a03000 	mov	r3, #0
5000821c:	ea00001c 	b	50008294 <OSFlagNameGet+0xb4>
50008220:	ebfff0bf 	bl	50004524 <OS_CPU_SR_Save>
50008224:	e58d0014 	str	r0, [sp, #20]
50008228:	e59d300c 	ldr	r3, [sp, #12]
5000822c:	e5d33000 	ldrb	r3, [r3]
50008230:	e3530005 	cmp	r3, #5
50008234:	0a000006 	beq	50008254 <OSFlagNameGet+0x74>
50008238:	e59d0014 	ldr	r0, [sp, #20]
5000823c:	ebfff0c0 	bl	50004544 <OS_CPU_SR_Restore>
50008240:	e59d3004 	ldr	r3, [sp, #4]
50008244:	e3a02001 	mov	r2, #1
50008248:	e5c32000 	strb	r2, [r3]
5000824c:	e3a03000 	mov	r3, #0
50008250:	ea00000f 	b	50008294 <OSFlagNameGet+0xb4>
50008254:	e59d300c 	ldr	r3, [sp, #12]
50008258:	e593200c 	ldr	r2, [r3, #12]
5000825c:	e59d3008 	ldr	r3, [sp, #8]
50008260:	e5832000 	str	r2, [r3]
50008264:	e59d3008 	ldr	r3, [sp, #8]
50008268:	e5933000 	ldr	r3, [r3]
5000826c:	e1a00003 	mov	r0, r3
50008270:	ebfffd0e 	bl	500076b0 <OS_StrLen>
50008274:	e1a03000 	mov	r3, r0
50008278:	e5cd3013 	strb	r3, [sp, #19]
5000827c:	e59d0014 	ldr	r0, [sp, #20]
50008280:	ebfff0af 	bl	50004544 <OS_CPU_SR_Restore>
50008284:	e59d3004 	ldr	r3, [sp, #4]
50008288:	e3a02000 	mov	r2, #0
5000828c:	e5c32000 	strb	r2, [r3]
50008290:	e5dd3013 	ldrb	r3, [sp, #19]
50008294:	e1a00003 	mov	r0, r3
50008298:	e28dd01c 	add	sp, sp, #28
5000829c:	e49de004 	pop	{lr}		; (ldr lr, [sp], #4)
500082a0:	e12fff1e 	bx	lr
500082a4:	50012178 	andpl	r2, r1, r8, ror r1

500082a8 <OSFlagNameSet>:
500082a8:	e52de004 	push	{lr}		; (str lr, [sp, #-4]!)
500082ac:	e24dd01c 	sub	sp, sp, #28
500082b0:	e58d000c 	str	r0, [sp, #12]
500082b4:	e58d1008 	str	r1, [sp, #8]
500082b8:	e58d2004 	str	r2, [sp, #4]
500082bc:	e3a03000 	mov	r3, #0
500082c0:	e58d3014 	str	r3, [sp, #20]
500082c4:	e59f3078 	ldr	r3, [pc, #120]	; 50008344 <OSFlagNameSet+0x9c>
500082c8:	e5d33000 	ldrb	r3, [r3]
500082cc:	e3530000 	cmp	r3, #0
500082d0:	0a000003 	beq	500082e4 <OSFlagNameSet+0x3c>
500082d4:	e59d3004 	ldr	r3, [sp, #4]
500082d8:	e3a02012 	mov	r2, #18
500082dc:	e5c32000 	strb	r2, [r3]
500082e0:	ea000014 	b	50008338 <OSFlagNameSet+0x90>
500082e4:	ebfff08e 	bl	50004524 <OS_CPU_SR_Save>
500082e8:	e58d0014 	str	r0, [sp, #20]
500082ec:	e59d300c 	ldr	r3, [sp, #12]
500082f0:	e5d33000 	ldrb	r3, [r3]
500082f4:	e3530005 	cmp	r3, #5
500082f8:	0a000005 	beq	50008314 <OSFlagNameSet+0x6c>
500082fc:	e59d0014 	ldr	r0, [sp, #20]
50008300:	ebfff08f 	bl	50004544 <OS_CPU_SR_Restore>
50008304:	e59d3004 	ldr	r3, [sp, #4]
50008308:	e3a02001 	mov	r2, #1
5000830c:	e5c32000 	strb	r2, [r3]
50008310:	ea000008 	b	50008338 <OSFlagNameSet+0x90>
50008314:	e59d300c 	ldr	r3, [sp, #12]
50008318:	e59d2008 	ldr	r2, [sp, #8]
5000831c:	e583200c 	str	r2, [r3, #12]
50008320:	e59d0014 	ldr	r0, [sp, #20]
50008324:	ebfff086 	bl	50004544 <OS_CPU_SR_Restore>
50008328:	e59d3004 	ldr	r3, [sp, #4]
5000832c:	e3a02000 	mov	r2, #0
50008330:	e5c32000 	strb	r2, [r3]
50008334:	e1a00000 	nop			; (mov r0, r0)
50008338:	e28dd01c 	add	sp, sp, #28
5000833c:	e49de004 	pop	{lr}		; (ldr lr, [sp], #4)
50008340:	e12fff1e 	bx	lr
50008344:	50012178 	andpl	r2, r1, r8, ror r1

50008348 <OSFlagPend>:
50008348:	e52de004 	push	{lr}		; (str lr, [sp, #-4]!)
5000834c:	e24dd044 	sub	sp, sp, #68	; 0x44
50008350:	e58d0014 	str	r0, [sp, #20]
50008354:	e58d300c 	str	r3, [sp, #12]
50008358:	e1cd11b2 	strh	r1, [sp, #18]
5000835c:	e1a03002 	mov	r3, r2
50008360:	e5cd3011 	strb	r3, [sp, #17]
50008364:	e3a03000 	mov	r3, #0
50008368:	e58d3038 	str	r3, [sp, #56]	; 0x38
5000836c:	e59f3514 	ldr	r3, [pc, #1300]	; 50008888 <OSFlagPend+0x540>
50008370:	e5d33000 	ldrb	r3, [r3]
50008374:	e3530000 	cmp	r3, #0
50008378:	0a000004 	beq	50008390 <OSFlagPend+0x48>
5000837c:	e59d3048 	ldr	r3, [sp, #72]	; 0x48
50008380:	e3a02002 	mov	r2, #2
50008384:	e5c32000 	strb	r2, [r3]
50008388:	e3a03000 	mov	r3, #0
5000838c:	ea000139 	b	50008878 <OSFlagPend+0x530>
50008390:	e59f34f4 	ldr	r3, [pc, #1268]	; 5000888c <OSFlagPend+0x544>
50008394:	e5d33000 	ldrb	r3, [r3]
50008398:	e3530000 	cmp	r3, #0
5000839c:	0a000004 	beq	500083b4 <OSFlagPend+0x6c>
500083a0:	e59d3048 	ldr	r3, [sp, #72]	; 0x48
500083a4:	e3a0200d 	mov	r2, #13
500083a8:	e5c32000 	strb	r2, [r3]
500083ac:	e3a03000 	mov	r3, #0
500083b0:	ea000130 	b	50008878 <OSFlagPend+0x530>
500083b4:	e59d3014 	ldr	r3, [sp, #20]
500083b8:	e5d33000 	ldrb	r3, [r3]
500083bc:	e3530005 	cmp	r3, #5
500083c0:	0a000004 	beq	500083d8 <OSFlagPend+0x90>
500083c4:	e59d3048 	ldr	r3, [sp, #72]	; 0x48
500083c8:	e3a02001 	mov	r2, #1
500083cc:	e5c32000 	strb	r2, [r3]
500083d0:	e3a03000 	mov	r3, #0
500083d4:	ea000127 	b	50008878 <OSFlagPend+0x530>
500083d8:	e5dd3011 	ldrb	r3, [sp, #17]
500083dc:	e3c3307f 	bic	r3, r3, #127	; 0x7f
500083e0:	e5cd3037 	strb	r3, [sp, #55]	; 0x37
500083e4:	e5dd3037 	ldrb	r3, [sp, #55]	; 0x37
500083e8:	e3530000 	cmp	r3, #0
500083ec:	0a000005 	beq	50008408 <OSFlagPend+0xc0>
500083f0:	e5dd3011 	ldrb	r3, [sp, #17]
500083f4:	e203307f 	and	r3, r3, #127	; 0x7f
500083f8:	e5cd3011 	strb	r3, [sp, #17]
500083fc:	e3a03001 	mov	r3, #1
50008400:	e5cd303f 	strb	r3, [sp, #63]	; 0x3f
50008404:	ea000001 	b	50008410 <OSFlagPend+0xc8>
50008408:	e3a03000 	mov	r3, #0
5000840c:	e5cd303f 	strb	r3, [sp, #63]	; 0x3f
50008410:	ebfff043 	bl	50004524 <OS_CPU_SR_Save>
50008414:	e58d0038 	str	r0, [sp, #56]	; 0x38
50008418:	e5dd3011 	ldrb	r3, [sp, #17]
5000841c:	e3530003 	cmp	r3, #3
50008420:	979ff103 	ldrls	pc, [pc, r3, lsl #2]
50008424:	ea0000b1 	b	500086f0 <OSFlagPend+0x3a8>
50008428:	50008594 	mulpl	r0, r4, r5
5000842c:	50008644 	andpl	r8, r0, r4, asr #12
50008430:	50008438 	andpl	r8, r0, r8, lsr r4
50008434:	500084e8 	andpl	r8, r0, r8, ror #9
50008438:	e59d3014 	ldr	r3, [sp, #20]
5000843c:	e1d320b8 	ldrh	r2, [r3, #8]
50008440:	e1dd31b2 	ldrh	r3, [sp, #18]
50008444:	e0023003 	and	r3, r2, r3
50008448:	e1cd33b4 	strh	r3, [sp, #52]	; 0x34
5000844c:	e1dd23b4 	ldrh	r2, [sp, #52]	; 0x34
50008450:	e1dd31b2 	ldrh	r3, [sp, #18]
50008454:	e1520003 	cmp	r2, r3
50008458:	1a000018 	bne	500084c0 <OSFlagPend+0x178>
5000845c:	e5dd303f 	ldrb	r3, [sp, #63]	; 0x3f
50008460:	e3530001 	cmp	r3, #1
50008464:	1a00000a 	bne	50008494 <OSFlagPend+0x14c>
50008468:	e59d3014 	ldr	r3, [sp, #20]
5000846c:	e1d320b8 	ldrh	r2, [r3, #8]
50008470:	e1dd33b4 	ldrh	r3, [sp, #52]	; 0x34
50008474:	e1e03003 	mvn	r3, r3
50008478:	e1a03803 	lsl	r3, r3, #16
5000847c:	e1a03823 	lsr	r3, r3, #16
50008480:	e0023003 	and	r3, r2, r3
50008484:	e1a03803 	lsl	r3, r3, #16
50008488:	e1a02823 	lsr	r2, r3, #16
5000848c:	e59d3014 	ldr	r3, [sp, #20]
50008490:	e1c320b8 	strh	r2, [r3, #8]
50008494:	e59f33f4 	ldr	r3, [pc, #1012]	; 50008890 <OSFlagPend+0x548>
50008498:	e5933000 	ldr	r3, [r3]
5000849c:	e1dd23b4 	ldrh	r2, [sp, #52]	; 0x34
500084a0:	e1c322bc 	strh	r2, [r3, #44]	; 0x2c
500084a4:	e59d0038 	ldr	r0, [sp, #56]	; 0x38
500084a8:	ebfff025 	bl	50004544 <OS_CPU_SR_Restore>
500084ac:	e59d3048 	ldr	r3, [sp, #72]	; 0x48
500084b0:	e3a02000 	mov	r2, #0
500084b4:	e5c32000 	strb	r2, [r3]
500084b8:	e1dd33b4 	ldrh	r3, [sp, #52]	; 0x34
500084bc:	ea0000ed 	b	50008878 <OSFlagPend+0x530>
500084c0:	e28d101c 	add	r1, sp, #28
500084c4:	e1dd21b2 	ldrh	r2, [sp, #18]
500084c8:	e5dd3011 	ldrb	r3, [sp, #17]
500084cc:	e59d000c 	ldr	r0, [sp, #12]
500084d0:	e58d0000 	str	r0, [sp]
500084d4:	e59d0014 	ldr	r0, [sp, #20]
500084d8:	eb0001e6 	bl	50008c78 <OS_FlagBlock>
500084dc:	e59d0038 	ldr	r0, [sp, #56]	; 0x38
500084e0:	ebfff017 	bl	50004544 <OS_CPU_SR_Restore>
500084e4:	ea00008a 	b	50008714 <OSFlagPend+0x3cc>
500084e8:	e59d3014 	ldr	r3, [sp, #20]
500084ec:	e1d320b8 	ldrh	r2, [r3, #8]
500084f0:	e1dd31b2 	ldrh	r3, [sp, #18]
500084f4:	e0023003 	and	r3, r2, r3
500084f8:	e1cd33b4 	strh	r3, [sp, #52]	; 0x34
500084fc:	e1dd33b4 	ldrh	r3, [sp, #52]	; 0x34
50008500:	e3530000 	cmp	r3, #0
50008504:	0a000018 	beq	5000856c <OSFlagPend+0x224>
50008508:	e5dd303f 	ldrb	r3, [sp, #63]	; 0x3f
5000850c:	e3530001 	cmp	r3, #1
50008510:	1a00000a 	bne	50008540 <OSFlagPend+0x1f8>
50008514:	e59d3014 	ldr	r3, [sp, #20]
50008518:	e1d320b8 	ldrh	r2, [r3, #8]
5000851c:	e1dd33b4 	ldrh	r3, [sp, #52]	; 0x34
50008520:	e1e03003 	mvn	r3, r3
50008524:	e1a03803 	lsl	r3, r3, #16
50008528:	e1a03823 	lsr	r3, r3, #16
5000852c:	e0023003 	and	r3, r2, r3
50008530:	e1a03803 	lsl	r3, r3, #16
50008534:	e1a02823 	lsr	r2, r3, #16
50008538:	e59d3014 	ldr	r3, [sp, #20]
5000853c:	e1c320b8 	strh	r2, [r3, #8]
50008540:	e59f3348 	ldr	r3, [pc, #840]	; 50008890 <OSFlagPend+0x548>
50008544:	e5933000 	ldr	r3, [r3]
50008548:	e1dd23b4 	ldrh	r2, [sp, #52]	; 0x34
5000854c:	e1c322bc 	strh	r2, [r3, #44]	; 0x2c
50008550:	e59d0038 	ldr	r0, [sp, #56]	; 0x38
50008554:	ebffeffa 	bl	50004544 <OS_CPU_SR_Restore>
50008558:	e59d3048 	ldr	r3, [sp, #72]	; 0x48
5000855c:	e3a02000 	mov	r2, #0
50008560:	e5c32000 	strb	r2, [r3]
50008564:	e1dd33b4 	ldrh	r3, [sp, #52]	; 0x34
50008568:	ea0000c2 	b	50008878 <OSFlagPend+0x530>
5000856c:	e28d101c 	add	r1, sp, #28
50008570:	e1dd21b2 	ldrh	r2, [sp, #18]
50008574:	e5dd3011 	ldrb	r3, [sp, #17]
50008578:	e59d000c 	ldr	r0, [sp, #12]
5000857c:	e58d0000 	str	r0, [sp]
50008580:	e59d0014 	ldr	r0, [sp, #20]
50008584:	eb0001bb 	bl	50008c78 <OS_FlagBlock>
50008588:	e59d0038 	ldr	r0, [sp, #56]	; 0x38
5000858c:	ebffefec 	bl	50004544 <OS_CPU_SR_Restore>
50008590:	ea00005f 	b	50008714 <OSFlagPend+0x3cc>
50008594:	e59d3014 	ldr	r3, [sp, #20]
50008598:	e1d330b8 	ldrh	r3, [r3, #8]
5000859c:	e1e03003 	mvn	r3, r3
500085a0:	e1a03803 	lsl	r3, r3, #16
500085a4:	e1a02823 	lsr	r2, r3, #16
500085a8:	e1dd31b2 	ldrh	r3, [sp, #18]
500085ac:	e0023003 	and	r3, r2, r3
500085b0:	e1cd33b4 	strh	r3, [sp, #52]	; 0x34
500085b4:	e1dd23b4 	ldrh	r2, [sp, #52]	; 0x34
500085b8:	e1dd31b2 	ldrh	r3, [sp, #18]
500085bc:	e1520003 	cmp	r2, r3
500085c0:	1a000015 	bne	5000861c <OSFlagPend+0x2d4>
500085c4:	e5dd303f 	ldrb	r3, [sp, #63]	; 0x3f
500085c8:	e3530001 	cmp	r3, #1
500085cc:	1a000007 	bne	500085f0 <OSFlagPend+0x2a8>
500085d0:	e59d3014 	ldr	r3, [sp, #20]
500085d4:	e1d320b8 	ldrh	r2, [r3, #8]
500085d8:	e1dd33b4 	ldrh	r3, [sp, #52]	; 0x34
500085dc:	e1823003 	orr	r3, r2, r3
500085e0:	e1a03803 	lsl	r3, r3, #16
500085e4:	e1a02823 	lsr	r2, r3, #16
500085e8:	e59d3014 	ldr	r3, [sp, #20]
500085ec:	e1c320b8 	strh	r2, [r3, #8]
500085f0:	e59f3298 	ldr	r3, [pc, #664]	; 50008890 <OSFlagPend+0x548>
500085f4:	e5933000 	ldr	r3, [r3]
500085f8:	e1dd23b4 	ldrh	r2, [sp, #52]	; 0x34
500085fc:	e1c322bc 	strh	r2, [r3, #44]	; 0x2c
50008600:	e59d0038 	ldr	r0, [sp, #56]	; 0x38
50008604:	ebffefce 	bl	50004544 <OS_CPU_SR_Restore>
50008608:	e59d3048 	ldr	r3, [sp, #72]	; 0x48
5000860c:	e3a02000 	mov	r2, #0
50008610:	e5c32000 	strb	r2, [r3]
50008614:	e1dd33b4 	ldrh	r3, [sp, #52]	; 0x34
50008618:	ea000096 	b	50008878 <OSFlagPend+0x530>
5000861c:	e28d101c 	add	r1, sp, #28
50008620:	e1dd21b2 	ldrh	r2, [sp, #18]
50008624:	e5dd3011 	ldrb	r3, [sp, #17]
50008628:	e59d000c 	ldr	r0, [sp, #12]
5000862c:	e58d0000 	str	r0, [sp]
50008630:	e59d0014 	ldr	r0, [sp, #20]
50008634:	eb00018f 	bl	50008c78 <OS_FlagBlock>
50008638:	e59d0038 	ldr	r0, [sp, #56]	; 0x38
5000863c:	ebffefc0 	bl	50004544 <OS_CPU_SR_Restore>
50008640:	ea000033 	b	50008714 <OSFlagPend+0x3cc>
50008644:	e59d3014 	ldr	r3, [sp, #20]
50008648:	e1d330b8 	ldrh	r3, [r3, #8]
5000864c:	e1e03003 	mvn	r3, r3
50008650:	e1a03803 	lsl	r3, r3, #16
50008654:	e1a02823 	lsr	r2, r3, #16
50008658:	e1dd31b2 	ldrh	r3, [sp, #18]
5000865c:	e0023003 	and	r3, r2, r3
50008660:	e1cd33b4 	strh	r3, [sp, #52]	; 0x34
50008664:	e1dd33b4 	ldrh	r3, [sp, #52]	; 0x34
50008668:	e3530000 	cmp	r3, #0
5000866c:	0a000015 	beq	500086c8 <OSFlagPend+0x380>
50008670:	e5dd303f 	ldrb	r3, [sp, #63]	; 0x3f
50008674:	e3530001 	cmp	r3, #1
50008678:	1a000007 	bne	5000869c <OSFlagPend+0x354>
5000867c:	e59d3014 	ldr	r3, [sp, #20]
50008680:	e1d320b8 	ldrh	r2, [r3, #8]
50008684:	e1dd33b4 	ldrh	r3, [sp, #52]	; 0x34
50008688:	e1823003 	orr	r3, r2, r3
5000868c:	e1a03803 	lsl	r3, r3, #16
50008690:	e1a02823 	lsr	r2, r3, #16
50008694:	e59d3014 	ldr	r3, [sp, #20]
50008698:	e1c320b8 	strh	r2, [r3, #8]
5000869c:	e59f31ec 	ldr	r3, [pc, #492]	; 50008890 <OSFlagPend+0x548>
500086a0:	e5933000 	ldr	r3, [r3]
500086a4:	e1dd23b4 	ldrh	r2, [sp, #52]	; 0x34
500086a8:	e1c322bc 	strh	r2, [r3, #44]	; 0x2c
500086ac:	e59d0038 	ldr	r0, [sp, #56]	; 0x38
500086b0:	ebffefa3 	bl	50004544 <OS_CPU_SR_Restore>
500086b4:	e59d3048 	ldr	r3, [sp, #72]	; 0x48
500086b8:	e3a02000 	mov	r2, #0
500086bc:	e5c32000 	strb	r2, [r3]
500086c0:	e1dd33b4 	ldrh	r3, [sp, #52]	; 0x34
500086c4:	ea00006b 	b	50008878 <OSFlagPend+0x530>
500086c8:	e28d101c 	add	r1, sp, #28
500086cc:	e1dd21b2 	ldrh	r2, [sp, #18]
500086d0:	e5dd3011 	ldrb	r3, [sp, #17]
500086d4:	e59d000c 	ldr	r0, [sp, #12]
500086d8:	e58d0000 	str	r0, [sp]
500086dc:	e59d0014 	ldr	r0, [sp, #20]
500086e0:	eb000164 	bl	50008c78 <OS_FlagBlock>
500086e4:	e59d0038 	ldr	r0, [sp, #56]	; 0x38
500086e8:	ebffef95 	bl	50004544 <OS_CPU_SR_Restore>
500086ec:	ea000008 	b	50008714 <OSFlagPend+0x3cc>
500086f0:	e59d0038 	ldr	r0, [sp, #56]	; 0x38
500086f4:	ebffef92 	bl	50004544 <OS_CPU_SR_Restore>
500086f8:	e3a03000 	mov	r3, #0
500086fc:	e1cd33b4 	strh	r3, [sp, #52]	; 0x34
50008700:	e59d3048 	ldr	r3, [sp, #72]	; 0x48
50008704:	e3a0206f 	mov	r2, #111	; 0x6f
50008708:	e5c32000 	strb	r2, [r3]
5000870c:	e1dd33b4 	ldrh	r3, [sp, #52]	; 0x34
50008710:	ea000058 	b	50008878 <OSFlagPend+0x530>
50008714:	ebfffb9a 	bl	50007584 <OS_Sched>
50008718:	ebffef81 	bl	50004524 <OS_CPU_SR_Save>
5000871c:	e58d0038 	str	r0, [sp, #56]	; 0x38
50008720:	e59f3168 	ldr	r3, [pc, #360]	; 50008890 <OSFlagPend+0x548>
50008724:	e5933000 	ldr	r3, [r3]
50008728:	e5d33035 	ldrb	r3, [r3, #53]	; 0x35
5000872c:	e3530000 	cmp	r3, #0
50008730:	0a00001f 	beq	500087b4 <OSFlagPend+0x46c>
50008734:	e59f3154 	ldr	r3, [pc, #340]	; 50008890 <OSFlagPend+0x548>
50008738:	e5933000 	ldr	r3, [r3]
5000873c:	e5d33035 	ldrb	r3, [r3, #53]	; 0x35
50008740:	e5cd3033 	strb	r3, [sp, #51]	; 0x33
50008744:	e59f3144 	ldr	r3, [pc, #324]	; 50008890 <OSFlagPend+0x548>
50008748:	e5933000 	ldr	r3, [r3]
5000874c:	e3a02000 	mov	r2, #0
50008750:	e5c32035 	strb	r2, [r3, #53]	; 0x35
50008754:	e28d301c 	add	r3, sp, #28
50008758:	e1a00003 	mov	r0, r3
5000875c:	eb00021c 	bl	50008fd4 <OS_FlagUnlink>
50008760:	e59f3128 	ldr	r3, [pc, #296]	; 50008890 <OSFlagPend+0x548>
50008764:	e5933000 	ldr	r3, [r3]
50008768:	e3a02000 	mov	r2, #0
5000876c:	e5c32034 	strb	r2, [r3, #52]	; 0x34
50008770:	e59d0038 	ldr	r0, [sp, #56]	; 0x38
50008774:	ebffef72 	bl	50004544 <OS_CPU_SR_Restore>
50008778:	e3a03000 	mov	r3, #0
5000877c:	e1cd33b4 	strh	r3, [sp, #52]	; 0x34
50008780:	e5dd3033 	ldrb	r3, [sp, #51]	; 0x33
50008784:	e3530002 	cmp	r3, #2
50008788:	1a000003 	bne	5000879c <OSFlagPend+0x454>
5000878c:	e59d3048 	ldr	r3, [sp, #72]	; 0x48
50008790:	e3a0200e 	mov	r2, #14
50008794:	e5c32000 	strb	r2, [r3]
50008798:	ea000003 	b	500087ac <OSFlagPend+0x464>
5000879c:	e59d3048 	ldr	r3, [sp, #72]	; 0x48
500087a0:	e3a0200a 	mov	r2, #10
500087a4:	e5c32000 	strb	r2, [r3]
500087a8:	e1a00000 	nop			; (mov r0, r0)
500087ac:	e1dd33b4 	ldrh	r3, [sp, #52]	; 0x34
500087b0:	ea000030 	b	50008878 <OSFlagPend+0x530>
500087b4:	e59f30d4 	ldr	r3, [pc, #212]	; 50008890 <OSFlagPend+0x548>
500087b8:	e5933000 	ldr	r3, [r3]
500087bc:	e1d332bc 	ldrh	r3, [r3, #44]	; 0x2c
500087c0:	e1cd33b4 	strh	r3, [sp, #52]	; 0x34
500087c4:	e5dd303f 	ldrb	r3, [sp, #63]	; 0x3f
500087c8:	e3530001 	cmp	r3, #1
500087cc:	1a000023 	bne	50008860 <OSFlagPend+0x518>
500087d0:	e5dd3011 	ldrb	r3, [sp, #17]
500087d4:	e3530003 	cmp	r3, #3
500087d8:	979ff103 	ldrls	pc, [pc, r3, lsl #2]
500087dc:	ea000018 	b	50008844 <OSFlagPend+0x4fc>
500087e0:	50008820 	andpl	r8, r0, r0, lsr #16
500087e4:	50008820 	andpl	r8, r0, r0, lsr #16
500087e8:	500087f0 	strdpl	r8, [r0], -r0
500087ec:	500087f0 	strdpl	r8, [r0], -r0
500087f0:	e59d3014 	ldr	r3, [sp, #20]
500087f4:	e1d320b8 	ldrh	r2, [r3, #8]
500087f8:	e1dd33b4 	ldrh	r3, [sp, #52]	; 0x34
500087fc:	e1e03003 	mvn	r3, r3
50008800:	e1a03803 	lsl	r3, r3, #16
50008804:	e1a03823 	lsr	r3, r3, #16
50008808:	e0023003 	and	r3, r2, r3
5000880c:	e1a03803 	lsl	r3, r3, #16
50008810:	e1a02823 	lsr	r2, r3, #16
50008814:	e59d3014 	ldr	r3, [sp, #20]
50008818:	e1c320b8 	strh	r2, [r3, #8]
5000881c:	ea00000f 	b	50008860 <OSFlagPend+0x518>
50008820:	e59d3014 	ldr	r3, [sp, #20]
50008824:	e1d320b8 	ldrh	r2, [r3, #8]
50008828:	e1dd33b4 	ldrh	r3, [sp, #52]	; 0x34
5000882c:	e1823003 	orr	r3, r2, r3
50008830:	e1a03803 	lsl	r3, r3, #16
50008834:	e1a02823 	lsr	r2, r3, #16
50008838:	e59d3014 	ldr	r3, [sp, #20]
5000883c:	e1c320b8 	strh	r2, [r3, #8]
50008840:	ea000006 	b	50008860 <OSFlagPend+0x518>
50008844:	e59d0038 	ldr	r0, [sp, #56]	; 0x38
50008848:	ebffef3d 	bl	50004544 <OS_CPU_SR_Restore>
5000884c:	e59d3048 	ldr	r3, [sp, #72]	; 0x48
50008850:	e3a0206f 	mov	r2, #111	; 0x6f
50008854:	e5c32000 	strb	r2, [r3]
50008858:	e3a03000 	mov	r3, #0
5000885c:	ea000005 	b	50008878 <OSFlagPend+0x530>
50008860:	e59d0038 	ldr	r0, [sp, #56]	; 0x38
50008864:	ebffef36 	bl	50004544 <OS_CPU_SR_Restore>
50008868:	e59d3048 	ldr	r3, [sp, #72]	; 0x48
5000886c:	e3a02000 	mov	r2, #0
50008870:	e5c32000 	strb	r2, [r3]
50008874:	e1dd33b4 	ldrh	r3, [sp, #52]	; 0x34
50008878:	e1a00003 	mov	r0, r3
5000887c:	e28dd044 	add	sp, sp, #68	; 0x44
50008880:	e49de004 	pop	{lr}		; (ldr lr, [sp], #4)
50008884:	e12fff1e 	bx	lr
50008888:	50012178 	andpl	r2, r1, r8, ror r1
5000888c:	50011980 	andpl	r1, r1, r0, lsl #19
50008890:	5001217c 	andpl	r2, r1, ip, ror r1

50008894 <OSFlagPendGetFlagsRdy>:
50008894:	e52de004 	push	{lr}		; (str lr, [sp, #-4]!)
50008898:	e24dd00c 	sub	sp, sp, #12
5000889c:	e3a03000 	mov	r3, #0
500088a0:	e58d3004 	str	r3, [sp, #4]
500088a4:	ebffef1e 	bl	50004524 <OS_CPU_SR_Save>
500088a8:	e58d0004 	str	r0, [sp, #4]
500088ac:	e59f3024 	ldr	r3, [pc, #36]	; 500088d8 <OSFlagPendGetFlagsRdy+0x44>
500088b0:	e5933000 	ldr	r3, [r3]
500088b4:	e1d332bc 	ldrh	r3, [r3, #44]	; 0x2c
500088b8:	e1cd30b2 	strh	r3, [sp, #2]
500088bc:	e59d0004 	ldr	r0, [sp, #4]
500088c0:	ebffef1f 	bl	50004544 <OS_CPU_SR_Restore>
500088c4:	e1dd30b2 	ldrh	r3, [sp, #2]
500088c8:	e1a00003 	mov	r0, r3
500088cc:	e28dd00c 	add	sp, sp, #12
500088d0:	e49de004 	pop	{lr}		; (ldr lr, [sp], #4)
500088d4:	e12fff1e 	bx	lr
500088d8:	5001217c 	andpl	r2, r1, ip, ror r1

500088dc <OSFlagPost>:
500088dc:	e52de004 	push	{lr}		; (str lr, [sp, #-4]!)
500088e0:	e24dd02c 	sub	sp, sp, #44	; 0x2c
500088e4:	e58d000c 	str	r0, [sp, #12]
500088e8:	e58d3004 	str	r3, [sp, #4]
500088ec:	e1cd10ba 	strh	r1, [sp, #10]
500088f0:	e1a03002 	mov	r3, r2
500088f4:	e5cd3009 	strb	r3, [sp, #9]
500088f8:	e3a03000 	mov	r3, #0
500088fc:	e58d301c 	str	r3, [sp, #28]
50008900:	e59d300c 	ldr	r3, [sp, #12]
50008904:	e5d33000 	ldrb	r3, [r3]
50008908:	e3530005 	cmp	r3, #5
5000890c:	0a000004 	beq	50008924 <OSFlagPost+0x48>
50008910:	e59d3004 	ldr	r3, [sp, #4]
50008914:	e3a02001 	mov	r2, #1
50008918:	e5c32000 	strb	r2, [r3]
5000891c:	e3a03000 	mov	r3, #0
50008920:	ea0000b2 	b	50008bf0 <OSFlagPost+0x314>
50008924:	ebffeefe 	bl	50004524 <OS_CPU_SR_Save>
50008928:	e58d001c 	str	r0, [sp, #28]
5000892c:	e5dd3009 	ldrb	r3, [sp, #9]
50008930:	e3530000 	cmp	r3, #0
50008934:	0a000002 	beq	50008944 <OSFlagPost+0x68>
50008938:	e3530001 	cmp	r3, #1
5000893c:	0a00000c 	beq	50008974 <OSFlagPost+0x98>
50008940:	ea000014 	b	50008998 <OSFlagPost+0xbc>
50008944:	e59d300c 	ldr	r3, [sp, #12]
50008948:	e1d320b8 	ldrh	r2, [r3, #8]
5000894c:	e1dd30ba 	ldrh	r3, [sp, #10]
50008950:	e1e03003 	mvn	r3, r3
50008954:	e1a03803 	lsl	r3, r3, #16
50008958:	e1a03823 	lsr	r3, r3, #16
5000895c:	e0023003 	and	r3, r2, r3
50008960:	e1a03803 	lsl	r3, r3, #16
50008964:	e1a02823 	lsr	r2, r3, #16
50008968:	e59d300c 	ldr	r3, [sp, #12]
5000896c:	e1c320b8 	strh	r2, [r3, #8]
50008970:	ea00000f 	b	500089b4 <OSFlagPost+0xd8>
50008974:	e59d300c 	ldr	r3, [sp, #12]
50008978:	e1d320b8 	ldrh	r2, [r3, #8]
5000897c:	e1dd30ba 	ldrh	r3, [sp, #10]
50008980:	e1823003 	orr	r3, r2, r3
50008984:	e1a03803 	lsl	r3, r3, #16
50008988:	e1a02823 	lsr	r2, r3, #16
5000898c:	e59d300c 	ldr	r3, [sp, #12]
50008990:	e1c320b8 	strh	r2, [r3, #8]
50008994:	ea000006 	b	500089b4 <OSFlagPost+0xd8>
50008998:	e59d001c 	ldr	r0, [sp, #28]
5000899c:	ebffeee8 	bl	50004544 <OS_CPU_SR_Restore>
500089a0:	e59d3004 	ldr	r3, [sp, #4]
500089a4:	e3a02071 	mov	r2, #113	; 0x71
500089a8:	e5c32000 	strb	r2, [r3]
500089ac:	e3a03000 	mov	r3, #0
500089b0:	ea00008e 	b	50008bf0 <OSFlagPost+0x314>
500089b4:	e3a03000 	mov	r3, #0
500089b8:	e5cd3023 	strb	r3, [sp, #35]	; 0x23
500089bc:	e59d300c 	ldr	r3, [sp, #12]
500089c0:	e5933004 	ldr	r3, [r3, #4]
500089c4:	e58d3024 	str	r3, [sp, #36]	; 0x24
500089c8:	ea000074 	b	50008ba0 <OSFlagPost+0x2c4>
500089cc:	e59d3024 	ldr	r3, [sp, #36]	; 0x24
500089d0:	e5d33012 	ldrb	r3, [r3, #18]
500089d4:	e3530003 	cmp	r3, #3
500089d8:	979ff103 	ldrls	pc, [pc, r3, lsl #2]
500089dc:	ea000065 	b	50008b78 <OSFlagPost+0x29c>
500089e0:	50008aa8 	andpl	r8, r0, r8, lsr #21
500089e4:	50008b14 	andpl	r8, r0, r4, lsl fp
500089e8:	500089f0 	strdpl	r8, [r0], -r0
500089ec:	50008a50 	andpl	r8, r0, r0, asr sl
500089f0:	e59d300c 	ldr	r3, [sp, #12]
500089f4:	e1d320b8 	ldrh	r2, [r3, #8]
500089f8:	e59d3024 	ldr	r3, [sp, #36]	; 0x24
500089fc:	e1d331b0 	ldrh	r3, [r3, #16]
50008a00:	e0023003 	and	r3, r2, r3
50008a04:	e1cd31ba 	strh	r3, [sp, #26]
50008a08:	e59d3024 	ldr	r3, [sp, #36]	; 0x24
50008a0c:	e1d331b0 	ldrh	r3, [r3, #16]
50008a10:	e1dd21ba 	ldrh	r2, [sp, #26]
50008a14:	e1520003 	cmp	r2, r3
50008a18:	1a00000b 	bne	50008a4c <OSFlagPost+0x170>
50008a1c:	e1dd31ba 	ldrh	r3, [sp, #26]
50008a20:	e59d0024 	ldr	r0, [sp, #36]	; 0x24
50008a24:	e1a01003 	mov	r1, r3
50008a28:	eb00012c 	bl	50008ee0 <OS_FlagTaskRdy>
50008a2c:	e1a03000 	mov	r3, r0
50008a30:	e5cd3019 	strb	r3, [sp, #25]
50008a34:	e5dd3019 	ldrb	r3, [sp, #25]
50008a38:	e3530001 	cmp	r3, #1
50008a3c:	1a000002 	bne	50008a4c <OSFlagPost+0x170>
50008a40:	e3a03001 	mov	r3, #1
50008a44:	e5cd3023 	strb	r3, [sp, #35]	; 0x23
50008a48:	ea000051 	b	50008b94 <OSFlagPost+0x2b8>
50008a4c:	ea000050 	b	50008b94 <OSFlagPost+0x2b8>
50008a50:	e59d300c 	ldr	r3, [sp, #12]
50008a54:	e1d320b8 	ldrh	r2, [r3, #8]
50008a58:	e59d3024 	ldr	r3, [sp, #36]	; 0x24
50008a5c:	e1d331b0 	ldrh	r3, [r3, #16]
50008a60:	e0023003 	and	r3, r2, r3
50008a64:	e1cd31ba 	strh	r3, [sp, #26]
50008a68:	e1dd31ba 	ldrh	r3, [sp, #26]
50008a6c:	e3530000 	cmp	r3, #0
50008a70:	0a00000b 	beq	50008aa4 <OSFlagPost+0x1c8>
50008a74:	e1dd31ba 	ldrh	r3, [sp, #26]
50008a78:	e59d0024 	ldr	r0, [sp, #36]	; 0x24
50008a7c:	e1a01003 	mov	r1, r3
50008a80:	eb000116 	bl	50008ee0 <OS_FlagTaskRdy>
50008a84:	e1a03000 	mov	r3, r0
50008a88:	e5cd3019 	strb	r3, [sp, #25]
50008a8c:	e5dd3019 	ldrb	r3, [sp, #25]
50008a90:	e3530001 	cmp	r3, #1
50008a94:	1a000002 	bne	50008aa4 <OSFlagPost+0x1c8>
50008a98:	e3a03001 	mov	r3, #1
50008a9c:	e5cd3023 	strb	r3, [sp, #35]	; 0x23
50008aa0:	ea00003b 	b	50008b94 <OSFlagPost+0x2b8>
50008aa4:	ea00003a 	b	50008b94 <OSFlagPost+0x2b8>
50008aa8:	e59d300c 	ldr	r3, [sp, #12]
50008aac:	e1d330b8 	ldrh	r3, [r3, #8]
50008ab0:	e1e03003 	mvn	r3, r3
50008ab4:	e1a03803 	lsl	r3, r3, #16
50008ab8:	e1a02823 	lsr	r2, r3, #16
50008abc:	e59d3024 	ldr	r3, [sp, #36]	; 0x24
50008ac0:	e1d331b0 	ldrh	r3, [r3, #16]
50008ac4:	e0023003 	and	r3, r2, r3
50008ac8:	e1cd31ba 	strh	r3, [sp, #26]
50008acc:	e59d3024 	ldr	r3, [sp, #36]	; 0x24
50008ad0:	e1d331b0 	ldrh	r3, [r3, #16]
50008ad4:	e1dd21ba 	ldrh	r2, [sp, #26]
50008ad8:	e1520003 	cmp	r2, r3
50008adc:	1a00000b 	bne	50008b10 <OSFlagPost+0x234>
50008ae0:	e1dd31ba 	ldrh	r3, [sp, #26]
50008ae4:	e59d0024 	ldr	r0, [sp, #36]	; 0x24
50008ae8:	e1a01003 	mov	r1, r3
50008aec:	eb0000fb 	bl	50008ee0 <OS_FlagTaskRdy>
50008af0:	e1a03000 	mov	r3, r0
50008af4:	e5cd3019 	strb	r3, [sp, #25]
50008af8:	e5dd3019 	ldrb	r3, [sp, #25]
50008afc:	e3530001 	cmp	r3, #1
50008b00:	1a000002 	bne	50008b10 <OSFlagPost+0x234>
50008b04:	e3a03001 	mov	r3, #1
50008b08:	e5cd3023 	strb	r3, [sp, #35]	; 0x23
50008b0c:	ea000020 	b	50008b94 <OSFlagPost+0x2b8>
50008b10:	ea00001f 	b	50008b94 <OSFlagPost+0x2b8>
50008b14:	e59d300c 	ldr	r3, [sp, #12]
50008b18:	e1d330b8 	ldrh	r3, [r3, #8]
50008b1c:	e1e03003 	mvn	r3, r3
50008b20:	e1a03803 	lsl	r3, r3, #16
50008b24:	e1a02823 	lsr	r2, r3, #16
50008b28:	e59d3024 	ldr	r3, [sp, #36]	; 0x24
50008b2c:	e1d331b0 	ldrh	r3, [r3, #16]
50008b30:	e0023003 	and	r3, r2, r3
50008b34:	e1cd31ba 	strh	r3, [sp, #26]
50008b38:	e1dd31ba 	ldrh	r3, [sp, #26]
50008b3c:	e3530000 	cmp	r3, #0
50008b40:	0a00000b 	beq	50008b74 <OSFlagPost+0x298>
50008b44:	e1dd31ba 	ldrh	r3, [sp, #26]
50008b48:	e59d0024 	ldr	r0, [sp, #36]	; 0x24
50008b4c:	e1a01003 	mov	r1, r3
50008b50:	eb0000e2 	bl	50008ee0 <OS_FlagTaskRdy>
50008b54:	e1a03000 	mov	r3, r0
50008b58:	e5cd3019 	strb	r3, [sp, #25]
50008b5c:	e5dd3019 	ldrb	r3, [sp, #25]
50008b60:	e3530001 	cmp	r3, #1
50008b64:	1a000002 	bne	50008b74 <OSFlagPost+0x298>
50008b68:	e3a03001 	mov	r3, #1
50008b6c:	e5cd3023 	strb	r3, [sp, #35]	; 0x23
50008b70:	ea000007 	b	50008b94 <OSFlagPost+0x2b8>
50008b74:	ea000006 	b	50008b94 <OSFlagPost+0x2b8>
50008b78:	e59d001c 	ldr	r0, [sp, #28]
50008b7c:	ebffee70 	bl	50004544 <OS_CPU_SR_Restore>
50008b80:	e59d3004 	ldr	r3, [sp, #4]
50008b84:	e3a0206f 	mov	r2, #111	; 0x6f
50008b88:	e5c32000 	strb	r2, [r3]
50008b8c:	e3a03000 	mov	r3, #0
50008b90:	ea000016 	b	50008bf0 <OSFlagPost+0x314>
50008b94:	e59d3024 	ldr	r3, [sp, #36]	; 0x24
50008b98:	e5933000 	ldr	r3, [r3]
50008b9c:	e58d3024 	str	r3, [sp, #36]	; 0x24
50008ba0:	e59d3024 	ldr	r3, [sp, #36]	; 0x24
50008ba4:	e3530000 	cmp	r3, #0
50008ba8:	1affff87 	bne	500089cc <OSFlagPost+0xf0>
50008bac:	e59d001c 	ldr	r0, [sp, #28]
50008bb0:	ebffee63 	bl	50004544 <OS_CPU_SR_Restore>
50008bb4:	e5dd3023 	ldrb	r3, [sp, #35]	; 0x23
50008bb8:	e3530001 	cmp	r3, #1
50008bbc:	1a000000 	bne	50008bc4 <OSFlagPost+0x2e8>
50008bc0:	ebfffa6f 	bl	50007584 <OS_Sched>
50008bc4:	ebffee56 	bl	50004524 <OS_CPU_SR_Save>
50008bc8:	e58d001c 	str	r0, [sp, #28]
50008bcc:	e59d300c 	ldr	r3, [sp, #12]
50008bd0:	e1d330b8 	ldrh	r3, [r3, #8]
50008bd4:	e1cd31b6 	strh	r3, [sp, #22]
50008bd8:	e59d001c 	ldr	r0, [sp, #28]
50008bdc:	ebffee58 	bl	50004544 <OS_CPU_SR_Restore>
50008be0:	e59d3004 	ldr	r3, [sp, #4]
50008be4:	e3a02000 	mov	r2, #0
50008be8:	e5c32000 	strb	r2, [r3]
50008bec:	e1dd31b6 	ldrh	r3, [sp, #22]
50008bf0:	e1a00003 	mov	r0, r3
50008bf4:	e28dd02c 	add	sp, sp, #44	; 0x2c
50008bf8:	e49de004 	pop	{lr}		; (ldr lr, [sp], #4)
50008bfc:	e12fff1e 	bx	lr

50008c00 <OSFlagQuery>:
50008c00:	e52de004 	push	{lr}		; (str lr, [sp, #-4]!)
50008c04:	e24dd014 	sub	sp, sp, #20
50008c08:	e58d0004 	str	r0, [sp, #4]
50008c0c:	e58d1000 	str	r1, [sp]
50008c10:	e3a03000 	mov	r3, #0
50008c14:	e58d300c 	str	r3, [sp, #12]
50008c18:	e59d3004 	ldr	r3, [sp, #4]
50008c1c:	e5d33000 	ldrb	r3, [r3]
50008c20:	e3530005 	cmp	r3, #5
50008c24:	0a000004 	beq	50008c3c <OSFlagQuery+0x3c>
50008c28:	e59d3000 	ldr	r3, [sp]
50008c2c:	e3a02001 	mov	r2, #1
50008c30:	e5c32000 	strb	r2, [r3]
50008c34:	e3a03000 	mov	r3, #0
50008c38:	ea00000a 	b	50008c68 <OSFlagQuery+0x68>
50008c3c:	ebffee38 	bl	50004524 <OS_CPU_SR_Save>
50008c40:	e58d000c 	str	r0, [sp, #12]
50008c44:	e59d3004 	ldr	r3, [sp, #4]
50008c48:	e1d330b8 	ldrh	r3, [r3, #8]
50008c4c:	e1cd30ba 	strh	r3, [sp, #10]
50008c50:	e59d000c 	ldr	r0, [sp, #12]
50008c54:	ebffee3a 	bl	50004544 <OS_CPU_SR_Restore>
50008c58:	e59d3000 	ldr	r3, [sp]
50008c5c:	e3a02000 	mov	r2, #0
50008c60:	e5c32000 	strb	r2, [r3]
50008c64:	e1dd30ba 	ldrh	r3, [sp, #10]
50008c68:	e1a00003 	mov	r0, r3
50008c6c:	e28dd014 	add	sp, sp, #20
50008c70:	e49de004 	pop	{lr}		; (ldr lr, [sp], #4)
50008c74:	e12fff1e 	bx	lr

50008c78 <OS_FlagBlock>:
50008c78:	e24dd018 	sub	sp, sp, #24
50008c7c:	e58d000c 	str	r0, [sp, #12]
50008c80:	e58d1008 	str	r1, [sp, #8]
50008c84:	e1cd20b6 	strh	r2, [sp, #6]
50008c88:	e5cd3005 	strb	r3, [sp, #5]
50008c8c:	e59f3154 	ldr	r3, [pc, #340]	; 50008de8 <OS_FlagBlock+0x170>
50008c90:	e5933000 	ldr	r3, [r3]
50008c94:	e59f214c 	ldr	r2, [pc, #332]	; 50008de8 <OS_FlagBlock+0x170>
50008c98:	e5922000 	ldr	r2, [r2]
50008c9c:	e5d22034 	ldrb	r2, [r2, #52]	; 0x34
50008ca0:	e3822020 	orr	r2, r2, #32
50008ca4:	e20220ff 	and	r2, r2, #255	; 0xff
50008ca8:	e5c32034 	strb	r2, [r3, #52]	; 0x34
50008cac:	e59f3134 	ldr	r3, [pc, #308]	; 50008de8 <OS_FlagBlock+0x170>
50008cb0:	e5933000 	ldr	r3, [r3]
50008cb4:	e3a02000 	mov	r2, #0
50008cb8:	e5c32035 	strb	r2, [r3, #53]	; 0x35
50008cbc:	e59f3124 	ldr	r3, [pc, #292]	; 50008de8 <OS_FlagBlock+0x170>
50008cc0:	e5933000 	ldr	r3, [r3]
50008cc4:	e59d2018 	ldr	r2, [sp, #24]
50008cc8:	e5832030 	str	r2, [r3, #48]	; 0x30
50008ccc:	e59f3114 	ldr	r3, [pc, #276]	; 50008de8 <OS_FlagBlock+0x170>
50008cd0:	e5933000 	ldr	r3, [r3]
50008cd4:	e59d2008 	ldr	r2, [sp, #8]
50008cd8:	e5832028 	str	r2, [r3, #40]	; 0x28
50008cdc:	e59d3008 	ldr	r3, [sp, #8]
50008ce0:	e1dd20b6 	ldrh	r2, [sp, #6]
50008ce4:	e1c321b0 	strh	r2, [r3, #16]
50008ce8:	e59d3008 	ldr	r3, [sp, #8]
50008cec:	e5dd2005 	ldrb	r2, [sp, #5]
50008cf0:	e5c32012 	strb	r2, [r3, #18]
50008cf4:	e59f30ec 	ldr	r3, [pc, #236]	; 50008de8 <OS_FlagBlock+0x170>
50008cf8:	e5932000 	ldr	r2, [r3]
50008cfc:	e59d3008 	ldr	r3, [sp, #8]
50008d00:	e5832008 	str	r2, [r3, #8]
50008d04:	e59d300c 	ldr	r3, [sp, #12]
50008d08:	e5932004 	ldr	r2, [r3, #4]
50008d0c:	e59d3008 	ldr	r3, [sp, #8]
50008d10:	e5832000 	str	r2, [r3]
50008d14:	e59d3008 	ldr	r3, [sp, #8]
50008d18:	e3a02000 	mov	r2, #0
50008d1c:	e5832004 	str	r2, [r3, #4]
50008d20:	e59d3008 	ldr	r3, [sp, #8]
50008d24:	e59d200c 	ldr	r2, [sp, #12]
50008d28:	e583200c 	str	r2, [r3, #12]
50008d2c:	e59d300c 	ldr	r3, [sp, #12]
50008d30:	e5933004 	ldr	r3, [r3, #4]
50008d34:	e58d3014 	str	r3, [sp, #20]
50008d38:	e59d3014 	ldr	r3, [sp, #20]
50008d3c:	e3530000 	cmp	r3, #0
50008d40:	0a000002 	beq	50008d50 <OS_FlagBlock+0xd8>
50008d44:	e59d3014 	ldr	r3, [sp, #20]
50008d48:	e59d2008 	ldr	r2, [sp, #8]
50008d4c:	e5832004 	str	r2, [r3, #4]
50008d50:	e59d300c 	ldr	r3, [sp, #12]
50008d54:	e59d2008 	ldr	r2, [sp, #8]
50008d58:	e5832004 	str	r2, [r3, #4]
50008d5c:	e59f3084 	ldr	r3, [pc, #132]	; 50008de8 <OS_FlagBlock+0x170>
50008d60:	e5933000 	ldr	r3, [r3]
50008d64:	e5d33038 	ldrb	r3, [r3, #56]	; 0x38
50008d68:	e5cd3013 	strb	r3, [sp, #19]
50008d6c:	e5dd3013 	ldrb	r3, [sp, #19]
50008d70:	e5dd2013 	ldrb	r2, [sp, #19]
50008d74:	e59f1070 	ldr	r1, [pc, #112]	; 50008dec <OS_FlagBlock+0x174>
50008d78:	e7d11002 	ldrb	r1, [r1, r2]
50008d7c:	e59f2064 	ldr	r2, [pc, #100]	; 50008de8 <OS_FlagBlock+0x170>
50008d80:	e5922000 	ldr	r2, [r2]
50008d84:	e5d22039 	ldrb	r2, [r2, #57]	; 0x39
50008d88:	e1e02002 	mvn	r2, r2
50008d8c:	e20220ff 	and	r2, r2, #255	; 0xff
50008d90:	e0012002 	and	r2, r1, r2
50008d94:	e20210ff 	and	r1, r2, #255	; 0xff
50008d98:	e59f204c 	ldr	r2, [pc, #76]	; 50008dec <OS_FlagBlock+0x174>
50008d9c:	e7c21003 	strb	r1, [r2, r3]
50008da0:	e5dd3013 	ldrb	r3, [sp, #19]
50008da4:	e59f2040 	ldr	r2, [pc, #64]	; 50008dec <OS_FlagBlock+0x174>
50008da8:	e7d23003 	ldrb	r3, [r2, r3]
50008dac:	e3530000 	cmp	r3, #0
50008db0:	1a00000a 	bne	50008de0 <OS_FlagBlock+0x168>
50008db4:	e59f302c 	ldr	r3, [pc, #44]	; 50008de8 <OS_FlagBlock+0x170>
50008db8:	e5933000 	ldr	r3, [r3]
50008dbc:	e5d3303a 	ldrb	r3, [r3, #58]	; 0x3a
50008dc0:	e1e03003 	mvn	r3, r3
50008dc4:	e20320ff 	and	r2, r3, #255	; 0xff
50008dc8:	e59f3020 	ldr	r3, [pc, #32]	; 50008df0 <OS_FlagBlock+0x178>
50008dcc:	e5d33000 	ldrb	r3, [r3]
50008dd0:	e0023003 	and	r3, r2, r3
50008dd4:	e20320ff 	and	r2, r3, #255	; 0xff
50008dd8:	e59f3010 	ldr	r3, [pc, #16]	; 50008df0 <OS_FlagBlock+0x178>
50008ddc:	e5c32000 	strb	r2, [r3]
50008de0:	e28dd018 	add	sp, sp, #24
50008de4:	e12fff1e 	bx	lr
50008de8:	5001217c 	andpl	r2, r1, ip, ror r1
50008dec:	50011f6c 	andpl	r1, r1, ip, ror #30
50008df0:	50011f68 	andpl	r1, r1, r8, ror #30

50008df4 <OS_FlagInit>:
50008df4:	e52de004 	push	{lr}		; (str lr, [sp, #-4]!)
50008df8:	e24dd014 	sub	sp, sp, #20
50008dfc:	e59f00d0 	ldr	r0, [pc, #208]	; 50008ed4 <OS_FlagInit+0xe0>
50008e00:	e3a01050 	mov	r1, #80	; 0x50
50008e04:	ebfff9b6 	bl	500074e4 <OS_MemClr>
50008e08:	e3a03000 	mov	r3, #0
50008e0c:	e1cd30be 	strh	r3, [sp, #14]
50008e10:	ea000018 	b	50008e78 <OS_FlagInit+0x84>
50008e14:	e1dd30be 	ldrh	r3, [sp, #14]
50008e18:	e2833001 	add	r3, r3, #1
50008e1c:	e1cd30bc 	strh	r3, [sp, #12]
50008e20:	e1dd30be 	ldrh	r3, [sp, #14]
50008e24:	e1a02203 	lsl	r2, r3, #4
50008e28:	e59f30a4 	ldr	r3, [pc, #164]	; 50008ed4 <OS_FlagInit+0xe0>
50008e2c:	e0823003 	add	r3, r2, r3
50008e30:	e58d3008 	str	r3, [sp, #8]
50008e34:	e1dd30bc 	ldrh	r3, [sp, #12]
50008e38:	e1a02203 	lsl	r2, r3, #4
50008e3c:	e59f3090 	ldr	r3, [pc, #144]	; 50008ed4 <OS_FlagInit+0xe0>
50008e40:	e0823003 	add	r3, r2, r3
50008e44:	e58d3004 	str	r3, [sp, #4]
50008e48:	e59d3008 	ldr	r3, [sp, #8]
50008e4c:	e3a02000 	mov	r2, #0
50008e50:	e5c32000 	strb	r2, [r3]
50008e54:	e59d3008 	ldr	r3, [sp, #8]
50008e58:	e59d2004 	ldr	r2, [sp, #4]
50008e5c:	e5832004 	str	r2, [r3, #4]
50008e60:	e59d3008 	ldr	r3, [sp, #8]
50008e64:	e59f206c 	ldr	r2, [pc, #108]	; 50008ed8 <OS_FlagInit+0xe4>
50008e68:	e583200c 	str	r2, [r3, #12]
50008e6c:	e1dd30be 	ldrh	r3, [sp, #14]
50008e70:	e2833001 	add	r3, r3, #1
50008e74:	e1cd30be 	strh	r3, [sp, #14]
50008e78:	e1dd30be 	ldrh	r3, [sp, #14]
50008e7c:	e3530003 	cmp	r3, #3
50008e80:	9affffe3 	bls	50008e14 <OS_FlagInit+0x20>
50008e84:	e1dd30be 	ldrh	r3, [sp, #14]
50008e88:	e1a02203 	lsl	r2, r3, #4
50008e8c:	e59f3040 	ldr	r3, [pc, #64]	; 50008ed4 <OS_FlagInit+0xe0>
50008e90:	e0823003 	add	r3, r2, r3
50008e94:	e58d3008 	str	r3, [sp, #8]
50008e98:	e59d3008 	ldr	r3, [sp, #8]
50008e9c:	e3a02000 	mov	r2, #0
50008ea0:	e5c32000 	strb	r2, [r3]
50008ea4:	e59d3008 	ldr	r3, [sp, #8]
50008ea8:	e3a02000 	mov	r2, #0
50008eac:	e5832004 	str	r2, [r3, #4]
50008eb0:	e59d3008 	ldr	r3, [sp, #8]
50008eb4:	e59f201c 	ldr	r2, [pc, #28]	; 50008ed8 <OS_FlagInit+0xe4>
50008eb8:	e583200c 	str	r2, [r3, #12]
50008ebc:	e59f3018 	ldr	r3, [pc, #24]	; 50008edc <OS_FlagInit+0xe8>
50008ec0:	e59f200c 	ldr	r2, [pc, #12]	; 50008ed4 <OS_FlagInit+0xe0>
50008ec4:	e5832000 	str	r2, [r3]
50008ec8:	e28dd014 	add	sp, sp, #20
50008ecc:	e49de004 	pop	{lr}		; (ldr lr, [sp], #4)
50008ed0:	e12fff1e 	bx	lr
50008ed4:	50011994 	mulpl	r1, r4, r9
50008ed8:	50010cb4 			; <UNDEFINED> instruction: 0x50010cb4
50008edc:	50012c0c 	andpl	r2, r1, ip, lsl #24

50008ee0 <OS_FlagTaskRdy>:
50008ee0:	e52de004 	push	{lr}		; (str lr, [sp, #-4]!)
50008ee4:	e24dd014 	sub	sp, sp, #20
50008ee8:	e58d0004 	str	r0, [sp, #4]
50008eec:	e1a03001 	mov	r3, r1
50008ef0:	e1cd30b2 	strh	r3, [sp, #2]
50008ef4:	e59d3004 	ldr	r3, [sp, #4]
50008ef8:	e5933008 	ldr	r3, [r3, #8]
50008efc:	e58d3008 	str	r3, [sp, #8]
50008f00:	e59d3008 	ldr	r3, [sp, #8]
50008f04:	e3a02000 	mov	r2, #0
50008f08:	e5832030 	str	r2, [r3, #48]	; 0x30
50008f0c:	e59d3008 	ldr	r3, [sp, #8]
50008f10:	e1dd20b2 	ldrh	r2, [sp, #2]
50008f14:	e1c322bc 	strh	r2, [r3, #44]	; 0x2c
50008f18:	e59d3008 	ldr	r3, [sp, #8]
50008f1c:	e5d33034 	ldrb	r3, [r3, #52]	; 0x34
50008f20:	e3c33020 	bic	r3, r3, #32
50008f24:	e20320ff 	and	r2, r3, #255	; 0xff
50008f28:	e59d3008 	ldr	r3, [sp, #8]
50008f2c:	e5c32034 	strb	r2, [r3, #52]	; 0x34
50008f30:	e59d3008 	ldr	r3, [sp, #8]
50008f34:	e3a02000 	mov	r2, #0
50008f38:	e5c32035 	strb	r2, [r3, #53]	; 0x35
50008f3c:	e59d3008 	ldr	r3, [sp, #8]
50008f40:	e5d33034 	ldrb	r3, [r3, #52]	; 0x34
50008f44:	e3530000 	cmp	r3, #0
50008f48:	1a000016 	bne	50008fa8 <OS_FlagTaskRdy+0xc8>
50008f4c:	e59d3008 	ldr	r3, [sp, #8]
50008f50:	e5d3203a 	ldrb	r2, [r3, #58]	; 0x3a
50008f54:	e59f3070 	ldr	r3, [pc, #112]	; 50008fcc <OS_FlagTaskRdy+0xec>
50008f58:	e5d33000 	ldrb	r3, [r3]
50008f5c:	e1823003 	orr	r3, r2, r3
50008f60:	e20320ff 	and	r2, r3, #255	; 0xff
50008f64:	e59f3060 	ldr	r3, [pc, #96]	; 50008fcc <OS_FlagTaskRdy+0xec>
50008f68:	e5c32000 	strb	r2, [r3]
50008f6c:	e59d3008 	ldr	r3, [sp, #8]
50008f70:	e5d33038 	ldrb	r3, [r3, #56]	; 0x38
50008f74:	e59d2008 	ldr	r2, [sp, #8]
50008f78:	e5d22038 	ldrb	r2, [r2, #56]	; 0x38
50008f7c:	e59f104c 	ldr	r1, [pc, #76]	; 50008fd0 <OS_FlagTaskRdy+0xf0>
50008f80:	e7d11002 	ldrb	r1, [r1, r2]
50008f84:	e59d2008 	ldr	r2, [sp, #8]
50008f88:	e5d22039 	ldrb	r2, [r2, #57]	; 0x39
50008f8c:	e1812002 	orr	r2, r1, r2
50008f90:	e20210ff 	and	r1, r2, #255	; 0xff
50008f94:	e59f2034 	ldr	r2, [pc, #52]	; 50008fd0 <OS_FlagTaskRdy+0xf0>
50008f98:	e7c21003 	strb	r1, [r2, r3]
50008f9c:	e3a03001 	mov	r3, #1
50008fa0:	e5cd300f 	strb	r3, [sp, #15]
50008fa4:	ea000001 	b	50008fb0 <OS_FlagTaskRdy+0xd0>
50008fa8:	e3a03000 	mov	r3, #0
50008fac:	e5cd300f 	strb	r3, [sp, #15]
50008fb0:	e59d0004 	ldr	r0, [sp, #4]
50008fb4:	eb000006 	bl	50008fd4 <OS_FlagUnlink>
50008fb8:	e5dd300f 	ldrb	r3, [sp, #15]
50008fbc:	e1a00003 	mov	r0, r3
50008fc0:	e28dd014 	add	sp, sp, #20
50008fc4:	e49de004 	pop	{lr}		; (ldr lr, [sp], #4)
50008fc8:	e12fff1e 	bx	lr
50008fcc:	50011f68 	andpl	r1, r1, r8, ror #30
50008fd0:	50011f6c 	andpl	r1, r1, ip, ror #30

50008fd4 <OS_FlagUnlink>:
50008fd4:	e24dd018 	sub	sp, sp, #24
50008fd8:	e58d0004 	str	r0, [sp, #4]
50008fdc:	e59d3004 	ldr	r3, [sp, #4]
50008fe0:	e5933004 	ldr	r3, [r3, #4]
50008fe4:	e58d3014 	str	r3, [sp, #20]
50008fe8:	e59d3004 	ldr	r3, [sp, #4]
50008fec:	e5933000 	ldr	r3, [r3]
50008ff0:	e58d3010 	str	r3, [sp, #16]
50008ff4:	e59d3014 	ldr	r3, [sp, #20]
50008ff8:	e3530000 	cmp	r3, #0
50008ffc:	1a00000c 	bne	50009034 <OS_FlagUnlink+0x60>
50009000:	e59d3004 	ldr	r3, [sp, #4]
50009004:	e593300c 	ldr	r3, [r3, #12]
50009008:	e58d300c 	str	r3, [sp, #12]
5000900c:	e59d300c 	ldr	r3, [sp, #12]
50009010:	e59d2010 	ldr	r2, [sp, #16]
50009014:	e5832004 	str	r2, [r3, #4]
50009018:	e59d3010 	ldr	r3, [sp, #16]
5000901c:	e3530000 	cmp	r3, #0
50009020:	0a00000c 	beq	50009058 <OS_FlagUnlink+0x84>
50009024:	e59d3010 	ldr	r3, [sp, #16]
50009028:	e3a02000 	mov	r2, #0
5000902c:	e5832004 	str	r2, [r3, #4]
50009030:	ea000008 	b	50009058 <OS_FlagUnlink+0x84>
50009034:	e59d3014 	ldr	r3, [sp, #20]
50009038:	e59d2010 	ldr	r2, [sp, #16]
5000903c:	e5832000 	str	r2, [r3]
50009040:	e59d3010 	ldr	r3, [sp, #16]
50009044:	e3530000 	cmp	r3, #0
50009048:	0a000002 	beq	50009058 <OS_FlagUnlink+0x84>
5000904c:	e59d3010 	ldr	r3, [sp, #16]
50009050:	e59d2014 	ldr	r2, [sp, #20]
50009054:	e5832004 	str	r2, [r3, #4]
50009058:	e59d3004 	ldr	r3, [sp, #4]
5000905c:	e5933008 	ldr	r3, [r3, #8]
50009060:	e58d3008 	str	r3, [sp, #8]
50009064:	e59d3008 	ldr	r3, [sp, #8]
50009068:	e3a02000 	mov	r2, #0
5000906c:	e5832028 	str	r2, [r3, #40]	; 0x28
50009070:	e28dd018 	add	sp, sp, #24
50009074:	e12fff1e 	bx	lr

50009078 <OSMboxAccept>:
50009078:	e52de004 	push	{lr}		; (str lr, [sp, #-4]!)
5000907c:	e24dd014 	sub	sp, sp, #20
50009080:	e58d0004 	str	r0, [sp, #4]
50009084:	e3a03000 	mov	r3, #0
50009088:	e58d300c 	str	r3, [sp, #12]
5000908c:	e59d3004 	ldr	r3, [sp, #4]
50009090:	e5d33000 	ldrb	r3, [r3]
50009094:	e3530001 	cmp	r3, #1
50009098:	0a000001 	beq	500090a4 <OSMboxAccept+0x2c>
5000909c:	e3a03000 	mov	r3, #0
500090a0:	ea00000a 	b	500090d0 <OSMboxAccept+0x58>
500090a4:	ebffed1e 	bl	50004524 <OS_CPU_SR_Save>
500090a8:	e58d000c 	str	r0, [sp, #12]
500090ac:	e59d3004 	ldr	r3, [sp, #4]
500090b0:	e5933004 	ldr	r3, [r3, #4]
500090b4:	e58d3008 	str	r3, [sp, #8]
500090b8:	e59d3004 	ldr	r3, [sp, #4]
500090bc:	e3a02000 	mov	r2, #0
500090c0:	e5832004 	str	r2, [r3, #4]
500090c4:	e59d000c 	ldr	r0, [sp, #12]
500090c8:	ebffed1d 	bl	50004544 <OS_CPU_SR_Restore>
500090cc:	e59d3008 	ldr	r3, [sp, #8]
500090d0:	e1a00003 	mov	r0, r3
500090d4:	e28dd014 	add	sp, sp, #20
500090d8:	e49de004 	pop	{lr}		; (ldr lr, [sp], #4)
500090dc:	e12fff1e 	bx	lr

500090e0 <OSMboxCreate>:
500090e0:	e52de004 	push	{lr}		; (str lr, [sp, #-4]!)
500090e4:	e24dd014 	sub	sp, sp, #20
500090e8:	e58d0004 	str	r0, [sp, #4]
500090ec:	e3a03000 	mov	r3, #0
500090f0:	e58d300c 	str	r3, [sp, #12]
500090f4:	e59f30a8 	ldr	r3, [pc, #168]	; 500091a4 <OSMboxCreate+0xc4>
500090f8:	e5d33000 	ldrb	r3, [r3]
500090fc:	e3530000 	cmp	r3, #0
50009100:	0a000001 	beq	5000910c <OSMboxCreate+0x2c>
50009104:	e3a03000 	mov	r3, #0
50009108:	ea000021 	b	50009194 <OSMboxCreate+0xb4>
5000910c:	ebffed04 	bl	50004524 <OS_CPU_SR_Save>
50009110:	e58d000c 	str	r0, [sp, #12]
50009114:	e59f308c 	ldr	r3, [pc, #140]	; 500091a8 <OSMboxCreate+0xc8>
50009118:	e5933000 	ldr	r3, [r3]
5000911c:	e58d3008 	str	r3, [sp, #8]
50009120:	e59f3080 	ldr	r3, [pc, #128]	; 500091a8 <OSMboxCreate+0xc8>
50009124:	e5933000 	ldr	r3, [r3]
50009128:	e3530000 	cmp	r3, #0
5000912c:	0a000004 	beq	50009144 <OSMboxCreate+0x64>
50009130:	e59f3070 	ldr	r3, [pc, #112]	; 500091a8 <OSMboxCreate+0xc8>
50009134:	e5933000 	ldr	r3, [r3]
50009138:	e5932004 	ldr	r2, [r3, #4]
5000913c:	e59f3064 	ldr	r3, [pc, #100]	; 500091a8 <OSMboxCreate+0xc8>
50009140:	e5832000 	str	r2, [r3]
50009144:	e59d000c 	ldr	r0, [sp, #12]
50009148:	ebffecfd 	bl	50004544 <OS_CPU_SR_Restore>
5000914c:	e59d3008 	ldr	r3, [sp, #8]
50009150:	e3530000 	cmp	r3, #0
50009154:	0a00000d 	beq	50009190 <OSMboxCreate+0xb0>
50009158:	e59d3008 	ldr	r3, [sp, #8]
5000915c:	e3a02001 	mov	r2, #1
50009160:	e5c32000 	strb	r2, [r3]
50009164:	e59d3008 	ldr	r3, [sp, #8]
50009168:	e3a02000 	mov	r2, #0
5000916c:	e1c320b8 	strh	r2, [r3, #8]
50009170:	e59d3008 	ldr	r3, [sp, #8]
50009174:	e59d2004 	ldr	r2, [sp, #4]
50009178:	e5832004 	str	r2, [r3, #4]
5000917c:	e59d3008 	ldr	r3, [sp, #8]
50009180:	e59f2024 	ldr	r2, [pc, #36]	; 500091ac <OSMboxCreate+0xcc>
50009184:	e5832014 	str	r2, [r3, #20]
50009188:	e59d0008 	ldr	r0, [sp, #8]
5000918c:	ebfff7a3 	bl	50007020 <OS_EventWaitListInit>
50009190:	e59d3008 	ldr	r3, [sp, #8]
50009194:	e1a00003 	mov	r0, r3
50009198:	e28dd014 	add	sp, sp, #20
5000919c:	e49de004 	pop	{lr}		; (ldr lr, [sp], #4)
500091a0:	e12fff1e 	bx	lr
500091a4:	50012178 	andpl	r2, r1, r8, ror r1
500091a8:	50012174 	andpl	r2, r1, r4, ror r1
500091ac:	50010cb4 			; <UNDEFINED> instruction: 0x50010cb4

500091b0 <OSMboxDel>:
500091b0:	e52de004 	push	{lr}		; (str lr, [sp, #-4]!)
500091b4:	e24dd024 	sub	sp, sp, #36	; 0x24
500091b8:	e58d000c 	str	r0, [sp, #12]
500091bc:	e1a03001 	mov	r3, r1
500091c0:	e58d2004 	str	r2, [sp, #4]
500091c4:	e5cd300b 	strb	r3, [sp, #11]
500091c8:	e3a03000 	mov	r3, #0
500091cc:	e58d3014 	str	r3, [sp, #20]
500091d0:	e59d300c 	ldr	r3, [sp, #12]
500091d4:	e5d33000 	ldrb	r3, [r3]
500091d8:	e3530001 	cmp	r3, #1
500091dc:	0a000004 	beq	500091f4 <OSMboxDel+0x44>
500091e0:	e59d3004 	ldr	r3, [sp, #4]
500091e4:	e3a02001 	mov	r2, #1
500091e8:	e5c32000 	strb	r2, [r3]
500091ec:	e59d300c 	ldr	r3, [sp, #12]
500091f0:	ea00006c 	b	500093a8 <OSMboxDel+0x1f8>
500091f4:	e59f31bc 	ldr	r3, [pc, #444]	; 500093b8 <OSMboxDel+0x208>
500091f8:	e5d33000 	ldrb	r3, [r3]
500091fc:	e3530000 	cmp	r3, #0
50009200:	0a000004 	beq	50009218 <OSMboxDel+0x68>
50009204:	e59d3004 	ldr	r3, [sp, #4]
50009208:	e3a0200f 	mov	r2, #15
5000920c:	e5c32000 	strb	r2, [r3]
50009210:	e59d300c 	ldr	r3, [sp, #12]
50009214:	ea000063 	b	500093a8 <OSMboxDel+0x1f8>
50009218:	ebffecc1 	bl	50004524 <OS_CPU_SR_Save>
5000921c:	e58d0014 	str	r0, [sp, #20]
50009220:	e59d300c 	ldr	r3, [sp, #12]
50009224:	e5d3300a 	ldrb	r3, [r3, #10]
50009228:	e3530000 	cmp	r3, #0
5000922c:	0a000002 	beq	5000923c <OSMboxDel+0x8c>
50009230:	e3a03001 	mov	r3, #1
50009234:	e5cd301f 	strb	r3, [sp, #31]
50009238:	ea000001 	b	50009244 <OSMboxDel+0x94>
5000923c:	e3a03000 	mov	r3, #0
50009240:	e5cd301f 	strb	r3, [sp, #31]
50009244:	e5dd300b 	ldrb	r3, [sp, #11]
50009248:	e3530000 	cmp	r3, #0
5000924c:	0a000002 	beq	5000925c <OSMboxDel+0xac>
50009250:	e3530001 	cmp	r3, #1
50009254:	0a000029 	beq	50009300 <OSMboxDel+0x150>
50009258:	ea000049 	b	50009384 <OSMboxDel+0x1d4>
5000925c:	e5dd301f 	ldrb	r3, [sp, #31]
50009260:	e3530000 	cmp	r3, #0
50009264:	1a000017 	bne	500092c8 <OSMboxDel+0x118>
50009268:	e59d300c 	ldr	r3, [sp, #12]
5000926c:	e59f2148 	ldr	r2, [pc, #328]	; 500093bc <OSMboxDel+0x20c>
50009270:	e5832014 	str	r2, [r3, #20]
50009274:	e59d300c 	ldr	r3, [sp, #12]
50009278:	e3a02000 	mov	r2, #0
5000927c:	e5c32000 	strb	r2, [r3]
50009280:	e59f3138 	ldr	r3, [pc, #312]	; 500093c0 <OSMboxDel+0x210>
50009284:	e5932000 	ldr	r2, [r3]
50009288:	e59d300c 	ldr	r3, [sp, #12]
5000928c:	e5832004 	str	r2, [r3, #4]
50009290:	e59d300c 	ldr	r3, [sp, #12]
50009294:	e3a02000 	mov	r2, #0
50009298:	e1c320b8 	strh	r2, [r3, #8]
5000929c:	e59f311c 	ldr	r3, [pc, #284]	; 500093c0 <OSMboxDel+0x210>
500092a0:	e59d200c 	ldr	r2, [sp, #12]
500092a4:	e5832000 	str	r2, [r3]
500092a8:	e59d0014 	ldr	r0, [sp, #20]
500092ac:	ebffeca4 	bl	50004544 <OS_CPU_SR_Restore>
500092b0:	e59d3004 	ldr	r3, [sp, #4]
500092b4:	e3a02000 	mov	r2, #0
500092b8:	e5c32000 	strb	r2, [r3]
500092bc:	e3a03000 	mov	r3, #0
500092c0:	e58d3018 	str	r3, [sp, #24]
500092c4:	ea000036 	b	500093a4 <OSMboxDel+0x1f4>
500092c8:	e59d0014 	ldr	r0, [sp, #20]
500092cc:	ebffec9c 	bl	50004544 <OS_CPU_SR_Restore>
500092d0:	e59d3004 	ldr	r3, [sp, #4]
500092d4:	e3a02049 	mov	r2, #73	; 0x49
500092d8:	e5c32000 	strb	r2, [r3]
500092dc:	e59d300c 	ldr	r3, [sp, #12]
500092e0:	e58d3018 	str	r3, [sp, #24]
500092e4:	ea00002e 	b	500093a4 <OSMboxDel+0x1f4>
500092e8:	e59d000c 	ldr	r0, [sp, #12]
500092ec:	e3a01000 	mov	r1, #0
500092f0:	e3a02002 	mov	r2, #2
500092f4:	e3a03000 	mov	r3, #0
500092f8:	ebfff5d3 	bl	50006a4c <OS_EventTaskRdy>
500092fc:	ea000000 	b	50009304 <OSMboxDel+0x154>
50009300:	e1a00000 	nop			; (mov r0, r0)
50009304:	e59d300c 	ldr	r3, [sp, #12]
50009308:	e5d3300a 	ldrb	r3, [r3, #10]
5000930c:	e3530000 	cmp	r3, #0
50009310:	1afffff4 	bne	500092e8 <OSMboxDel+0x138>
50009314:	e59d300c 	ldr	r3, [sp, #12]
50009318:	e59f209c 	ldr	r2, [pc, #156]	; 500093bc <OSMboxDel+0x20c>
5000931c:	e5832014 	str	r2, [r3, #20]
50009320:	e59d300c 	ldr	r3, [sp, #12]
50009324:	e3a02000 	mov	r2, #0
50009328:	e5c32000 	strb	r2, [r3]
5000932c:	e59f308c 	ldr	r3, [pc, #140]	; 500093c0 <OSMboxDel+0x210>
50009330:	e5932000 	ldr	r2, [r3]
50009334:	e59d300c 	ldr	r3, [sp, #12]
50009338:	e5832004 	str	r2, [r3, #4]
5000933c:	e59d300c 	ldr	r3, [sp, #12]
50009340:	e3a02000 	mov	r2, #0
50009344:	e1c320b8 	strh	r2, [r3, #8]
50009348:	e59f3070 	ldr	r3, [pc, #112]	; 500093c0 <OSMboxDel+0x210>
5000934c:	e59d200c 	ldr	r2, [sp, #12]
50009350:	e5832000 	str	r2, [r3]
50009354:	e59d0014 	ldr	r0, [sp, #20]
50009358:	ebffec79 	bl	50004544 <OS_CPU_SR_Restore>
5000935c:	e5dd301f 	ldrb	r3, [sp, #31]
50009360:	e3530001 	cmp	r3, #1
50009364:	1a000000 	bne	5000936c <OSMboxDel+0x1bc>
50009368:	ebfff885 	bl	50007584 <OS_Sched>
5000936c:	e59d3004 	ldr	r3, [sp, #4]
50009370:	e3a02000 	mov	r2, #0
50009374:	e5c32000 	strb	r2, [r3]
50009378:	e3a03000 	mov	r3, #0
5000937c:	e58d3018 	str	r3, [sp, #24]
50009380:	ea000007 	b	500093a4 <OSMboxDel+0x1f4>
50009384:	e59d0014 	ldr	r0, [sp, #20]
50009388:	ebffec6d 	bl	50004544 <OS_CPU_SR_Restore>
5000938c:	e59d3004 	ldr	r3, [sp, #4]
50009390:	e3a02007 	mov	r2, #7
50009394:	e5c32000 	strb	r2, [r3]
50009398:	e59d300c 	ldr	r3, [sp, #12]
5000939c:	e58d3018 	str	r3, [sp, #24]
500093a0:	e1a00000 	nop			; (mov r0, r0)
500093a4:	e59d3018 	ldr	r3, [sp, #24]
500093a8:	e1a00003 	mov	r0, r3
500093ac:	e28dd024 	add	sp, sp, #36	; 0x24
500093b0:	e49de004 	pop	{lr}		; (ldr lr, [sp], #4)
500093b4:	e12fff1e 	bx	lr
500093b8:	50012178 	andpl	r2, r1, r8, ror r1
500093bc:	50010cb4 			; <UNDEFINED> instruction: 0x50010cb4
500093c0:	50012174 	andpl	r2, r1, r4, ror r1

500093c4 <OSMboxPend>:
500093c4:	e52de004 	push	{lr}		; (str lr, [sp, #-4]!)
500093c8:	e24dd01c 	sub	sp, sp, #28
500093cc:	e58d000c 	str	r0, [sp, #12]
500093d0:	e58d1008 	str	r1, [sp, #8]
500093d4:	e58d2004 	str	r2, [sp, #4]
500093d8:	e3a03000 	mov	r3, #0
500093dc:	e58d3010 	str	r3, [sp, #16]
500093e0:	e59d300c 	ldr	r3, [sp, #12]
500093e4:	e5d33000 	ldrb	r3, [r3]
500093e8:	e3530001 	cmp	r3, #1
500093ec:	0a000004 	beq	50009404 <OSMboxPend+0x40>
500093f0:	e59d3004 	ldr	r3, [sp, #4]
500093f4:	e3a02001 	mov	r2, #1
500093f8:	e5c32000 	strb	r2, [r3]
500093fc:	e3a03000 	mov	r3, #0
50009400:	ea000072 	b	500095d0 <OSMboxPend+0x20c>
50009404:	e59f31d4 	ldr	r3, [pc, #468]	; 500095e0 <OSMboxPend+0x21c>
50009408:	e5d33000 	ldrb	r3, [r3]
5000940c:	e3530000 	cmp	r3, #0
50009410:	0a000004 	beq	50009428 <OSMboxPend+0x64>
50009414:	e59d3004 	ldr	r3, [sp, #4]
50009418:	e3a02002 	mov	r2, #2
5000941c:	e5c32000 	strb	r2, [r3]
50009420:	e3a03000 	mov	r3, #0
50009424:	ea000069 	b	500095d0 <OSMboxPend+0x20c>
50009428:	e59f31b4 	ldr	r3, [pc, #436]	; 500095e4 <OSMboxPend+0x220>
5000942c:	e5d33000 	ldrb	r3, [r3]
50009430:	e3530000 	cmp	r3, #0
50009434:	0a000004 	beq	5000944c <OSMboxPend+0x88>
50009438:	e59d3004 	ldr	r3, [sp, #4]
5000943c:	e3a0200d 	mov	r2, #13
50009440:	e5c32000 	strb	r2, [r3]
50009444:	e3a03000 	mov	r3, #0
50009448:	ea000060 	b	500095d0 <OSMboxPend+0x20c>
5000944c:	ebffec34 	bl	50004524 <OS_CPU_SR_Save>
50009450:	e58d0010 	str	r0, [sp, #16]
50009454:	e59d300c 	ldr	r3, [sp, #12]
50009458:	e5933004 	ldr	r3, [r3, #4]
5000945c:	e58d3014 	str	r3, [sp, #20]
50009460:	e59d3014 	ldr	r3, [sp, #20]
50009464:	e3530000 	cmp	r3, #0
50009468:	0a000009 	beq	50009494 <OSMboxPend+0xd0>
5000946c:	e59d300c 	ldr	r3, [sp, #12]
50009470:	e3a02000 	mov	r2, #0
50009474:	e5832004 	str	r2, [r3, #4]
50009478:	e59d0010 	ldr	r0, [sp, #16]
5000947c:	ebffec30 	bl	50004544 <OS_CPU_SR_Restore>
50009480:	e59d3004 	ldr	r3, [sp, #4]
50009484:	e3a02000 	mov	r2, #0
50009488:	e5c32000 	strb	r2, [r3]
5000948c:	e59d3014 	ldr	r3, [sp, #20]
50009490:	ea00004e 	b	500095d0 <OSMboxPend+0x20c>
50009494:	e59f314c 	ldr	r3, [pc, #332]	; 500095e8 <OSMboxPend+0x224>
50009498:	e5933000 	ldr	r3, [r3]
5000949c:	e59f2144 	ldr	r2, [pc, #324]	; 500095e8 <OSMboxPend+0x224>
500094a0:	e5922000 	ldr	r2, [r2]
500094a4:	e5d22034 	ldrb	r2, [r2, #52]	; 0x34
500094a8:	e3822002 	orr	r2, r2, #2
500094ac:	e20220ff 	and	r2, r2, #255	; 0xff
500094b0:	e5c32034 	strb	r2, [r3, #52]	; 0x34
500094b4:	e59f312c 	ldr	r3, [pc, #300]	; 500095e8 <OSMboxPend+0x224>
500094b8:	e5933000 	ldr	r3, [r3]
500094bc:	e3a02000 	mov	r2, #0
500094c0:	e5c32035 	strb	r2, [r3, #53]	; 0x35
500094c4:	e59f311c 	ldr	r3, [pc, #284]	; 500095e8 <OSMboxPend+0x224>
500094c8:	e5933000 	ldr	r3, [r3]
500094cc:	e59d2008 	ldr	r2, [sp, #8]
500094d0:	e5832030 	str	r2, [r3, #48]	; 0x30
500094d4:	e59d000c 	ldr	r0, [sp, #12]
500094d8:	ebfff5ba 	bl	50006bc8 <OS_EventTaskWait>
500094dc:	e59d0010 	ldr	r0, [sp, #16]
500094e0:	ebffec17 	bl	50004544 <OS_CPU_SR_Restore>
500094e4:	ebfff826 	bl	50007584 <OS_Sched>
500094e8:	ebffec0d 	bl	50004524 <OS_CPU_SR_Save>
500094ec:	e58d0010 	str	r0, [sp, #16]
500094f0:	e59f30f0 	ldr	r3, [pc, #240]	; 500095e8 <OSMboxPend+0x224>
500094f4:	e5933000 	ldr	r3, [r3]
500094f8:	e5d33035 	ldrb	r3, [r3, #53]	; 0x35
500094fc:	e3530000 	cmp	r3, #0
50009500:	0a000002 	beq	50009510 <OSMboxPend+0x14c>
50009504:	e3530002 	cmp	r3, #2
50009508:	0a000008 	beq	50009530 <OSMboxPend+0x16c>
5000950c:	ea00000d 	b	50009548 <OSMboxPend+0x184>
50009510:	e59f30d0 	ldr	r3, [pc, #208]	; 500095e8 <OSMboxPend+0x224>
50009514:	e5933000 	ldr	r3, [r3]
50009518:	e5933024 	ldr	r3, [r3, #36]	; 0x24
5000951c:	e58d3014 	str	r3, [sp, #20]
50009520:	e59d3004 	ldr	r3, [sp, #4]
50009524:	e3a02000 	mov	r2, #0
50009528:	e5c32000 	strb	r2, [r3]
5000952c:	ea000010 	b	50009574 <OSMboxPend+0x1b0>
50009530:	e3a03000 	mov	r3, #0
50009534:	e58d3014 	str	r3, [sp, #20]
50009538:	e59d3004 	ldr	r3, [sp, #4]
5000953c:	e3a0200e 	mov	r2, #14
50009540:	e5c32000 	strb	r2, [r3]
50009544:	ea00000a 	b	50009574 <OSMboxPend+0x1b0>
50009548:	e59f3098 	ldr	r3, [pc, #152]	; 500095e8 <OSMboxPend+0x224>
5000954c:	e5933000 	ldr	r3, [r3]
50009550:	e1a00003 	mov	r0, r3
50009554:	e59d100c 	ldr	r1, [sp, #12]
50009558:	ebfff645 	bl	50006e74 <OS_EventTaskRemove>
5000955c:	e3a03000 	mov	r3, #0
50009560:	e58d3014 	str	r3, [sp, #20]
50009564:	e59d3004 	ldr	r3, [sp, #4]
50009568:	e3a0200a 	mov	r2, #10
5000956c:	e5c32000 	strb	r2, [r3]
50009570:	e1a00000 	nop			; (mov r0, r0)
50009574:	e59f306c 	ldr	r3, [pc, #108]	; 500095e8 <OSMboxPend+0x224>
50009578:	e5933000 	ldr	r3, [r3]
5000957c:	e3a02000 	mov	r2, #0
50009580:	e5c32034 	strb	r2, [r3, #52]	; 0x34
50009584:	e59f305c 	ldr	r3, [pc, #92]	; 500095e8 <OSMboxPend+0x224>
50009588:	e5933000 	ldr	r3, [r3]
5000958c:	e3a02000 	mov	r2, #0
50009590:	e5c32035 	strb	r2, [r3, #53]	; 0x35
50009594:	e59f304c 	ldr	r3, [pc, #76]	; 500095e8 <OSMboxPend+0x224>
50009598:	e5933000 	ldr	r3, [r3]
5000959c:	e3a02000 	mov	r2, #0
500095a0:	e583201c 	str	r2, [r3, #28]
500095a4:	e59f303c 	ldr	r3, [pc, #60]	; 500095e8 <OSMboxPend+0x224>
500095a8:	e5933000 	ldr	r3, [r3]
500095ac:	e3a02000 	mov	r2, #0
500095b0:	e5832020 	str	r2, [r3, #32]
500095b4:	e59f302c 	ldr	r3, [pc, #44]	; 500095e8 <OSMboxPend+0x224>
500095b8:	e5933000 	ldr	r3, [r3]
500095bc:	e3a02000 	mov	r2, #0
500095c0:	e5832024 	str	r2, [r3, #36]	; 0x24
500095c4:	e59d0010 	ldr	r0, [sp, #16]
500095c8:	ebffebdd 	bl	50004544 <OS_CPU_SR_Restore>
500095cc:	e59d3014 	ldr	r3, [sp, #20]
500095d0:	e1a00003 	mov	r0, r3
500095d4:	e28dd01c 	add	sp, sp, #28
500095d8:	e49de004 	pop	{lr}		; (ldr lr, [sp], #4)
500095dc:	e12fff1e 	bx	lr
500095e0:	50012178 	andpl	r2, r1, r8, ror r1
500095e4:	50011980 	andpl	r1, r1, r0, lsl #19
500095e8:	5001217c 	andpl	r2, r1, ip, ror r1

500095ec <OSMboxPendAbort>:
500095ec:	e52de004 	push	{lr}		; (str lr, [sp, #-4]!)
500095f0:	e24dd01c 	sub	sp, sp, #28
500095f4:	e58d000c 	str	r0, [sp, #12]
500095f8:	e1a03001 	mov	r3, r1
500095fc:	e58d2004 	str	r2, [sp, #4]
50009600:	e5cd300b 	strb	r3, [sp, #11]
50009604:	e3a03000 	mov	r3, #0
50009608:	e58d3010 	str	r3, [sp, #16]
5000960c:	e59d300c 	ldr	r3, [sp, #12]
50009610:	e5d33000 	ldrb	r3, [r3]
50009614:	e3530001 	cmp	r3, #1
50009618:	0a000004 	beq	50009630 <OSMboxPendAbort+0x44>
5000961c:	e59d3004 	ldr	r3, [sp, #4]
50009620:	e3a02001 	mov	r2, #1
50009624:	e5c32000 	strb	r2, [r3]
50009628:	e3a03000 	mov	r3, #0
5000962c:	ea000031 	b	500096f8 <OSMboxPendAbort+0x10c>
50009630:	ebffebbb 	bl	50004524 <OS_CPU_SR_Save>
50009634:	e58d0010 	str	r0, [sp, #16]
50009638:	e59d300c 	ldr	r3, [sp, #12]
5000963c:	e5d3300a 	ldrb	r3, [r3, #10]
50009640:	e3530000 	cmp	r3, #0
50009644:	0a000025 	beq	500096e0 <OSMboxPendAbort+0xf4>
50009648:	e3a03000 	mov	r3, #0
5000964c:	e5cd3017 	strb	r3, [sp, #23]
50009650:	e5dd300b 	ldrb	r3, [sp, #11]
50009654:	e3530001 	cmp	r3, #1
50009658:	0a000009 	beq	50009684 <OSMboxPendAbort+0x98>
5000965c:	ea00000e 	b	5000969c <OSMboxPendAbort+0xb0>
50009660:	e59d000c 	ldr	r0, [sp, #12]
50009664:	e3a01000 	mov	r1, #0
50009668:	e3a02002 	mov	r2, #2
5000966c:	e3a03002 	mov	r3, #2
50009670:	ebfff4f5 	bl	50006a4c <OS_EventTaskRdy>
50009674:	e5dd3017 	ldrb	r3, [sp, #23]
50009678:	e2833001 	add	r3, r3, #1
5000967c:	e5cd3017 	strb	r3, [sp, #23]
50009680:	ea000000 	b	50009688 <OSMboxPendAbort+0x9c>
50009684:	e1a00000 	nop			; (mov r0, r0)
50009688:	e59d300c 	ldr	r3, [sp, #12]
5000968c:	e5d3300a 	ldrb	r3, [r3, #10]
50009690:	e3530000 	cmp	r3, #0
50009694:	1afffff1 	bne	50009660 <OSMboxPendAbort+0x74>
50009698:	ea000008 	b	500096c0 <OSMboxPendAbort+0xd4>
5000969c:	e59d000c 	ldr	r0, [sp, #12]
500096a0:	e3a01000 	mov	r1, #0
500096a4:	e3a02002 	mov	r2, #2
500096a8:	e3a03002 	mov	r3, #2
500096ac:	ebfff4e6 	bl	50006a4c <OS_EventTaskRdy>
500096b0:	e5dd3017 	ldrb	r3, [sp, #23]
500096b4:	e2833001 	add	r3, r3, #1
500096b8:	e5cd3017 	strb	r3, [sp, #23]
500096bc:	e1a00000 	nop			; (mov r0, r0)
500096c0:	e59d0010 	ldr	r0, [sp, #16]
500096c4:	ebffeb9e 	bl	50004544 <OS_CPU_SR_Restore>
500096c8:	ebfff7ad 	bl	50007584 <OS_Sched>
500096cc:	e59d3004 	ldr	r3, [sp, #4]
500096d0:	e3a0200e 	mov	r2, #14
500096d4:	e5c32000 	strb	r2, [r3]
500096d8:	e5dd3017 	ldrb	r3, [sp, #23]
500096dc:	ea000005 	b	500096f8 <OSMboxPendAbort+0x10c>
500096e0:	e59d0010 	ldr	r0, [sp, #16]
500096e4:	ebffeb96 	bl	50004544 <OS_CPU_SR_Restore>
500096e8:	e59d3004 	ldr	r3, [sp, #4]
500096ec:	e3a02000 	mov	r2, #0
500096f0:	e5c32000 	strb	r2, [r3]
500096f4:	e3a03000 	mov	r3, #0
500096f8:	e1a00003 	mov	r0, r3
500096fc:	e28dd01c 	add	sp, sp, #28
50009700:	e49de004 	pop	{lr}		; (ldr lr, [sp], #4)
50009704:	e12fff1e 	bx	lr

50009708 <OSMboxPost>:
50009708:	e52de004 	push	{lr}		; (str lr, [sp, #-4]!)
5000970c:	e24dd014 	sub	sp, sp, #20
50009710:	e58d0004 	str	r0, [sp, #4]
50009714:	e58d1000 	str	r1, [sp]
50009718:	e3a03000 	mov	r3, #0
5000971c:	e58d300c 	str	r3, [sp, #12]
50009720:	e59d3004 	ldr	r3, [sp, #4]
50009724:	e5d33000 	ldrb	r3, [r3]
50009728:	e3530001 	cmp	r3, #1
5000972c:	0a000001 	beq	50009738 <OSMboxPost+0x30>
50009730:	e3a03001 	mov	r3, #1
50009734:	ea00001d 	b	500097b0 <OSMboxPost+0xa8>
50009738:	ebffeb79 	bl	50004524 <OS_CPU_SR_Save>
5000973c:	e58d000c 	str	r0, [sp, #12]
50009740:	e59d3004 	ldr	r3, [sp, #4]
50009744:	e5d3300a 	ldrb	r3, [r3, #10]
50009748:	e3530000 	cmp	r3, #0
5000974c:	0a000009 	beq	50009778 <OSMboxPost+0x70>
50009750:	e59d0004 	ldr	r0, [sp, #4]
50009754:	e59d1000 	ldr	r1, [sp]
50009758:	e3a02002 	mov	r2, #2
5000975c:	e3a03000 	mov	r3, #0
50009760:	ebfff4b9 	bl	50006a4c <OS_EventTaskRdy>
50009764:	e59d000c 	ldr	r0, [sp, #12]
50009768:	ebffeb75 	bl	50004544 <OS_CPU_SR_Restore>
5000976c:	ebfff784 	bl	50007584 <OS_Sched>
50009770:	e3a03000 	mov	r3, #0
50009774:	ea00000d 	b	500097b0 <OSMboxPost+0xa8>
50009778:	e59d3004 	ldr	r3, [sp, #4]
5000977c:	e5933004 	ldr	r3, [r3, #4]
50009780:	e3530000 	cmp	r3, #0
50009784:	0a000003 	beq	50009798 <OSMboxPost+0x90>
50009788:	e59d000c 	ldr	r0, [sp, #12]
5000978c:	ebffeb6c 	bl	50004544 <OS_CPU_SR_Restore>
50009790:	e3a03014 	mov	r3, #20
50009794:	ea000005 	b	500097b0 <OSMboxPost+0xa8>
50009798:	e59d3004 	ldr	r3, [sp, #4]
5000979c:	e59d2000 	ldr	r2, [sp]
500097a0:	e5832004 	str	r2, [r3, #4]
500097a4:	e59d000c 	ldr	r0, [sp, #12]
500097a8:	ebffeb65 	bl	50004544 <OS_CPU_SR_Restore>
500097ac:	e3a03000 	mov	r3, #0
500097b0:	e1a00003 	mov	r0, r3
500097b4:	e28dd014 	add	sp, sp, #20
500097b8:	e49de004 	pop	{lr}		; (ldr lr, [sp], #4)
500097bc:	e12fff1e 	bx	lr

500097c0 <OSMboxPostOpt>:
500097c0:	e52de004 	push	{lr}		; (str lr, [sp, #-4]!)
500097c4:	e24dd01c 	sub	sp, sp, #28
500097c8:	e58d000c 	str	r0, [sp, #12]
500097cc:	e58d1008 	str	r1, [sp, #8]
500097d0:	e1a03002 	mov	r3, r2
500097d4:	e5cd3007 	strb	r3, [sp, #7]
500097d8:	e3a03000 	mov	r3, #0
500097dc:	e58d3014 	str	r3, [sp, #20]
500097e0:	e59d300c 	ldr	r3, [sp, #12]
500097e4:	e5d33000 	ldrb	r3, [r3]
500097e8:	e3530001 	cmp	r3, #1
500097ec:	0a000001 	beq	500097f8 <OSMboxPostOpt+0x38>
500097f0:	e3a03001 	mov	r3, #1
500097f4:	ea000030 	b	500098bc <OSMboxPostOpt+0xfc>
500097f8:	ebffeb49 	bl	50004524 <OS_CPU_SR_Save>
500097fc:	e58d0014 	str	r0, [sp, #20]
50009800:	e59d300c 	ldr	r3, [sp, #12]
50009804:	e5d3300a 	ldrb	r3, [r3, #10]
50009808:	e3530000 	cmp	r3, #0
5000980c:	0a00001c 	beq	50009884 <OSMboxPostOpt+0xc4>
50009810:	e5dd3007 	ldrb	r3, [sp, #7]
50009814:	e2033001 	and	r3, r3, #1
50009818:	e3530000 	cmp	r3, #0
5000981c:	0a00000a 	beq	5000984c <OSMboxPostOpt+0x8c>
50009820:	ea000004 	b	50009838 <OSMboxPostOpt+0x78>
50009824:	e59d000c 	ldr	r0, [sp, #12]
50009828:	e59d1008 	ldr	r1, [sp, #8]
5000982c:	e3a02002 	mov	r2, #2
50009830:	e3a03000 	mov	r3, #0
50009834:	ebfff484 	bl	50006a4c <OS_EventTaskRdy>
50009838:	e59d300c 	ldr	r3, [sp, #12]
5000983c:	e5d3300a 	ldrb	r3, [r3, #10]
50009840:	e3530000 	cmp	r3, #0
50009844:	1afffff6 	bne	50009824 <OSMboxPostOpt+0x64>
50009848:	ea000004 	b	50009860 <OSMboxPostOpt+0xa0>
5000984c:	e59d000c 	ldr	r0, [sp, #12]
50009850:	e59d1008 	ldr	r1, [sp, #8]
50009854:	e3a02002 	mov	r2, #2
50009858:	e3a03000 	mov	r3, #0
5000985c:	ebfff47a 	bl	50006a4c <OS_EventTaskRdy>
50009860:	e59d0014 	ldr	r0, [sp, #20]
50009864:	ebffeb36 	bl	50004544 <OS_CPU_SR_Restore>
50009868:	e5dd3007 	ldrb	r3, [sp, #7]
5000986c:	e2033004 	and	r3, r3, #4
50009870:	e3530000 	cmp	r3, #0
50009874:	1a000000 	bne	5000987c <OSMboxPostOpt+0xbc>
50009878:	ebfff741 	bl	50007584 <OS_Sched>
5000987c:	e3a03000 	mov	r3, #0
50009880:	ea00000d 	b	500098bc <OSMboxPostOpt+0xfc>
50009884:	e59d300c 	ldr	r3, [sp, #12]
50009888:	e5933004 	ldr	r3, [r3, #4]
5000988c:	e3530000 	cmp	r3, #0
50009890:	0a000003 	beq	500098a4 <OSMboxPostOpt+0xe4>
50009894:	e59d0014 	ldr	r0, [sp, #20]
50009898:	ebffeb29 	bl	50004544 <OS_CPU_SR_Restore>
5000989c:	e3a03014 	mov	r3, #20
500098a0:	ea000005 	b	500098bc <OSMboxPostOpt+0xfc>
500098a4:	e59d300c 	ldr	r3, [sp, #12]
500098a8:	e59d2008 	ldr	r2, [sp, #8]
500098ac:	e5832004 	str	r2, [r3, #4]
500098b0:	e59d0014 	ldr	r0, [sp, #20]
500098b4:	ebffeb22 	bl	50004544 <OS_CPU_SR_Restore>
500098b8:	e3a03000 	mov	r3, #0
500098bc:	e1a00003 	mov	r0, r3
500098c0:	e28dd01c 	add	sp, sp, #28
500098c4:	e49de004 	pop	{lr}		; (ldr lr, [sp], #4)
500098c8:	e12fff1e 	bx	lr

500098cc <OSMboxQuery>:
500098cc:	e52de004 	push	{lr}		; (str lr, [sp, #-4]!)
500098d0:	e24dd01c 	sub	sp, sp, #28
500098d4:	e58d0004 	str	r0, [sp, #4]
500098d8:	e58d1000 	str	r1, [sp]
500098dc:	e3a03000 	mov	r3, #0
500098e0:	e58d3008 	str	r3, [sp, #8]
500098e4:	e59d3004 	ldr	r3, [sp, #4]
500098e8:	e5d33000 	ldrb	r3, [r3]
500098ec:	e3530001 	cmp	r3, #1
500098f0:	0a000001 	beq	500098fc <OSMboxQuery+0x30>
500098f4:	e3a03001 	mov	r3, #1
500098f8:	ea000023 	b	5000998c <OSMboxQuery+0xc0>
500098fc:	ebffeb08 	bl	50004524 <OS_CPU_SR_Save>
50009900:	e58d0008 	str	r0, [sp, #8]
50009904:	e59d3004 	ldr	r3, [sp, #4]
50009908:	e5d3200a 	ldrb	r2, [r3, #10]
5000990c:	e59d3000 	ldr	r3, [sp]
50009910:	e5c3200c 	strb	r2, [r3, #12]
50009914:	e59d3004 	ldr	r3, [sp, #4]
50009918:	e283300b 	add	r3, r3, #11
5000991c:	e58d3010 	str	r3, [sp, #16]
50009920:	e59d3000 	ldr	r3, [sp]
50009924:	e2833004 	add	r3, r3, #4
50009928:	e58d300c 	str	r3, [sp, #12]
5000992c:	e3a03000 	mov	r3, #0
50009930:	e5cd3017 	strb	r3, [sp, #23]
50009934:	ea00000a 	b	50009964 <OSMboxQuery+0x98>
50009938:	e59d300c 	ldr	r3, [sp, #12]
5000993c:	e2832001 	add	r2, r3, #1
50009940:	e58d200c 	str	r2, [sp, #12]
50009944:	e59d2010 	ldr	r2, [sp, #16]
50009948:	e2821001 	add	r1, r2, #1
5000994c:	e58d1010 	str	r1, [sp, #16]
50009950:	e5d22000 	ldrb	r2, [r2]
50009954:	e5c32000 	strb	r2, [r3]
50009958:	e5dd3017 	ldrb	r3, [sp, #23]
5000995c:	e2833001 	add	r3, r3, #1
50009960:	e5cd3017 	strb	r3, [sp, #23]
50009964:	e5dd3017 	ldrb	r3, [sp, #23]
50009968:	e3530007 	cmp	r3, #7
5000996c:	9afffff1 	bls	50009938 <OSMboxQuery+0x6c>
50009970:	e59d3004 	ldr	r3, [sp, #4]
50009974:	e5932004 	ldr	r2, [r3, #4]
50009978:	e59d3000 	ldr	r3, [sp]
5000997c:	e5832000 	str	r2, [r3]
50009980:	e59d0008 	ldr	r0, [sp, #8]
50009984:	ebffeaee 	bl	50004544 <OS_CPU_SR_Restore>
50009988:	e3a03000 	mov	r3, #0
5000998c:	e1a00003 	mov	r0, r3
50009990:	e28dd01c 	add	sp, sp, #28
50009994:	e49de004 	pop	{lr}		; (ldr lr, [sp], #4)
50009998:	e12fff1e 	bx	lr

5000999c <OSMemCreate>:
5000999c:	e52de004 	push	{lr}		; (str lr, [sp, #-4]!)
500099a0:	e24dd02c 	sub	sp, sp, #44	; 0x2c
500099a4:	e58d000c 	str	r0, [sp, #12]
500099a8:	e58d1008 	str	r1, [sp, #8]
500099ac:	e58d2004 	str	r2, [sp, #4]
500099b0:	e58d3000 	str	r3, [sp]
500099b4:	e3a03000 	mov	r3, #0
500099b8:	e58d3018 	str	r3, [sp, #24]
500099bc:	ebffead8 	bl	50004524 <OS_CPU_SR_Save>
500099c0:	e58d0018 	str	r0, [sp, #24]
500099c4:	e59f3120 	ldr	r3, [pc, #288]	; 50009aec <OSMemCreate+0x150>
500099c8:	e5933000 	ldr	r3, [r3]
500099cc:	e58d3014 	str	r3, [sp, #20]
500099d0:	e59f3114 	ldr	r3, [pc, #276]	; 50009aec <OSMemCreate+0x150>
500099d4:	e5933000 	ldr	r3, [r3]
500099d8:	e3530000 	cmp	r3, #0
500099dc:	0a000004 	beq	500099f4 <OSMemCreate+0x58>
500099e0:	e59f3104 	ldr	r3, [pc, #260]	; 50009aec <OSMemCreate+0x150>
500099e4:	e5933000 	ldr	r3, [r3]
500099e8:	e5932004 	ldr	r2, [r3, #4]
500099ec:	e59f30f8 	ldr	r3, [pc, #248]	; 50009aec <OSMemCreate+0x150>
500099f0:	e5832000 	str	r2, [r3]
500099f4:	e59d0018 	ldr	r0, [sp, #24]
500099f8:	ebffead1 	bl	50004544 <OS_CPU_SR_Restore>
500099fc:	e59d3014 	ldr	r3, [sp, #20]
50009a00:	e3530000 	cmp	r3, #0
50009a04:	1a000004 	bne	50009a1c <OSMemCreate+0x80>
50009a08:	e59d3000 	ldr	r3, [sp]
50009a0c:	e3a0205a 	mov	r2, #90	; 0x5a
50009a10:	e5c32000 	strb	r2, [r3]
50009a14:	e3a03000 	mov	r3, #0
50009a18:	ea00002f 	b	50009adc <OSMemCreate+0x140>
50009a1c:	e59d300c 	ldr	r3, [sp, #12]
50009a20:	e58d3020 	str	r3, [sp, #32]
50009a24:	e59d300c 	ldr	r3, [sp, #12]
50009a28:	e58d3024 	str	r3, [sp, #36]	; 0x24
50009a2c:	e59d3008 	ldr	r3, [sp, #8]
50009a30:	e2433001 	sub	r3, r3, #1
50009a34:	e58d3010 	str	r3, [sp, #16]
50009a38:	e3a03000 	mov	r3, #0
50009a3c:	e58d301c 	str	r3, [sp, #28]
50009a40:	ea00000b 	b	50009a74 <OSMemCreate+0xd8>
50009a44:	e59d2024 	ldr	r2, [sp, #36]	; 0x24
50009a48:	e59d3004 	ldr	r3, [sp, #4]
50009a4c:	e0823003 	add	r3, r2, r3
50009a50:	e58d3024 	str	r3, [sp, #36]	; 0x24
50009a54:	e59d3020 	ldr	r3, [sp, #32]
50009a58:	e59d2024 	ldr	r2, [sp, #36]	; 0x24
50009a5c:	e5832000 	str	r2, [r3]
50009a60:	e59d3024 	ldr	r3, [sp, #36]	; 0x24
50009a64:	e58d3020 	str	r3, [sp, #32]
50009a68:	e59d301c 	ldr	r3, [sp, #28]
50009a6c:	e2833001 	add	r3, r3, #1
50009a70:	e58d301c 	str	r3, [sp, #28]
50009a74:	e59d201c 	ldr	r2, [sp, #28]
50009a78:	e59d3010 	ldr	r3, [sp, #16]
50009a7c:	e1520003 	cmp	r2, r3
50009a80:	3affffef 	bcc	50009a44 <OSMemCreate+0xa8>
50009a84:	e59d3020 	ldr	r3, [sp, #32]
50009a88:	e3a02000 	mov	r2, #0
50009a8c:	e5832000 	str	r2, [r3]
50009a90:	e59d3014 	ldr	r3, [sp, #20]
50009a94:	e59d200c 	ldr	r2, [sp, #12]
50009a98:	e5832000 	str	r2, [r3]
50009a9c:	e59d3014 	ldr	r3, [sp, #20]
50009aa0:	e59d200c 	ldr	r2, [sp, #12]
50009aa4:	e5832004 	str	r2, [r3, #4]
50009aa8:	e59d3014 	ldr	r3, [sp, #20]
50009aac:	e59d2008 	ldr	r2, [sp, #8]
50009ab0:	e5832010 	str	r2, [r3, #16]
50009ab4:	e59d3014 	ldr	r3, [sp, #20]
50009ab8:	e59d2008 	ldr	r2, [sp, #8]
50009abc:	e583200c 	str	r2, [r3, #12]
50009ac0:	e59d3014 	ldr	r3, [sp, #20]
50009ac4:	e59d2004 	ldr	r2, [sp, #4]
50009ac8:	e5832008 	str	r2, [r3, #8]
50009acc:	e59d3000 	ldr	r3, [sp]
50009ad0:	e3a02000 	mov	r2, #0
50009ad4:	e5c32000 	strb	r2, [r3]
50009ad8:	e59d3014 	ldr	r3, [sp, #20]
50009adc:	e1a00003 	mov	r0, r3
50009ae0:	e28dd02c 	add	sp, sp, #44	; 0x2c
50009ae4:	e49de004 	pop	{lr}		; (ldr lr, [sp], #4)
50009ae8:	e12fff1e 	bx	lr
50009aec:	50011efc 	strdpl	r1, [r1], -ip

50009af0 <OSMemGet>:
50009af0:	e52de004 	push	{lr}		; (str lr, [sp, #-4]!)
50009af4:	e24dd014 	sub	sp, sp, #20
50009af8:	e58d0004 	str	r0, [sp, #4]
50009afc:	e58d1000 	str	r1, [sp]
50009b00:	e3a03000 	mov	r3, #0
50009b04:	e58d300c 	str	r3, [sp, #12]
50009b08:	ebffea85 	bl	50004524 <OS_CPU_SR_Save>
50009b0c:	e58d000c 	str	r0, [sp, #12]
50009b10:	e59d3004 	ldr	r3, [sp, #4]
50009b14:	e5933010 	ldr	r3, [r3, #16]
50009b18:	e3530000 	cmp	r3, #0
50009b1c:	0a000012 	beq	50009b6c <OSMemGet+0x7c>
50009b20:	e59d3004 	ldr	r3, [sp, #4]
50009b24:	e5933004 	ldr	r3, [r3, #4]
50009b28:	e58d3008 	str	r3, [sp, #8]
50009b2c:	e59d3008 	ldr	r3, [sp, #8]
50009b30:	e5932000 	ldr	r2, [r3]
50009b34:	e59d3004 	ldr	r3, [sp, #4]
50009b38:	e5832004 	str	r2, [r3, #4]
50009b3c:	e59d3004 	ldr	r3, [sp, #4]
50009b40:	e5933010 	ldr	r3, [r3, #16]
50009b44:	e2432001 	sub	r2, r3, #1
50009b48:	e59d3004 	ldr	r3, [sp, #4]
50009b4c:	e5832010 	str	r2, [r3, #16]
50009b50:	e59d000c 	ldr	r0, [sp, #12]
50009b54:	ebffea7a 	bl	50004544 <OS_CPU_SR_Restore>
50009b58:	e59d3000 	ldr	r3, [sp]
50009b5c:	e3a02000 	mov	r2, #0
50009b60:	e5c32000 	strb	r2, [r3]
50009b64:	e59d3008 	ldr	r3, [sp, #8]
50009b68:	ea000005 	b	50009b84 <OSMemGet+0x94>
50009b6c:	e59d000c 	ldr	r0, [sp, #12]
50009b70:	ebffea73 	bl	50004544 <OS_CPU_SR_Restore>
50009b74:	e59d3000 	ldr	r3, [sp]
50009b78:	e3a0205d 	mov	r2, #93	; 0x5d
50009b7c:	e5c32000 	strb	r2, [r3]
50009b80:	e3a03000 	mov	r3, #0
50009b84:	e1a00003 	mov	r0, r3
50009b88:	e28dd014 	add	sp, sp, #20
50009b8c:	e49de004 	pop	{lr}		; (ldr lr, [sp], #4)
50009b90:	e12fff1e 	bx	lr

50009b94 <OSMemNameGet>:
50009b94:	e52de004 	push	{lr}		; (str lr, [sp, #-4]!)
50009b98:	e24dd01c 	sub	sp, sp, #28
50009b9c:	e58d000c 	str	r0, [sp, #12]
50009ba0:	e58d1008 	str	r1, [sp, #8]
50009ba4:	e58d2004 	str	r2, [sp, #4]
50009ba8:	e3a03000 	mov	r3, #0
50009bac:	e58d3014 	str	r3, [sp, #20]
50009bb0:	e59f3074 	ldr	r3, [pc, #116]	; 50009c2c <OSMemNameGet+0x98>
50009bb4:	e5d33000 	ldrb	r3, [r3]
50009bb8:	e3530000 	cmp	r3, #0
50009bbc:	0a000004 	beq	50009bd4 <OSMemNameGet+0x40>
50009bc0:	e59d3004 	ldr	r3, [sp, #4]
50009bc4:	e3a02011 	mov	r2, #17
50009bc8:	e5c32000 	strb	r2, [r3]
50009bcc:	e3a03000 	mov	r3, #0
50009bd0:	ea000011 	b	50009c1c <OSMemNameGet+0x88>
50009bd4:	ebffea52 	bl	50004524 <OS_CPU_SR_Save>
50009bd8:	e58d0014 	str	r0, [sp, #20]
50009bdc:	e59d300c 	ldr	r3, [sp, #12]
50009be0:	e5932014 	ldr	r2, [r3, #20]
50009be4:	e59d3008 	ldr	r3, [sp, #8]
50009be8:	e5832000 	str	r2, [r3]
50009bec:	e59d3008 	ldr	r3, [sp, #8]
50009bf0:	e5933000 	ldr	r3, [r3]
50009bf4:	e1a00003 	mov	r0, r3
50009bf8:	ebfff6ac 	bl	500076b0 <OS_StrLen>
50009bfc:	e1a03000 	mov	r3, r0
50009c00:	e5cd3013 	strb	r3, [sp, #19]
50009c04:	e59d0014 	ldr	r0, [sp, #20]
50009c08:	ebffea4d 	bl	50004544 <OS_CPU_SR_Restore>
50009c0c:	e59d3004 	ldr	r3, [sp, #4]
50009c10:	e3a02000 	mov	r2, #0
50009c14:	e5c32000 	strb	r2, [r3]
50009c18:	e5dd3013 	ldrb	r3, [sp, #19]
50009c1c:	e1a00003 	mov	r0, r3
50009c20:	e28dd01c 	add	sp, sp, #28
50009c24:	e49de004 	pop	{lr}		; (ldr lr, [sp], #4)
50009c28:	e12fff1e 	bx	lr
50009c2c:	50012178 	andpl	r2, r1, r8, ror r1

50009c30 <OSMemNameSet>:
50009c30:	e52de004 	push	{lr}		; (str lr, [sp, #-4]!)
50009c34:	e24dd01c 	sub	sp, sp, #28
50009c38:	e58d000c 	str	r0, [sp, #12]
50009c3c:	e58d1008 	str	r1, [sp, #8]
50009c40:	e58d2004 	str	r2, [sp, #4]
50009c44:	e3a03000 	mov	r3, #0
50009c48:	e58d3014 	str	r3, [sp, #20]
50009c4c:	e59f304c 	ldr	r3, [pc, #76]	; 50009ca0 <OSMemNameSet+0x70>
50009c50:	e5d33000 	ldrb	r3, [r3]
50009c54:	e3530000 	cmp	r3, #0
50009c58:	0a000003 	beq	50009c6c <OSMemNameSet+0x3c>
50009c5c:	e59d3004 	ldr	r3, [sp, #4]
50009c60:	e3a02012 	mov	r2, #18
50009c64:	e5c32000 	strb	r2, [r3]
50009c68:	ea000009 	b	50009c94 <OSMemNameSet+0x64>
50009c6c:	ebffea2c 	bl	50004524 <OS_CPU_SR_Save>
50009c70:	e58d0014 	str	r0, [sp, #20]
50009c74:	e59d300c 	ldr	r3, [sp, #12]
50009c78:	e59d2008 	ldr	r2, [sp, #8]
50009c7c:	e5832014 	str	r2, [r3, #20]
50009c80:	e59d0014 	ldr	r0, [sp, #20]
50009c84:	ebffea2e 	bl	50004544 <OS_CPU_SR_Restore>
50009c88:	e59d3004 	ldr	r3, [sp, #4]
50009c8c:	e3a02000 	mov	r2, #0
50009c90:	e5c32000 	strb	r2, [r3]
50009c94:	e28dd01c 	add	sp, sp, #28
50009c98:	e49de004 	pop	{lr}		; (ldr lr, [sp], #4)
50009c9c:	e12fff1e 	bx	lr
50009ca0:	50012178 	andpl	r2, r1, r8, ror r1

50009ca4 <OSMemPut>:
50009ca4:	e52de004 	push	{lr}		; (str lr, [sp, #-4]!)
50009ca8:	e24dd014 	sub	sp, sp, #20
50009cac:	e58d0004 	str	r0, [sp, #4]
50009cb0:	e58d1000 	str	r1, [sp]
50009cb4:	e3a03000 	mov	r3, #0
50009cb8:	e58d300c 	str	r3, [sp, #12]
50009cbc:	ebffea18 	bl	50004524 <OS_CPU_SR_Save>
50009cc0:	e58d000c 	str	r0, [sp, #12]
50009cc4:	e59d3004 	ldr	r3, [sp, #4]
50009cc8:	e5932010 	ldr	r2, [r3, #16]
50009ccc:	e59d3004 	ldr	r3, [sp, #4]
50009cd0:	e593300c 	ldr	r3, [r3, #12]
50009cd4:	e1520003 	cmp	r2, r3
50009cd8:	3a000003 	bcc	50009cec <OSMemPut+0x48>
50009cdc:	e59d000c 	ldr	r0, [sp, #12]
50009ce0:	ebffea17 	bl	50004544 <OS_CPU_SR_Restore>
50009ce4:	e3a0305e 	mov	r3, #94	; 0x5e
50009ce8:	ea00000e 	b	50009d28 <OSMemPut+0x84>
50009cec:	e59d3004 	ldr	r3, [sp, #4]
50009cf0:	e5932004 	ldr	r2, [r3, #4]
50009cf4:	e59d3000 	ldr	r3, [sp]
50009cf8:	e5832000 	str	r2, [r3]
50009cfc:	e59d3004 	ldr	r3, [sp, #4]
50009d00:	e59d2000 	ldr	r2, [sp]
50009d04:	e5832004 	str	r2, [r3, #4]
50009d08:	e59d3004 	ldr	r3, [sp, #4]
50009d0c:	e5933010 	ldr	r3, [r3, #16]
50009d10:	e2832001 	add	r2, r3, #1
50009d14:	e59d3004 	ldr	r3, [sp, #4]
50009d18:	e5832010 	str	r2, [r3, #16]
50009d1c:	e59d000c 	ldr	r0, [sp, #12]
50009d20:	ebffea07 	bl	50004544 <OS_CPU_SR_Restore>
50009d24:	e3a03000 	mov	r3, #0
50009d28:	e1a00003 	mov	r0, r3
50009d2c:	e28dd014 	add	sp, sp, #20
50009d30:	e49de004 	pop	{lr}		; (ldr lr, [sp], #4)
50009d34:	e12fff1e 	bx	lr

50009d38 <OSMemQuery>:
50009d38:	e52de004 	push	{lr}		; (str lr, [sp, #-4]!)
50009d3c:	e24dd014 	sub	sp, sp, #20
50009d40:	e58d0004 	str	r0, [sp, #4]
50009d44:	e58d1000 	str	r1, [sp]
50009d48:	e3a03000 	mov	r3, #0
50009d4c:	e58d300c 	str	r3, [sp, #12]
50009d50:	ebffe9f3 	bl	50004524 <OS_CPU_SR_Save>
50009d54:	e58d000c 	str	r0, [sp, #12]
50009d58:	e59d3004 	ldr	r3, [sp, #4]
50009d5c:	e5932000 	ldr	r2, [r3]
50009d60:	e59d3000 	ldr	r3, [sp]
50009d64:	e5832000 	str	r2, [r3]
50009d68:	e59d3004 	ldr	r3, [sp, #4]
50009d6c:	e5932004 	ldr	r2, [r3, #4]
50009d70:	e59d3000 	ldr	r3, [sp]
50009d74:	e5832004 	str	r2, [r3, #4]
50009d78:	e59d3004 	ldr	r3, [sp, #4]
50009d7c:	e5932008 	ldr	r2, [r3, #8]
50009d80:	e59d3000 	ldr	r3, [sp]
50009d84:	e5832008 	str	r2, [r3, #8]
50009d88:	e59d3004 	ldr	r3, [sp, #4]
50009d8c:	e593200c 	ldr	r2, [r3, #12]
50009d90:	e59d3000 	ldr	r3, [sp]
50009d94:	e583200c 	str	r2, [r3, #12]
50009d98:	e59d3004 	ldr	r3, [sp, #4]
50009d9c:	e5932010 	ldr	r2, [r3, #16]
50009da0:	e59d3000 	ldr	r3, [sp]
50009da4:	e5832010 	str	r2, [r3, #16]
50009da8:	e59d000c 	ldr	r0, [sp, #12]
50009dac:	ebffe9e4 	bl	50004544 <OS_CPU_SR_Restore>
50009db0:	e59d3000 	ldr	r3, [sp]
50009db4:	e593200c 	ldr	r2, [r3, #12]
50009db8:	e59d3000 	ldr	r3, [sp]
50009dbc:	e5933010 	ldr	r3, [r3, #16]
50009dc0:	e0632002 	rsb	r2, r3, r2
50009dc4:	e59d3000 	ldr	r3, [sp]
50009dc8:	e5832014 	str	r2, [r3, #20]
50009dcc:	e3a03000 	mov	r3, #0
50009dd0:	e1a00003 	mov	r0, r3
50009dd4:	e28dd014 	add	sp, sp, #20
50009dd8:	e49de004 	pop	{lr}		; (ldr lr, [sp], #4)
50009ddc:	e12fff1e 	bx	lr

50009de0 <OS_MemInit>:
50009de0:	e52de004 	push	{lr}		; (str lr, [sp, #-4]!)
50009de4:	e24dd00c 	sub	sp, sp, #12
50009de8:	e59f00cc 	ldr	r0, [pc, #204]	; 50009ebc <OS_MemInit+0xdc>
50009dec:	e3a01078 	mov	r1, #120	; 0x78
50009df0:	ebfff5bb 	bl	500074e4 <OS_MemClr>
50009df4:	e3a03000 	mov	r3, #0
50009df8:	e1cd30b6 	strh	r3, [sp, #6]
50009dfc:	ea000017 	b	50009e60 <OS_MemInit+0x80>
50009e00:	e1dd20b6 	ldrh	r2, [sp, #6]
50009e04:	e1a03002 	mov	r3, r2
50009e08:	e1a03083 	lsl	r3, r3, #1
50009e0c:	e0833002 	add	r3, r3, r2
50009e10:	e1a03183 	lsl	r3, r3, #3
50009e14:	e59f20a0 	ldr	r2, [pc, #160]	; 50009ebc <OS_MemInit+0xdc>
50009e18:	e0833002 	add	r3, r3, r2
50009e1c:	e58d3000 	str	r3, [sp]
50009e20:	e1dd30b6 	ldrh	r3, [sp, #6]
50009e24:	e2832001 	add	r2, r3, #1
50009e28:	e1a03002 	mov	r3, r2
50009e2c:	e1a03083 	lsl	r3, r3, #1
50009e30:	e0833002 	add	r3, r3, r2
50009e34:	e1a03183 	lsl	r3, r3, #3
50009e38:	e59f207c 	ldr	r2, [pc, #124]	; 50009ebc <OS_MemInit+0xdc>
50009e3c:	e0832002 	add	r2, r3, r2
50009e40:	e59d3000 	ldr	r3, [sp]
50009e44:	e5832004 	str	r2, [r3, #4]
50009e48:	e59d3000 	ldr	r3, [sp]
50009e4c:	e59f206c 	ldr	r2, [pc, #108]	; 50009ec0 <OS_MemInit+0xe0>
50009e50:	e5832014 	str	r2, [r3, #20]
50009e54:	e1dd30b6 	ldrh	r3, [sp, #6]
50009e58:	e2833001 	add	r3, r3, #1
50009e5c:	e1cd30b6 	strh	r3, [sp, #6]
50009e60:	e1dd30b6 	ldrh	r3, [sp, #6]
50009e64:	e3530003 	cmp	r3, #3
50009e68:	9affffe4 	bls	50009e00 <OS_MemInit+0x20>
50009e6c:	e1dd20b6 	ldrh	r2, [sp, #6]
50009e70:	e1a03002 	mov	r3, r2
50009e74:	e1a03083 	lsl	r3, r3, #1
50009e78:	e0833002 	add	r3, r3, r2
50009e7c:	e1a03183 	lsl	r3, r3, #3
50009e80:	e59f2034 	ldr	r2, [pc, #52]	; 50009ebc <OS_MemInit+0xdc>
50009e84:	e0833002 	add	r3, r3, r2
50009e88:	e58d3000 	str	r3, [sp]
50009e8c:	e59d3000 	ldr	r3, [sp]
50009e90:	e3a02000 	mov	r2, #0
50009e94:	e5832004 	str	r2, [r3, #4]
50009e98:	e59d3000 	ldr	r3, [sp]
50009e9c:	e59f201c 	ldr	r2, [pc, #28]	; 50009ec0 <OS_MemInit+0xe0>
50009ea0:	e5832014 	str	r2, [r3, #20]
50009ea4:	e59f3018 	ldr	r3, [pc, #24]	; 50009ec4 <OS_MemInit+0xe4>
50009ea8:	e59f200c 	ldr	r2, [pc, #12]	; 50009ebc <OS_MemInit+0xdc>
50009eac:	e5832000 	str	r2, [r3]
50009eb0:	e28dd00c 	add	sp, sp, #12
50009eb4:	e49de004 	pop	{lr}		; (ldr lr, [sp], #4)
50009eb8:	e12fff1e 	bx	lr
50009ebc:	50011c6c 	andpl	r1, r1, ip, ror #24
50009ec0:	50010cb4 			; <UNDEFINED> instruction: 0x50010cb4
50009ec4:	50011efc 	strdpl	r1, [r1], -ip

50009ec8 <OSMutexAccept>:
50009ec8:	e52de004 	push	{lr}		; (str lr, [sp, #-4]!)
50009ecc:	e24dd014 	sub	sp, sp, #20
50009ed0:	e58d0004 	str	r0, [sp, #4]
50009ed4:	e58d1000 	str	r1, [sp]
50009ed8:	e3a03000 	mov	r3, #0
50009edc:	e58d300c 	str	r3, [sp, #12]
50009ee0:	e59d3004 	ldr	r3, [sp, #4]
50009ee4:	e5d33000 	ldrb	r3, [r3]
50009ee8:	e3530004 	cmp	r3, #4
50009eec:	0a000004 	beq	50009f04 <OSMutexAccept+0x3c>
50009ef0:	e59d3000 	ldr	r3, [sp]
50009ef4:	e3a02001 	mov	r2, #1
50009ef8:	e5c32000 	strb	r2, [r3]
50009efc:	e3a03000 	mov	r3, #0
50009f00:	ea000043 	b	5000a014 <OSMutexAccept+0x14c>
50009f04:	e59f3118 	ldr	r3, [pc, #280]	; 5000a024 <OSMutexAccept+0x15c>
50009f08:	e5d33000 	ldrb	r3, [r3]
50009f0c:	e3530000 	cmp	r3, #0
50009f10:	0a000004 	beq	50009f28 <OSMutexAccept+0x60>
50009f14:	e59d3000 	ldr	r3, [sp]
50009f18:	e3a02002 	mov	r2, #2
50009f1c:	e5c32000 	strb	r2, [r3]
50009f20:	e3a03000 	mov	r3, #0
50009f24:	ea00003a 	b	5000a014 <OSMutexAccept+0x14c>
50009f28:	ebffe97d 	bl	50004524 <OS_CPU_SR_Save>
50009f2c:	e58d000c 	str	r0, [sp, #12]
50009f30:	e59d3004 	ldr	r3, [sp, #4]
50009f34:	e1d330b8 	ldrh	r3, [r3, #8]
50009f38:	e1a03423 	lsr	r3, r3, #8
50009f3c:	e1a03803 	lsl	r3, r3, #16
50009f40:	e1a03823 	lsr	r3, r3, #16
50009f44:	e5cd300b 	strb	r3, [sp, #11]
50009f48:	e59d3004 	ldr	r3, [sp, #4]
50009f4c:	e1d330b8 	ldrh	r3, [r3, #8]
50009f50:	e20330ff 	and	r3, r3, #255	; 0xff
50009f54:	e35300ff 	cmp	r3, #255	; 0xff
50009f58:	1a000027 	bne	50009ffc <OSMutexAccept+0x134>
50009f5c:	e59d3004 	ldr	r3, [sp, #4]
50009f60:	e1d330b8 	ldrh	r3, [r3, #8]
50009f64:	e3c330ff 	bic	r3, r3, #255	; 0xff
50009f68:	e1a03803 	lsl	r3, r3, #16
50009f6c:	e1a02823 	lsr	r2, r3, #16
50009f70:	e59d3004 	ldr	r3, [sp, #4]
50009f74:	e1c320b8 	strh	r2, [r3, #8]
50009f78:	e59d3004 	ldr	r3, [sp, #4]
50009f7c:	e1d320b8 	ldrh	r2, [r3, #8]
50009f80:	e59f30a0 	ldr	r3, [pc, #160]	; 5000a028 <OSMutexAccept+0x160>
50009f84:	e5933000 	ldr	r3, [r3]
50009f88:	e5d33036 	ldrb	r3, [r3, #54]	; 0x36
50009f8c:	e1823003 	orr	r3, r2, r3
50009f90:	e1a03803 	lsl	r3, r3, #16
50009f94:	e1a02823 	lsr	r2, r3, #16
50009f98:	e59d3004 	ldr	r3, [sp, #4]
50009f9c:	e1c320b8 	strh	r2, [r3, #8]
50009fa0:	e59f3080 	ldr	r3, [pc, #128]	; 5000a028 <OSMutexAccept+0x160>
50009fa4:	e5932000 	ldr	r2, [r3]
50009fa8:	e59d3004 	ldr	r3, [sp, #4]
50009fac:	e5832004 	str	r2, [r3, #4]
50009fb0:	e59f3070 	ldr	r3, [pc, #112]	; 5000a028 <OSMutexAccept+0x160>
50009fb4:	e5933000 	ldr	r3, [r3]
50009fb8:	e5d33036 	ldrb	r3, [r3, #54]	; 0x36
50009fbc:	e5dd200b 	ldrb	r2, [sp, #11]
50009fc0:	e1520003 	cmp	r2, r3
50009fc4:	3a000005 	bcc	50009fe0 <OSMutexAccept+0x118>
50009fc8:	e59d000c 	ldr	r0, [sp, #12]
50009fcc:	ebffe95c 	bl	50004544 <OS_CPU_SR_Restore>
50009fd0:	e59d3000 	ldr	r3, [sp]
50009fd4:	e3a02078 	mov	r2, #120	; 0x78
50009fd8:	e5c32000 	strb	r2, [r3]
50009fdc:	ea000004 	b	50009ff4 <OSMutexAccept+0x12c>
50009fe0:	e59d000c 	ldr	r0, [sp, #12]
50009fe4:	ebffe956 	bl	50004544 <OS_CPU_SR_Restore>
50009fe8:	e59d3000 	ldr	r3, [sp]
50009fec:	e3a02000 	mov	r2, #0
50009ff0:	e5c32000 	strb	r2, [r3]
50009ff4:	e3a03001 	mov	r3, #1
50009ff8:	ea000005 	b	5000a014 <OSMutexAccept+0x14c>
50009ffc:	e59d000c 	ldr	r0, [sp, #12]
5000a000:	ebffe94f 	bl	50004544 <OS_CPU_SR_Restore>
5000a004:	e59d3000 	ldr	r3, [sp]
5000a008:	e3a02000 	mov	r2, #0
5000a00c:	e5c32000 	strb	r2, [r3]
5000a010:	e3a03000 	mov	r3, #0
5000a014:	e1a00003 	mov	r0, r3
5000a018:	e28dd014 	add	sp, sp, #20
5000a01c:	e49de004 	pop	{lr}		; (ldr lr, [sp], #4)
5000a020:	e12fff1e 	bx	lr
5000a024:	50012178 	andpl	r2, r1, r8, ror r1
5000a028:	5001217c 	andpl	r2, r1, ip, ror r1

5000a02c <OSMutexCreate>:
5000a02c:	e52de004 	push	{lr}		; (str lr, [sp, #-4]!)
5000a030:	e24dd014 	sub	sp, sp, #20
5000a034:	e1a03000 	mov	r3, r0
5000a038:	e58d1000 	str	r1, [sp]
5000a03c:	e5cd3007 	strb	r3, [sp, #7]
5000a040:	e3a03000 	mov	r3, #0
5000a044:	e58d300c 	str	r3, [sp, #12]
5000a048:	e59f313c 	ldr	r3, [pc, #316]	; 5000a18c <OSMutexCreate+0x160>
5000a04c:	e5d33000 	ldrb	r3, [r3]
5000a050:	e3530000 	cmp	r3, #0
5000a054:	0a000004 	beq	5000a06c <OSMutexCreate+0x40>
5000a058:	e59d3000 	ldr	r3, [sp]
5000a05c:	e3a02010 	mov	r2, #16
5000a060:	e5c32000 	strb	r2, [r3]
5000a064:	e3a03000 	mov	r3, #0
5000a068:	ea000043 	b	5000a17c <OSMutexCreate+0x150>
5000a06c:	ebffe92c 	bl	50004524 <OS_CPU_SR_Save>
5000a070:	e58d000c 	str	r0, [sp, #12]
5000a074:	e5dd2007 	ldrb	r2, [sp, #7]
5000a078:	e59f3110 	ldr	r3, [pc, #272]	; 5000a190 <OSMutexCreate+0x164>
5000a07c:	e7933102 	ldr	r3, [r3, r2, lsl #2]
5000a080:	e3530000 	cmp	r3, #0
5000a084:	0a000006 	beq	5000a0a4 <OSMutexCreate+0x78>
5000a088:	e59d000c 	ldr	r0, [sp, #12]
5000a08c:	ebffe92c 	bl	50004544 <OS_CPU_SR_Restore>
5000a090:	e59d3000 	ldr	r3, [sp]
5000a094:	e3a02028 	mov	r2, #40	; 0x28
5000a098:	e5c32000 	strb	r2, [r3]
5000a09c:	e3a03000 	mov	r3, #0
5000a0a0:	ea000035 	b	5000a17c <OSMutexCreate+0x150>
5000a0a4:	e5dd2007 	ldrb	r2, [sp, #7]
5000a0a8:	e59f30e0 	ldr	r3, [pc, #224]	; 5000a190 <OSMutexCreate+0x164>
5000a0ac:	e3a01001 	mov	r1, #1
5000a0b0:	e7831102 	str	r1, [r3, r2, lsl #2]
5000a0b4:	e59f30d8 	ldr	r3, [pc, #216]	; 5000a194 <OSMutexCreate+0x168>
5000a0b8:	e5933000 	ldr	r3, [r3]
5000a0bc:	e58d3008 	str	r3, [sp, #8]
5000a0c0:	e59d3008 	ldr	r3, [sp, #8]
5000a0c4:	e3530000 	cmp	r3, #0
5000a0c8:	1a00000a 	bne	5000a0f8 <OSMutexCreate+0xcc>
5000a0cc:	e5dd2007 	ldrb	r2, [sp, #7]
5000a0d0:	e59f30b8 	ldr	r3, [pc, #184]	; 5000a190 <OSMutexCreate+0x164>
5000a0d4:	e3a01000 	mov	r1, #0
5000a0d8:	e7831102 	str	r1, [r3, r2, lsl #2]
5000a0dc:	e59d000c 	ldr	r0, [sp, #12]
5000a0e0:	ebffe917 	bl	50004544 <OS_CPU_SR_Restore>
5000a0e4:	e59d3000 	ldr	r3, [sp]
5000a0e8:	e3a02004 	mov	r2, #4
5000a0ec:	e5c32000 	strb	r2, [r3]
5000a0f0:	e59d3008 	ldr	r3, [sp, #8]
5000a0f4:	ea000020 	b	5000a17c <OSMutexCreate+0x150>
5000a0f8:	e59f3094 	ldr	r3, [pc, #148]	; 5000a194 <OSMutexCreate+0x168>
5000a0fc:	e5933000 	ldr	r3, [r3]
5000a100:	e5932004 	ldr	r2, [r3, #4]
5000a104:	e59f3088 	ldr	r3, [pc, #136]	; 5000a194 <OSMutexCreate+0x168>
5000a108:	e5832000 	str	r2, [r3]
5000a10c:	e59d000c 	ldr	r0, [sp, #12]
5000a110:	ebffe90b 	bl	50004544 <OS_CPU_SR_Restore>
5000a114:	e59d3008 	ldr	r3, [sp, #8]
5000a118:	e3a02004 	mov	r2, #4
5000a11c:	e5c32000 	strb	r2, [r3]
5000a120:	e5dd3007 	ldrb	r3, [sp, #7]
5000a124:	e1a03803 	lsl	r3, r3, #16
5000a128:	e1a03823 	lsr	r3, r3, #16
5000a12c:	e1a03403 	lsl	r3, r3, #8
5000a130:	e1a03803 	lsl	r3, r3, #16
5000a134:	e1a03823 	lsr	r3, r3, #16
5000a138:	e38330ff 	orr	r3, r3, #255	; 0xff
5000a13c:	e1a03803 	lsl	r3, r3, #16
5000a140:	e1a02823 	lsr	r2, r3, #16
5000a144:	e59d3008 	ldr	r3, [sp, #8]
5000a148:	e1c320b8 	strh	r2, [r3, #8]
5000a14c:	e59d3008 	ldr	r3, [sp, #8]
5000a150:	e3a02000 	mov	r2, #0
5000a154:	e5832004 	str	r2, [r3, #4]
5000a158:	e59d3008 	ldr	r3, [sp, #8]
5000a15c:	e59f2034 	ldr	r2, [pc, #52]	; 5000a198 <OSMutexCreate+0x16c>
5000a160:	e5832014 	str	r2, [r3, #20]
5000a164:	e59d0008 	ldr	r0, [sp, #8]
5000a168:	ebfff3ac 	bl	50007020 <OS_EventWaitListInit>
5000a16c:	e59d3000 	ldr	r3, [sp]
5000a170:	e3a02000 	mov	r2, #0
5000a174:	e5c32000 	strb	r2, [r3]
5000a178:	e59d3008 	ldr	r3, [sp, #8]
5000a17c:	e1a00003 	mov	r0, r3
5000a180:	e28dd014 	add	sp, sp, #20
5000a184:	e49de004 	pop	{lr}		; (ldr lr, [sp], #4)
5000a188:	e12fff1e 	bx	lr
5000a18c:	50012178 	andpl	r2, r1, r8, ror r1
5000a190:	50012c14 	andpl	r2, r1, r4, lsl ip
5000a194:	50012174 	andpl	r2, r1, r4, ror r1
5000a198:	50010cb4 			; <UNDEFINED> instruction: 0x50010cb4

5000a19c <OSMutexDel>:
5000a19c:	e52de004 	push	{lr}		; (str lr, [sp, #-4]!)
5000a1a0:	e24dd02c 	sub	sp, sp, #44	; 0x2c
5000a1a4:	e58d000c 	str	r0, [sp, #12]
5000a1a8:	e1a03001 	mov	r3, r1
5000a1ac:	e58d2004 	str	r2, [sp, #4]
5000a1b0:	e5cd300b 	strb	r3, [sp, #11]
5000a1b4:	e3a03000 	mov	r3, #0
5000a1b8:	e58d301c 	str	r3, [sp, #28]
5000a1bc:	e59d300c 	ldr	r3, [sp, #12]
5000a1c0:	e5d33000 	ldrb	r3, [r3]
5000a1c4:	e3530004 	cmp	r3, #4
5000a1c8:	0a000004 	beq	5000a1e0 <OSMutexDel+0x44>
5000a1cc:	e59d3004 	ldr	r3, [sp, #4]
5000a1d0:	e3a02001 	mov	r2, #1
5000a1d4:	e5c32000 	strb	r2, [r3]
5000a1d8:	e59d300c 	ldr	r3, [sp, #12]
5000a1dc:	ea000098 	b	5000a444 <OSMutexDel+0x2a8>
5000a1e0:	e59f326c 	ldr	r3, [pc, #620]	; 5000a454 <OSMutexDel+0x2b8>
5000a1e4:	e5d33000 	ldrb	r3, [r3]
5000a1e8:	e3530000 	cmp	r3, #0
5000a1ec:	0a000004 	beq	5000a204 <OSMutexDel+0x68>
5000a1f0:	e59d3004 	ldr	r3, [sp, #4]
5000a1f4:	e3a0200f 	mov	r2, #15
5000a1f8:	e5c32000 	strb	r2, [r3]
5000a1fc:	e59d300c 	ldr	r3, [sp, #12]
5000a200:	ea00008f 	b	5000a444 <OSMutexDel+0x2a8>
5000a204:	ebffe8c6 	bl	50004524 <OS_CPU_SR_Save>
5000a208:	e58d001c 	str	r0, [sp, #28]
5000a20c:	e59d300c 	ldr	r3, [sp, #12]
5000a210:	e5d3300a 	ldrb	r3, [r3, #10]
5000a214:	e3530000 	cmp	r3, #0
5000a218:	0a000002 	beq	5000a228 <OSMutexDel+0x8c>
5000a21c:	e3a03001 	mov	r3, #1
5000a220:	e5cd3027 	strb	r3, [sp, #39]	; 0x27
5000a224:	ea000001 	b	5000a230 <OSMutexDel+0x94>
5000a228:	e3a03000 	mov	r3, #0
5000a22c:	e5cd3027 	strb	r3, [sp, #39]	; 0x27
5000a230:	e5dd300b 	ldrb	r3, [sp, #11]
5000a234:	e3530000 	cmp	r3, #0
5000a238:	0a000002 	beq	5000a248 <OSMutexDel+0xac>
5000a23c:	e3530001 	cmp	r3, #1
5000a240:	0a00002d 	beq	5000a2fc <OSMutexDel+0x160>
5000a244:	ea000075 	b	5000a420 <OSMutexDel+0x284>
5000a248:	e5dd3027 	ldrb	r3, [sp, #39]	; 0x27
5000a24c:	e3530000 	cmp	r3, #0
5000a250:	1a000021 	bne	5000a2dc <OSMutexDel+0x140>
5000a254:	e59d300c 	ldr	r3, [sp, #12]
5000a258:	e59f21f8 	ldr	r2, [pc, #504]	; 5000a458 <OSMutexDel+0x2bc>
5000a25c:	e5832014 	str	r2, [r3, #20]
5000a260:	e59d300c 	ldr	r3, [sp, #12]
5000a264:	e1d330b8 	ldrh	r3, [r3, #8]
5000a268:	e1a03423 	lsr	r3, r3, #8
5000a26c:	e1a03803 	lsl	r3, r3, #16
5000a270:	e1a03823 	lsr	r3, r3, #16
5000a274:	e5cd301b 	strb	r3, [sp, #27]
5000a278:	e5dd201b 	ldrb	r2, [sp, #27]
5000a27c:	e59f31d8 	ldr	r3, [pc, #472]	; 5000a45c <OSMutexDel+0x2c0>
5000a280:	e3a01000 	mov	r1, #0
5000a284:	e7831102 	str	r1, [r3, r2, lsl #2]
5000a288:	e59d300c 	ldr	r3, [sp, #12]
5000a28c:	e3a02000 	mov	r2, #0
5000a290:	e5c32000 	strb	r2, [r3]
5000a294:	e59f31c4 	ldr	r3, [pc, #452]	; 5000a460 <OSMutexDel+0x2c4>
5000a298:	e5932000 	ldr	r2, [r3]
5000a29c:	e59d300c 	ldr	r3, [sp, #12]
5000a2a0:	e5832004 	str	r2, [r3, #4]
5000a2a4:	e59d300c 	ldr	r3, [sp, #12]
5000a2a8:	e3a02000 	mov	r2, #0
5000a2ac:	e1c320b8 	strh	r2, [r3, #8]
5000a2b0:	e59f31a8 	ldr	r3, [pc, #424]	; 5000a460 <OSMutexDel+0x2c4>
5000a2b4:	e59d200c 	ldr	r2, [sp, #12]
5000a2b8:	e5832000 	str	r2, [r3]
5000a2bc:	e59d001c 	ldr	r0, [sp, #28]
5000a2c0:	ebffe89f 	bl	50004544 <OS_CPU_SR_Restore>
5000a2c4:	e59d3004 	ldr	r3, [sp, #4]
5000a2c8:	e3a02000 	mov	r2, #0
5000a2cc:	e5c32000 	strb	r2, [r3]
5000a2d0:	e3a03000 	mov	r3, #0
5000a2d4:	e58d3020 	str	r3, [sp, #32]
5000a2d8:	ea000058 	b	5000a440 <OSMutexDel+0x2a4>
5000a2dc:	e59d001c 	ldr	r0, [sp, #28]
5000a2e0:	ebffe897 	bl	50004544 <OS_CPU_SR_Restore>
5000a2e4:	e59d3004 	ldr	r3, [sp, #4]
5000a2e8:	e3a02049 	mov	r2, #73	; 0x49
5000a2ec:	e5c32000 	strb	r2, [r3]
5000a2f0:	e59d300c 	ldr	r3, [sp, #12]
5000a2f4:	e58d3020 	str	r3, [sp, #32]
5000a2f8:	ea000050 	b	5000a440 <OSMutexDel+0x2a4>
5000a2fc:	e59d300c 	ldr	r3, [sp, #12]
5000a300:	e1d330b8 	ldrh	r3, [r3, #8]
5000a304:	e1a03423 	lsr	r3, r3, #8
5000a308:	e1a03803 	lsl	r3, r3, #16
5000a30c:	e1a03823 	lsr	r3, r3, #16
5000a310:	e5cd301b 	strb	r3, [sp, #27]
5000a314:	e59d300c 	ldr	r3, [sp, #12]
5000a318:	e1d330b8 	ldrh	r3, [r3, #8]
5000a31c:	e5cd301a 	strb	r3, [sp, #26]
5000a320:	e59d300c 	ldr	r3, [sp, #12]
5000a324:	e5933004 	ldr	r3, [r3, #4]
5000a328:	e58d3014 	str	r3, [sp, #20]
5000a32c:	e59d3014 	ldr	r3, [sp, #20]
5000a330:	e3530000 	cmp	r3, #0
5000a334:	0a000009 	beq	5000a360 <OSMutexDel+0x1c4>
5000a338:	e59d3014 	ldr	r3, [sp, #20]
5000a33c:	e5d33036 	ldrb	r3, [r3, #54]	; 0x36
5000a340:	e5dd201b 	ldrb	r2, [sp, #27]
5000a344:	e1520003 	cmp	r2, r3
5000a348:	1a000004 	bne	5000a360 <OSMutexDel+0x1c4>
5000a34c:	e5dd301a 	ldrb	r3, [sp, #26]
5000a350:	e59d0014 	ldr	r0, [sp, #20]
5000a354:	e1a01003 	mov	r1, r3
5000a358:	eb00026b 	bl	5000ad0c <OSMutex_RdyAtPrio>
5000a35c:	ea000005 	b	5000a378 <OSMutexDel+0x1dc>
5000a360:	ea000004 	b	5000a378 <OSMutexDel+0x1dc>
5000a364:	e59d000c 	ldr	r0, [sp, #12]
5000a368:	e3a01000 	mov	r1, #0
5000a36c:	e3a02010 	mov	r2, #16
5000a370:	e3a03000 	mov	r3, #0
5000a374:	ebfff1b4 	bl	50006a4c <OS_EventTaskRdy>
5000a378:	e59d300c 	ldr	r3, [sp, #12]
5000a37c:	e5d3300a 	ldrb	r3, [r3, #10]
5000a380:	e3530000 	cmp	r3, #0
5000a384:	1afffff6 	bne	5000a364 <OSMutexDel+0x1c8>
5000a388:	e59d300c 	ldr	r3, [sp, #12]
5000a38c:	e59f20c4 	ldr	r2, [pc, #196]	; 5000a458 <OSMutexDel+0x2bc>
5000a390:	e5832014 	str	r2, [r3, #20]
5000a394:	e59d300c 	ldr	r3, [sp, #12]
5000a398:	e1d330b8 	ldrh	r3, [r3, #8]
5000a39c:	e1a03423 	lsr	r3, r3, #8
5000a3a0:	e1a03803 	lsl	r3, r3, #16
5000a3a4:	e1a03823 	lsr	r3, r3, #16
5000a3a8:	e5cd301b 	strb	r3, [sp, #27]
5000a3ac:	e5dd201b 	ldrb	r2, [sp, #27]
5000a3b0:	e59f30a4 	ldr	r3, [pc, #164]	; 5000a45c <OSMutexDel+0x2c0>
5000a3b4:	e3a01000 	mov	r1, #0
5000a3b8:	e7831102 	str	r1, [r3, r2, lsl #2]
5000a3bc:	e59d300c 	ldr	r3, [sp, #12]
5000a3c0:	e3a02000 	mov	r2, #0
5000a3c4:	e5c32000 	strb	r2, [r3]
5000a3c8:	e59f3090 	ldr	r3, [pc, #144]	; 5000a460 <OSMutexDel+0x2c4>
5000a3cc:	e5932000 	ldr	r2, [r3]
5000a3d0:	e59d300c 	ldr	r3, [sp, #12]
5000a3d4:	e5832004 	str	r2, [r3, #4]
5000a3d8:	e59d300c 	ldr	r3, [sp, #12]
5000a3dc:	e3a02000 	mov	r2, #0
5000a3e0:	e1c320b8 	strh	r2, [r3, #8]
5000a3e4:	e59f3074 	ldr	r3, [pc, #116]	; 5000a460 <OSMutexDel+0x2c4>
5000a3e8:	e59d200c 	ldr	r2, [sp, #12]
5000a3ec:	e5832000 	str	r2, [r3]
5000a3f0:	e59d001c 	ldr	r0, [sp, #28]
5000a3f4:	ebffe852 	bl	50004544 <OS_CPU_SR_Restore>
5000a3f8:	e5dd3027 	ldrb	r3, [sp, #39]	; 0x27
5000a3fc:	e3530001 	cmp	r3, #1
5000a400:	1a000000 	bne	5000a408 <OSMutexDel+0x26c>
5000a404:	ebfff45e 	bl	50007584 <OS_Sched>
5000a408:	e59d3004 	ldr	r3, [sp, #4]
5000a40c:	e3a02000 	mov	r2, #0
5000a410:	e5c32000 	strb	r2, [r3]
5000a414:	e3a03000 	mov	r3, #0
5000a418:	e58d3020 	str	r3, [sp, #32]
5000a41c:	ea000007 	b	5000a440 <OSMutexDel+0x2a4>
5000a420:	e59d001c 	ldr	r0, [sp, #28]
5000a424:	ebffe846 	bl	50004544 <OS_CPU_SR_Restore>
5000a428:	e59d3004 	ldr	r3, [sp, #4]
5000a42c:	e3a02007 	mov	r2, #7
5000a430:	e5c32000 	strb	r2, [r3]
5000a434:	e59d300c 	ldr	r3, [sp, #12]
5000a438:	e58d3020 	str	r3, [sp, #32]
5000a43c:	e1a00000 	nop			; (mov r0, r0)
5000a440:	e59d3020 	ldr	r3, [sp, #32]
5000a444:	e1a00003 	mov	r0, r3
5000a448:	e28dd02c 	add	sp, sp, #44	; 0x2c
5000a44c:	e49de004 	pop	{lr}		; (ldr lr, [sp], #4)
5000a450:	e12fff1e 	bx	lr
5000a454:	50012178 	andpl	r2, r1, r8, ror r1
5000a458:	50010cb4 			; <UNDEFINED> instruction: 0x50010cb4
5000a45c:	50012c14 	andpl	r2, r1, r4, lsl ip
5000a460:	50012174 	andpl	r2, r1, r4, ror r1

5000a464 <OSMutexPend>:
5000a464:	e52de004 	push	{lr}		; (str lr, [sp, #-4]!)
5000a468:	e24dd02c 	sub	sp, sp, #44	; 0x2c
5000a46c:	e58d000c 	str	r0, [sp, #12]
5000a470:	e58d1008 	str	r1, [sp, #8]
5000a474:	e58d2004 	str	r2, [sp, #4]
5000a478:	e3a03000 	mov	r3, #0
5000a47c:	e58d3020 	str	r3, [sp, #32]
5000a480:	e59d300c 	ldr	r3, [sp, #12]
5000a484:	e5d33000 	ldrb	r3, [r3]
5000a488:	e3530004 	cmp	r3, #4
5000a48c:	0a000003 	beq	5000a4a0 <OSMutexPend+0x3c>
5000a490:	e59d3004 	ldr	r3, [sp, #4]
5000a494:	e3a02001 	mov	r2, #1
5000a498:	e5c32000 	strb	r2, [r3]
5000a49c:	ea00014a 	b	5000a9cc <OSMutexPend+0x568>
5000a4a0:	e59f3530 	ldr	r3, [pc, #1328]	; 5000a9d8 <OSMutexPend+0x574>
5000a4a4:	e5d33000 	ldrb	r3, [r3]
5000a4a8:	e3530000 	cmp	r3, #0
5000a4ac:	0a000003 	beq	5000a4c0 <OSMutexPend+0x5c>
5000a4b0:	e59d3004 	ldr	r3, [sp, #4]
5000a4b4:	e3a02002 	mov	r2, #2
5000a4b8:	e5c32000 	strb	r2, [r3]
5000a4bc:	ea000142 	b	5000a9cc <OSMutexPend+0x568>
5000a4c0:	e59f3514 	ldr	r3, [pc, #1300]	; 5000a9dc <OSMutexPend+0x578>
5000a4c4:	e5d33000 	ldrb	r3, [r3]
5000a4c8:	e3530000 	cmp	r3, #0
5000a4cc:	0a000003 	beq	5000a4e0 <OSMutexPend+0x7c>
5000a4d0:	e59d3004 	ldr	r3, [sp, #4]
5000a4d4:	e3a0200d 	mov	r2, #13
5000a4d8:	e5c32000 	strb	r2, [r3]
5000a4dc:	ea00013a 	b	5000a9cc <OSMutexPend+0x568>
5000a4e0:	ebffe80f 	bl	50004524 <OS_CPU_SR_Save>
5000a4e4:	e58d0020 	str	r0, [sp, #32]
5000a4e8:	e59d300c 	ldr	r3, [sp, #12]
5000a4ec:	e1d330b8 	ldrh	r3, [r3, #8]
5000a4f0:	e1a03423 	lsr	r3, r3, #8
5000a4f4:	e1a03803 	lsl	r3, r3, #16
5000a4f8:	e1a03823 	lsr	r3, r3, #16
5000a4fc:	e5cd301f 	strb	r3, [sp, #31]
5000a500:	e59d300c 	ldr	r3, [sp, #12]
5000a504:	e1d330b8 	ldrh	r3, [r3, #8]
5000a508:	e20330ff 	and	r3, r3, #255	; 0xff
5000a50c:	e35300ff 	cmp	r3, #255	; 0xff
5000a510:	1a000026 	bne	5000a5b0 <OSMutexPend+0x14c>
5000a514:	e59d300c 	ldr	r3, [sp, #12]
5000a518:	e1d330b8 	ldrh	r3, [r3, #8]
5000a51c:	e3c330ff 	bic	r3, r3, #255	; 0xff
5000a520:	e1a03803 	lsl	r3, r3, #16
5000a524:	e1a02823 	lsr	r2, r3, #16
5000a528:	e59d300c 	ldr	r3, [sp, #12]
5000a52c:	e1c320b8 	strh	r2, [r3, #8]
5000a530:	e59d300c 	ldr	r3, [sp, #12]
5000a534:	e1d320b8 	ldrh	r2, [r3, #8]
5000a538:	e59f34a0 	ldr	r3, [pc, #1184]	; 5000a9e0 <OSMutexPend+0x57c>
5000a53c:	e5933000 	ldr	r3, [r3]
5000a540:	e5d33036 	ldrb	r3, [r3, #54]	; 0x36
5000a544:	e1823003 	orr	r3, r2, r3
5000a548:	e1a03803 	lsl	r3, r3, #16
5000a54c:	e1a02823 	lsr	r2, r3, #16
5000a550:	e59d300c 	ldr	r3, [sp, #12]
5000a554:	e1c320b8 	strh	r2, [r3, #8]
5000a558:	e59f3480 	ldr	r3, [pc, #1152]	; 5000a9e0 <OSMutexPend+0x57c>
5000a55c:	e5932000 	ldr	r2, [r3]
5000a560:	e59d300c 	ldr	r3, [sp, #12]
5000a564:	e5832004 	str	r2, [r3, #4]
5000a568:	e59f3470 	ldr	r3, [pc, #1136]	; 5000a9e0 <OSMutexPend+0x57c>
5000a56c:	e5933000 	ldr	r3, [r3]
5000a570:	e5d33036 	ldrb	r3, [r3, #54]	; 0x36
5000a574:	e5dd201f 	ldrb	r2, [sp, #31]
5000a578:	e1520003 	cmp	r2, r3
5000a57c:	3a000005 	bcc	5000a598 <OSMutexPend+0x134>
5000a580:	e59d0020 	ldr	r0, [sp, #32]
5000a584:	ebffe7ee 	bl	50004544 <OS_CPU_SR_Restore>
5000a588:	e59d3004 	ldr	r3, [sp, #4]
5000a58c:	e3a02078 	mov	r2, #120	; 0x78
5000a590:	e5c32000 	strb	r2, [r3]
5000a594:	ea00010c 	b	5000a9cc <OSMutexPend+0x568>
5000a598:	e59d0020 	ldr	r0, [sp, #32]
5000a59c:	ebffe7e8 	bl	50004544 <OS_CPU_SR_Restore>
5000a5a0:	e59d3004 	ldr	r3, [sp, #4]
5000a5a4:	e3a02000 	mov	r2, #0
5000a5a8:	e5c32000 	strb	r2, [r3]
5000a5ac:	ea000106 	b	5000a9cc <OSMutexPend+0x568>
5000a5b0:	e59d300c 	ldr	r3, [sp, #12]
5000a5b4:	e1d330b8 	ldrh	r3, [r3, #8]
5000a5b8:	e5cd301e 	strb	r3, [sp, #30]
5000a5bc:	e59d300c 	ldr	r3, [sp, #12]
5000a5c0:	e5933004 	ldr	r3, [r3, #4]
5000a5c4:	e58d3018 	str	r3, [sp, #24]
5000a5c8:	e59d3018 	ldr	r3, [sp, #24]
5000a5cc:	e5d33036 	ldrb	r3, [r3, #54]	; 0x36
5000a5d0:	e5dd201f 	ldrb	r2, [sp, #31]
5000a5d4:	e1520003 	cmp	r2, r3
5000a5d8:	2a0000b9 	bcs	5000a8c4 <OSMutexPend+0x460>
5000a5dc:	e59f33fc 	ldr	r3, [pc, #1020]	; 5000a9e0 <OSMutexPend+0x57c>
5000a5e0:	e5933000 	ldr	r3, [r3]
5000a5e4:	e5d33036 	ldrb	r3, [r3, #54]	; 0x36
5000a5e8:	e5dd201e 	ldrb	r2, [sp, #30]
5000a5ec:	e1520003 	cmp	r2, r3
5000a5f0:	9a0000b3 	bls	5000a8c4 <OSMutexPend+0x460>
5000a5f4:	e59d3018 	ldr	r3, [sp, #24]
5000a5f8:	e5d33038 	ldrb	r3, [r3, #56]	; 0x38
5000a5fc:	e5cd3017 	strb	r3, [sp, #23]
5000a600:	e5dd3017 	ldrb	r3, [sp, #23]
5000a604:	e59f23d8 	ldr	r2, [pc, #984]	; 5000a9e4 <OSMutexPend+0x580>
5000a608:	e7d22003 	ldrb	r2, [r2, r3]
5000a60c:	e59d3018 	ldr	r3, [sp, #24]
5000a610:	e5d33039 	ldrb	r3, [r3, #57]	; 0x39
5000a614:	e0023003 	and	r3, r2, r3
5000a618:	e20330ff 	and	r3, r3, #255	; 0xff
5000a61c:	e3530000 	cmp	r3, #0
5000a620:	0a00001d 	beq	5000a69c <OSMutexPend+0x238>
5000a624:	e5dd3017 	ldrb	r3, [sp, #23]
5000a628:	e5dd2017 	ldrb	r2, [sp, #23]
5000a62c:	e59f13b0 	ldr	r1, [pc, #944]	; 5000a9e4 <OSMutexPend+0x580>
5000a630:	e7d11002 	ldrb	r1, [r1, r2]
5000a634:	e59d2018 	ldr	r2, [sp, #24]
5000a638:	e5d22039 	ldrb	r2, [r2, #57]	; 0x39
5000a63c:	e1e02002 	mvn	r2, r2
5000a640:	e20220ff 	and	r2, r2, #255	; 0xff
5000a644:	e0012002 	and	r2, r1, r2
5000a648:	e20210ff 	and	r1, r2, #255	; 0xff
5000a64c:	e59f2390 	ldr	r2, [pc, #912]	; 5000a9e4 <OSMutexPend+0x580>
5000a650:	e7c21003 	strb	r1, [r2, r3]
5000a654:	e5dd3017 	ldrb	r3, [sp, #23]
5000a658:	e59f2384 	ldr	r2, [pc, #900]	; 5000a9e4 <OSMutexPend+0x580>
5000a65c:	e7d23003 	ldrb	r3, [r2, r3]
5000a660:	e3530000 	cmp	r3, #0
5000a664:	1a000009 	bne	5000a690 <OSMutexPend+0x22c>
5000a668:	e59d3018 	ldr	r3, [sp, #24]
5000a66c:	e5d3303a 	ldrb	r3, [r3, #58]	; 0x3a
5000a670:	e1e03003 	mvn	r3, r3
5000a674:	e20320ff 	and	r2, r3, #255	; 0xff
5000a678:	e59f3368 	ldr	r3, [pc, #872]	; 5000a9e8 <OSMutexPend+0x584>
5000a67c:	e5d33000 	ldrb	r3, [r3]
5000a680:	e0023003 	and	r3, r2, r3
5000a684:	e20320ff 	and	r2, r3, #255	; 0xff
5000a688:	e59f3358 	ldr	r3, [pc, #856]	; 5000a9e8 <OSMutexPend+0x584>
5000a68c:	e5c32000 	strb	r2, [r3]
5000a690:	e3a03001 	mov	r3, #1
5000a694:	e5cd3027 	strb	r3, [sp, #39]	; 0x27
5000a698:	ea00002e 	b	5000a758 <OSMutexPend+0x2f4>
5000a69c:	e59d3018 	ldr	r3, [sp, #24]
5000a6a0:	e593301c 	ldr	r3, [r3, #28]
5000a6a4:	e58d3010 	str	r3, [sp, #16]
5000a6a8:	e59d3010 	ldr	r3, [sp, #16]
5000a6ac:	e3530000 	cmp	r3, #0
5000a6b0:	0a000026 	beq	5000a750 <OSMutexPend+0x2ec>
5000a6b4:	e59d3018 	ldr	r3, [sp, #24]
5000a6b8:	e5d33038 	ldrb	r3, [r3, #56]	; 0x38
5000a6bc:	e5cd3017 	strb	r3, [sp, #23]
5000a6c0:	e5dd1017 	ldrb	r1, [sp, #23]
5000a6c4:	e5dd2017 	ldrb	r2, [sp, #23]
5000a6c8:	e59d0010 	ldr	r0, [sp, #16]
5000a6cc:	e3a03008 	mov	r3, #8
5000a6d0:	e0802002 	add	r2, r0, r2
5000a6d4:	e0823003 	add	r3, r2, r3
5000a6d8:	e5d32003 	ldrb	r2, [r3, #3]
5000a6dc:	e59d3018 	ldr	r3, [sp, #24]
5000a6e0:	e5d33039 	ldrb	r3, [r3, #57]	; 0x39
5000a6e4:	e1e03003 	mvn	r3, r3
5000a6e8:	e20330ff 	and	r3, r3, #255	; 0xff
5000a6ec:	e0023003 	and	r3, r2, r3
5000a6f0:	e20320ff 	and	r2, r3, #255	; 0xff
5000a6f4:	e59d0010 	ldr	r0, [sp, #16]
5000a6f8:	e3a03008 	mov	r3, #8
5000a6fc:	e0801001 	add	r1, r0, r1
5000a700:	e0813003 	add	r3, r1, r3
5000a704:	e5c32003 	strb	r2, [r3, #3]
5000a708:	e5dd2017 	ldrb	r2, [sp, #23]
5000a70c:	e59d1010 	ldr	r1, [sp, #16]
5000a710:	e3a03008 	mov	r3, #8
5000a714:	e0812002 	add	r2, r1, r2
5000a718:	e0823003 	add	r3, r2, r3
5000a71c:	e5d33003 	ldrb	r3, [r3, #3]
5000a720:	e3530000 	cmp	r3, #0
5000a724:	1a000009 	bne	5000a750 <OSMutexPend+0x2ec>
5000a728:	e59d3010 	ldr	r3, [sp, #16]
5000a72c:	e5d3200a 	ldrb	r2, [r3, #10]
5000a730:	e59d3018 	ldr	r3, [sp, #24]
5000a734:	e5d3303a 	ldrb	r3, [r3, #58]	; 0x3a
5000a738:	e1e03003 	mvn	r3, r3
5000a73c:	e20330ff 	and	r3, r3, #255	; 0xff
5000a740:	e0023003 	and	r3, r2, r3
5000a744:	e20320ff 	and	r2, r3, #255	; 0xff
5000a748:	e59d3010 	ldr	r3, [sp, #16]
5000a74c:	e5c3200a 	strb	r2, [r3, #10]
5000a750:	e3a03000 	mov	r3, #0
5000a754:	e5cd3027 	strb	r3, [sp, #39]	; 0x27
5000a758:	e59d3018 	ldr	r3, [sp, #24]
5000a75c:	e5dd201f 	ldrb	r2, [sp, #31]
5000a760:	e5c32036 	strb	r2, [r3, #54]	; 0x36
5000a764:	e59d3018 	ldr	r3, [sp, #24]
5000a768:	e5d33036 	ldrb	r3, [r3, #54]	; 0x36
5000a76c:	e1a031a3 	lsr	r3, r3, #3
5000a770:	e20320ff 	and	r2, r3, #255	; 0xff
5000a774:	e59d3018 	ldr	r3, [sp, #24]
5000a778:	e5c32038 	strb	r2, [r3, #56]	; 0x38
5000a77c:	e59d3018 	ldr	r3, [sp, #24]
5000a780:	e5d33036 	ldrb	r3, [r3, #54]	; 0x36
5000a784:	e2033007 	and	r3, r3, #7
5000a788:	e20320ff 	and	r2, r3, #255	; 0xff
5000a78c:	e59d3018 	ldr	r3, [sp, #24]
5000a790:	e5c32037 	strb	r2, [r3, #55]	; 0x37
5000a794:	e59d3018 	ldr	r3, [sp, #24]
5000a798:	e5d33038 	ldrb	r3, [r3, #56]	; 0x38
5000a79c:	e3a02001 	mov	r2, #1
5000a7a0:	e1a03312 	lsl	r3, r2, r3
5000a7a4:	e20320ff 	and	r2, r3, #255	; 0xff
5000a7a8:	e59d3018 	ldr	r3, [sp, #24]
5000a7ac:	e5c3203a 	strb	r2, [r3, #58]	; 0x3a
5000a7b0:	e59d3018 	ldr	r3, [sp, #24]
5000a7b4:	e5d33037 	ldrb	r3, [r3, #55]	; 0x37
5000a7b8:	e3a02001 	mov	r2, #1
5000a7bc:	e1a03312 	lsl	r3, r2, r3
5000a7c0:	e20320ff 	and	r2, r3, #255	; 0xff
5000a7c4:	e59d3018 	ldr	r3, [sp, #24]
5000a7c8:	e5c32039 	strb	r2, [r3, #57]	; 0x39
5000a7cc:	e5dd3027 	ldrb	r3, [sp, #39]	; 0x27
5000a7d0:	e3530001 	cmp	r3, #1
5000a7d4:	1a000014 	bne	5000a82c <OSMutexPend+0x3c8>
5000a7d8:	e59d3018 	ldr	r3, [sp, #24]
5000a7dc:	e5d3203a 	ldrb	r2, [r3, #58]	; 0x3a
5000a7e0:	e59f3200 	ldr	r3, [pc, #512]	; 5000a9e8 <OSMutexPend+0x584>
5000a7e4:	e5d33000 	ldrb	r3, [r3]
5000a7e8:	e1823003 	orr	r3, r2, r3
5000a7ec:	e20320ff 	and	r2, r3, #255	; 0xff
5000a7f0:	e59f31f0 	ldr	r3, [pc, #496]	; 5000a9e8 <OSMutexPend+0x584>
5000a7f4:	e5c32000 	strb	r2, [r3]
5000a7f8:	e59d3018 	ldr	r3, [sp, #24]
5000a7fc:	e5d33038 	ldrb	r3, [r3, #56]	; 0x38
5000a800:	e59d2018 	ldr	r2, [sp, #24]
5000a804:	e5d22038 	ldrb	r2, [r2, #56]	; 0x38
5000a808:	e59f11d4 	ldr	r1, [pc, #468]	; 5000a9e4 <OSMutexPend+0x580>
5000a80c:	e7d11002 	ldrb	r1, [r1, r2]
5000a810:	e59d2018 	ldr	r2, [sp, #24]
5000a814:	e5d22039 	ldrb	r2, [r2, #57]	; 0x39
5000a818:	e1812002 	orr	r2, r1, r2
5000a81c:	e20210ff 	and	r1, r2, #255	; 0xff
5000a820:	e59f21bc 	ldr	r2, [pc, #444]	; 5000a9e4 <OSMutexPend+0x580>
5000a824:	e7c21003 	strb	r1, [r2, r3]
5000a828:	ea000021 	b	5000a8b4 <OSMutexPend+0x450>
5000a82c:	e59d3018 	ldr	r3, [sp, #24]
5000a830:	e593301c 	ldr	r3, [r3, #28]
5000a834:	e58d3010 	str	r3, [sp, #16]
5000a838:	e59d3010 	ldr	r3, [sp, #16]
5000a83c:	e3530000 	cmp	r3, #0
5000a840:	0a00001b 	beq	5000a8b4 <OSMutexPend+0x450>
5000a844:	e59d3010 	ldr	r3, [sp, #16]
5000a848:	e5d3200a 	ldrb	r2, [r3, #10]
5000a84c:	e59d3018 	ldr	r3, [sp, #24]
5000a850:	e5d3303a 	ldrb	r3, [r3, #58]	; 0x3a
5000a854:	e1823003 	orr	r3, r2, r3
5000a858:	e20320ff 	and	r2, r3, #255	; 0xff
5000a85c:	e59d3010 	ldr	r3, [sp, #16]
5000a860:	e5c3200a 	strb	r2, [r3, #10]
5000a864:	e59d3018 	ldr	r3, [sp, #24]
5000a868:	e5d33038 	ldrb	r3, [r3, #56]	; 0x38
5000a86c:	e1a01003 	mov	r1, r3
5000a870:	e59d3018 	ldr	r3, [sp, #24]
5000a874:	e5d33038 	ldrb	r3, [r3, #56]	; 0x38
5000a878:	e1a02003 	mov	r2, r3
5000a87c:	e59d0010 	ldr	r0, [sp, #16]
5000a880:	e3a03008 	mov	r3, #8
5000a884:	e0802002 	add	r2, r0, r2
5000a888:	e0823003 	add	r3, r2, r3
5000a88c:	e5d32003 	ldrb	r2, [r3, #3]
5000a890:	e59d3018 	ldr	r3, [sp, #24]
5000a894:	e5d33039 	ldrb	r3, [r3, #57]	; 0x39
5000a898:	e1823003 	orr	r3, r2, r3
5000a89c:	e20320ff 	and	r2, r3, #255	; 0xff
5000a8a0:	e59d0010 	ldr	r0, [sp, #16]
5000a8a4:	e3a03008 	mov	r3, #8
5000a8a8:	e0801001 	add	r1, r0, r1
5000a8ac:	e0813003 	add	r3, r1, r3
5000a8b0:	e5c32003 	strb	r2, [r3, #3]
5000a8b4:	e5dd201f 	ldrb	r2, [sp, #31]
5000a8b8:	e59f312c 	ldr	r3, [pc, #300]	; 5000a9ec <OSMutexPend+0x588>
5000a8bc:	e59d1018 	ldr	r1, [sp, #24]
5000a8c0:	e7831102 	str	r1, [r3, r2, lsl #2]
5000a8c4:	e59f3114 	ldr	r3, [pc, #276]	; 5000a9e0 <OSMutexPend+0x57c>
5000a8c8:	e5933000 	ldr	r3, [r3]
5000a8cc:	e59f210c 	ldr	r2, [pc, #268]	; 5000a9e0 <OSMutexPend+0x57c>
5000a8d0:	e5922000 	ldr	r2, [r2]
5000a8d4:	e5d22034 	ldrb	r2, [r2, #52]	; 0x34
5000a8d8:	e3822010 	orr	r2, r2, #16
5000a8dc:	e20220ff 	and	r2, r2, #255	; 0xff
5000a8e0:	e5c32034 	strb	r2, [r3, #52]	; 0x34
5000a8e4:	e59f30f4 	ldr	r3, [pc, #244]	; 5000a9e0 <OSMutexPend+0x57c>
5000a8e8:	e5933000 	ldr	r3, [r3]
5000a8ec:	e3a02000 	mov	r2, #0
5000a8f0:	e5c32035 	strb	r2, [r3, #53]	; 0x35
5000a8f4:	e59f30e4 	ldr	r3, [pc, #228]	; 5000a9e0 <OSMutexPend+0x57c>
5000a8f8:	e5933000 	ldr	r3, [r3]
5000a8fc:	e59d2008 	ldr	r2, [sp, #8]
5000a900:	e5832030 	str	r2, [r3, #48]	; 0x30
5000a904:	e59d000c 	ldr	r0, [sp, #12]
5000a908:	ebfff0ae 	bl	50006bc8 <OS_EventTaskWait>
5000a90c:	e59d0020 	ldr	r0, [sp, #32]
5000a910:	ebffe70b 	bl	50004544 <OS_CPU_SR_Restore>
5000a914:	ebfff31a 	bl	50007584 <OS_Sched>
5000a918:	ebffe701 	bl	50004524 <OS_CPU_SR_Save>
5000a91c:	e58d0020 	str	r0, [sp, #32]
5000a920:	e59f30b8 	ldr	r3, [pc, #184]	; 5000a9e0 <OSMutexPend+0x57c>
5000a924:	e5933000 	ldr	r3, [r3]
5000a928:	e5d33035 	ldrb	r3, [r3, #53]	; 0x35
5000a92c:	e3530000 	cmp	r3, #0
5000a930:	0a000002 	beq	5000a940 <OSMutexPend+0x4dc>
5000a934:	e3530002 	cmp	r3, #2
5000a938:	0a000004 	beq	5000a950 <OSMutexPend+0x4ec>
5000a93c:	ea000007 	b	5000a960 <OSMutexPend+0x4fc>
5000a940:	e59d3004 	ldr	r3, [sp, #4]
5000a944:	e3a02000 	mov	r2, #0
5000a948:	e5c32000 	strb	r2, [r3]
5000a94c:	ea00000c 	b	5000a984 <OSMutexPend+0x520>
5000a950:	e59d3004 	ldr	r3, [sp, #4]
5000a954:	e3a0200e 	mov	r2, #14
5000a958:	e5c32000 	strb	r2, [r3]
5000a95c:	ea000008 	b	5000a984 <OSMutexPend+0x520>
5000a960:	e59f3078 	ldr	r3, [pc, #120]	; 5000a9e0 <OSMutexPend+0x57c>
5000a964:	e5933000 	ldr	r3, [r3]
5000a968:	e1a00003 	mov	r0, r3
5000a96c:	e59d100c 	ldr	r1, [sp, #12]
5000a970:	ebfff13f 	bl	50006e74 <OS_EventTaskRemove>
5000a974:	e59d3004 	ldr	r3, [sp, #4]
5000a978:	e3a0200a 	mov	r2, #10
5000a97c:	e5c32000 	strb	r2, [r3]
5000a980:	e1a00000 	nop			; (mov r0, r0)
5000a984:	e59f3054 	ldr	r3, [pc, #84]	; 5000a9e0 <OSMutexPend+0x57c>
5000a988:	e5933000 	ldr	r3, [r3]
5000a98c:	e3a02000 	mov	r2, #0
5000a990:	e5c32034 	strb	r2, [r3, #52]	; 0x34
5000a994:	e59f3044 	ldr	r3, [pc, #68]	; 5000a9e0 <OSMutexPend+0x57c>
5000a998:	e5933000 	ldr	r3, [r3]
5000a99c:	e3a02000 	mov	r2, #0
5000a9a0:	e5c32035 	strb	r2, [r3, #53]	; 0x35
5000a9a4:	e59f3034 	ldr	r3, [pc, #52]	; 5000a9e0 <OSMutexPend+0x57c>
5000a9a8:	e5933000 	ldr	r3, [r3]
5000a9ac:	e3a02000 	mov	r2, #0
5000a9b0:	e583201c 	str	r2, [r3, #28]
5000a9b4:	e59f3024 	ldr	r3, [pc, #36]	; 5000a9e0 <OSMutexPend+0x57c>
5000a9b8:	e5933000 	ldr	r3, [r3]
5000a9bc:	e3a02000 	mov	r2, #0
5000a9c0:	e5832020 	str	r2, [r3, #32]
5000a9c4:	e59d0020 	ldr	r0, [sp, #32]
5000a9c8:	ebffe6dd 	bl	50004544 <OS_CPU_SR_Restore>
5000a9cc:	e28dd02c 	add	sp, sp, #44	; 0x2c
5000a9d0:	e49de004 	pop	{lr}		; (ldr lr, [sp], #4)
5000a9d4:	e12fff1e 	bx	lr
5000a9d8:	50012178 	andpl	r2, r1, r8, ror r1
5000a9dc:	50011980 	andpl	r1, r1, r0, lsl #19
5000a9e0:	5001217c 	andpl	r2, r1, ip, ror r1
5000a9e4:	50011f6c 	andpl	r1, r1, ip, ror #30
5000a9e8:	50011f68 	andpl	r1, r1, r8, ror #30
5000a9ec:	50012c14 	andpl	r2, r1, r4, lsl ip

5000a9f0 <OSMutexPost>:
5000a9f0:	e52de004 	push	{lr}		; (str lr, [sp, #-4]!)
5000a9f4:	e24dd014 	sub	sp, sp, #20
5000a9f8:	e58d0004 	str	r0, [sp, #4]
5000a9fc:	e3a03000 	mov	r3, #0
5000aa00:	e58d300c 	str	r3, [sp, #12]
5000aa04:	e59f31bc 	ldr	r3, [pc, #444]	; 5000abc8 <OSMutexPost+0x1d8>
5000aa08:	e5d33000 	ldrb	r3, [r3]
5000aa0c:	e3530000 	cmp	r3, #0
5000aa10:	0a000001 	beq	5000aa1c <OSMutexPost+0x2c>
5000aa14:	e3a03005 	mov	r3, #5
5000aa18:	ea000066 	b	5000abb8 <OSMutexPost+0x1c8>
5000aa1c:	e59d3004 	ldr	r3, [sp, #4]
5000aa20:	e5d33000 	ldrb	r3, [r3]
5000aa24:	e3530004 	cmp	r3, #4
5000aa28:	0a000001 	beq	5000aa34 <OSMutexPost+0x44>
5000aa2c:	e3a03001 	mov	r3, #1
5000aa30:	ea000060 	b	5000abb8 <OSMutexPost+0x1c8>
5000aa34:	ebffe6ba 	bl	50004524 <OS_CPU_SR_Save>
5000aa38:	e58d000c 	str	r0, [sp, #12]
5000aa3c:	e59d3004 	ldr	r3, [sp, #4]
5000aa40:	e1d330b8 	ldrh	r3, [r3, #8]
5000aa44:	e1a03423 	lsr	r3, r3, #8
5000aa48:	e1a03803 	lsl	r3, r3, #16
5000aa4c:	e1a03823 	lsr	r3, r3, #16
5000aa50:	e5cd300b 	strb	r3, [sp, #11]
5000aa54:	e59d3004 	ldr	r3, [sp, #4]
5000aa58:	e1d330b8 	ldrh	r3, [r3, #8]
5000aa5c:	e5cd300a 	strb	r3, [sp, #10]
5000aa60:	e59d3004 	ldr	r3, [sp, #4]
5000aa64:	e5932004 	ldr	r2, [r3, #4]
5000aa68:	e59f315c 	ldr	r3, [pc, #348]	; 5000abcc <OSMutexPost+0x1dc>
5000aa6c:	e5933000 	ldr	r3, [r3]
5000aa70:	e1520003 	cmp	r2, r3
5000aa74:	0a000003 	beq	5000aa88 <OSMutexPost+0x98>
5000aa78:	e59d000c 	ldr	r0, [sp, #12]
5000aa7c:	ebffe6b0 	bl	50004544 <OS_CPU_SR_Restore>
5000aa80:	e3a03064 	mov	r3, #100	; 0x64
5000aa84:	ea00004b 	b	5000abb8 <OSMutexPost+0x1c8>
5000aa88:	e59f313c 	ldr	r3, [pc, #316]	; 5000abcc <OSMutexPost+0x1dc>
5000aa8c:	e5933000 	ldr	r3, [r3]
5000aa90:	e5d33036 	ldrb	r3, [r3, #54]	; 0x36
5000aa94:	e5dd200b 	ldrb	r2, [sp, #11]
5000aa98:	e1520003 	cmp	r2, r3
5000aa9c:	1a000005 	bne	5000aab8 <OSMutexPost+0xc8>
5000aaa0:	e59f3124 	ldr	r3, [pc, #292]	; 5000abcc <OSMutexPost+0x1dc>
5000aaa4:	e5932000 	ldr	r2, [r3]
5000aaa8:	e5dd300a 	ldrb	r3, [sp, #10]
5000aaac:	e1a00002 	mov	r0, r2
5000aab0:	e1a01003 	mov	r1, r3
5000aab4:	eb000094 	bl	5000ad0c <OSMutex_RdyAtPrio>
5000aab8:	e5dd200b 	ldrb	r2, [sp, #11]
5000aabc:	e59f310c 	ldr	r3, [pc, #268]	; 5000abd0 <OSMutexPost+0x1e0>
5000aac0:	e3a01001 	mov	r1, #1
5000aac4:	e7831102 	str	r1, [r3, r2, lsl #2]
5000aac8:	e59d3004 	ldr	r3, [sp, #4]
5000aacc:	e5d3300a 	ldrb	r3, [r3, #10]
5000aad0:	e3530000 	cmp	r3, #0
5000aad4:	0a00002a 	beq	5000ab84 <OSMutexPost+0x194>
5000aad8:	e59d0004 	ldr	r0, [sp, #4]
5000aadc:	e3a01000 	mov	r1, #0
5000aae0:	e3a02010 	mov	r2, #16
5000aae4:	e3a03000 	mov	r3, #0
5000aae8:	ebffefd7 	bl	50006a4c <OS_EventTaskRdy>
5000aaec:	e1a03000 	mov	r3, r0
5000aaf0:	e5cd300a 	strb	r3, [sp, #10]
5000aaf4:	e59d3004 	ldr	r3, [sp, #4]
5000aaf8:	e1d330b8 	ldrh	r3, [r3, #8]
5000aafc:	e3c330ff 	bic	r3, r3, #255	; 0xff
5000ab00:	e1a03803 	lsl	r3, r3, #16
5000ab04:	e1a02823 	lsr	r2, r3, #16
5000ab08:	e59d3004 	ldr	r3, [sp, #4]
5000ab0c:	e1c320b8 	strh	r2, [r3, #8]
5000ab10:	e59d3004 	ldr	r3, [sp, #4]
5000ab14:	e1d320b8 	ldrh	r2, [r3, #8]
5000ab18:	e5dd300a 	ldrb	r3, [sp, #10]
5000ab1c:	e1a03803 	lsl	r3, r3, #16
5000ab20:	e1a03823 	lsr	r3, r3, #16
5000ab24:	e1823003 	orr	r3, r2, r3
5000ab28:	e1a03803 	lsl	r3, r3, #16
5000ab2c:	e1a02823 	lsr	r2, r3, #16
5000ab30:	e59d3004 	ldr	r3, [sp, #4]
5000ab34:	e1c320b8 	strh	r2, [r3, #8]
5000ab38:	e5dd200a 	ldrb	r2, [sp, #10]
5000ab3c:	e59f308c 	ldr	r3, [pc, #140]	; 5000abd0 <OSMutexPost+0x1e0>
5000ab40:	e7932102 	ldr	r2, [r3, r2, lsl #2]
5000ab44:	e59d3004 	ldr	r3, [sp, #4]
5000ab48:	e5832004 	str	r2, [r3, #4]
5000ab4c:	e5dd200a 	ldrb	r2, [sp, #10]
5000ab50:	e5dd300b 	ldrb	r3, [sp, #11]
5000ab54:	e1520003 	cmp	r2, r3
5000ab58:	8a000004 	bhi	5000ab70 <OSMutexPost+0x180>
5000ab5c:	e59d000c 	ldr	r0, [sp, #12]
5000ab60:	ebffe677 	bl	50004544 <OS_CPU_SR_Restore>
5000ab64:	ebfff286 	bl	50007584 <OS_Sched>
5000ab68:	e3a03078 	mov	r3, #120	; 0x78
5000ab6c:	ea000011 	b	5000abb8 <OSMutexPost+0x1c8>
5000ab70:	e59d000c 	ldr	r0, [sp, #12]
5000ab74:	ebffe672 	bl	50004544 <OS_CPU_SR_Restore>
5000ab78:	ebfff281 	bl	50007584 <OS_Sched>
5000ab7c:	e3a03000 	mov	r3, #0
5000ab80:	ea00000c 	b	5000abb8 <OSMutexPost+0x1c8>
5000ab84:	e59d3004 	ldr	r3, [sp, #4]
5000ab88:	e1d330b8 	ldrh	r3, [r3, #8]
5000ab8c:	e38330ff 	orr	r3, r3, #255	; 0xff
5000ab90:	e1a03803 	lsl	r3, r3, #16
5000ab94:	e1a02823 	lsr	r2, r3, #16
5000ab98:	e59d3004 	ldr	r3, [sp, #4]
5000ab9c:	e1c320b8 	strh	r2, [r3, #8]
5000aba0:	e59d3004 	ldr	r3, [sp, #4]
5000aba4:	e3a02000 	mov	r2, #0
5000aba8:	e5832004 	str	r2, [r3, #4]
5000abac:	e59d000c 	ldr	r0, [sp, #12]
5000abb0:	ebffe663 	bl	50004544 <OS_CPU_SR_Restore>
5000abb4:	e3a03000 	mov	r3, #0
5000abb8:	e1a00003 	mov	r0, r3
5000abbc:	e28dd014 	add	sp, sp, #20
5000abc0:	e49de004 	pop	{lr}		; (ldr lr, [sp], #4)
5000abc4:	e12fff1e 	bx	lr
5000abc8:	50012178 	andpl	r2, r1, r8, ror r1
5000abcc:	5001217c 	andpl	r2, r1, ip, ror r1
5000abd0:	50012c14 	andpl	r2, r1, r4, lsl ip

5000abd4 <OSMutexQuery>:
5000abd4:	e52de004 	push	{lr}		; (str lr, [sp, #-4]!)
5000abd8:	e24dd01c 	sub	sp, sp, #28
5000abdc:	e58d0004 	str	r0, [sp, #4]
5000abe0:	e58d1000 	str	r1, [sp]
5000abe4:	e3a03000 	mov	r3, #0
5000abe8:	e58d3008 	str	r3, [sp, #8]
5000abec:	e59f3114 	ldr	r3, [pc, #276]	; 5000ad08 <OSMutexQuery+0x134>
5000abf0:	e5d33000 	ldrb	r3, [r3]
5000abf4:	e3530000 	cmp	r3, #0
5000abf8:	0a000001 	beq	5000ac04 <OSMutexQuery+0x30>
5000abfc:	e3a03006 	mov	r3, #6
5000ac00:	ea00003c 	b	5000acf8 <OSMutexQuery+0x124>
5000ac04:	e59d3004 	ldr	r3, [sp, #4]
5000ac08:	e5d33000 	ldrb	r3, [r3]
5000ac0c:	e3530004 	cmp	r3, #4
5000ac10:	0a000001 	beq	5000ac1c <OSMutexQuery+0x48>
5000ac14:	e3a03001 	mov	r3, #1
5000ac18:	ea000036 	b	5000acf8 <OSMutexQuery+0x124>
5000ac1c:	ebffe640 	bl	50004524 <OS_CPU_SR_Save>
5000ac20:	e58d0008 	str	r0, [sp, #8]
5000ac24:	e59d3004 	ldr	r3, [sp, #4]
5000ac28:	e1d330b8 	ldrh	r3, [r3, #8]
5000ac2c:	e1a03423 	lsr	r3, r3, #8
5000ac30:	e1a03803 	lsl	r3, r3, #16
5000ac34:	e1a03823 	lsr	r3, r3, #16
5000ac38:	e20320ff 	and	r2, r3, #255	; 0xff
5000ac3c:	e59d3000 	ldr	r3, [sp]
5000ac40:	e5c3200b 	strb	r2, [r3, #11]
5000ac44:	e59d3004 	ldr	r3, [sp, #4]
5000ac48:	e1d330b8 	ldrh	r3, [r3, #8]
5000ac4c:	e20320ff 	and	r2, r3, #255	; 0xff
5000ac50:	e59d3000 	ldr	r3, [sp]
5000ac54:	e5c3200a 	strb	r2, [r3, #10]
5000ac58:	e59d3000 	ldr	r3, [sp]
5000ac5c:	e5d3300a 	ldrb	r3, [r3, #10]
5000ac60:	e35300ff 	cmp	r3, #255	; 0xff
5000ac64:	1a000003 	bne	5000ac78 <OSMutexQuery+0xa4>
5000ac68:	e59d3000 	ldr	r3, [sp]
5000ac6c:	e3a02001 	mov	r2, #1
5000ac70:	e5c32009 	strb	r2, [r3, #9]
5000ac74:	ea000002 	b	5000ac84 <OSMutexQuery+0xb0>
5000ac78:	e59d3000 	ldr	r3, [sp]
5000ac7c:	e3a02000 	mov	r2, #0
5000ac80:	e5c32009 	strb	r2, [r3, #9]
5000ac84:	e59d3004 	ldr	r3, [sp, #4]
5000ac88:	e5d3200a 	ldrb	r2, [r3, #10]
5000ac8c:	e59d3000 	ldr	r3, [sp]
5000ac90:	e5c32008 	strb	r2, [r3, #8]
5000ac94:	e59d3004 	ldr	r3, [sp, #4]
5000ac98:	e283300b 	add	r3, r3, #11
5000ac9c:	e58d3010 	str	r3, [sp, #16]
5000aca0:	e59d3000 	ldr	r3, [sp]
5000aca4:	e58d300c 	str	r3, [sp, #12]
5000aca8:	e3a03000 	mov	r3, #0
5000acac:	e5cd3017 	strb	r3, [sp, #23]
5000acb0:	ea00000a 	b	5000ace0 <OSMutexQuery+0x10c>
5000acb4:	e59d300c 	ldr	r3, [sp, #12]
5000acb8:	e2832001 	add	r2, r3, #1
5000acbc:	e58d200c 	str	r2, [sp, #12]
5000acc0:	e59d2010 	ldr	r2, [sp, #16]
5000acc4:	e2821001 	add	r1, r2, #1
5000acc8:	e58d1010 	str	r1, [sp, #16]
5000accc:	e5d22000 	ldrb	r2, [r2]
5000acd0:	e5c32000 	strb	r2, [r3]
5000acd4:	e5dd3017 	ldrb	r3, [sp, #23]
5000acd8:	e2833001 	add	r3, r3, #1
5000acdc:	e5cd3017 	strb	r3, [sp, #23]
5000ace0:	e5dd3017 	ldrb	r3, [sp, #23]
5000ace4:	e3530007 	cmp	r3, #7
5000ace8:	9afffff1 	bls	5000acb4 <OSMutexQuery+0xe0>
5000acec:	e59d0008 	ldr	r0, [sp, #8]
5000acf0:	ebffe613 	bl	50004544 <OS_CPU_SR_Restore>
5000acf4:	e3a03000 	mov	r3, #0
5000acf8:	e1a00003 	mov	r0, r3
5000acfc:	e28dd01c 	add	sp, sp, #28
5000ad00:	e49de004 	pop	{lr}		; (ldr lr, [sp], #4)
5000ad04:	e12fff1e 	bx	lr
5000ad08:	50012178 	andpl	r2, r1, r8, ror r1

5000ad0c <OSMutex_RdyAtPrio>:
5000ad0c:	e24dd010 	sub	sp, sp, #16
5000ad10:	e58d0004 	str	r0, [sp, #4]
5000ad14:	e1a03001 	mov	r3, r1
5000ad18:	e5cd3003 	strb	r3, [sp, #3]
5000ad1c:	e59d3004 	ldr	r3, [sp, #4]
5000ad20:	e5d33038 	ldrb	r3, [r3, #56]	; 0x38
5000ad24:	e5cd300f 	strb	r3, [sp, #15]
5000ad28:	e5dd300f 	ldrb	r3, [sp, #15]
5000ad2c:	e5dd200f 	ldrb	r2, [sp, #15]
5000ad30:	e59f1144 	ldr	r1, [pc, #324]	; 5000ae7c <OSMutex_RdyAtPrio+0x170>
5000ad34:	e7d11002 	ldrb	r1, [r1, r2]
5000ad38:	e59d2004 	ldr	r2, [sp, #4]
5000ad3c:	e5d22039 	ldrb	r2, [r2, #57]	; 0x39
5000ad40:	e1e02002 	mvn	r2, r2
5000ad44:	e20220ff 	and	r2, r2, #255	; 0xff
5000ad48:	e0012002 	and	r2, r1, r2
5000ad4c:	e20210ff 	and	r1, r2, #255	; 0xff
5000ad50:	e59f2124 	ldr	r2, [pc, #292]	; 5000ae7c <OSMutex_RdyAtPrio+0x170>
5000ad54:	e7c21003 	strb	r1, [r2, r3]
5000ad58:	e5dd300f 	ldrb	r3, [sp, #15]
5000ad5c:	e59f2118 	ldr	r2, [pc, #280]	; 5000ae7c <OSMutex_RdyAtPrio+0x170>
5000ad60:	e7d23003 	ldrb	r3, [r2, r3]
5000ad64:	e3530000 	cmp	r3, #0
5000ad68:	1a000009 	bne	5000ad94 <OSMutex_RdyAtPrio+0x88>
5000ad6c:	e59d3004 	ldr	r3, [sp, #4]
5000ad70:	e5d3303a 	ldrb	r3, [r3, #58]	; 0x3a
5000ad74:	e1e03003 	mvn	r3, r3
5000ad78:	e20320ff 	and	r2, r3, #255	; 0xff
5000ad7c:	e59f30fc 	ldr	r3, [pc, #252]	; 5000ae80 <OSMutex_RdyAtPrio+0x174>
5000ad80:	e5d33000 	ldrb	r3, [r3]
5000ad84:	e0023003 	and	r3, r2, r3
5000ad88:	e20320ff 	and	r2, r3, #255	; 0xff
5000ad8c:	e59f30ec 	ldr	r3, [pc, #236]	; 5000ae80 <OSMutex_RdyAtPrio+0x174>
5000ad90:	e5c32000 	strb	r2, [r3]
5000ad94:	e59d3004 	ldr	r3, [sp, #4]
5000ad98:	e5dd2003 	ldrb	r2, [sp, #3]
5000ad9c:	e5c32036 	strb	r2, [r3, #54]	; 0x36
5000ada0:	e59f30dc 	ldr	r3, [pc, #220]	; 5000ae84 <OSMutex_RdyAtPrio+0x178>
5000ada4:	e5dd2003 	ldrb	r2, [sp, #3]
5000ada8:	e5c32000 	strb	r2, [r3]
5000adac:	e5dd3003 	ldrb	r3, [sp, #3]
5000adb0:	e1a031a3 	lsr	r3, r3, #3
5000adb4:	e20330ff 	and	r3, r3, #255	; 0xff
5000adb8:	e2033007 	and	r3, r3, #7
5000adbc:	e20320ff 	and	r2, r3, #255	; 0xff
5000adc0:	e59d3004 	ldr	r3, [sp, #4]
5000adc4:	e5c32038 	strb	r2, [r3, #56]	; 0x38
5000adc8:	e5dd3003 	ldrb	r3, [sp, #3]
5000adcc:	e2033007 	and	r3, r3, #7
5000add0:	e20320ff 	and	r2, r3, #255	; 0xff
5000add4:	e59d3004 	ldr	r3, [sp, #4]
5000add8:	e5c32037 	strb	r2, [r3, #55]	; 0x37
5000addc:	e59d3004 	ldr	r3, [sp, #4]
5000ade0:	e5d33038 	ldrb	r3, [r3, #56]	; 0x38
5000ade4:	e3a02001 	mov	r2, #1
5000ade8:	e1a03312 	lsl	r3, r2, r3
5000adec:	e20320ff 	and	r2, r3, #255	; 0xff
5000adf0:	e59d3004 	ldr	r3, [sp, #4]
5000adf4:	e5c3203a 	strb	r2, [r3, #58]	; 0x3a
5000adf8:	e59d3004 	ldr	r3, [sp, #4]
5000adfc:	e5d33037 	ldrb	r3, [r3, #55]	; 0x37
5000ae00:	e3a02001 	mov	r2, #1
5000ae04:	e1a03312 	lsl	r3, r2, r3
5000ae08:	e20320ff 	and	r2, r3, #255	; 0xff
5000ae0c:	e59d3004 	ldr	r3, [sp, #4]
5000ae10:	e5c32039 	strb	r2, [r3, #57]	; 0x39
5000ae14:	e59d3004 	ldr	r3, [sp, #4]
5000ae18:	e5d3203a 	ldrb	r2, [r3, #58]	; 0x3a
5000ae1c:	e59f305c 	ldr	r3, [pc, #92]	; 5000ae80 <OSMutex_RdyAtPrio+0x174>
5000ae20:	e5d33000 	ldrb	r3, [r3]
5000ae24:	e1823003 	orr	r3, r2, r3
5000ae28:	e20320ff 	and	r2, r3, #255	; 0xff
5000ae2c:	e59f304c 	ldr	r3, [pc, #76]	; 5000ae80 <OSMutex_RdyAtPrio+0x174>
5000ae30:	e5c32000 	strb	r2, [r3]
5000ae34:	e59d3004 	ldr	r3, [sp, #4]
5000ae38:	e5d33038 	ldrb	r3, [r3, #56]	; 0x38
5000ae3c:	e59d2004 	ldr	r2, [sp, #4]
5000ae40:	e5d22038 	ldrb	r2, [r2, #56]	; 0x38
5000ae44:	e59f1030 	ldr	r1, [pc, #48]	; 5000ae7c <OSMutex_RdyAtPrio+0x170>
5000ae48:	e7d11002 	ldrb	r1, [r1, r2]
5000ae4c:	e59d2004 	ldr	r2, [sp, #4]
5000ae50:	e5d22039 	ldrb	r2, [r2, #57]	; 0x39
5000ae54:	e1812002 	orr	r2, r1, r2
5000ae58:	e20210ff 	and	r1, r2, #255	; 0xff
5000ae5c:	e59f2018 	ldr	r2, [pc, #24]	; 5000ae7c <OSMutex_RdyAtPrio+0x170>
5000ae60:	e7c21003 	strb	r1, [r2, r3]
5000ae64:	e5dd2003 	ldrb	r2, [sp, #3]
5000ae68:	e59f3018 	ldr	r3, [pc, #24]	; 5000ae88 <OSMutex_RdyAtPrio+0x17c>
5000ae6c:	e59d1004 	ldr	r1, [sp, #4]
5000ae70:	e7831102 	str	r1, [r3, r2, lsl #2]
5000ae74:	e28dd010 	add	sp, sp, #16
5000ae78:	e12fff1e 	bx	lr
5000ae7c:	50011f6c 	andpl	r1, r1, ip, ror #30
5000ae80:	50011f68 	andpl	r1, r1, r8, ror #30
5000ae84:	50011c64 	andpl	r1, r1, r4, ror #24
5000ae88:	50012c14 	andpl	r2, r1, r4, lsl ip

5000ae8c <OSQAccept>:
5000ae8c:	e52de004 	push	{lr}		; (str lr, [sp, #-4]!)
5000ae90:	e24dd01c 	sub	sp, sp, #28
5000ae94:	e58d0004 	str	r0, [sp, #4]
5000ae98:	e58d1000 	str	r1, [sp]
5000ae9c:	e3a03000 	mov	r3, #0
5000aea0:	e58d3010 	str	r3, [sp, #16]
5000aea4:	e59d3004 	ldr	r3, [sp, #4]
5000aea8:	e5d33000 	ldrb	r3, [r3]
5000aeac:	e3530002 	cmp	r3, #2
5000aeb0:	0a000004 	beq	5000aec8 <OSQAccept+0x3c>
5000aeb4:	e59d3000 	ldr	r3, [sp]
5000aeb8:	e3a02001 	mov	r2, #1
5000aebc:	e5c32000 	strb	r2, [r3]
5000aec0:	e3a03000 	mov	r3, #0
5000aec4:	ea00002c 	b	5000af7c <OSQAccept+0xf0>
5000aec8:	ebffe595 	bl	50004524 <OS_CPU_SR_Save>
5000aecc:	e58d0010 	str	r0, [sp, #16]
5000aed0:	e59d3004 	ldr	r3, [sp, #4]
5000aed4:	e5933004 	ldr	r3, [r3, #4]
5000aed8:	e58d300c 	str	r3, [sp, #12]
5000aedc:	e59d300c 	ldr	r3, [sp, #12]
5000aee0:	e1d331b6 	ldrh	r3, [r3, #22]
5000aee4:	e3530000 	cmp	r3, #0
5000aee8:	0a00001b 	beq	5000af5c <OSQAccept+0xd0>
5000aeec:	e59d300c 	ldr	r3, [sp, #12]
5000aef0:	e5933010 	ldr	r3, [r3, #16]
5000aef4:	e2831004 	add	r1, r3, #4
5000aef8:	e59d200c 	ldr	r2, [sp, #12]
5000aefc:	e5821010 	str	r1, [r2, #16]
5000af00:	e5933000 	ldr	r3, [r3]
5000af04:	e58d3014 	str	r3, [sp, #20]
5000af08:	e59d300c 	ldr	r3, [sp, #12]
5000af0c:	e1d331b6 	ldrh	r3, [r3, #22]
5000af10:	e2433001 	sub	r3, r3, #1
5000af14:	e1a03803 	lsl	r3, r3, #16
5000af18:	e1a02823 	lsr	r2, r3, #16
5000af1c:	e59d300c 	ldr	r3, [sp, #12]
5000af20:	e1c321b6 	strh	r2, [r3, #22]
5000af24:	e59d300c 	ldr	r3, [sp, #12]
5000af28:	e5932010 	ldr	r2, [r3, #16]
5000af2c:	e59d300c 	ldr	r3, [sp, #12]
5000af30:	e5933008 	ldr	r3, [r3, #8]
5000af34:	e1520003 	cmp	r2, r3
5000af38:	1a000003 	bne	5000af4c <OSQAccept+0xc0>
5000af3c:	e59d300c 	ldr	r3, [sp, #12]
5000af40:	e5932004 	ldr	r2, [r3, #4]
5000af44:	e59d300c 	ldr	r3, [sp, #12]
5000af48:	e5832010 	str	r2, [r3, #16]
5000af4c:	e59d3000 	ldr	r3, [sp]
5000af50:	e3a02000 	mov	r2, #0
5000af54:	e5c32000 	strb	r2, [r3]
5000af58:	ea000004 	b	5000af70 <OSQAccept+0xe4>
5000af5c:	e59d3000 	ldr	r3, [sp]
5000af60:	e3a0201f 	mov	r2, #31
5000af64:	e5c32000 	strb	r2, [r3]
5000af68:	e3a03000 	mov	r3, #0
5000af6c:	e58d3014 	str	r3, [sp, #20]
5000af70:	e59d0010 	ldr	r0, [sp, #16]
5000af74:	ebffe572 	bl	50004544 <OS_CPU_SR_Restore>
5000af78:	e59d3014 	ldr	r3, [sp, #20]
5000af7c:	e1a00003 	mov	r0, r3
5000af80:	e28dd01c 	add	sp, sp, #28
5000af84:	e49de004 	pop	{lr}		; (ldr lr, [sp], #4)
5000af88:	e12fff1e 	bx	lr

5000af8c <OSQCreate>:
5000af8c:	e52de004 	push	{lr}		; (str lr, [sp, #-4]!)
5000af90:	e24dd01c 	sub	sp, sp, #28
5000af94:	e58d0004 	str	r0, [sp, #4]
5000af98:	e1a03001 	mov	r3, r1
5000af9c:	e1cd30b2 	strh	r3, [sp, #2]
5000afa0:	e3a03000 	mov	r3, #0
5000afa4:	e58d3010 	str	r3, [sp, #16]
5000afa8:	e59f3168 	ldr	r3, [pc, #360]	; 5000b118 <OSQCreate+0x18c>
5000afac:	e5d33000 	ldrb	r3, [r3]
5000afb0:	e3530000 	cmp	r3, #0
5000afb4:	0a000001 	beq	5000afc0 <OSQCreate+0x34>
5000afb8:	e3a03000 	mov	r3, #0
5000afbc:	ea000051 	b	5000b108 <OSQCreate+0x17c>
5000afc0:	ebffe557 	bl	50004524 <OS_CPU_SR_Save>
5000afc4:	e58d0010 	str	r0, [sp, #16]
5000afc8:	e59f314c 	ldr	r3, [pc, #332]	; 5000b11c <OSQCreate+0x190>
5000afcc:	e5933000 	ldr	r3, [r3]
5000afd0:	e58d3014 	str	r3, [sp, #20]
5000afd4:	e59f3140 	ldr	r3, [pc, #320]	; 5000b11c <OSQCreate+0x190>
5000afd8:	e5933000 	ldr	r3, [r3]
5000afdc:	e3530000 	cmp	r3, #0
5000afe0:	0a000004 	beq	5000aff8 <OSQCreate+0x6c>
5000afe4:	e59f3130 	ldr	r3, [pc, #304]	; 5000b11c <OSQCreate+0x190>
5000afe8:	e5933000 	ldr	r3, [r3]
5000afec:	e5932004 	ldr	r2, [r3, #4]
5000aff0:	e59f3124 	ldr	r3, [pc, #292]	; 5000b11c <OSQCreate+0x190>
5000aff4:	e5832000 	str	r2, [r3]
5000aff8:	e59d0010 	ldr	r0, [sp, #16]
5000affc:	ebffe550 	bl	50004544 <OS_CPU_SR_Restore>
5000b000:	e59d3014 	ldr	r3, [sp, #20]
5000b004:	e3530000 	cmp	r3, #0
5000b008:	0a00003d 	beq	5000b104 <OSQCreate+0x178>
5000b00c:	ebffe544 	bl	50004524 <OS_CPU_SR_Save>
5000b010:	e58d0010 	str	r0, [sp, #16]
5000b014:	e59f3104 	ldr	r3, [pc, #260]	; 5000b120 <OSQCreate+0x194>
5000b018:	e5933000 	ldr	r3, [r3]
5000b01c:	e58d300c 	str	r3, [sp, #12]
5000b020:	e59d300c 	ldr	r3, [sp, #12]
5000b024:	e3530000 	cmp	r3, #0
5000b028:	0a00002a 	beq	5000b0d8 <OSQCreate+0x14c>
5000b02c:	e59f30ec 	ldr	r3, [pc, #236]	; 5000b120 <OSQCreate+0x194>
5000b030:	e5933000 	ldr	r3, [r3]
5000b034:	e5932000 	ldr	r2, [r3]
5000b038:	e59f30e0 	ldr	r3, [pc, #224]	; 5000b120 <OSQCreate+0x194>
5000b03c:	e5832000 	str	r2, [r3]
5000b040:	e59d0010 	ldr	r0, [sp, #16]
5000b044:	ebffe53e 	bl	50004544 <OS_CPU_SR_Restore>
5000b048:	e59d300c 	ldr	r3, [sp, #12]
5000b04c:	e59d2004 	ldr	r2, [sp, #4]
5000b050:	e5832004 	str	r2, [r3, #4]
5000b054:	e1dd30b2 	ldrh	r3, [sp, #2]
5000b058:	e1a03103 	lsl	r3, r3, #2
5000b05c:	e59d2004 	ldr	r2, [sp, #4]
5000b060:	e0822003 	add	r2, r2, r3
5000b064:	e59d300c 	ldr	r3, [sp, #12]
5000b068:	e5832008 	str	r2, [r3, #8]
5000b06c:	e59d300c 	ldr	r3, [sp, #12]
5000b070:	e59d2004 	ldr	r2, [sp, #4]
5000b074:	e583200c 	str	r2, [r3, #12]
5000b078:	e59d300c 	ldr	r3, [sp, #12]
5000b07c:	e59d2004 	ldr	r2, [sp, #4]
5000b080:	e5832010 	str	r2, [r3, #16]
5000b084:	e59d300c 	ldr	r3, [sp, #12]
5000b088:	e1dd20b2 	ldrh	r2, [sp, #2]
5000b08c:	e1c321b4 	strh	r2, [r3, #20]
5000b090:	e59d300c 	ldr	r3, [sp, #12]
5000b094:	e3a02000 	mov	r2, #0
5000b098:	e1c321b6 	strh	r2, [r3, #22]
5000b09c:	e59d3014 	ldr	r3, [sp, #20]
5000b0a0:	e3a02002 	mov	r2, #2
5000b0a4:	e5c32000 	strb	r2, [r3]
5000b0a8:	e59d3014 	ldr	r3, [sp, #20]
5000b0ac:	e3a02000 	mov	r2, #0
5000b0b0:	e1c320b8 	strh	r2, [r3, #8]
5000b0b4:	e59d3014 	ldr	r3, [sp, #20]
5000b0b8:	e59d200c 	ldr	r2, [sp, #12]
5000b0bc:	e5832004 	str	r2, [r3, #4]
5000b0c0:	e59d3014 	ldr	r3, [sp, #20]
5000b0c4:	e59f2058 	ldr	r2, [pc, #88]	; 5000b124 <OSQCreate+0x198>
5000b0c8:	e5832014 	str	r2, [r3, #20]
5000b0cc:	e59d0014 	ldr	r0, [sp, #20]
5000b0d0:	ebffefd2 	bl	50007020 <OS_EventWaitListInit>
5000b0d4:	ea00000a 	b	5000b104 <OSQCreate+0x178>
5000b0d8:	e59f303c 	ldr	r3, [pc, #60]	; 5000b11c <OSQCreate+0x190>
5000b0dc:	e5932000 	ldr	r2, [r3]
5000b0e0:	e59d3014 	ldr	r3, [sp, #20]
5000b0e4:	e5832004 	str	r2, [r3, #4]
5000b0e8:	e59f302c 	ldr	r3, [pc, #44]	; 5000b11c <OSQCreate+0x190>
5000b0ec:	e59d2014 	ldr	r2, [sp, #20]
5000b0f0:	e5832000 	str	r2, [r3]
5000b0f4:	e59d0010 	ldr	r0, [sp, #16]
5000b0f8:	ebffe511 	bl	50004544 <OS_CPU_SR_Restore>
5000b0fc:	e3a03000 	mov	r3, #0
5000b100:	e58d3014 	str	r3, [sp, #20]
5000b104:	e59d3014 	ldr	r3, [sp, #20]
5000b108:	e1a00003 	mov	r0, r3
5000b10c:	e28dd01c 	add	sp, sp, #28
5000b110:	e49de004 	pop	{lr}		; (ldr lr, [sp], #4)
5000b114:	e12fff1e 	bx	lr
5000b118:	50012178 	andpl	r2, r1, r8, ror r1
5000b11c:	50012174 	andpl	r2, r1, r4, ror r1
5000b120:	50011f64 	andpl	r1, r1, r4, ror #30
5000b124:	50010cb4 			; <UNDEFINED> instruction: 0x50010cb4

5000b128 <OSQDel>:
5000b128:	e52de004 	push	{lr}		; (str lr, [sp, #-4]!)
5000b12c:	e24dd024 	sub	sp, sp, #36	; 0x24
5000b130:	e58d000c 	str	r0, [sp, #12]
5000b134:	e1a03001 	mov	r3, r1
5000b138:	e58d2004 	str	r2, [sp, #4]
5000b13c:	e5cd300b 	strb	r3, [sp, #11]
5000b140:	e3a03000 	mov	r3, #0
5000b144:	e58d3014 	str	r3, [sp, #20]
5000b148:	e59d300c 	ldr	r3, [sp, #12]
5000b14c:	e5d33000 	ldrb	r3, [r3]
5000b150:	e3530002 	cmp	r3, #2
5000b154:	0a000004 	beq	5000b16c <OSQDel+0x44>
5000b158:	e59d3004 	ldr	r3, [sp, #4]
5000b15c:	e3a02001 	mov	r2, #1
5000b160:	e5c32000 	strb	r2, [r3]
5000b164:	e59d300c 	ldr	r3, [sp, #12]
5000b168:	ea000080 	b	5000b370 <OSQDel+0x248>
5000b16c:	e59f320c 	ldr	r3, [pc, #524]	; 5000b380 <OSQDel+0x258>
5000b170:	e5d33000 	ldrb	r3, [r3]
5000b174:	e3530000 	cmp	r3, #0
5000b178:	0a000004 	beq	5000b190 <OSQDel+0x68>
5000b17c:	e59d3004 	ldr	r3, [sp, #4]
5000b180:	e3a0200f 	mov	r2, #15
5000b184:	e5c32000 	strb	r2, [r3]
5000b188:	e59d300c 	ldr	r3, [sp, #12]
5000b18c:	ea000077 	b	5000b370 <OSQDel+0x248>
5000b190:	ebffe4e3 	bl	50004524 <OS_CPU_SR_Save>
5000b194:	e58d0014 	str	r0, [sp, #20]
5000b198:	e59d300c 	ldr	r3, [sp, #12]
5000b19c:	e5d3300a 	ldrb	r3, [r3, #10]
5000b1a0:	e3530000 	cmp	r3, #0
5000b1a4:	0a000002 	beq	5000b1b4 <OSQDel+0x8c>
5000b1a8:	e3a03001 	mov	r3, #1
5000b1ac:	e5cd301f 	strb	r3, [sp, #31]
5000b1b0:	ea000001 	b	5000b1bc <OSQDel+0x94>
5000b1b4:	e3a03000 	mov	r3, #0
5000b1b8:	e5cd301f 	strb	r3, [sp, #31]
5000b1bc:	e5dd300b 	ldrb	r3, [sp, #11]
5000b1c0:	e3530000 	cmp	r3, #0
5000b1c4:	0a000002 	beq	5000b1d4 <OSQDel+0xac>
5000b1c8:	e3530001 	cmp	r3, #1
5000b1cc:	0a000033 	beq	5000b2a0 <OSQDel+0x178>
5000b1d0:	ea00005d 	b	5000b34c <OSQDel+0x224>
5000b1d4:	e5dd301f 	ldrb	r3, [sp, #31]
5000b1d8:	e3530000 	cmp	r3, #0
5000b1dc:	1a000021 	bne	5000b268 <OSQDel+0x140>
5000b1e0:	e59d300c 	ldr	r3, [sp, #12]
5000b1e4:	e59f2198 	ldr	r2, [pc, #408]	; 5000b384 <OSQDel+0x25c>
5000b1e8:	e5832014 	str	r2, [r3, #20]
5000b1ec:	e59d300c 	ldr	r3, [sp, #12]
5000b1f0:	e5933004 	ldr	r3, [r3, #4]
5000b1f4:	e58d3010 	str	r3, [sp, #16]
5000b1f8:	e59f3188 	ldr	r3, [pc, #392]	; 5000b388 <OSQDel+0x260>
5000b1fc:	e5932000 	ldr	r2, [r3]
5000b200:	e59d3010 	ldr	r3, [sp, #16]
5000b204:	e5832000 	str	r2, [r3]
5000b208:	e59f3178 	ldr	r3, [pc, #376]	; 5000b388 <OSQDel+0x260>
5000b20c:	e59d2010 	ldr	r2, [sp, #16]
5000b210:	e5832000 	str	r2, [r3]
5000b214:	e59d300c 	ldr	r3, [sp, #12]
5000b218:	e3a02000 	mov	r2, #0
5000b21c:	e5c32000 	strb	r2, [r3]
5000b220:	e59f3164 	ldr	r3, [pc, #356]	; 5000b38c <OSQDel+0x264>
5000b224:	e5932000 	ldr	r2, [r3]
5000b228:	e59d300c 	ldr	r3, [sp, #12]
5000b22c:	e5832004 	str	r2, [r3, #4]
5000b230:	e59d300c 	ldr	r3, [sp, #12]
5000b234:	e3a02000 	mov	r2, #0
5000b238:	e1c320b8 	strh	r2, [r3, #8]
5000b23c:	e59f3148 	ldr	r3, [pc, #328]	; 5000b38c <OSQDel+0x264>
5000b240:	e59d200c 	ldr	r2, [sp, #12]
5000b244:	e5832000 	str	r2, [r3]
5000b248:	e59d0014 	ldr	r0, [sp, #20]
5000b24c:	ebffe4bc 	bl	50004544 <OS_CPU_SR_Restore>
5000b250:	e59d3004 	ldr	r3, [sp, #4]
5000b254:	e3a02000 	mov	r2, #0
5000b258:	e5c32000 	strb	r2, [r3]
5000b25c:	e3a03000 	mov	r3, #0
5000b260:	e58d3018 	str	r3, [sp, #24]
5000b264:	ea000040 	b	5000b36c <OSQDel+0x244>
5000b268:	e59d0014 	ldr	r0, [sp, #20]
5000b26c:	ebffe4b4 	bl	50004544 <OS_CPU_SR_Restore>
5000b270:	e59d3004 	ldr	r3, [sp, #4]
5000b274:	e3a02049 	mov	r2, #73	; 0x49
5000b278:	e5c32000 	strb	r2, [r3]
5000b27c:	e59d300c 	ldr	r3, [sp, #12]
5000b280:	e58d3018 	str	r3, [sp, #24]
5000b284:	ea000038 	b	5000b36c <OSQDel+0x244>
5000b288:	e59d000c 	ldr	r0, [sp, #12]
5000b28c:	e3a01000 	mov	r1, #0
5000b290:	e3a02004 	mov	r2, #4
5000b294:	e3a03000 	mov	r3, #0
5000b298:	ebffedeb 	bl	50006a4c <OS_EventTaskRdy>
5000b29c:	ea000000 	b	5000b2a4 <OSQDel+0x17c>
5000b2a0:	e1a00000 	nop			; (mov r0, r0)
5000b2a4:	e59d300c 	ldr	r3, [sp, #12]
5000b2a8:	e5d3300a 	ldrb	r3, [r3, #10]
5000b2ac:	e3530000 	cmp	r3, #0
5000b2b0:	1afffff4 	bne	5000b288 <OSQDel+0x160>
5000b2b4:	e59d300c 	ldr	r3, [sp, #12]
5000b2b8:	e59f20c4 	ldr	r2, [pc, #196]	; 5000b384 <OSQDel+0x25c>
5000b2bc:	e5832014 	str	r2, [r3, #20]
5000b2c0:	e59d300c 	ldr	r3, [sp, #12]
5000b2c4:	e5933004 	ldr	r3, [r3, #4]
5000b2c8:	e58d3010 	str	r3, [sp, #16]
5000b2cc:	e59f30b4 	ldr	r3, [pc, #180]	; 5000b388 <OSQDel+0x260>
5000b2d0:	e5932000 	ldr	r2, [r3]
5000b2d4:	e59d3010 	ldr	r3, [sp, #16]
5000b2d8:	e5832000 	str	r2, [r3]
5000b2dc:	e59f30a4 	ldr	r3, [pc, #164]	; 5000b388 <OSQDel+0x260>
5000b2e0:	e59d2010 	ldr	r2, [sp, #16]
5000b2e4:	e5832000 	str	r2, [r3]
5000b2e8:	e59d300c 	ldr	r3, [sp, #12]
5000b2ec:	e3a02000 	mov	r2, #0
5000b2f0:	e5c32000 	strb	r2, [r3]
5000b2f4:	e59f3090 	ldr	r3, [pc, #144]	; 5000b38c <OSQDel+0x264>
5000b2f8:	e5932000 	ldr	r2, [r3]
5000b2fc:	e59d300c 	ldr	r3, [sp, #12]
5000b300:	e5832004 	str	r2, [r3, #4]
5000b304:	e59d300c 	ldr	r3, [sp, #12]
5000b308:	e3a02000 	mov	r2, #0
5000b30c:	e1c320b8 	strh	r2, [r3, #8]
5000b310:	e59f3074 	ldr	r3, [pc, #116]	; 5000b38c <OSQDel+0x264>
5000b314:	e59d200c 	ldr	r2, [sp, #12]
5000b318:	e5832000 	str	r2, [r3]
5000b31c:	e59d0014 	ldr	r0, [sp, #20]
5000b320:	ebffe487 	bl	50004544 <OS_CPU_SR_Restore>
5000b324:	e5dd301f 	ldrb	r3, [sp, #31]
5000b328:	e3530001 	cmp	r3, #1
5000b32c:	1a000000 	bne	5000b334 <OSQDel+0x20c>
5000b330:	ebfff093 	bl	50007584 <OS_Sched>
5000b334:	e59d3004 	ldr	r3, [sp, #4]
5000b338:	e3a02000 	mov	r2, #0
5000b33c:	e5c32000 	strb	r2, [r3]
5000b340:	e3a03000 	mov	r3, #0
5000b344:	e58d3018 	str	r3, [sp, #24]
5000b348:	ea000007 	b	5000b36c <OSQDel+0x244>
5000b34c:	e59d0014 	ldr	r0, [sp, #20]
5000b350:	ebffe47b 	bl	50004544 <OS_CPU_SR_Restore>
5000b354:	e59d3004 	ldr	r3, [sp, #4]
5000b358:	e3a02007 	mov	r2, #7
5000b35c:	e5c32000 	strb	r2, [r3]
5000b360:	e59d300c 	ldr	r3, [sp, #12]
5000b364:	e58d3018 	str	r3, [sp, #24]
5000b368:	e1a00000 	nop			; (mov r0, r0)
5000b36c:	e59d3018 	ldr	r3, [sp, #24]
5000b370:	e1a00003 	mov	r0, r3
5000b374:	e28dd024 	add	sp, sp, #36	; 0x24
5000b378:	e49de004 	pop	{lr}		; (ldr lr, [sp], #4)
5000b37c:	e12fff1e 	bx	lr
5000b380:	50012178 	andpl	r2, r1, r8, ror r1
5000b384:	50010cb4 			; <UNDEFINED> instruction: 0x50010cb4
5000b388:	50011f64 	andpl	r1, r1, r4, ror #30
5000b38c:	50012174 	andpl	r2, r1, r4, ror r1

5000b390 <OSQFlush>:
5000b390:	e52de004 	push	{lr}		; (str lr, [sp, #-4]!)
5000b394:	e24dd014 	sub	sp, sp, #20
5000b398:	e58d0004 	str	r0, [sp, #4]
5000b39c:	e3a03000 	mov	r3, #0
5000b3a0:	e58d300c 	str	r3, [sp, #12]
5000b3a4:	ebffe45e 	bl	50004524 <OS_CPU_SR_Save>
5000b3a8:	e58d000c 	str	r0, [sp, #12]
5000b3ac:	e59d3004 	ldr	r3, [sp, #4]
5000b3b0:	e5933004 	ldr	r3, [r3, #4]
5000b3b4:	e58d3008 	str	r3, [sp, #8]
5000b3b8:	e59d3008 	ldr	r3, [sp, #8]
5000b3bc:	e5932004 	ldr	r2, [r3, #4]
5000b3c0:	e59d3008 	ldr	r3, [sp, #8]
5000b3c4:	e583200c 	str	r2, [r3, #12]
5000b3c8:	e59d3008 	ldr	r3, [sp, #8]
5000b3cc:	e5932004 	ldr	r2, [r3, #4]
5000b3d0:	e59d3008 	ldr	r3, [sp, #8]
5000b3d4:	e5832010 	str	r2, [r3, #16]
5000b3d8:	e59d3008 	ldr	r3, [sp, #8]
5000b3dc:	e3a02000 	mov	r2, #0
5000b3e0:	e1c321b6 	strh	r2, [r3, #22]
5000b3e4:	e59d000c 	ldr	r0, [sp, #12]
5000b3e8:	ebffe455 	bl	50004544 <OS_CPU_SR_Restore>
5000b3ec:	e3a03000 	mov	r3, #0
5000b3f0:	e1a00003 	mov	r0, r3
5000b3f4:	e28dd014 	add	sp, sp, #20
5000b3f8:	e49de004 	pop	{lr}		; (ldr lr, [sp], #4)
5000b3fc:	e12fff1e 	bx	lr

5000b400 <OSQPend>:
5000b400:	e52de004 	push	{lr}		; (str lr, [sp, #-4]!)
5000b404:	e24dd024 	sub	sp, sp, #36	; 0x24
5000b408:	e58d000c 	str	r0, [sp, #12]
5000b40c:	e58d1008 	str	r1, [sp, #8]
5000b410:	e58d2004 	str	r2, [sp, #4]
5000b414:	e3a03000 	mov	r3, #0
5000b418:	e58d3018 	str	r3, [sp, #24]
5000b41c:	e59d300c 	ldr	r3, [sp, #12]
5000b420:	e5d33000 	ldrb	r3, [r3]
5000b424:	e3530002 	cmp	r3, #2
5000b428:	0a000004 	beq	5000b440 <OSQPend+0x40>
5000b42c:	e59d3004 	ldr	r3, [sp, #4]
5000b430:	e3a02001 	mov	r2, #1
5000b434:	e5c32000 	strb	r2, [r3]
5000b438:	e3a03000 	mov	r3, #0
5000b43c:	ea000088 	b	5000b664 <OSQPend+0x264>
5000b440:	e59f322c 	ldr	r3, [pc, #556]	; 5000b674 <OSQPend+0x274>
5000b444:	e5d33000 	ldrb	r3, [r3]
5000b448:	e3530000 	cmp	r3, #0
5000b44c:	0a000004 	beq	5000b464 <OSQPend+0x64>
5000b450:	e59d3004 	ldr	r3, [sp, #4]
5000b454:	e3a02002 	mov	r2, #2
5000b458:	e5c32000 	strb	r2, [r3]
5000b45c:	e3a03000 	mov	r3, #0
5000b460:	ea00007f 	b	5000b664 <OSQPend+0x264>
5000b464:	e59f320c 	ldr	r3, [pc, #524]	; 5000b678 <OSQPend+0x278>
5000b468:	e5d33000 	ldrb	r3, [r3]
5000b46c:	e3530000 	cmp	r3, #0
5000b470:	0a000004 	beq	5000b488 <OSQPend+0x88>
5000b474:	e59d3004 	ldr	r3, [sp, #4]
5000b478:	e3a0200d 	mov	r2, #13
5000b47c:	e5c32000 	strb	r2, [r3]
5000b480:	e3a03000 	mov	r3, #0
5000b484:	ea000076 	b	5000b664 <OSQPend+0x264>
5000b488:	ebffe425 	bl	50004524 <OS_CPU_SR_Save>
5000b48c:	e58d0018 	str	r0, [sp, #24]
5000b490:	e59d300c 	ldr	r3, [sp, #12]
5000b494:	e5933004 	ldr	r3, [r3, #4]
5000b498:	e58d3014 	str	r3, [sp, #20]
5000b49c:	e59d3014 	ldr	r3, [sp, #20]
5000b4a0:	e1d331b6 	ldrh	r3, [r3, #22]
5000b4a4:	e3530000 	cmp	r3, #0
5000b4a8:	0a00001e 	beq	5000b528 <OSQPend+0x128>
5000b4ac:	e59d3014 	ldr	r3, [sp, #20]
5000b4b0:	e5933010 	ldr	r3, [r3, #16]
5000b4b4:	e2831004 	add	r1, r3, #4
5000b4b8:	e59d2014 	ldr	r2, [sp, #20]
5000b4bc:	e5821010 	str	r1, [r2, #16]
5000b4c0:	e5933000 	ldr	r3, [r3]
5000b4c4:	e58d301c 	str	r3, [sp, #28]
5000b4c8:	e59d3014 	ldr	r3, [sp, #20]
5000b4cc:	e1d331b6 	ldrh	r3, [r3, #22]
5000b4d0:	e2433001 	sub	r3, r3, #1
5000b4d4:	e1a03803 	lsl	r3, r3, #16
5000b4d8:	e1a02823 	lsr	r2, r3, #16
5000b4dc:	e59d3014 	ldr	r3, [sp, #20]
5000b4e0:	e1c321b6 	strh	r2, [r3, #22]
5000b4e4:	e59d3014 	ldr	r3, [sp, #20]
5000b4e8:	e5932010 	ldr	r2, [r3, #16]
5000b4ec:	e59d3014 	ldr	r3, [sp, #20]
5000b4f0:	e5933008 	ldr	r3, [r3, #8]
5000b4f4:	e1520003 	cmp	r2, r3
5000b4f8:	1a000003 	bne	5000b50c <OSQPend+0x10c>
5000b4fc:	e59d3014 	ldr	r3, [sp, #20]
5000b500:	e5932004 	ldr	r2, [r3, #4]
5000b504:	e59d3014 	ldr	r3, [sp, #20]
5000b508:	e5832010 	str	r2, [r3, #16]
5000b50c:	e59d0018 	ldr	r0, [sp, #24]
5000b510:	ebffe40b 	bl	50004544 <OS_CPU_SR_Restore>
5000b514:	e59d3004 	ldr	r3, [sp, #4]
5000b518:	e3a02000 	mov	r2, #0
5000b51c:	e5c32000 	strb	r2, [r3]
5000b520:	e59d301c 	ldr	r3, [sp, #28]
5000b524:	ea00004e 	b	5000b664 <OSQPend+0x264>
5000b528:	e59f314c 	ldr	r3, [pc, #332]	; 5000b67c <OSQPend+0x27c>
5000b52c:	e5933000 	ldr	r3, [r3]
5000b530:	e59f2144 	ldr	r2, [pc, #324]	; 5000b67c <OSQPend+0x27c>
5000b534:	e5922000 	ldr	r2, [r2]
5000b538:	e5d22034 	ldrb	r2, [r2, #52]	; 0x34
5000b53c:	e3822004 	orr	r2, r2, #4
5000b540:	e20220ff 	and	r2, r2, #255	; 0xff
5000b544:	e5c32034 	strb	r2, [r3, #52]	; 0x34
5000b548:	e59f312c 	ldr	r3, [pc, #300]	; 5000b67c <OSQPend+0x27c>
5000b54c:	e5933000 	ldr	r3, [r3]
5000b550:	e3a02000 	mov	r2, #0
5000b554:	e5c32035 	strb	r2, [r3, #53]	; 0x35
5000b558:	e59f311c 	ldr	r3, [pc, #284]	; 5000b67c <OSQPend+0x27c>
5000b55c:	e5933000 	ldr	r3, [r3]
5000b560:	e59d2008 	ldr	r2, [sp, #8]
5000b564:	e5832030 	str	r2, [r3, #48]	; 0x30
5000b568:	e59d000c 	ldr	r0, [sp, #12]
5000b56c:	ebffed95 	bl	50006bc8 <OS_EventTaskWait>
5000b570:	e59d0018 	ldr	r0, [sp, #24]
5000b574:	ebffe3f2 	bl	50004544 <OS_CPU_SR_Restore>
5000b578:	ebfff001 	bl	50007584 <OS_Sched>
5000b57c:	ebffe3e8 	bl	50004524 <OS_CPU_SR_Save>
5000b580:	e58d0018 	str	r0, [sp, #24]
5000b584:	e59f30f0 	ldr	r3, [pc, #240]	; 5000b67c <OSQPend+0x27c>
5000b588:	e5933000 	ldr	r3, [r3]
5000b58c:	e5d33035 	ldrb	r3, [r3, #53]	; 0x35
5000b590:	e3530000 	cmp	r3, #0
5000b594:	0a000002 	beq	5000b5a4 <OSQPend+0x1a4>
5000b598:	e3530002 	cmp	r3, #2
5000b59c:	0a000008 	beq	5000b5c4 <OSQPend+0x1c4>
5000b5a0:	ea00000d 	b	5000b5dc <OSQPend+0x1dc>
5000b5a4:	e59f30d0 	ldr	r3, [pc, #208]	; 5000b67c <OSQPend+0x27c>
5000b5a8:	e5933000 	ldr	r3, [r3]
5000b5ac:	e5933024 	ldr	r3, [r3, #36]	; 0x24
5000b5b0:	e58d301c 	str	r3, [sp, #28]
5000b5b4:	e59d3004 	ldr	r3, [sp, #4]
5000b5b8:	e3a02000 	mov	r2, #0
5000b5bc:	e5c32000 	strb	r2, [r3]
5000b5c0:	ea000010 	b	5000b608 <OSQPend+0x208>
5000b5c4:	e3a03000 	mov	r3, #0
5000b5c8:	e58d301c 	str	r3, [sp, #28]
5000b5cc:	e59d3004 	ldr	r3, [sp, #4]
5000b5d0:	e3a0200e 	mov	r2, #14
5000b5d4:	e5c32000 	strb	r2, [r3]
5000b5d8:	ea00000a 	b	5000b608 <OSQPend+0x208>
5000b5dc:	e59f3098 	ldr	r3, [pc, #152]	; 5000b67c <OSQPend+0x27c>
5000b5e0:	e5933000 	ldr	r3, [r3]
5000b5e4:	e1a00003 	mov	r0, r3
5000b5e8:	e59d100c 	ldr	r1, [sp, #12]
5000b5ec:	ebffee20 	bl	50006e74 <OS_EventTaskRemove>
5000b5f0:	e3a03000 	mov	r3, #0
5000b5f4:	e58d301c 	str	r3, [sp, #28]
5000b5f8:	e59d3004 	ldr	r3, [sp, #4]
5000b5fc:	e3a0200a 	mov	r2, #10
5000b600:	e5c32000 	strb	r2, [r3]
5000b604:	e1a00000 	nop			; (mov r0, r0)
5000b608:	e59f306c 	ldr	r3, [pc, #108]	; 5000b67c <OSQPend+0x27c>
5000b60c:	e5933000 	ldr	r3, [r3]
5000b610:	e3a02000 	mov	r2, #0
5000b614:	e5c32034 	strb	r2, [r3, #52]	; 0x34
5000b618:	e59f305c 	ldr	r3, [pc, #92]	; 5000b67c <OSQPend+0x27c>
5000b61c:	e5933000 	ldr	r3, [r3]
5000b620:	e3a02000 	mov	r2, #0
5000b624:	e5c32035 	strb	r2, [r3, #53]	; 0x35
5000b628:	e59f304c 	ldr	r3, [pc, #76]	; 5000b67c <OSQPend+0x27c>
5000b62c:	e5933000 	ldr	r3, [r3]
5000b630:	e3a02000 	mov	r2, #0
5000b634:	e583201c 	str	r2, [r3, #28]
5000b638:	e59f303c 	ldr	r3, [pc, #60]	; 5000b67c <OSQPend+0x27c>
5000b63c:	e5933000 	ldr	r3, [r3]
5000b640:	e3a02000 	mov	r2, #0
5000b644:	e5832020 	str	r2, [r3, #32]
5000b648:	e59f302c 	ldr	r3, [pc, #44]	; 5000b67c <OSQPend+0x27c>
5000b64c:	e5933000 	ldr	r3, [r3]
5000b650:	e3a02000 	mov	r2, #0
5000b654:	e5832024 	str	r2, [r3, #36]	; 0x24
5000b658:	e59d0018 	ldr	r0, [sp, #24]
5000b65c:	ebffe3b8 	bl	50004544 <OS_CPU_SR_Restore>
5000b660:	e59d301c 	ldr	r3, [sp, #28]
5000b664:	e1a00003 	mov	r0, r3
5000b668:	e28dd024 	add	sp, sp, #36	; 0x24
5000b66c:	e49de004 	pop	{lr}		; (ldr lr, [sp], #4)
5000b670:	e12fff1e 	bx	lr
5000b674:	50012178 	andpl	r2, r1, r8, ror r1
5000b678:	50011980 	andpl	r1, r1, r0, lsl #19
5000b67c:	5001217c 	andpl	r2, r1, ip, ror r1

5000b680 <OSQPendAbort>:
5000b680:	e52de004 	push	{lr}		; (str lr, [sp, #-4]!)
5000b684:	e24dd01c 	sub	sp, sp, #28
5000b688:	e58d000c 	str	r0, [sp, #12]
5000b68c:	e1a03001 	mov	r3, r1
5000b690:	e58d2004 	str	r2, [sp, #4]
5000b694:	e5cd300b 	strb	r3, [sp, #11]
5000b698:	e3a03000 	mov	r3, #0
5000b69c:	e58d3010 	str	r3, [sp, #16]
5000b6a0:	e59d300c 	ldr	r3, [sp, #12]
5000b6a4:	e5d33000 	ldrb	r3, [r3]
5000b6a8:	e3530002 	cmp	r3, #2
5000b6ac:	0a000004 	beq	5000b6c4 <OSQPendAbort+0x44>
5000b6b0:	e59d3004 	ldr	r3, [sp, #4]
5000b6b4:	e3a02001 	mov	r2, #1
5000b6b8:	e5c32000 	strb	r2, [r3]
5000b6bc:	e3a03000 	mov	r3, #0
5000b6c0:	ea000031 	b	5000b78c <OSQPendAbort+0x10c>
5000b6c4:	ebffe396 	bl	50004524 <OS_CPU_SR_Save>
5000b6c8:	e58d0010 	str	r0, [sp, #16]
5000b6cc:	e59d300c 	ldr	r3, [sp, #12]
5000b6d0:	e5d3300a 	ldrb	r3, [r3, #10]
5000b6d4:	e3530000 	cmp	r3, #0
5000b6d8:	0a000025 	beq	5000b774 <OSQPendAbort+0xf4>
5000b6dc:	e3a03000 	mov	r3, #0
5000b6e0:	e5cd3017 	strb	r3, [sp, #23]
5000b6e4:	e5dd300b 	ldrb	r3, [sp, #11]
5000b6e8:	e3530001 	cmp	r3, #1
5000b6ec:	0a000009 	beq	5000b718 <OSQPendAbort+0x98>
5000b6f0:	ea00000e 	b	5000b730 <OSQPendAbort+0xb0>
5000b6f4:	e59d000c 	ldr	r0, [sp, #12]
5000b6f8:	e3a01000 	mov	r1, #0
5000b6fc:	e3a02004 	mov	r2, #4
5000b700:	e3a03002 	mov	r3, #2
5000b704:	ebffecd0 	bl	50006a4c <OS_EventTaskRdy>
5000b708:	e5dd3017 	ldrb	r3, [sp, #23]
5000b70c:	e2833001 	add	r3, r3, #1
5000b710:	e5cd3017 	strb	r3, [sp, #23]
5000b714:	ea000000 	b	5000b71c <OSQPendAbort+0x9c>
5000b718:	e1a00000 	nop			; (mov r0, r0)
5000b71c:	e59d300c 	ldr	r3, [sp, #12]
5000b720:	e5d3300a 	ldrb	r3, [r3, #10]
5000b724:	e3530000 	cmp	r3, #0
5000b728:	1afffff1 	bne	5000b6f4 <OSQPendAbort+0x74>
5000b72c:	ea000008 	b	5000b754 <OSQPendAbort+0xd4>
5000b730:	e59d000c 	ldr	r0, [sp, #12]
5000b734:	e3a01000 	mov	r1, #0
5000b738:	e3a02004 	mov	r2, #4
5000b73c:	e3a03002 	mov	r3, #2
5000b740:	ebffecc1 	bl	50006a4c <OS_EventTaskRdy>
5000b744:	e5dd3017 	ldrb	r3, [sp, #23]
5000b748:	e2833001 	add	r3, r3, #1
5000b74c:	e5cd3017 	strb	r3, [sp, #23]
5000b750:	e1a00000 	nop			; (mov r0, r0)
5000b754:	e59d0010 	ldr	r0, [sp, #16]
5000b758:	ebffe379 	bl	50004544 <OS_CPU_SR_Restore>
5000b75c:	ebffef88 	bl	50007584 <OS_Sched>
5000b760:	e59d3004 	ldr	r3, [sp, #4]
5000b764:	e3a0200e 	mov	r2, #14
5000b768:	e5c32000 	strb	r2, [r3]
5000b76c:	e5dd3017 	ldrb	r3, [sp, #23]
5000b770:	ea000005 	b	5000b78c <OSQPendAbort+0x10c>
5000b774:	e59d0010 	ldr	r0, [sp, #16]
5000b778:	ebffe371 	bl	50004544 <OS_CPU_SR_Restore>
5000b77c:	e59d3004 	ldr	r3, [sp, #4]
5000b780:	e3a02000 	mov	r2, #0
5000b784:	e5c32000 	strb	r2, [r3]
5000b788:	e3a03000 	mov	r3, #0
5000b78c:	e1a00003 	mov	r0, r3
5000b790:	e28dd01c 	add	sp, sp, #28
5000b794:	e49de004 	pop	{lr}		; (ldr lr, [sp], #4)
5000b798:	e12fff1e 	bx	lr

5000b79c <OSQPost>:
5000b79c:	e52de004 	push	{lr}		; (str lr, [sp, #-4]!)
5000b7a0:	e24dd014 	sub	sp, sp, #20
5000b7a4:	e58d0004 	str	r0, [sp, #4]
5000b7a8:	e58d1000 	str	r1, [sp]
5000b7ac:	e3a03000 	mov	r3, #0
5000b7b0:	e58d300c 	str	r3, [sp, #12]
5000b7b4:	e59d3004 	ldr	r3, [sp, #4]
5000b7b8:	e5d33000 	ldrb	r3, [r3]
5000b7bc:	e3530002 	cmp	r3, #2
5000b7c0:	0a000001 	beq	5000b7cc <OSQPost+0x30>
5000b7c4:	e3a03001 	mov	r3, #1
5000b7c8:	ea000037 	b	5000b8ac <OSQPost+0x110>
5000b7cc:	ebffe354 	bl	50004524 <OS_CPU_SR_Save>
5000b7d0:	e58d000c 	str	r0, [sp, #12]
5000b7d4:	e59d3004 	ldr	r3, [sp, #4]
5000b7d8:	e5d3300a 	ldrb	r3, [r3, #10]
5000b7dc:	e3530000 	cmp	r3, #0
5000b7e0:	0a000009 	beq	5000b80c <OSQPost+0x70>
5000b7e4:	e59d0004 	ldr	r0, [sp, #4]
5000b7e8:	e59d1000 	ldr	r1, [sp]
5000b7ec:	e3a02004 	mov	r2, #4
5000b7f0:	e3a03000 	mov	r3, #0
5000b7f4:	ebffec94 	bl	50006a4c <OS_EventTaskRdy>
5000b7f8:	e59d000c 	ldr	r0, [sp, #12]
5000b7fc:	ebffe350 	bl	50004544 <OS_CPU_SR_Restore>
5000b800:	ebffef5f 	bl	50007584 <OS_Sched>
5000b804:	e3a03000 	mov	r3, #0
5000b808:	ea000027 	b	5000b8ac <OSQPost+0x110>
5000b80c:	e59d3004 	ldr	r3, [sp, #4]
5000b810:	e5933004 	ldr	r3, [r3, #4]
5000b814:	e58d3008 	str	r3, [sp, #8]
5000b818:	e59d3008 	ldr	r3, [sp, #8]
5000b81c:	e1d321b6 	ldrh	r2, [r3, #22]
5000b820:	e59d3008 	ldr	r3, [sp, #8]
5000b824:	e1d331b4 	ldrh	r3, [r3, #20]
5000b828:	e1520003 	cmp	r2, r3
5000b82c:	3a000003 	bcc	5000b840 <OSQPost+0xa4>
5000b830:	e59d000c 	ldr	r0, [sp, #12]
5000b834:	ebffe342 	bl	50004544 <OS_CPU_SR_Restore>
5000b838:	e3a0301e 	mov	r3, #30
5000b83c:	ea00001a 	b	5000b8ac <OSQPost+0x110>
5000b840:	e59d3008 	ldr	r3, [sp, #8]
5000b844:	e593300c 	ldr	r3, [r3, #12]
5000b848:	e2831004 	add	r1, r3, #4
5000b84c:	e59d2008 	ldr	r2, [sp, #8]
5000b850:	e582100c 	str	r1, [r2, #12]
5000b854:	e59d2000 	ldr	r2, [sp]
5000b858:	e5832000 	str	r2, [r3]
5000b85c:	e59d3008 	ldr	r3, [sp, #8]
5000b860:	e1d331b6 	ldrh	r3, [r3, #22]
5000b864:	e2833001 	add	r3, r3, #1
5000b868:	e1a03803 	lsl	r3, r3, #16
5000b86c:	e1a02823 	lsr	r2, r3, #16
5000b870:	e59d3008 	ldr	r3, [sp, #8]
5000b874:	e1c321b6 	strh	r2, [r3, #22]
5000b878:	e59d3008 	ldr	r3, [sp, #8]
5000b87c:	e593200c 	ldr	r2, [r3, #12]
5000b880:	e59d3008 	ldr	r3, [sp, #8]
5000b884:	e5933008 	ldr	r3, [r3, #8]
5000b888:	e1520003 	cmp	r2, r3
5000b88c:	1a000003 	bne	5000b8a0 <OSQPost+0x104>
5000b890:	e59d3008 	ldr	r3, [sp, #8]
5000b894:	e5932004 	ldr	r2, [r3, #4]
5000b898:	e59d3008 	ldr	r3, [sp, #8]
5000b89c:	e583200c 	str	r2, [r3, #12]
5000b8a0:	e59d000c 	ldr	r0, [sp, #12]
5000b8a4:	ebffe326 	bl	50004544 <OS_CPU_SR_Restore>
5000b8a8:	e3a03000 	mov	r3, #0
5000b8ac:	e1a00003 	mov	r0, r3
5000b8b0:	e28dd014 	add	sp, sp, #20
5000b8b4:	e49de004 	pop	{lr}		; (ldr lr, [sp], #4)
5000b8b8:	e12fff1e 	bx	lr

5000b8bc <OSQPostFront>:
5000b8bc:	e52de004 	push	{lr}		; (str lr, [sp, #-4]!)
5000b8c0:	e24dd014 	sub	sp, sp, #20
5000b8c4:	e58d0004 	str	r0, [sp, #4]
5000b8c8:	e58d1000 	str	r1, [sp]
5000b8cc:	e3a03000 	mov	r3, #0
5000b8d0:	e58d300c 	str	r3, [sp, #12]
5000b8d4:	e59d3004 	ldr	r3, [sp, #4]
5000b8d8:	e5d33000 	ldrb	r3, [r3]
5000b8dc:	e3530002 	cmp	r3, #2
5000b8e0:	0a000001 	beq	5000b8ec <OSQPostFront+0x30>
5000b8e4:	e3a03001 	mov	r3, #1
5000b8e8:	ea000039 	b	5000b9d4 <OSQPostFront+0x118>
5000b8ec:	ebffe30c 	bl	50004524 <OS_CPU_SR_Save>
5000b8f0:	e58d000c 	str	r0, [sp, #12]
5000b8f4:	e59d3004 	ldr	r3, [sp, #4]
5000b8f8:	e5d3300a 	ldrb	r3, [r3, #10]
5000b8fc:	e3530000 	cmp	r3, #0
5000b900:	0a000009 	beq	5000b92c <OSQPostFront+0x70>
5000b904:	e59d0004 	ldr	r0, [sp, #4]
5000b908:	e59d1000 	ldr	r1, [sp]
5000b90c:	e3a02004 	mov	r2, #4
5000b910:	e3a03000 	mov	r3, #0
5000b914:	ebffec4c 	bl	50006a4c <OS_EventTaskRdy>
5000b918:	e59d000c 	ldr	r0, [sp, #12]
5000b91c:	ebffe308 	bl	50004544 <OS_CPU_SR_Restore>
5000b920:	ebffef17 	bl	50007584 <OS_Sched>
5000b924:	e3a03000 	mov	r3, #0
5000b928:	ea000029 	b	5000b9d4 <OSQPostFront+0x118>
5000b92c:	e59d3004 	ldr	r3, [sp, #4]
5000b930:	e5933004 	ldr	r3, [r3, #4]
5000b934:	e58d3008 	str	r3, [sp, #8]
5000b938:	e59d3008 	ldr	r3, [sp, #8]
5000b93c:	e1d321b6 	ldrh	r2, [r3, #22]
5000b940:	e59d3008 	ldr	r3, [sp, #8]
5000b944:	e1d331b4 	ldrh	r3, [r3, #20]
5000b948:	e1520003 	cmp	r2, r3
5000b94c:	3a000003 	bcc	5000b960 <OSQPostFront+0xa4>
5000b950:	e59d000c 	ldr	r0, [sp, #12]
5000b954:	ebffe2fa 	bl	50004544 <OS_CPU_SR_Restore>
5000b958:	e3a0301e 	mov	r3, #30
5000b95c:	ea00001c 	b	5000b9d4 <OSQPostFront+0x118>
5000b960:	e59d3008 	ldr	r3, [sp, #8]
5000b964:	e5932010 	ldr	r2, [r3, #16]
5000b968:	e59d3008 	ldr	r3, [sp, #8]
5000b96c:	e5933004 	ldr	r3, [r3, #4]
5000b970:	e1520003 	cmp	r2, r3
5000b974:	1a000003 	bne	5000b988 <OSQPostFront+0xcc>
5000b978:	e59d3008 	ldr	r3, [sp, #8]
5000b97c:	e5932008 	ldr	r2, [r3, #8]
5000b980:	e59d3008 	ldr	r3, [sp, #8]
5000b984:	e5832010 	str	r2, [r3, #16]
5000b988:	e59d3008 	ldr	r3, [sp, #8]
5000b98c:	e5933010 	ldr	r3, [r3, #16]
5000b990:	e2432004 	sub	r2, r3, #4
5000b994:	e59d3008 	ldr	r3, [sp, #8]
5000b998:	e5832010 	str	r2, [r3, #16]
5000b99c:	e59d3008 	ldr	r3, [sp, #8]
5000b9a0:	e5933010 	ldr	r3, [r3, #16]
5000b9a4:	e59d2000 	ldr	r2, [sp]
5000b9a8:	e5832000 	str	r2, [r3]
5000b9ac:	e59d3008 	ldr	r3, [sp, #8]
5000b9b0:	e1d331b6 	ldrh	r3, [r3, #22]
5000b9b4:	e2833001 	add	r3, r3, #1
5000b9b8:	e1a03803 	lsl	r3, r3, #16
5000b9bc:	e1a02823 	lsr	r2, r3, #16
5000b9c0:	e59d3008 	ldr	r3, [sp, #8]
5000b9c4:	e1c321b6 	strh	r2, [r3, #22]
5000b9c8:	e59d000c 	ldr	r0, [sp, #12]
5000b9cc:	ebffe2dc 	bl	50004544 <OS_CPU_SR_Restore>
5000b9d0:	e3a03000 	mov	r3, #0
5000b9d4:	e1a00003 	mov	r0, r3
5000b9d8:	e28dd014 	add	sp, sp, #20
5000b9dc:	e49de004 	pop	{lr}		; (ldr lr, [sp], #4)
5000b9e0:	e12fff1e 	bx	lr

5000b9e4 <OSQPostOpt>:
5000b9e4:	e52de004 	push	{lr}		; (str lr, [sp, #-4]!)
5000b9e8:	e24dd01c 	sub	sp, sp, #28
5000b9ec:	e58d000c 	str	r0, [sp, #12]
5000b9f0:	e58d1008 	str	r1, [sp, #8]
5000b9f4:	e1a03002 	mov	r3, r2
5000b9f8:	e5cd3007 	strb	r3, [sp, #7]
5000b9fc:	e3a03000 	mov	r3, #0
5000ba00:	e58d3014 	str	r3, [sp, #20]
5000ba04:	e59d300c 	ldr	r3, [sp, #12]
5000ba08:	e5d33000 	ldrb	r3, [r3]
5000ba0c:	e3530002 	cmp	r3, #2
5000ba10:	0a000001 	beq	5000ba1c <OSQPostOpt+0x38>
5000ba14:	e3a03001 	mov	r3, #1
5000ba18:	ea000062 	b	5000bba8 <OSQPostOpt+0x1c4>
5000ba1c:	ebffe2c0 	bl	50004524 <OS_CPU_SR_Save>
5000ba20:	e58d0014 	str	r0, [sp, #20]
5000ba24:	e59d300c 	ldr	r3, [sp, #12]
5000ba28:	e5d3300a 	ldrb	r3, [r3, #10]
5000ba2c:	e3530000 	cmp	r3, #0
5000ba30:	0a00001c 	beq	5000baa8 <OSQPostOpt+0xc4>
5000ba34:	e5dd3007 	ldrb	r3, [sp, #7]
5000ba38:	e2033001 	and	r3, r3, #1
5000ba3c:	e3530000 	cmp	r3, #0
5000ba40:	0a00000a 	beq	5000ba70 <OSQPostOpt+0x8c>
5000ba44:	ea000004 	b	5000ba5c <OSQPostOpt+0x78>
5000ba48:	e59d000c 	ldr	r0, [sp, #12]
5000ba4c:	e59d1008 	ldr	r1, [sp, #8]
5000ba50:	e3a02004 	mov	r2, #4
5000ba54:	e3a03000 	mov	r3, #0
5000ba58:	ebffebfb 	bl	50006a4c <OS_EventTaskRdy>
5000ba5c:	e59d300c 	ldr	r3, [sp, #12]
5000ba60:	e5d3300a 	ldrb	r3, [r3, #10]
5000ba64:	e3530000 	cmp	r3, #0
5000ba68:	1afffff6 	bne	5000ba48 <OSQPostOpt+0x64>
5000ba6c:	ea000004 	b	5000ba84 <OSQPostOpt+0xa0>
5000ba70:	e59d000c 	ldr	r0, [sp, #12]
5000ba74:	e59d1008 	ldr	r1, [sp, #8]
5000ba78:	e3a02004 	mov	r2, #4
5000ba7c:	e3a03000 	mov	r3, #0
5000ba80:	ebffebf1 	bl	50006a4c <OS_EventTaskRdy>
5000ba84:	e59d0014 	ldr	r0, [sp, #20]
5000ba88:	ebffe2ad 	bl	50004544 <OS_CPU_SR_Restore>
5000ba8c:	e5dd3007 	ldrb	r3, [sp, #7]
5000ba90:	e2033004 	and	r3, r3, #4
5000ba94:	e3530000 	cmp	r3, #0
5000ba98:	1a000000 	bne	5000baa0 <OSQPostOpt+0xbc>
5000ba9c:	ebffeeb8 	bl	50007584 <OS_Sched>
5000baa0:	e3a03000 	mov	r3, #0
5000baa4:	ea00003f 	b	5000bba8 <OSQPostOpt+0x1c4>
5000baa8:	e59d300c 	ldr	r3, [sp, #12]
5000baac:	e5933004 	ldr	r3, [r3, #4]
5000bab0:	e58d3010 	str	r3, [sp, #16]
5000bab4:	e59d3010 	ldr	r3, [sp, #16]
5000bab8:	e1d321b6 	ldrh	r2, [r3, #22]
5000babc:	e59d3010 	ldr	r3, [sp, #16]
5000bac0:	e1d331b4 	ldrh	r3, [r3, #20]
5000bac4:	e1520003 	cmp	r2, r3
5000bac8:	3a000003 	bcc	5000badc <OSQPostOpt+0xf8>
5000bacc:	e59d0014 	ldr	r0, [sp, #20]
5000bad0:	ebffe29b 	bl	50004544 <OS_CPU_SR_Restore>
5000bad4:	e3a0301e 	mov	r3, #30
5000bad8:	ea000032 	b	5000bba8 <OSQPostOpt+0x1c4>
5000badc:	e5dd3007 	ldrb	r3, [sp, #7]
5000bae0:	e2033002 	and	r3, r3, #2
5000bae4:	e3530000 	cmp	r3, #0
5000bae8:	0a000013 	beq	5000bb3c <OSQPostOpt+0x158>
5000baec:	e59d3010 	ldr	r3, [sp, #16]
5000baf0:	e5932010 	ldr	r2, [r3, #16]
5000baf4:	e59d3010 	ldr	r3, [sp, #16]
5000baf8:	e5933004 	ldr	r3, [r3, #4]
5000bafc:	e1520003 	cmp	r2, r3
5000bb00:	1a000003 	bne	5000bb14 <OSQPostOpt+0x130>
5000bb04:	e59d3010 	ldr	r3, [sp, #16]
5000bb08:	e5932008 	ldr	r2, [r3, #8]
5000bb0c:	e59d3010 	ldr	r3, [sp, #16]
5000bb10:	e5832010 	str	r2, [r3, #16]
5000bb14:	e59d3010 	ldr	r3, [sp, #16]
5000bb18:	e5933010 	ldr	r3, [r3, #16]
5000bb1c:	e2432004 	sub	r2, r3, #4
5000bb20:	e59d3010 	ldr	r3, [sp, #16]
5000bb24:	e5832010 	str	r2, [r3, #16]
5000bb28:	e59d3010 	ldr	r3, [sp, #16]
5000bb2c:	e5933010 	ldr	r3, [r3, #16]
5000bb30:	e59d2008 	ldr	r2, [sp, #8]
5000bb34:	e5832000 	str	r2, [r3]
5000bb38:	ea000010 	b	5000bb80 <OSQPostOpt+0x19c>
5000bb3c:	e59d3010 	ldr	r3, [sp, #16]
5000bb40:	e593300c 	ldr	r3, [r3, #12]
5000bb44:	e2831004 	add	r1, r3, #4
5000bb48:	e59d2010 	ldr	r2, [sp, #16]
5000bb4c:	e582100c 	str	r1, [r2, #12]
5000bb50:	e59d2008 	ldr	r2, [sp, #8]
5000bb54:	e5832000 	str	r2, [r3]
5000bb58:	e59d3010 	ldr	r3, [sp, #16]
5000bb5c:	e593200c 	ldr	r2, [r3, #12]
5000bb60:	e59d3010 	ldr	r3, [sp, #16]
5000bb64:	e5933008 	ldr	r3, [r3, #8]
5000bb68:	e1520003 	cmp	r2, r3
5000bb6c:	1a000003 	bne	5000bb80 <OSQPostOpt+0x19c>
5000bb70:	e59d3010 	ldr	r3, [sp, #16]
5000bb74:	e5932004 	ldr	r2, [r3, #4]
5000bb78:	e59d3010 	ldr	r3, [sp, #16]
5000bb7c:	e583200c 	str	r2, [r3, #12]
5000bb80:	e59d3010 	ldr	r3, [sp, #16]
5000bb84:	e1d331b6 	ldrh	r3, [r3, #22]
5000bb88:	e2833001 	add	r3, r3, #1
5000bb8c:	e1a03803 	lsl	r3, r3, #16
5000bb90:	e1a02823 	lsr	r2, r3, #16
5000bb94:	e59d3010 	ldr	r3, [sp, #16]
5000bb98:	e1c321b6 	strh	r2, [r3, #22]
5000bb9c:	e59d0014 	ldr	r0, [sp, #20]
5000bba0:	ebffe267 	bl	50004544 <OS_CPU_SR_Restore>
5000bba4:	e3a03000 	mov	r3, #0
5000bba8:	e1a00003 	mov	r0, r3
5000bbac:	e28dd01c 	add	sp, sp, #28
5000bbb0:	e49de004 	pop	{lr}		; (ldr lr, [sp], #4)
5000bbb4:	e12fff1e 	bx	lr

5000bbb8 <OSQQuery>:
5000bbb8:	e52de004 	push	{lr}		; (str lr, [sp, #-4]!)
5000bbbc:	e24dd024 	sub	sp, sp, #36	; 0x24
5000bbc0:	e58d0004 	str	r0, [sp, #4]
5000bbc4:	e58d1000 	str	r1, [sp]
5000bbc8:	e3a03000 	mov	r3, #0
5000bbcc:	e58d3010 	str	r3, [sp, #16]
5000bbd0:	e59d3004 	ldr	r3, [sp, #4]
5000bbd4:	e5d33000 	ldrb	r3, [r3]
5000bbd8:	e3530002 	cmp	r3, #2
5000bbdc:	0a000001 	beq	5000bbe8 <OSQQuery+0x30>
5000bbe0:	e3a03001 	mov	r3, #1
5000bbe4:	ea000037 	b	5000bcc8 <OSQQuery+0x110>
5000bbe8:	ebffe24d 	bl	50004524 <OS_CPU_SR_Save>
5000bbec:	e58d0010 	str	r0, [sp, #16]
5000bbf0:	e59d3004 	ldr	r3, [sp, #4]
5000bbf4:	e5d3200a 	ldrb	r2, [r3, #10]
5000bbf8:	e59d3000 	ldr	r3, [sp]
5000bbfc:	e5c32010 	strb	r2, [r3, #16]
5000bc00:	e59d3004 	ldr	r3, [sp, #4]
5000bc04:	e283300b 	add	r3, r3, #11
5000bc08:	e58d3018 	str	r3, [sp, #24]
5000bc0c:	e59d3000 	ldr	r3, [sp]
5000bc10:	e2833008 	add	r3, r3, #8
5000bc14:	e58d3014 	str	r3, [sp, #20]
5000bc18:	e3a03000 	mov	r3, #0
5000bc1c:	e5cd301f 	strb	r3, [sp, #31]
5000bc20:	ea00000a 	b	5000bc50 <OSQQuery+0x98>
5000bc24:	e59d3014 	ldr	r3, [sp, #20]
5000bc28:	e2832001 	add	r2, r3, #1
5000bc2c:	e58d2014 	str	r2, [sp, #20]
5000bc30:	e59d2018 	ldr	r2, [sp, #24]
5000bc34:	e2821001 	add	r1, r2, #1
5000bc38:	e58d1018 	str	r1, [sp, #24]
5000bc3c:	e5d22000 	ldrb	r2, [r2]
5000bc40:	e5c32000 	strb	r2, [r3]
5000bc44:	e5dd301f 	ldrb	r3, [sp, #31]
5000bc48:	e2833001 	add	r3, r3, #1
5000bc4c:	e5cd301f 	strb	r3, [sp, #31]
5000bc50:	e5dd301f 	ldrb	r3, [sp, #31]
5000bc54:	e3530007 	cmp	r3, #7
5000bc58:	9afffff1 	bls	5000bc24 <OSQQuery+0x6c>
5000bc5c:	e59d3004 	ldr	r3, [sp, #4]
5000bc60:	e5933004 	ldr	r3, [r3, #4]
5000bc64:	e58d300c 	str	r3, [sp, #12]
5000bc68:	e59d300c 	ldr	r3, [sp, #12]
5000bc6c:	e1d331b6 	ldrh	r3, [r3, #22]
5000bc70:	e3530000 	cmp	r3, #0
5000bc74:	0a000005 	beq	5000bc90 <OSQQuery+0xd8>
5000bc78:	e59d300c 	ldr	r3, [sp, #12]
5000bc7c:	e5933010 	ldr	r3, [r3, #16]
5000bc80:	e5932000 	ldr	r2, [r3]
5000bc84:	e59d3000 	ldr	r3, [sp]
5000bc88:	e5832000 	str	r2, [r3]
5000bc8c:	ea000002 	b	5000bc9c <OSQQuery+0xe4>
5000bc90:	e59d3000 	ldr	r3, [sp]
5000bc94:	e3a02000 	mov	r2, #0
5000bc98:	e5832000 	str	r2, [r3]
5000bc9c:	e59d300c 	ldr	r3, [sp, #12]
5000bca0:	e1d321b6 	ldrh	r2, [r3, #22]
5000bca4:	e59d3000 	ldr	r3, [sp]
5000bca8:	e1c320b4 	strh	r2, [r3, #4]
5000bcac:	e59d300c 	ldr	r3, [sp, #12]
5000bcb0:	e1d321b4 	ldrh	r2, [r3, #20]
5000bcb4:	e59d3000 	ldr	r3, [sp]
5000bcb8:	e1c320b6 	strh	r2, [r3, #6]
5000bcbc:	e59d0010 	ldr	r0, [sp, #16]
5000bcc0:	ebffe21f 	bl	50004544 <OS_CPU_SR_Restore>
5000bcc4:	e3a03000 	mov	r3, #0
5000bcc8:	e1a00003 	mov	r0, r3
5000bccc:	e28dd024 	add	sp, sp, #36	; 0x24
5000bcd0:	e49de004 	pop	{lr}		; (ldr lr, [sp], #4)
5000bcd4:	e12fff1e 	bx	lr

5000bcd8 <OS_QInit>:
5000bcd8:	e52de004 	push	{lr}		; (str lr, [sp, #-4]!)
5000bcdc:	e24dd014 	sub	sp, sp, #20
5000bce0:	e59f00c4 	ldr	r0, [pc, #196]	; 5000bdac <OS_QInit+0xd4>
5000bce4:	e3a01060 	mov	r1, #96	; 0x60
5000bce8:	ebffedfd 	bl	500074e4 <OS_MemClr>
5000bcec:	e3a03000 	mov	r3, #0
5000bcf0:	e1cd30be 	strh	r3, [sp, #14]
5000bcf4:	ea000018 	b	5000bd5c <OS_QInit+0x84>
5000bcf8:	e1dd30be 	ldrh	r3, [sp, #14]
5000bcfc:	e2833001 	add	r3, r3, #1
5000bd00:	e1cd30bc 	strh	r3, [sp, #12]
5000bd04:	e1dd20be 	ldrh	r2, [sp, #14]
5000bd08:	e1a03002 	mov	r3, r2
5000bd0c:	e1a03083 	lsl	r3, r3, #1
5000bd10:	e0833002 	add	r3, r3, r2
5000bd14:	e1a03183 	lsl	r3, r3, #3
5000bd18:	e59f208c 	ldr	r2, [pc, #140]	; 5000bdac <OS_QInit+0xd4>
5000bd1c:	e0833002 	add	r3, r3, r2
5000bd20:	e58d3008 	str	r3, [sp, #8]
5000bd24:	e1dd20bc 	ldrh	r2, [sp, #12]
5000bd28:	e1a03002 	mov	r3, r2
5000bd2c:	e1a03083 	lsl	r3, r3, #1
5000bd30:	e0833002 	add	r3, r3, r2
5000bd34:	e1a03183 	lsl	r3, r3, #3
5000bd38:	e59f206c 	ldr	r2, [pc, #108]	; 5000bdac <OS_QInit+0xd4>
5000bd3c:	e0833002 	add	r3, r3, r2
5000bd40:	e58d3004 	str	r3, [sp, #4]
5000bd44:	e59d3008 	ldr	r3, [sp, #8]
5000bd48:	e59d2004 	ldr	r2, [sp, #4]
5000bd4c:	e5832000 	str	r2, [r3]
5000bd50:	e1dd30be 	ldrh	r3, [sp, #14]
5000bd54:	e2833001 	add	r3, r3, #1
5000bd58:	e1cd30be 	strh	r3, [sp, #14]
5000bd5c:	e1dd30be 	ldrh	r3, [sp, #14]
5000bd60:	e3530002 	cmp	r3, #2
5000bd64:	9affffe3 	bls	5000bcf8 <OS_QInit+0x20>
5000bd68:	e1dd20be 	ldrh	r2, [sp, #14]
5000bd6c:	e1a03002 	mov	r3, r2
5000bd70:	e1a03083 	lsl	r3, r3, #1
5000bd74:	e0833002 	add	r3, r3, r2
5000bd78:	e1a03183 	lsl	r3, r3, #3
5000bd7c:	e59f2028 	ldr	r2, [pc, #40]	; 5000bdac <OS_QInit+0xd4>
5000bd80:	e0833002 	add	r3, r3, r2
5000bd84:	e58d3008 	str	r3, [sp, #8]
5000bd88:	e59d3008 	ldr	r3, [sp, #8]
5000bd8c:	e3a02000 	mov	r2, #0
5000bd90:	e5832000 	str	r2, [r3]
5000bd94:	e59f3014 	ldr	r3, [pc, #20]	; 5000bdb0 <OS_QInit+0xd8>
5000bd98:	e59f200c 	ldr	r2, [pc, #12]	; 5000bdac <OS_QInit+0xd4>
5000bd9c:	e5832000 	str	r2, [r3]
5000bda0:	e28dd014 	add	sp, sp, #20
5000bda4:	e49de004 	pop	{lr}		; (ldr lr, [sp], #4)
5000bda8:	e12fff1e 	bx	lr
5000bdac:	50011f00 	andpl	r1, r1, r0, lsl #30
5000bdb0:	50011f64 	andpl	r1, r1, r4, ror #30

5000bdb4 <OSSemAccept>:
5000bdb4:	e52de004 	push	{lr}		; (str lr, [sp, #-4]!)
5000bdb8:	e24dd014 	sub	sp, sp, #20
5000bdbc:	e58d0004 	str	r0, [sp, #4]
5000bdc0:	e3a03000 	mov	r3, #0
5000bdc4:	e58d300c 	str	r3, [sp, #12]
5000bdc8:	e59d3004 	ldr	r3, [sp, #4]
5000bdcc:	e5d33000 	ldrb	r3, [r3]
5000bdd0:	e3530003 	cmp	r3, #3
5000bdd4:	0a000001 	beq	5000bde0 <OSSemAccept+0x2c>
5000bdd8:	e3a03000 	mov	r3, #0
5000bddc:	ea000011 	b	5000be28 <OSSemAccept+0x74>
5000bde0:	ebffe1cf 	bl	50004524 <OS_CPU_SR_Save>
5000bde4:	e58d000c 	str	r0, [sp, #12]
5000bde8:	e59d3004 	ldr	r3, [sp, #4]
5000bdec:	e1d330b8 	ldrh	r3, [r3, #8]
5000bdf0:	e1cd30ba 	strh	r3, [sp, #10]
5000bdf4:	e1dd30ba 	ldrh	r3, [sp, #10]
5000bdf8:	e3530000 	cmp	r3, #0
5000bdfc:	0a000006 	beq	5000be1c <OSSemAccept+0x68>
5000be00:	e59d3004 	ldr	r3, [sp, #4]
5000be04:	e1d330b8 	ldrh	r3, [r3, #8]
5000be08:	e2433001 	sub	r3, r3, #1
5000be0c:	e1a03803 	lsl	r3, r3, #16
5000be10:	e1a02823 	lsr	r2, r3, #16
5000be14:	e59d3004 	ldr	r3, [sp, #4]
5000be18:	e1c320b8 	strh	r2, [r3, #8]
5000be1c:	e59d000c 	ldr	r0, [sp, #12]
5000be20:	ebffe1c7 	bl	50004544 <OS_CPU_SR_Restore>
5000be24:	e1dd30ba 	ldrh	r3, [sp, #10]
5000be28:	e1a00003 	mov	r0, r3
5000be2c:	e28dd014 	add	sp, sp, #20
5000be30:	e49de004 	pop	{lr}		; (ldr lr, [sp], #4)
5000be34:	e12fff1e 	bx	lr

5000be38 <OSSemCreate>:
5000be38:	e52de004 	push	{lr}		; (str lr, [sp, #-4]!)
5000be3c:	e24dd014 	sub	sp, sp, #20
5000be40:	e1a03000 	mov	r3, r0
5000be44:	e1cd30b6 	strh	r3, [sp, #6]
5000be48:	e3a03000 	mov	r3, #0
5000be4c:	e58d300c 	str	r3, [sp, #12]
5000be50:	e59f30a8 	ldr	r3, [pc, #168]	; 5000bf00 <OSSemCreate+0xc8>
5000be54:	e5d33000 	ldrb	r3, [r3]
5000be58:	e3530000 	cmp	r3, #0
5000be5c:	0a000001 	beq	5000be68 <OSSemCreate+0x30>
5000be60:	e3a03000 	mov	r3, #0
5000be64:	ea000021 	b	5000bef0 <OSSemCreate+0xb8>
5000be68:	ebffe1ad 	bl	50004524 <OS_CPU_SR_Save>
5000be6c:	e58d000c 	str	r0, [sp, #12]
5000be70:	e59f308c 	ldr	r3, [pc, #140]	; 5000bf04 <OSSemCreate+0xcc>
5000be74:	e5933000 	ldr	r3, [r3]
5000be78:	e58d3008 	str	r3, [sp, #8]
5000be7c:	e59f3080 	ldr	r3, [pc, #128]	; 5000bf04 <OSSemCreate+0xcc>
5000be80:	e5933000 	ldr	r3, [r3]
5000be84:	e3530000 	cmp	r3, #0
5000be88:	0a000004 	beq	5000bea0 <OSSemCreate+0x68>
5000be8c:	e59f3070 	ldr	r3, [pc, #112]	; 5000bf04 <OSSemCreate+0xcc>
5000be90:	e5933000 	ldr	r3, [r3]
5000be94:	e5932004 	ldr	r2, [r3, #4]
5000be98:	e59f3064 	ldr	r3, [pc, #100]	; 5000bf04 <OSSemCreate+0xcc>
5000be9c:	e5832000 	str	r2, [r3]
5000bea0:	e59d000c 	ldr	r0, [sp, #12]
5000bea4:	ebffe1a6 	bl	50004544 <OS_CPU_SR_Restore>
5000bea8:	e59d3008 	ldr	r3, [sp, #8]
5000beac:	e3530000 	cmp	r3, #0
5000beb0:	0a00000d 	beq	5000beec <OSSemCreate+0xb4>
5000beb4:	e59d3008 	ldr	r3, [sp, #8]
5000beb8:	e3a02003 	mov	r2, #3
5000bebc:	e5c32000 	strb	r2, [r3]
5000bec0:	e59d3008 	ldr	r3, [sp, #8]
5000bec4:	e1dd20b6 	ldrh	r2, [sp, #6]
5000bec8:	e1c320b8 	strh	r2, [r3, #8]
5000becc:	e59d3008 	ldr	r3, [sp, #8]
5000bed0:	e3a02000 	mov	r2, #0
5000bed4:	e5832004 	str	r2, [r3, #4]
5000bed8:	e59d3008 	ldr	r3, [sp, #8]
5000bedc:	e59f2024 	ldr	r2, [pc, #36]	; 5000bf08 <OSSemCreate+0xd0>
5000bee0:	e5832014 	str	r2, [r3, #20]
5000bee4:	e59d0008 	ldr	r0, [sp, #8]
5000bee8:	ebffec4c 	bl	50007020 <OS_EventWaitListInit>
5000beec:	e59d3008 	ldr	r3, [sp, #8]
5000bef0:	e1a00003 	mov	r0, r3
5000bef4:	e28dd014 	add	sp, sp, #20
5000bef8:	e49de004 	pop	{lr}		; (ldr lr, [sp], #4)
5000befc:	e12fff1e 	bx	lr
5000bf00:	50012178 	andpl	r2, r1, r8, ror r1
5000bf04:	50012174 	andpl	r2, r1, r4, ror r1
5000bf08:	50010cb4 			; <UNDEFINED> instruction: 0x50010cb4

5000bf0c <OSSemDel>:
5000bf0c:	e52de004 	push	{lr}		; (str lr, [sp, #-4]!)
5000bf10:	e24dd024 	sub	sp, sp, #36	; 0x24
5000bf14:	e58d000c 	str	r0, [sp, #12]
5000bf18:	e1a03001 	mov	r3, r1
5000bf1c:	e58d2004 	str	r2, [sp, #4]
5000bf20:	e5cd300b 	strb	r3, [sp, #11]
5000bf24:	e3a03000 	mov	r3, #0
5000bf28:	e58d3014 	str	r3, [sp, #20]
5000bf2c:	e59d300c 	ldr	r3, [sp, #12]
5000bf30:	e5d33000 	ldrb	r3, [r3]
5000bf34:	e3530003 	cmp	r3, #3
5000bf38:	0a000004 	beq	5000bf50 <OSSemDel+0x44>
5000bf3c:	e59d3004 	ldr	r3, [sp, #4]
5000bf40:	e3a02001 	mov	r2, #1
5000bf44:	e5c32000 	strb	r2, [r3]
5000bf48:	e59d300c 	ldr	r3, [sp, #12]
5000bf4c:	ea00006c 	b	5000c104 <OSSemDel+0x1f8>
5000bf50:	e59f31bc 	ldr	r3, [pc, #444]	; 5000c114 <OSSemDel+0x208>
5000bf54:	e5d33000 	ldrb	r3, [r3]
5000bf58:	e3530000 	cmp	r3, #0
5000bf5c:	0a000004 	beq	5000bf74 <OSSemDel+0x68>
5000bf60:	e59d3004 	ldr	r3, [sp, #4]
5000bf64:	e3a0200f 	mov	r2, #15
5000bf68:	e5c32000 	strb	r2, [r3]
5000bf6c:	e59d300c 	ldr	r3, [sp, #12]
5000bf70:	ea000063 	b	5000c104 <OSSemDel+0x1f8>
5000bf74:	ebffe16a 	bl	50004524 <OS_CPU_SR_Save>
5000bf78:	e58d0014 	str	r0, [sp, #20]
5000bf7c:	e59d300c 	ldr	r3, [sp, #12]
5000bf80:	e5d3300a 	ldrb	r3, [r3, #10]
5000bf84:	e3530000 	cmp	r3, #0
5000bf88:	0a000002 	beq	5000bf98 <OSSemDel+0x8c>
5000bf8c:	e3a03001 	mov	r3, #1
5000bf90:	e5cd301f 	strb	r3, [sp, #31]
5000bf94:	ea000001 	b	5000bfa0 <OSSemDel+0x94>
5000bf98:	e3a03000 	mov	r3, #0
5000bf9c:	e5cd301f 	strb	r3, [sp, #31]
5000bfa0:	e5dd300b 	ldrb	r3, [sp, #11]
5000bfa4:	e3530000 	cmp	r3, #0
5000bfa8:	0a000002 	beq	5000bfb8 <OSSemDel+0xac>
5000bfac:	e3530001 	cmp	r3, #1
5000bfb0:	0a000029 	beq	5000c05c <OSSemDel+0x150>
5000bfb4:	ea000049 	b	5000c0e0 <OSSemDel+0x1d4>
5000bfb8:	e5dd301f 	ldrb	r3, [sp, #31]
5000bfbc:	e3530000 	cmp	r3, #0
5000bfc0:	1a000017 	bne	5000c024 <OSSemDel+0x118>
5000bfc4:	e59d300c 	ldr	r3, [sp, #12]
5000bfc8:	e59f2148 	ldr	r2, [pc, #328]	; 5000c118 <OSSemDel+0x20c>
5000bfcc:	e5832014 	str	r2, [r3, #20]
5000bfd0:	e59d300c 	ldr	r3, [sp, #12]
5000bfd4:	e3a02000 	mov	r2, #0
5000bfd8:	e5c32000 	strb	r2, [r3]
5000bfdc:	e59f3138 	ldr	r3, [pc, #312]	; 5000c11c <OSSemDel+0x210>
5000bfe0:	e5932000 	ldr	r2, [r3]
5000bfe4:	e59d300c 	ldr	r3, [sp, #12]
5000bfe8:	e5832004 	str	r2, [r3, #4]
5000bfec:	e59d300c 	ldr	r3, [sp, #12]
5000bff0:	e3a02000 	mov	r2, #0
5000bff4:	e1c320b8 	strh	r2, [r3, #8]
5000bff8:	e59f311c 	ldr	r3, [pc, #284]	; 5000c11c <OSSemDel+0x210>
5000bffc:	e59d200c 	ldr	r2, [sp, #12]
5000c000:	e5832000 	str	r2, [r3]
5000c004:	e59d0014 	ldr	r0, [sp, #20]
5000c008:	ebffe14d 	bl	50004544 <OS_CPU_SR_Restore>
5000c00c:	e59d3004 	ldr	r3, [sp, #4]
5000c010:	e3a02000 	mov	r2, #0
5000c014:	e5c32000 	strb	r2, [r3]
5000c018:	e3a03000 	mov	r3, #0
5000c01c:	e58d3018 	str	r3, [sp, #24]
5000c020:	ea000036 	b	5000c100 <OSSemDel+0x1f4>
5000c024:	e59d0014 	ldr	r0, [sp, #20]
5000c028:	ebffe145 	bl	50004544 <OS_CPU_SR_Restore>
5000c02c:	e59d3004 	ldr	r3, [sp, #4]
5000c030:	e3a02049 	mov	r2, #73	; 0x49
5000c034:	e5c32000 	strb	r2, [r3]
5000c038:	e59d300c 	ldr	r3, [sp, #12]
5000c03c:	e58d3018 	str	r3, [sp, #24]
5000c040:	ea00002e 	b	5000c100 <OSSemDel+0x1f4>
5000c044:	e59d000c 	ldr	r0, [sp, #12]
5000c048:	e3a01000 	mov	r1, #0
5000c04c:	e3a02001 	mov	r2, #1
5000c050:	e3a03000 	mov	r3, #0
5000c054:	ebffea7c 	bl	50006a4c <OS_EventTaskRdy>
5000c058:	ea000000 	b	5000c060 <OSSemDel+0x154>
5000c05c:	e1a00000 	nop			; (mov r0, r0)
5000c060:	e59d300c 	ldr	r3, [sp, #12]
5000c064:	e5d3300a 	ldrb	r3, [r3, #10]
5000c068:	e3530000 	cmp	r3, #0
5000c06c:	1afffff4 	bne	5000c044 <OSSemDel+0x138>
5000c070:	e59d300c 	ldr	r3, [sp, #12]
5000c074:	e59f209c 	ldr	r2, [pc, #156]	; 5000c118 <OSSemDel+0x20c>
5000c078:	e5832014 	str	r2, [r3, #20]
5000c07c:	e59d300c 	ldr	r3, [sp, #12]
5000c080:	e3a02000 	mov	r2, #0
5000c084:	e5c32000 	strb	r2, [r3]
5000c088:	e59f308c 	ldr	r3, [pc, #140]	; 5000c11c <OSSemDel+0x210>
5000c08c:	e5932000 	ldr	r2, [r3]
5000c090:	e59d300c 	ldr	r3, [sp, #12]
5000c094:	e5832004 	str	r2, [r3, #4]
5000c098:	e59d300c 	ldr	r3, [sp, #12]
5000c09c:	e3a02000 	mov	r2, #0
5000c0a0:	e1c320b8 	strh	r2, [r3, #8]
5000c0a4:	e59f3070 	ldr	r3, [pc, #112]	; 5000c11c <OSSemDel+0x210>
5000c0a8:	e59d200c 	ldr	r2, [sp, #12]
5000c0ac:	e5832000 	str	r2, [r3]
5000c0b0:	e59d0014 	ldr	r0, [sp, #20]
5000c0b4:	ebffe122 	bl	50004544 <OS_CPU_SR_Restore>
5000c0b8:	e5dd301f 	ldrb	r3, [sp, #31]
5000c0bc:	e3530001 	cmp	r3, #1
5000c0c0:	1a000000 	bne	5000c0c8 <OSSemDel+0x1bc>
5000c0c4:	ebffed2e 	bl	50007584 <OS_Sched>
5000c0c8:	e59d3004 	ldr	r3, [sp, #4]
5000c0cc:	e3a02000 	mov	r2, #0
5000c0d0:	e5c32000 	strb	r2, [r3]
5000c0d4:	e3a03000 	mov	r3, #0
5000c0d8:	e58d3018 	str	r3, [sp, #24]
5000c0dc:	ea000007 	b	5000c100 <OSSemDel+0x1f4>
5000c0e0:	e59d0014 	ldr	r0, [sp, #20]
5000c0e4:	ebffe116 	bl	50004544 <OS_CPU_SR_Restore>
5000c0e8:	e59d3004 	ldr	r3, [sp, #4]
5000c0ec:	e3a02007 	mov	r2, #7
5000c0f0:	e5c32000 	strb	r2, [r3]
5000c0f4:	e59d300c 	ldr	r3, [sp, #12]
5000c0f8:	e58d3018 	str	r3, [sp, #24]
5000c0fc:	e1a00000 	nop			; (mov r0, r0)
5000c100:	e59d3018 	ldr	r3, [sp, #24]
5000c104:	e1a00003 	mov	r0, r3
5000c108:	e28dd024 	add	sp, sp, #36	; 0x24
5000c10c:	e49de004 	pop	{lr}		; (ldr lr, [sp], #4)
5000c110:	e12fff1e 	bx	lr
5000c114:	50012178 	andpl	r2, r1, r8, ror r1
5000c118:	50010cb4 			; <UNDEFINED> instruction: 0x50010cb4
5000c11c:	50012174 	andpl	r2, r1, r4, ror r1

5000c120 <OSSemPend>:
5000c120:	e52de004 	push	{lr}		; (str lr, [sp, #-4]!)
5000c124:	e24dd01c 	sub	sp, sp, #28
5000c128:	e58d000c 	str	r0, [sp, #12]
5000c12c:	e58d1008 	str	r1, [sp, #8]
5000c130:	e58d2004 	str	r2, [sp, #4]
5000c134:	e3a03000 	mov	r3, #0
5000c138:	e58d3014 	str	r3, [sp, #20]
5000c13c:	e59d300c 	ldr	r3, [sp, #12]
5000c140:	e5d33000 	ldrb	r3, [r3]
5000c144:	e3530003 	cmp	r3, #3
5000c148:	0a000003 	beq	5000c15c <OSSemPend+0x3c>
5000c14c:	e59d3004 	ldr	r3, [sp, #4]
5000c150:	e3a02001 	mov	r2, #1
5000c154:	e5c32000 	strb	r2, [r3]
5000c158:	ea000064 	b	5000c2f0 <OSSemPend+0x1d0>
5000c15c:	e59f3198 	ldr	r3, [pc, #408]	; 5000c2fc <OSSemPend+0x1dc>
5000c160:	e5d33000 	ldrb	r3, [r3]
5000c164:	e3530000 	cmp	r3, #0
5000c168:	0a000003 	beq	5000c17c <OSSemPend+0x5c>
5000c16c:	e59d3004 	ldr	r3, [sp, #4]
5000c170:	e3a02002 	mov	r2, #2
5000c174:	e5c32000 	strb	r2, [r3]
5000c178:	ea00005c 	b	5000c2f0 <OSSemPend+0x1d0>
5000c17c:	e59f317c 	ldr	r3, [pc, #380]	; 5000c300 <OSSemPend+0x1e0>
5000c180:	e5d33000 	ldrb	r3, [r3]
5000c184:	e3530000 	cmp	r3, #0
5000c188:	0a000003 	beq	5000c19c <OSSemPend+0x7c>
5000c18c:	e59d3004 	ldr	r3, [sp, #4]
5000c190:	e3a0200d 	mov	r2, #13
5000c194:	e5c32000 	strb	r2, [r3]
5000c198:	ea000054 	b	5000c2f0 <OSSemPend+0x1d0>
5000c19c:	ebffe0e0 	bl	50004524 <OS_CPU_SR_Save>
5000c1a0:	e58d0014 	str	r0, [sp, #20]
5000c1a4:	e59d300c 	ldr	r3, [sp, #12]
5000c1a8:	e1d330b8 	ldrh	r3, [r3, #8]
5000c1ac:	e3530000 	cmp	r3, #0
5000c1b0:	0a00000c 	beq	5000c1e8 <OSSemPend+0xc8>
5000c1b4:	e59d300c 	ldr	r3, [sp, #12]
5000c1b8:	e1d330b8 	ldrh	r3, [r3, #8]
5000c1bc:	e2433001 	sub	r3, r3, #1
5000c1c0:	e1a03803 	lsl	r3, r3, #16
5000c1c4:	e1a02823 	lsr	r2, r3, #16
5000c1c8:	e59d300c 	ldr	r3, [sp, #12]
5000c1cc:	e1c320b8 	strh	r2, [r3, #8]
5000c1d0:	e59d0014 	ldr	r0, [sp, #20]
5000c1d4:	ebffe0da 	bl	50004544 <OS_CPU_SR_Restore>
5000c1d8:	e59d3004 	ldr	r3, [sp, #4]
5000c1dc:	e3a02000 	mov	r2, #0
5000c1e0:	e5c32000 	strb	r2, [r3]
5000c1e4:	ea000041 	b	5000c2f0 <OSSemPend+0x1d0>
5000c1e8:	e59f3114 	ldr	r3, [pc, #276]	; 5000c304 <OSSemPend+0x1e4>
5000c1ec:	e5933000 	ldr	r3, [r3]
5000c1f0:	e59f210c 	ldr	r2, [pc, #268]	; 5000c304 <OSSemPend+0x1e4>
5000c1f4:	e5922000 	ldr	r2, [r2]
5000c1f8:	e5d22034 	ldrb	r2, [r2, #52]	; 0x34
5000c1fc:	e3822001 	orr	r2, r2, #1
5000c200:	e20220ff 	and	r2, r2, #255	; 0xff
5000c204:	e5c32034 	strb	r2, [r3, #52]	; 0x34
5000c208:	e59f30f4 	ldr	r3, [pc, #244]	; 5000c304 <OSSemPend+0x1e4>
5000c20c:	e5933000 	ldr	r3, [r3]
5000c210:	e3a02000 	mov	r2, #0
5000c214:	e5c32035 	strb	r2, [r3, #53]	; 0x35
5000c218:	e59f30e4 	ldr	r3, [pc, #228]	; 5000c304 <OSSemPend+0x1e4>
5000c21c:	e5933000 	ldr	r3, [r3]
5000c220:	e59d2008 	ldr	r2, [sp, #8]
5000c224:	e5832030 	str	r2, [r3, #48]	; 0x30
5000c228:	e59d000c 	ldr	r0, [sp, #12]
5000c22c:	ebffea65 	bl	50006bc8 <OS_EventTaskWait>
5000c230:	e59d0014 	ldr	r0, [sp, #20]
5000c234:	ebffe0c2 	bl	50004544 <OS_CPU_SR_Restore>
5000c238:	ebffecd1 	bl	50007584 <OS_Sched>
5000c23c:	ebffe0b8 	bl	50004524 <OS_CPU_SR_Save>
5000c240:	e58d0014 	str	r0, [sp, #20]
5000c244:	e59f30b8 	ldr	r3, [pc, #184]	; 5000c304 <OSSemPend+0x1e4>
5000c248:	e5933000 	ldr	r3, [r3]
5000c24c:	e5d33035 	ldrb	r3, [r3, #53]	; 0x35
5000c250:	e3530000 	cmp	r3, #0
5000c254:	0a000002 	beq	5000c264 <OSSemPend+0x144>
5000c258:	e3530002 	cmp	r3, #2
5000c25c:	0a000004 	beq	5000c274 <OSSemPend+0x154>
5000c260:	ea000007 	b	5000c284 <OSSemPend+0x164>
5000c264:	e59d3004 	ldr	r3, [sp, #4]
5000c268:	e3a02000 	mov	r2, #0
5000c26c:	e5c32000 	strb	r2, [r3]
5000c270:	ea00000c 	b	5000c2a8 <OSSemPend+0x188>
5000c274:	e59d3004 	ldr	r3, [sp, #4]
5000c278:	e3a0200e 	mov	r2, #14
5000c27c:	e5c32000 	strb	r2, [r3]
5000c280:	ea000008 	b	5000c2a8 <OSSemPend+0x188>
5000c284:	e59f3078 	ldr	r3, [pc, #120]	; 5000c304 <OSSemPend+0x1e4>
5000c288:	e5933000 	ldr	r3, [r3]
5000c28c:	e1a00003 	mov	r0, r3
5000c290:	e59d100c 	ldr	r1, [sp, #12]
5000c294:	ebffeaf6 	bl	50006e74 <OS_EventTaskRemove>
5000c298:	e59d3004 	ldr	r3, [sp, #4]
5000c29c:	e3a0200a 	mov	r2, #10
5000c2a0:	e5c32000 	strb	r2, [r3]
5000c2a4:	e1a00000 	nop			; (mov r0, r0)
5000c2a8:	e59f3054 	ldr	r3, [pc, #84]	; 5000c304 <OSSemPend+0x1e4>
5000c2ac:	e5933000 	ldr	r3, [r3]
5000c2b0:	e3a02000 	mov	r2, #0
5000c2b4:	e5c32034 	strb	r2, [r3, #52]	; 0x34
5000c2b8:	e59f3044 	ldr	r3, [pc, #68]	; 5000c304 <OSSemPend+0x1e4>
5000c2bc:	e5933000 	ldr	r3, [r3]
5000c2c0:	e3a02000 	mov	r2, #0
5000c2c4:	e5c32035 	strb	r2, [r3, #53]	; 0x35
5000c2c8:	e59f3034 	ldr	r3, [pc, #52]	; 5000c304 <OSSemPend+0x1e4>
5000c2cc:	e5933000 	ldr	r3, [r3]
5000c2d0:	e3a02000 	mov	r2, #0
5000c2d4:	e583201c 	str	r2, [r3, #28]
5000c2d8:	e59f3024 	ldr	r3, [pc, #36]	; 5000c304 <OSSemPend+0x1e4>
5000c2dc:	e5933000 	ldr	r3, [r3]
5000c2e0:	e3a02000 	mov	r2, #0
5000c2e4:	e5832020 	str	r2, [r3, #32]
5000c2e8:	e59d0014 	ldr	r0, [sp, #20]
5000c2ec:	ebffe094 	bl	50004544 <OS_CPU_SR_Restore>
5000c2f0:	e28dd01c 	add	sp, sp, #28
5000c2f4:	e49de004 	pop	{lr}		; (ldr lr, [sp], #4)
5000c2f8:	e12fff1e 	bx	lr
5000c2fc:	50012178 	andpl	r2, r1, r8, ror r1
5000c300:	50011980 	andpl	r1, r1, r0, lsl #19
5000c304:	5001217c 	andpl	r2, r1, ip, ror r1

5000c308 <OSSemPendAbort>:
5000c308:	e52de004 	push	{lr}		; (str lr, [sp, #-4]!)
5000c30c:	e24dd01c 	sub	sp, sp, #28
5000c310:	e58d000c 	str	r0, [sp, #12]
5000c314:	e1a03001 	mov	r3, r1
5000c318:	e58d2004 	str	r2, [sp, #4]
5000c31c:	e5cd300b 	strb	r3, [sp, #11]
5000c320:	e3a03000 	mov	r3, #0
5000c324:	e58d3010 	str	r3, [sp, #16]
5000c328:	e59d300c 	ldr	r3, [sp, #12]
5000c32c:	e5d33000 	ldrb	r3, [r3]
5000c330:	e3530003 	cmp	r3, #3
5000c334:	0a000004 	beq	5000c34c <OSSemPendAbort+0x44>
5000c338:	e59d3004 	ldr	r3, [sp, #4]
5000c33c:	e3a02001 	mov	r2, #1
5000c340:	e5c32000 	strb	r2, [r3]
5000c344:	e3a03000 	mov	r3, #0
5000c348:	ea000031 	b	5000c414 <OSSemPendAbort+0x10c>
5000c34c:	ebffe074 	bl	50004524 <OS_CPU_SR_Save>
5000c350:	e58d0010 	str	r0, [sp, #16]
5000c354:	e59d300c 	ldr	r3, [sp, #12]
5000c358:	e5d3300a 	ldrb	r3, [r3, #10]
5000c35c:	e3530000 	cmp	r3, #0
5000c360:	0a000025 	beq	5000c3fc <OSSemPendAbort+0xf4>
5000c364:	e3a03000 	mov	r3, #0
5000c368:	e5cd3017 	strb	r3, [sp, #23]
5000c36c:	e5dd300b 	ldrb	r3, [sp, #11]
5000c370:	e3530001 	cmp	r3, #1
5000c374:	0a000009 	beq	5000c3a0 <OSSemPendAbort+0x98>
5000c378:	ea00000e 	b	5000c3b8 <OSSemPendAbort+0xb0>
5000c37c:	e59d000c 	ldr	r0, [sp, #12]
5000c380:	e3a01000 	mov	r1, #0
5000c384:	e3a02001 	mov	r2, #1
5000c388:	e3a03002 	mov	r3, #2
5000c38c:	ebffe9ae 	bl	50006a4c <OS_EventTaskRdy>
5000c390:	e5dd3017 	ldrb	r3, [sp, #23]
5000c394:	e2833001 	add	r3, r3, #1
5000c398:	e5cd3017 	strb	r3, [sp, #23]
5000c39c:	ea000000 	b	5000c3a4 <OSSemPendAbort+0x9c>
5000c3a0:	e1a00000 	nop			; (mov r0, r0)
5000c3a4:	e59d300c 	ldr	r3, [sp, #12]
5000c3a8:	e5d3300a 	ldrb	r3, [r3, #10]
5000c3ac:	e3530000 	cmp	r3, #0
5000c3b0:	1afffff1 	bne	5000c37c <OSSemPendAbort+0x74>
5000c3b4:	ea000008 	b	5000c3dc <OSSemPendAbort+0xd4>
5000c3b8:	e59d000c 	ldr	r0, [sp, #12]
5000c3bc:	e3a01000 	mov	r1, #0
5000c3c0:	e3a02001 	mov	r2, #1
5000c3c4:	e3a03002 	mov	r3, #2
5000c3c8:	ebffe99f 	bl	50006a4c <OS_EventTaskRdy>
5000c3cc:	e5dd3017 	ldrb	r3, [sp, #23]
5000c3d0:	e2833001 	add	r3, r3, #1
5000c3d4:	e5cd3017 	strb	r3, [sp, #23]
5000c3d8:	e1a00000 	nop			; (mov r0, r0)
5000c3dc:	e59d0010 	ldr	r0, [sp, #16]
5000c3e0:	ebffe057 	bl	50004544 <OS_CPU_SR_Restore>
5000c3e4:	ebffec66 	bl	50007584 <OS_Sched>
5000c3e8:	e59d3004 	ldr	r3, [sp, #4]
5000c3ec:	e3a0200e 	mov	r2, #14
5000c3f0:	e5c32000 	strb	r2, [r3]
5000c3f4:	e5dd3017 	ldrb	r3, [sp, #23]
5000c3f8:	ea000005 	b	5000c414 <OSSemPendAbort+0x10c>
5000c3fc:	e59d0010 	ldr	r0, [sp, #16]
5000c400:	ebffe04f 	bl	50004544 <OS_CPU_SR_Restore>
5000c404:	e59d3004 	ldr	r3, [sp, #4]
5000c408:	e3a02000 	mov	r2, #0
5000c40c:	e5c32000 	strb	r2, [r3]
5000c410:	e3a03000 	mov	r3, #0
5000c414:	e1a00003 	mov	r0, r3
5000c418:	e28dd01c 	add	sp, sp, #28
5000c41c:	e49de004 	pop	{lr}		; (ldr lr, [sp], #4)
5000c420:	e12fff1e 	bx	lr

5000c424 <OSSemPost>:
5000c424:	e52de004 	push	{lr}		; (str lr, [sp, #-4]!)
5000c428:	e24dd014 	sub	sp, sp, #20
5000c42c:	e58d0004 	str	r0, [sp, #4]
5000c430:	e3a03000 	mov	r3, #0
5000c434:	e58d300c 	str	r3, [sp, #12]
5000c438:	e59d3004 	ldr	r3, [sp, #4]
5000c43c:	e5d33000 	ldrb	r3, [r3]
5000c440:	e3530003 	cmp	r3, #3
5000c444:	0a000001 	beq	5000c450 <OSSemPost+0x2c>
5000c448:	e3a03001 	mov	r3, #1
5000c44c:	ea000022 	b	5000c4dc <OSSemPost+0xb8>
5000c450:	ebffe033 	bl	50004524 <OS_CPU_SR_Save>
5000c454:	e58d000c 	str	r0, [sp, #12]
5000c458:	e59d3004 	ldr	r3, [sp, #4]
5000c45c:	e5d3300a 	ldrb	r3, [r3, #10]
5000c460:	e3530000 	cmp	r3, #0
5000c464:	0a000009 	beq	5000c490 <OSSemPost+0x6c>
5000c468:	e59d0004 	ldr	r0, [sp, #4]
5000c46c:	e3a01000 	mov	r1, #0
5000c470:	e3a02001 	mov	r2, #1
5000c474:	e3a03000 	mov	r3, #0
5000c478:	ebffe973 	bl	50006a4c <OS_EventTaskRdy>
5000c47c:	e59d000c 	ldr	r0, [sp, #12]
5000c480:	ebffe02f 	bl	50004544 <OS_CPU_SR_Restore>
5000c484:	ebffec3e 	bl	50007584 <OS_Sched>
5000c488:	e3a03000 	mov	r3, #0
5000c48c:	ea000012 	b	5000c4dc <OSSemPost+0xb8>
5000c490:	e59d3004 	ldr	r3, [sp, #4]
5000c494:	e1d320b8 	ldrh	r2, [r3, #8]
5000c498:	e59f304c 	ldr	r3, [pc, #76]	; 5000c4ec <OSSemPost+0xc8>
5000c49c:	e1520003 	cmp	r2, r3
5000c4a0:	0a00000a 	beq	5000c4d0 <OSSemPost+0xac>
5000c4a4:	e59d3004 	ldr	r3, [sp, #4]
5000c4a8:	e1d330b8 	ldrh	r3, [r3, #8]
5000c4ac:	e2833001 	add	r3, r3, #1
5000c4b0:	e1a03803 	lsl	r3, r3, #16
5000c4b4:	e1a02823 	lsr	r2, r3, #16
5000c4b8:	e59d3004 	ldr	r3, [sp, #4]
5000c4bc:	e1c320b8 	strh	r2, [r3, #8]
5000c4c0:	e59d000c 	ldr	r0, [sp, #12]
5000c4c4:	ebffe01e 	bl	50004544 <OS_CPU_SR_Restore>
5000c4c8:	e3a03000 	mov	r3, #0
5000c4cc:	ea000002 	b	5000c4dc <OSSemPost+0xb8>
5000c4d0:	e59d000c 	ldr	r0, [sp, #12]
5000c4d4:	ebffe01a 	bl	50004544 <OS_CPU_SR_Restore>
5000c4d8:	e3a03033 	mov	r3, #51	; 0x33
5000c4dc:	e1a00003 	mov	r0, r3
5000c4e0:	e28dd014 	add	sp, sp, #20
5000c4e4:	e49de004 	pop	{lr}		; (ldr lr, [sp], #4)
5000c4e8:	e12fff1e 	bx	lr
5000c4ec:	0000ffff 	strdeq	pc, [r0], -pc	; <UNPREDICTABLE>

5000c4f0 <OSSemQuery>:
5000c4f0:	e52de004 	push	{lr}		; (str lr, [sp, #-4]!)
5000c4f4:	e24dd01c 	sub	sp, sp, #28
5000c4f8:	e58d0004 	str	r0, [sp, #4]
5000c4fc:	e58d1000 	str	r1, [sp]
5000c500:	e3a03000 	mov	r3, #0
5000c504:	e58d3008 	str	r3, [sp, #8]
5000c508:	e59d3004 	ldr	r3, [sp, #4]
5000c50c:	e5d33000 	ldrb	r3, [r3]
5000c510:	e3530003 	cmp	r3, #3
5000c514:	0a000001 	beq	5000c520 <OSSemQuery+0x30>
5000c518:	e3a03001 	mov	r3, #1
5000c51c:	ea000023 	b	5000c5b0 <OSSemQuery+0xc0>
5000c520:	ebffdfff 	bl	50004524 <OS_CPU_SR_Save>
5000c524:	e58d0008 	str	r0, [sp, #8]
5000c528:	e59d3004 	ldr	r3, [sp, #4]
5000c52c:	e5d3200a 	ldrb	r2, [r3, #10]
5000c530:	e59d3000 	ldr	r3, [sp]
5000c534:	e5c3200a 	strb	r2, [r3, #10]
5000c538:	e59d3004 	ldr	r3, [sp, #4]
5000c53c:	e283300b 	add	r3, r3, #11
5000c540:	e58d3010 	str	r3, [sp, #16]
5000c544:	e59d3000 	ldr	r3, [sp]
5000c548:	e2833002 	add	r3, r3, #2
5000c54c:	e58d300c 	str	r3, [sp, #12]
5000c550:	e3a03000 	mov	r3, #0
5000c554:	e5cd3017 	strb	r3, [sp, #23]
5000c558:	ea00000a 	b	5000c588 <OSSemQuery+0x98>
5000c55c:	e59d300c 	ldr	r3, [sp, #12]
5000c560:	e2832001 	add	r2, r3, #1
5000c564:	e58d200c 	str	r2, [sp, #12]
5000c568:	e59d2010 	ldr	r2, [sp, #16]
5000c56c:	e2821001 	add	r1, r2, #1
5000c570:	e58d1010 	str	r1, [sp, #16]
5000c574:	e5d22000 	ldrb	r2, [r2]
5000c578:	e5c32000 	strb	r2, [r3]
5000c57c:	e5dd3017 	ldrb	r3, [sp, #23]
5000c580:	e2833001 	add	r3, r3, #1
5000c584:	e5cd3017 	strb	r3, [sp, #23]
5000c588:	e5dd3017 	ldrb	r3, [sp, #23]
5000c58c:	e3530007 	cmp	r3, #7
5000c590:	9afffff1 	bls	5000c55c <OSSemQuery+0x6c>
5000c594:	e59d3004 	ldr	r3, [sp, #4]
5000c598:	e1d320b8 	ldrh	r2, [r3, #8]
5000c59c:	e59d3000 	ldr	r3, [sp]
5000c5a0:	e1c320b0 	strh	r2, [r3]
5000c5a4:	e59d0008 	ldr	r0, [sp, #8]
5000c5a8:	ebffdfe5 	bl	50004544 <OS_CPU_SR_Restore>
5000c5ac:	e3a03000 	mov	r3, #0
5000c5b0:	e1a00003 	mov	r0, r3
5000c5b4:	e28dd01c 	add	sp, sp, #28
5000c5b8:	e49de004 	pop	{lr}		; (ldr lr, [sp], #4)
5000c5bc:	e12fff1e 	bx	lr

5000c5c0 <OSSemSet>:
5000c5c0:	e52de004 	push	{lr}		; (str lr, [sp, #-4]!)
5000c5c4:	e24dd01c 	sub	sp, sp, #28
5000c5c8:	e58d000c 	str	r0, [sp, #12]
5000c5cc:	e1a03001 	mov	r3, r1
5000c5d0:	e58d2004 	str	r2, [sp, #4]
5000c5d4:	e1cd30ba 	strh	r3, [sp, #10]
5000c5d8:	e3a03000 	mov	r3, #0
5000c5dc:	e58d3014 	str	r3, [sp, #20]
5000c5e0:	e59d300c 	ldr	r3, [sp, #12]
5000c5e4:	e5d33000 	ldrb	r3, [r3]
5000c5e8:	e3530003 	cmp	r3, #3
5000c5ec:	0a000003 	beq	5000c600 <OSSemSet+0x40>
5000c5f0:	e59d3004 	ldr	r3, [sp, #4]
5000c5f4:	e3a02001 	mov	r2, #1
5000c5f8:	e5c32000 	strb	r2, [r3]
5000c5fc:	ea000019 	b	5000c668 <OSSemSet+0xa8>
5000c600:	ebffdfc7 	bl	50004524 <OS_CPU_SR_Save>
5000c604:	e58d0014 	str	r0, [sp, #20]
5000c608:	e59d3004 	ldr	r3, [sp, #4]
5000c60c:	e3a02000 	mov	r2, #0
5000c610:	e5c32000 	strb	r2, [r3]
5000c614:	e59d300c 	ldr	r3, [sp, #12]
5000c618:	e1d330b8 	ldrh	r3, [r3, #8]
5000c61c:	e3530000 	cmp	r3, #0
5000c620:	0a000003 	beq	5000c634 <OSSemSet+0x74>
5000c624:	e59d300c 	ldr	r3, [sp, #12]
5000c628:	e1dd20ba 	ldrh	r2, [sp, #10]
5000c62c:	e1c320b8 	strh	r2, [r3, #8]
5000c630:	ea00000a 	b	5000c660 <OSSemSet+0xa0>
5000c634:	e59d300c 	ldr	r3, [sp, #12]
5000c638:	e5d3300a 	ldrb	r3, [r3, #10]
5000c63c:	e3530000 	cmp	r3, #0
5000c640:	1a000003 	bne	5000c654 <OSSemSet+0x94>
5000c644:	e59d300c 	ldr	r3, [sp, #12]
5000c648:	e1dd20ba 	ldrh	r2, [sp, #10]
5000c64c:	e1c320b8 	strh	r2, [r3, #8]
5000c650:	ea000002 	b	5000c660 <OSSemSet+0xa0>
5000c654:	e59d3004 	ldr	r3, [sp, #4]
5000c658:	e3a02049 	mov	r2, #73	; 0x49
5000c65c:	e5c32000 	strb	r2, [r3]
5000c660:	e59d0014 	ldr	r0, [sp, #20]
5000c664:	ebffdfb6 	bl	50004544 <OS_CPU_SR_Restore>
5000c668:	e28dd01c 	add	sp, sp, #28
5000c66c:	e49de004 	pop	{lr}		; (ldr lr, [sp], #4)
5000c670:	e12fff1e 	bx	lr

5000c674 <OSTaskChangePrio>:
5000c674:	e52de004 	push	{lr}		; (str lr, [sp, #-4]!)
5000c678:	e24dd024 	sub	sp, sp, #36	; 0x24
5000c67c:	e1a02000 	mov	r2, r0
5000c680:	e1a03001 	mov	r3, r1
5000c684:	e5cd2007 	strb	r2, [sp, #7]
5000c688:	e5cd3006 	strb	r3, [sp, #6]
5000c68c:	e3a03000 	mov	r3, #0
5000c690:	e58d3014 	str	r3, [sp, #20]
5000c694:	ebffdfa2 	bl	50004524 <OS_CPU_SR_Save>
5000c698:	e58d0014 	str	r0, [sp, #20]
5000c69c:	e5dd2006 	ldrb	r2, [sp, #6]
5000c6a0:	e59f3450 	ldr	r3, [pc, #1104]	; 5000caf8 <OSTaskChangePrio+0x484>
5000c6a4:	e7933102 	ldr	r3, [r3, r2, lsl #2]
5000c6a8:	e3530000 	cmp	r3, #0
5000c6ac:	0a000003 	beq	5000c6c0 <OSTaskChangePrio+0x4c>
5000c6b0:	e59d0014 	ldr	r0, [sp, #20]
5000c6b4:	ebffdfa2 	bl	50004544 <OS_CPU_SR_Restore>
5000c6b8:	e3a03028 	mov	r3, #40	; 0x28
5000c6bc:	ea000109 	b	5000cae8 <OSTaskChangePrio+0x474>
5000c6c0:	e5dd3007 	ldrb	r3, [sp, #7]
5000c6c4:	e35300ff 	cmp	r3, #255	; 0xff
5000c6c8:	1a000003 	bne	5000c6dc <OSTaskChangePrio+0x68>
5000c6cc:	e59f3428 	ldr	r3, [pc, #1064]	; 5000cafc <OSTaskChangePrio+0x488>
5000c6d0:	e5933000 	ldr	r3, [r3]
5000c6d4:	e5d33036 	ldrb	r3, [r3, #54]	; 0x36
5000c6d8:	e5cd3007 	strb	r3, [sp, #7]
5000c6dc:	e5dd2007 	ldrb	r2, [sp, #7]
5000c6e0:	e59f3410 	ldr	r3, [pc, #1040]	; 5000caf8 <OSTaskChangePrio+0x484>
5000c6e4:	e7933102 	ldr	r3, [r3, r2, lsl #2]
5000c6e8:	e58d3010 	str	r3, [sp, #16]
5000c6ec:	e59d3010 	ldr	r3, [sp, #16]
5000c6f0:	e3530000 	cmp	r3, #0
5000c6f4:	1a000003 	bne	5000c708 <OSTaskChangePrio+0x94>
5000c6f8:	e59d0014 	ldr	r0, [sp, #20]
5000c6fc:	ebffdf90 	bl	50004544 <OS_CPU_SR_Restore>
5000c700:	e3a03029 	mov	r3, #41	; 0x29
5000c704:	ea0000f7 	b	5000cae8 <OSTaskChangePrio+0x474>
5000c708:	e59d3010 	ldr	r3, [sp, #16]
5000c70c:	e3530001 	cmp	r3, #1
5000c710:	1a000003 	bne	5000c724 <OSTaskChangePrio+0xb0>
5000c714:	e59d0014 	ldr	r0, [sp, #20]
5000c718:	ebffdf89 	bl	50004544 <OS_CPU_SR_Restore>
5000c71c:	e3a03043 	mov	r3, #67	; 0x43
5000c720:	ea0000f0 	b	5000cae8 <OSTaskChangePrio+0x474>
5000c724:	e5dd3006 	ldrb	r3, [sp, #6]
5000c728:	e1a031a3 	lsr	r3, r3, #3
5000c72c:	e5cd300f 	strb	r3, [sp, #15]
5000c730:	e5dd3006 	ldrb	r3, [sp, #6]
5000c734:	e2033007 	and	r3, r3, #7
5000c738:	e5cd300e 	strb	r3, [sp, #14]
5000c73c:	e5dd300f 	ldrb	r3, [sp, #15]
5000c740:	e3a02001 	mov	r2, #1
5000c744:	e1a03312 	lsl	r3, r2, r3
5000c748:	e5cd300d 	strb	r3, [sp, #13]
5000c74c:	e5dd300e 	ldrb	r3, [sp, #14]
5000c750:	e3a02001 	mov	r2, #1
5000c754:	e1a03312 	lsl	r3, r2, r3
5000c758:	e5cd300c 	strb	r3, [sp, #12]
5000c75c:	e5dd2007 	ldrb	r2, [sp, #7]
5000c760:	e59f3390 	ldr	r3, [pc, #912]	; 5000caf8 <OSTaskChangePrio+0x484>
5000c764:	e3a01000 	mov	r1, #0
5000c768:	e7831102 	str	r1, [r3, r2, lsl #2]
5000c76c:	e5dd2006 	ldrb	r2, [sp, #6]
5000c770:	e59f3380 	ldr	r3, [pc, #896]	; 5000caf8 <OSTaskChangePrio+0x484>
5000c774:	e59d1010 	ldr	r1, [sp, #16]
5000c778:	e7831102 	str	r1, [r3, r2, lsl #2]
5000c77c:	e59d3010 	ldr	r3, [sp, #16]
5000c780:	e5d33038 	ldrb	r3, [r3, #56]	; 0x38
5000c784:	e5cd300b 	strb	r3, [sp, #11]
5000c788:	e59d3010 	ldr	r3, [sp, #16]
5000c78c:	e5d3303a 	ldrb	r3, [r3, #58]	; 0x3a
5000c790:	e5cd300a 	strb	r3, [sp, #10]
5000c794:	e59d3010 	ldr	r3, [sp, #16]
5000c798:	e5d33039 	ldrb	r3, [r3, #57]	; 0x39
5000c79c:	e5cd3009 	strb	r3, [sp, #9]
5000c7a0:	e5dd300b 	ldrb	r3, [sp, #11]
5000c7a4:	e59f2354 	ldr	r2, [pc, #852]	; 5000cb00 <OSTaskChangePrio+0x48c>
5000c7a8:	e7d22003 	ldrb	r2, [r2, r3]
5000c7ac:	e5dd3009 	ldrb	r3, [sp, #9]
5000c7b0:	e0023003 	and	r3, r2, r3
5000c7b4:	e20330ff 	and	r3, r3, #255	; 0xff
5000c7b8:	e3530000 	cmp	r3, #0
5000c7bc:	0a000028 	beq	5000c864 <OSTaskChangePrio+0x1f0>
5000c7c0:	e5dd300b 	ldrb	r3, [sp, #11]
5000c7c4:	e5dd200b 	ldrb	r2, [sp, #11]
5000c7c8:	e59f1330 	ldr	r1, [pc, #816]	; 5000cb00 <OSTaskChangePrio+0x48c>
5000c7cc:	e7d11002 	ldrb	r1, [r1, r2]
5000c7d0:	e5dd2009 	ldrb	r2, [sp, #9]
5000c7d4:	e1e02002 	mvn	r2, r2
5000c7d8:	e20220ff 	and	r2, r2, #255	; 0xff
5000c7dc:	e0012002 	and	r2, r1, r2
5000c7e0:	e20210ff 	and	r1, r2, #255	; 0xff
5000c7e4:	e59f2314 	ldr	r2, [pc, #788]	; 5000cb00 <OSTaskChangePrio+0x48c>
5000c7e8:	e7c21003 	strb	r1, [r2, r3]
5000c7ec:	e5dd300b 	ldrb	r3, [sp, #11]
5000c7f0:	e59f2308 	ldr	r2, [pc, #776]	; 5000cb00 <OSTaskChangePrio+0x48c>
5000c7f4:	e7d23003 	ldrb	r3, [r2, r3]
5000c7f8:	e3530000 	cmp	r3, #0
5000c7fc:	1a000008 	bne	5000c824 <OSTaskChangePrio+0x1b0>
5000c800:	e5dd300a 	ldrb	r3, [sp, #10]
5000c804:	e1e03003 	mvn	r3, r3
5000c808:	e20320ff 	and	r2, r3, #255	; 0xff
5000c80c:	e59f32f0 	ldr	r3, [pc, #752]	; 5000cb04 <OSTaskChangePrio+0x490>
5000c810:	e5d33000 	ldrb	r3, [r3]
5000c814:	e0023003 	and	r3, r2, r3
5000c818:	e20320ff 	and	r2, r3, #255	; 0xff
5000c81c:	e59f32e0 	ldr	r3, [pc, #736]	; 5000cb04 <OSTaskChangePrio+0x490>
5000c820:	e5c32000 	strb	r2, [r3]
5000c824:	e59f32d8 	ldr	r3, [pc, #728]	; 5000cb04 <OSTaskChangePrio+0x490>
5000c828:	e5d32000 	ldrb	r2, [r3]
5000c82c:	e5dd300d 	ldrb	r3, [sp, #13]
5000c830:	e1823003 	orr	r3, r2, r3
5000c834:	e20320ff 	and	r2, r3, #255	; 0xff
5000c838:	e59f32c4 	ldr	r3, [pc, #708]	; 5000cb04 <OSTaskChangePrio+0x490>
5000c83c:	e5c32000 	strb	r2, [r3]
5000c840:	e5dd300f 	ldrb	r3, [sp, #15]
5000c844:	e5dd200f 	ldrb	r2, [sp, #15]
5000c848:	e59f12b0 	ldr	r1, [pc, #688]	; 5000cb00 <OSTaskChangePrio+0x48c>
5000c84c:	e7d11002 	ldrb	r1, [r1, r2]
5000c850:	e5dd200c 	ldrb	r2, [sp, #12]
5000c854:	e1812002 	orr	r2, r1, r2
5000c858:	e20210ff 	and	r1, r2, #255	; 0xff
5000c85c:	e59f229c 	ldr	r2, [pc, #668]	; 5000cb00 <OSTaskChangePrio+0x48c>
5000c860:	e7c21003 	strb	r1, [r2, r3]
5000c864:	e59d3010 	ldr	r3, [sp, #16]
5000c868:	e593301c 	ldr	r3, [r3, #28]
5000c86c:	e58d301c 	str	r3, [sp, #28]
5000c870:	e59d301c 	ldr	r3, [sp, #28]
5000c874:	e3530000 	cmp	r3, #0
5000c878:	0a000037 	beq	5000c95c <OSTaskChangePrio+0x2e8>
5000c87c:	e5dd100b 	ldrb	r1, [sp, #11]
5000c880:	e5dd200b 	ldrb	r2, [sp, #11]
5000c884:	e59d001c 	ldr	r0, [sp, #28]
5000c888:	e3a03008 	mov	r3, #8
5000c88c:	e0802002 	add	r2, r0, r2
5000c890:	e0823003 	add	r3, r2, r3
5000c894:	e5d32003 	ldrb	r2, [r3, #3]
5000c898:	e5dd3009 	ldrb	r3, [sp, #9]
5000c89c:	e1e03003 	mvn	r3, r3
5000c8a0:	e20330ff 	and	r3, r3, #255	; 0xff
5000c8a4:	e0023003 	and	r3, r2, r3
5000c8a8:	e20320ff 	and	r2, r3, #255	; 0xff
5000c8ac:	e59d001c 	ldr	r0, [sp, #28]
5000c8b0:	e3a03008 	mov	r3, #8
5000c8b4:	e0801001 	add	r1, r0, r1
5000c8b8:	e0813003 	add	r3, r1, r3
5000c8bc:	e5c32003 	strb	r2, [r3, #3]
5000c8c0:	e5dd200b 	ldrb	r2, [sp, #11]
5000c8c4:	e59d101c 	ldr	r1, [sp, #28]
5000c8c8:	e3a03008 	mov	r3, #8
5000c8cc:	e0812002 	add	r2, r1, r2
5000c8d0:	e0823003 	add	r3, r2, r3
5000c8d4:	e5d33003 	ldrb	r3, [r3, #3]
5000c8d8:	e3530000 	cmp	r3, #0
5000c8dc:	1a000008 	bne	5000c904 <OSTaskChangePrio+0x290>
5000c8e0:	e59d301c 	ldr	r3, [sp, #28]
5000c8e4:	e5d3200a 	ldrb	r2, [r3, #10]
5000c8e8:	e5dd300a 	ldrb	r3, [sp, #10]
5000c8ec:	e1e03003 	mvn	r3, r3
5000c8f0:	e20330ff 	and	r3, r3, #255	; 0xff
5000c8f4:	e0023003 	and	r3, r2, r3
5000c8f8:	e20320ff 	and	r2, r3, #255	; 0xff
5000c8fc:	e59d301c 	ldr	r3, [sp, #28]
5000c900:	e5c3200a 	strb	r2, [r3, #10]
5000c904:	e59d301c 	ldr	r3, [sp, #28]
5000c908:	e5d3200a 	ldrb	r2, [r3, #10]
5000c90c:	e5dd300d 	ldrb	r3, [sp, #13]
5000c910:	e1823003 	orr	r3, r2, r3
5000c914:	e20320ff 	and	r2, r3, #255	; 0xff
5000c918:	e59d301c 	ldr	r3, [sp, #28]
5000c91c:	e5c3200a 	strb	r2, [r3, #10]
5000c920:	e5dd100f 	ldrb	r1, [sp, #15]
5000c924:	e5dd200f 	ldrb	r2, [sp, #15]
5000c928:	e59d001c 	ldr	r0, [sp, #28]
5000c92c:	e3a03008 	mov	r3, #8
5000c930:	e0802002 	add	r2, r0, r2
5000c934:	e0823003 	add	r3, r2, r3
5000c938:	e5d32003 	ldrb	r2, [r3, #3]
5000c93c:	e5dd300c 	ldrb	r3, [sp, #12]
5000c940:	e1823003 	orr	r3, r2, r3
5000c944:	e20320ff 	and	r2, r3, #255	; 0xff
5000c948:	e59d001c 	ldr	r0, [sp, #28]
5000c94c:	e3a03008 	mov	r3, #8
5000c950:	e0801001 	add	r1, r0, r1
5000c954:	e0813003 	add	r3, r1, r3
5000c958:	e5c32003 	strb	r2, [r3, #3]
5000c95c:	e59d3010 	ldr	r3, [sp, #16]
5000c960:	e5933020 	ldr	r3, [r3, #32]
5000c964:	e3530000 	cmp	r3, #0
5000c968:	0a000047 	beq	5000ca8c <OSTaskChangePrio+0x418>
5000c96c:	e59d3010 	ldr	r3, [sp, #16]
5000c970:	e5933020 	ldr	r3, [r3, #32]
5000c974:	e58d3018 	str	r3, [sp, #24]
5000c978:	e59d3018 	ldr	r3, [sp, #24]
5000c97c:	e5933000 	ldr	r3, [r3]
5000c980:	e58d301c 	str	r3, [sp, #28]
5000c984:	ea00003d 	b	5000ca80 <OSTaskChangePrio+0x40c>
5000c988:	e5dd100b 	ldrb	r1, [sp, #11]
5000c98c:	e5dd200b 	ldrb	r2, [sp, #11]
5000c990:	e59d001c 	ldr	r0, [sp, #28]
5000c994:	e3a03008 	mov	r3, #8
5000c998:	e0802002 	add	r2, r0, r2
5000c99c:	e0823003 	add	r3, r2, r3
5000c9a0:	e5d32003 	ldrb	r2, [r3, #3]
5000c9a4:	e5dd3009 	ldrb	r3, [sp, #9]
5000c9a8:	e1e03003 	mvn	r3, r3
5000c9ac:	e20330ff 	and	r3, r3, #255	; 0xff
5000c9b0:	e0023003 	and	r3, r2, r3
5000c9b4:	e20320ff 	and	r2, r3, #255	; 0xff
5000c9b8:	e59d001c 	ldr	r0, [sp, #28]
5000c9bc:	e3a03008 	mov	r3, #8
5000c9c0:	e0801001 	add	r1, r0, r1
5000c9c4:	e0813003 	add	r3, r1, r3
5000c9c8:	e5c32003 	strb	r2, [r3, #3]
5000c9cc:	e5dd200b 	ldrb	r2, [sp, #11]
5000c9d0:	e59d101c 	ldr	r1, [sp, #28]
5000c9d4:	e3a03008 	mov	r3, #8
5000c9d8:	e0812002 	add	r2, r1, r2
5000c9dc:	e0823003 	add	r3, r2, r3
5000c9e0:	e5d33003 	ldrb	r3, [r3, #3]
5000c9e4:	e3530000 	cmp	r3, #0
5000c9e8:	1a000008 	bne	5000ca10 <OSTaskChangePrio+0x39c>
5000c9ec:	e59d301c 	ldr	r3, [sp, #28]
5000c9f0:	e5d3200a 	ldrb	r2, [r3, #10]
5000c9f4:	e5dd300a 	ldrb	r3, [sp, #10]
5000c9f8:	e1e03003 	mvn	r3, r3
5000c9fc:	e20330ff 	and	r3, r3, #255	; 0xff
5000ca00:	e0023003 	and	r3, r2, r3
5000ca04:	e20320ff 	and	r2, r3, #255	; 0xff
5000ca08:	e59d301c 	ldr	r3, [sp, #28]
5000ca0c:	e5c3200a 	strb	r2, [r3, #10]
5000ca10:	e59d301c 	ldr	r3, [sp, #28]
5000ca14:	e5d3200a 	ldrb	r2, [r3, #10]
5000ca18:	e5dd300d 	ldrb	r3, [sp, #13]
5000ca1c:	e1823003 	orr	r3, r2, r3
5000ca20:	e20320ff 	and	r2, r3, #255	; 0xff
5000ca24:	e59d301c 	ldr	r3, [sp, #28]
5000ca28:	e5c3200a 	strb	r2, [r3, #10]
5000ca2c:	e5dd100f 	ldrb	r1, [sp, #15]
5000ca30:	e5dd200f 	ldrb	r2, [sp, #15]
5000ca34:	e59d001c 	ldr	r0, [sp, #28]
5000ca38:	e3a03008 	mov	r3, #8
5000ca3c:	e0802002 	add	r2, r0, r2
5000ca40:	e0823003 	add	r3, r2, r3
5000ca44:	e5d32003 	ldrb	r2, [r3, #3]
5000ca48:	e5dd300c 	ldrb	r3, [sp, #12]
5000ca4c:	e1823003 	orr	r3, r2, r3
5000ca50:	e20320ff 	and	r2, r3, #255	; 0xff
5000ca54:	e59d001c 	ldr	r0, [sp, #28]
5000ca58:	e3a03008 	mov	r3, #8
5000ca5c:	e0801001 	add	r1, r0, r1
5000ca60:	e0813003 	add	r3, r1, r3
5000ca64:	e5c32003 	strb	r2, [r3, #3]
5000ca68:	e59d3018 	ldr	r3, [sp, #24]
5000ca6c:	e2833004 	add	r3, r3, #4
5000ca70:	e58d3018 	str	r3, [sp, #24]
5000ca74:	e59d3018 	ldr	r3, [sp, #24]
5000ca78:	e5933000 	ldr	r3, [r3]
5000ca7c:	e58d301c 	str	r3, [sp, #28]
5000ca80:	e59d301c 	ldr	r3, [sp, #28]
5000ca84:	e3530000 	cmp	r3, #0
5000ca88:	1affffbe 	bne	5000c988 <OSTaskChangePrio+0x314>
5000ca8c:	e59d3010 	ldr	r3, [sp, #16]
5000ca90:	e5dd2006 	ldrb	r2, [sp, #6]
5000ca94:	e5c32036 	strb	r2, [r3, #54]	; 0x36
5000ca98:	e59d3010 	ldr	r3, [sp, #16]
5000ca9c:	e5dd200f 	ldrb	r2, [sp, #15]
5000caa0:	e5c32038 	strb	r2, [r3, #56]	; 0x38
5000caa4:	e59d3010 	ldr	r3, [sp, #16]
5000caa8:	e5dd200e 	ldrb	r2, [sp, #14]
5000caac:	e5c32037 	strb	r2, [r3, #55]	; 0x37
5000cab0:	e59d3010 	ldr	r3, [sp, #16]
5000cab4:	e5dd200d 	ldrb	r2, [sp, #13]
5000cab8:	e5c3203a 	strb	r2, [r3, #58]	; 0x3a
5000cabc:	e59d3010 	ldr	r3, [sp, #16]
5000cac0:	e5dd200c 	ldrb	r2, [sp, #12]
5000cac4:	e5c32039 	strb	r2, [r3, #57]	; 0x39
5000cac8:	e59d0014 	ldr	r0, [sp, #20]
5000cacc:	ebffde9c 	bl	50004544 <OS_CPU_SR_Restore>
5000cad0:	e59f3030 	ldr	r3, [pc, #48]	; 5000cb08 <OSTaskChangePrio+0x494>
5000cad4:	e5d33000 	ldrb	r3, [r3]
5000cad8:	e3530001 	cmp	r3, #1
5000cadc:	1a000000 	bne	5000cae4 <OSTaskChangePrio+0x470>
5000cae0:	ebffeaa7 	bl	50007584 <OS_Sched>
5000cae4:	e3a03000 	mov	r3, #0
5000cae8:	e1a00003 	mov	r0, r3
5000caec:	e28dd024 	add	sp, sp, #36	; 0x24
5000caf0:	e49de004 	pop	{lr}		; (ldr lr, [sp], #4)
5000caf4:	e12fff1e 	bx	lr
5000caf8:	50012c14 	andpl	r2, r1, r4, lsl ip
5000cafc:	5001217c 	andpl	r2, r1, ip, ror r1
5000cb00:	50011f6c 	andpl	r1, r1, ip, ror #30
5000cb04:	50011f68 	andpl	r1, r1, r8, ror #30
5000cb08:	50011988 	andpl	r1, r1, r8, lsl #19

5000cb0c <OSTaskCreate>:
5000cb0c:	e52de004 	push	{lr}		; (str lr, [sp, #-4]!)
5000cb10:	e24dd034 	sub	sp, sp, #52	; 0x34
5000cb14:	e58d001c 	str	r0, [sp, #28]
5000cb18:	e58d1018 	str	r1, [sp, #24]
5000cb1c:	e58d2014 	str	r2, [sp, #20]
5000cb20:	e5cd3013 	strb	r3, [sp, #19]
5000cb24:	e3a03000 	mov	r3, #0
5000cb28:	e58d302c 	str	r3, [sp, #44]	; 0x2c
5000cb2c:	ebffde7c 	bl	50004524 <OS_CPU_SR_Save>
5000cb30:	e58d002c 	str	r0, [sp, #44]	; 0x2c
5000cb34:	e59f30fc 	ldr	r3, [pc, #252]	; 5000cc38 <OSTaskCreate+0x12c>
5000cb38:	e5d33000 	ldrb	r3, [r3]
5000cb3c:	e3530000 	cmp	r3, #0
5000cb40:	0a000003 	beq	5000cb54 <OSTaskCreate+0x48>
5000cb44:	e59d002c 	ldr	r0, [sp, #44]	; 0x2c
5000cb48:	ebffde7d 	bl	50004544 <OS_CPU_SR_Restore>
5000cb4c:	e3a0303c 	mov	r3, #60	; 0x3c
5000cb50:	ea000034 	b	5000cc28 <OSTaskCreate+0x11c>
5000cb54:	e5dd2013 	ldrb	r2, [sp, #19]
5000cb58:	e59f30dc 	ldr	r3, [pc, #220]	; 5000cc3c <OSTaskCreate+0x130>
5000cb5c:	e7933102 	ldr	r3, [r3, r2, lsl #2]
5000cb60:	e3530000 	cmp	r3, #0
5000cb64:	1a00002c 	bne	5000cc1c <OSTaskCreate+0x110>
5000cb68:	e5dd2013 	ldrb	r2, [sp, #19]
5000cb6c:	e59f30c8 	ldr	r3, [pc, #200]	; 5000cc3c <OSTaskCreate+0x130>
5000cb70:	e3a01001 	mov	r1, #1
5000cb74:	e7831102 	str	r1, [r3, r2, lsl #2]
5000cb78:	e59d002c 	ldr	r0, [sp, #44]	; 0x2c
5000cb7c:	ebffde70 	bl	50004544 <OS_CPU_SR_Restore>
5000cb80:	e59d001c 	ldr	r0, [sp, #28]
5000cb84:	e59d1018 	ldr	r1, [sp, #24]
5000cb88:	e59d2014 	ldr	r2, [sp, #20]
5000cb8c:	e3a03000 	mov	r3, #0
5000cb90:	ebffdf37 	bl	50004874 <OSTaskStkInit>
5000cb94:	e58d0028 	str	r0, [sp, #40]	; 0x28
5000cb98:	e5dd3013 	ldrb	r3, [sp, #19]
5000cb9c:	e3a02000 	mov	r2, #0
5000cba0:	e58d2000 	str	r2, [sp]
5000cba4:	e3a02000 	mov	r2, #0
5000cba8:	e58d2004 	str	r2, [sp, #4]
5000cbac:	e3a02000 	mov	r2, #0
5000cbb0:	e58d2008 	str	r2, [sp, #8]
5000cbb4:	e1a00003 	mov	r0, r3
5000cbb8:	e59d1028 	ldr	r1, [sp, #40]	; 0x28
5000cbbc:	e3a02000 	mov	r2, #0
5000cbc0:	e3a03000 	mov	r3, #0
5000cbc4:	ebffeb4a 	bl	500078f4 <OS_TCBInit>
5000cbc8:	e1a03000 	mov	r3, r0
5000cbcc:	e5cd3027 	strb	r3, [sp, #39]	; 0x27
5000cbd0:	e5dd3027 	ldrb	r3, [sp, #39]	; 0x27
5000cbd4:	e3530000 	cmp	r3, #0
5000cbd8:	1a000005 	bne	5000cbf4 <OSTaskCreate+0xe8>
5000cbdc:	e59f305c 	ldr	r3, [pc, #92]	; 5000cc40 <OSTaskCreate+0x134>
5000cbe0:	e5d33000 	ldrb	r3, [r3]
5000cbe4:	e3530001 	cmp	r3, #1
5000cbe8:	1a000009 	bne	5000cc14 <OSTaskCreate+0x108>
5000cbec:	ebffea64 	bl	50007584 <OS_Sched>
5000cbf0:	ea000007 	b	5000cc14 <OSTaskCreate+0x108>
5000cbf4:	ebffde4a 	bl	50004524 <OS_CPU_SR_Save>
5000cbf8:	e58d002c 	str	r0, [sp, #44]	; 0x2c
5000cbfc:	e5dd2013 	ldrb	r2, [sp, #19]
5000cc00:	e59f3034 	ldr	r3, [pc, #52]	; 5000cc3c <OSTaskCreate+0x130>
5000cc04:	e3a01000 	mov	r1, #0
5000cc08:	e7831102 	str	r1, [r3, r2, lsl #2]
5000cc0c:	e59d002c 	ldr	r0, [sp, #44]	; 0x2c
5000cc10:	ebffde4b 	bl	50004544 <OS_CPU_SR_Restore>
5000cc14:	e5dd3027 	ldrb	r3, [sp, #39]	; 0x27
5000cc18:	ea000002 	b	5000cc28 <OSTaskCreate+0x11c>
5000cc1c:	e59d002c 	ldr	r0, [sp, #44]	; 0x2c
5000cc20:	ebffde47 	bl	50004544 <OS_CPU_SR_Restore>
5000cc24:	e3a03028 	mov	r3, #40	; 0x28
5000cc28:	e1a00003 	mov	r0, r3
5000cc2c:	e28dd034 	add	sp, sp, #52	; 0x34
5000cc30:	e49de004 	pop	{lr}		; (ldr lr, [sp], #4)
5000cc34:	e12fff1e 	bx	lr
5000cc38:	50012178 	andpl	r2, r1, r8, ror r1
5000cc3c:	50012c14 	andpl	r2, r1, r4, lsl ip
5000cc40:	50011988 	andpl	r1, r1, r8, lsl #19

5000cc44 <OSTaskCreateExt>:
5000cc44:	e52de004 	push	{lr}		; (str lr, [sp, #-4]!)
5000cc48:	e24dd034 	sub	sp, sp, #52	; 0x34
5000cc4c:	e58d001c 	str	r0, [sp, #28]
5000cc50:	e58d1018 	str	r1, [sp, #24]
5000cc54:	e58d2014 	str	r2, [sp, #20]
5000cc58:	e5cd3013 	strb	r3, [sp, #19]
5000cc5c:	e3a03000 	mov	r3, #0
5000cc60:	e58d302c 	str	r3, [sp, #44]	; 0x2c
5000cc64:	ebffde2e 	bl	50004524 <OS_CPU_SR_Save>
5000cc68:	e58d002c 	str	r0, [sp, #44]	; 0x2c
5000cc6c:	e59f3110 	ldr	r3, [pc, #272]	; 5000cd84 <OSTaskCreateExt+0x140>
5000cc70:	e5d33000 	ldrb	r3, [r3]
5000cc74:	e3530000 	cmp	r3, #0
5000cc78:	0a000003 	beq	5000cc8c <OSTaskCreateExt+0x48>
5000cc7c:	e59d002c 	ldr	r0, [sp, #44]	; 0x2c
5000cc80:	ebffde2f 	bl	50004544 <OS_CPU_SR_Restore>
5000cc84:	e3a0303c 	mov	r3, #60	; 0x3c
5000cc88:	ea000039 	b	5000cd74 <OSTaskCreateExt+0x130>
5000cc8c:	e5dd2013 	ldrb	r2, [sp, #19]
5000cc90:	e59f30f0 	ldr	r3, [pc, #240]	; 5000cd88 <OSTaskCreateExt+0x144>
5000cc94:	e7933102 	ldr	r3, [r3, r2, lsl #2]
5000cc98:	e3530000 	cmp	r3, #0
5000cc9c:	1a000031 	bne	5000cd68 <OSTaskCreateExt+0x124>
5000cca0:	e5dd2013 	ldrb	r2, [sp, #19]
5000cca4:	e59f30dc 	ldr	r3, [pc, #220]	; 5000cd88 <OSTaskCreateExt+0x144>
5000cca8:	e3a01001 	mov	r1, #1
5000ccac:	e7831102 	str	r1, [r3, r2, lsl #2]
5000ccb0:	e59d002c 	ldr	r0, [sp, #44]	; 0x2c
5000ccb4:	ebffde22 	bl	50004544 <OS_CPU_SR_Restore>
5000ccb8:	e1dd34b8 	ldrh	r3, [sp, #72]	; 0x48
5000ccbc:	e59d003c 	ldr	r0, [sp, #60]	; 0x3c
5000ccc0:	e59d1040 	ldr	r1, [sp, #64]	; 0x40
5000ccc4:	e1a02003 	mov	r2, r3
5000ccc8:	eb000359 	bl	5000da34 <OS_TaskStkClr>
5000cccc:	e1dd34b8 	ldrh	r3, [sp, #72]	; 0x48
5000ccd0:	e59d001c 	ldr	r0, [sp, #28]
5000ccd4:	e59d1018 	ldr	r1, [sp, #24]
5000ccd8:	e59d2014 	ldr	r2, [sp, #20]
5000ccdc:	ebffdee4 	bl	50004874 <OSTaskStkInit>
5000cce0:	e58d0028 	str	r0, [sp, #40]	; 0x28
5000cce4:	e5dd2013 	ldrb	r2, [sp, #19]
5000cce8:	e1dd33b8 	ldrh	r3, [sp, #56]	; 0x38
5000ccec:	e59d1040 	ldr	r1, [sp, #64]	; 0x40
5000ccf0:	e58d1000 	str	r1, [sp]
5000ccf4:	e59d1044 	ldr	r1, [sp, #68]	; 0x44
5000ccf8:	e58d1004 	str	r1, [sp, #4]
5000ccfc:	e1dd14b8 	ldrh	r1, [sp, #72]	; 0x48
5000cd00:	e58d1008 	str	r1, [sp, #8]
5000cd04:	e1a00002 	mov	r0, r2
5000cd08:	e59d1028 	ldr	r1, [sp, #40]	; 0x28
5000cd0c:	e59d203c 	ldr	r2, [sp, #60]	; 0x3c
5000cd10:	ebffeaf7 	bl	500078f4 <OS_TCBInit>
5000cd14:	e1a03000 	mov	r3, r0
5000cd18:	e5cd3027 	strb	r3, [sp, #39]	; 0x27
5000cd1c:	e5dd3027 	ldrb	r3, [sp, #39]	; 0x27
5000cd20:	e3530000 	cmp	r3, #0
5000cd24:	1a000005 	bne	5000cd40 <OSTaskCreateExt+0xfc>
5000cd28:	e59f305c 	ldr	r3, [pc, #92]	; 5000cd8c <OSTaskCreateExt+0x148>
5000cd2c:	e5d33000 	ldrb	r3, [r3]
5000cd30:	e3530001 	cmp	r3, #1
5000cd34:	1a000009 	bne	5000cd60 <OSTaskCreateExt+0x11c>
5000cd38:	ebffea11 	bl	50007584 <OS_Sched>
5000cd3c:	ea000007 	b	5000cd60 <OSTaskCreateExt+0x11c>
5000cd40:	ebffddf7 	bl	50004524 <OS_CPU_SR_Save>
5000cd44:	e58d002c 	str	r0, [sp, #44]	; 0x2c
5000cd48:	e5dd2013 	ldrb	r2, [sp, #19]
5000cd4c:	e59f3034 	ldr	r3, [pc, #52]	; 5000cd88 <OSTaskCreateExt+0x144>
5000cd50:	e3a01000 	mov	r1, #0
5000cd54:	e7831102 	str	r1, [r3, r2, lsl #2]
5000cd58:	e59d002c 	ldr	r0, [sp, #44]	; 0x2c
5000cd5c:	ebffddf8 	bl	50004544 <OS_CPU_SR_Restore>
5000cd60:	e5dd3027 	ldrb	r3, [sp, #39]	; 0x27
5000cd64:	ea000002 	b	5000cd74 <OSTaskCreateExt+0x130>
5000cd68:	e59d002c 	ldr	r0, [sp, #44]	; 0x2c
5000cd6c:	ebffddf4 	bl	50004544 <OS_CPU_SR_Restore>
5000cd70:	e3a03028 	mov	r3, #40	; 0x28
5000cd74:	e1a00003 	mov	r0, r3
5000cd78:	e28dd034 	add	sp, sp, #52	; 0x34
5000cd7c:	e49de004 	pop	{lr}		; (ldr lr, [sp], #4)
5000cd80:	e12fff1e 	bx	lr
5000cd84:	50012178 	andpl	r2, r1, r8, ror r1
5000cd88:	50012c14 	andpl	r2, r1, r4, lsl ip
5000cd8c:	50011988 	andpl	r1, r1, r8, lsl #19

5000cd90 <OSTaskDel>:
5000cd90:	e52de004 	push	{lr}		; (str lr, [sp, #-4]!)
5000cd94:	e24dd01c 	sub	sp, sp, #28
5000cd98:	e1a03000 	mov	r3, r0
5000cd9c:	e5cd3007 	strb	r3, [sp, #7]
5000cda0:	e3a03000 	mov	r3, #0
5000cda4:	e58d3014 	str	r3, [sp, #20]
5000cda8:	e59f32dc 	ldr	r3, [pc, #732]	; 5000d08c <OSTaskDel+0x2fc>
5000cdac:	e5d33000 	ldrb	r3, [r3]
5000cdb0:	e3530000 	cmp	r3, #0
5000cdb4:	0a000001 	beq	5000cdc0 <OSTaskDel+0x30>
5000cdb8:	e3a03040 	mov	r3, #64	; 0x40
5000cdbc:	ea0000ae 	b	5000d07c <OSTaskDel+0x2ec>
5000cdc0:	e5dd3007 	ldrb	r3, [sp, #7]
5000cdc4:	e353003f 	cmp	r3, #63	; 0x3f
5000cdc8:	1a000001 	bne	5000cdd4 <OSTaskDel+0x44>
5000cdcc:	e3a0303e 	mov	r3, #62	; 0x3e
5000cdd0:	ea0000a9 	b	5000d07c <OSTaskDel+0x2ec>
5000cdd4:	ebffddd2 	bl	50004524 <OS_CPU_SR_Save>
5000cdd8:	e58d0014 	str	r0, [sp, #20]
5000cddc:	e5dd3007 	ldrb	r3, [sp, #7]
5000cde0:	e35300ff 	cmp	r3, #255	; 0xff
5000cde4:	1a000003 	bne	5000cdf8 <OSTaskDel+0x68>
5000cde8:	e59f32a0 	ldr	r3, [pc, #672]	; 5000d090 <OSTaskDel+0x300>
5000cdec:	e5933000 	ldr	r3, [r3]
5000cdf0:	e5d33036 	ldrb	r3, [r3, #54]	; 0x36
5000cdf4:	e5cd3007 	strb	r3, [sp, #7]
5000cdf8:	e5dd2007 	ldrb	r2, [sp, #7]
5000cdfc:	e59f3290 	ldr	r3, [pc, #656]	; 5000d094 <OSTaskDel+0x304>
5000ce00:	e7933102 	ldr	r3, [r3, r2, lsl #2]
5000ce04:	e58d3010 	str	r3, [sp, #16]
5000ce08:	e59d3010 	ldr	r3, [sp, #16]
5000ce0c:	e3530000 	cmp	r3, #0
5000ce10:	1a000003 	bne	5000ce24 <OSTaskDel+0x94>
5000ce14:	e59d0014 	ldr	r0, [sp, #20]
5000ce18:	ebffddc9 	bl	50004544 <OS_CPU_SR_Restore>
5000ce1c:	e3a03043 	mov	r3, #67	; 0x43
5000ce20:	ea000095 	b	5000d07c <OSTaskDel+0x2ec>
5000ce24:	e59d3010 	ldr	r3, [sp, #16]
5000ce28:	e3530001 	cmp	r3, #1
5000ce2c:	1a000003 	bne	5000ce40 <OSTaskDel+0xb0>
5000ce30:	e59d0014 	ldr	r0, [sp, #20]
5000ce34:	ebffddc2 	bl	50004544 <OS_CPU_SR_Restore>
5000ce38:	e3a0303d 	mov	r3, #61	; 0x3d
5000ce3c:	ea00008e 	b	5000d07c <OSTaskDel+0x2ec>
5000ce40:	e59d3010 	ldr	r3, [sp, #16]
5000ce44:	e5d33038 	ldrb	r3, [r3, #56]	; 0x38
5000ce48:	e59d2010 	ldr	r2, [sp, #16]
5000ce4c:	e5d22038 	ldrb	r2, [r2, #56]	; 0x38
5000ce50:	e59f1240 	ldr	r1, [pc, #576]	; 5000d098 <OSTaskDel+0x308>
5000ce54:	e7d11002 	ldrb	r1, [r1, r2]
5000ce58:	e59d2010 	ldr	r2, [sp, #16]
5000ce5c:	e5d22039 	ldrb	r2, [r2, #57]	; 0x39
5000ce60:	e1e02002 	mvn	r2, r2
5000ce64:	e20220ff 	and	r2, r2, #255	; 0xff
5000ce68:	e0012002 	and	r2, r1, r2
5000ce6c:	e20210ff 	and	r1, r2, #255	; 0xff
5000ce70:	e59f2220 	ldr	r2, [pc, #544]	; 5000d098 <OSTaskDel+0x308>
5000ce74:	e7c21003 	strb	r1, [r2, r3]
5000ce78:	e59d3010 	ldr	r3, [sp, #16]
5000ce7c:	e5d33038 	ldrb	r3, [r3, #56]	; 0x38
5000ce80:	e59f2210 	ldr	r2, [pc, #528]	; 5000d098 <OSTaskDel+0x308>
5000ce84:	e7d23003 	ldrb	r3, [r2, r3]
5000ce88:	e3530000 	cmp	r3, #0
5000ce8c:	1a000009 	bne	5000ceb8 <OSTaskDel+0x128>
5000ce90:	e59d3010 	ldr	r3, [sp, #16]
5000ce94:	e5d3303a 	ldrb	r3, [r3, #58]	; 0x3a
5000ce98:	e1e03003 	mvn	r3, r3
5000ce9c:	e20320ff 	and	r2, r3, #255	; 0xff
5000cea0:	e59f31f4 	ldr	r3, [pc, #500]	; 5000d09c <OSTaskDel+0x30c>
5000cea4:	e5d33000 	ldrb	r3, [r3]
5000cea8:	e0023003 	and	r3, r2, r3
5000ceac:	e20320ff 	and	r2, r3, #255	; 0xff
5000ceb0:	e59f31e4 	ldr	r3, [pc, #484]	; 5000d09c <OSTaskDel+0x30c>
5000ceb4:	e5c32000 	strb	r2, [r3]
5000ceb8:	e59d3010 	ldr	r3, [sp, #16]
5000cebc:	e593301c 	ldr	r3, [r3, #28]
5000cec0:	e3530000 	cmp	r3, #0
5000cec4:	0a000004 	beq	5000cedc <OSTaskDel+0x14c>
5000cec8:	e59d3010 	ldr	r3, [sp, #16]
5000cecc:	e593301c 	ldr	r3, [r3, #28]
5000ced0:	e59d0010 	ldr	r0, [sp, #16]
5000ced4:	e1a01003 	mov	r1, r3
5000ced8:	ebffe7e5 	bl	50006e74 <OS_EventTaskRemove>
5000cedc:	e59d3010 	ldr	r3, [sp, #16]
5000cee0:	e5933020 	ldr	r3, [r3, #32]
5000cee4:	e3530000 	cmp	r3, #0
5000cee8:	0a000004 	beq	5000cf00 <OSTaskDel+0x170>
5000ceec:	e59d3010 	ldr	r3, [sp, #16]
5000cef0:	e5933020 	ldr	r3, [r3, #32]
5000cef4:	e59d0010 	ldr	r0, [sp, #16]
5000cef8:	e1a01003 	mov	r1, r3
5000cefc:	ebffe808 	bl	50006f24 <OS_EventTaskRemoveMulti>
5000cf00:	e59d3010 	ldr	r3, [sp, #16]
5000cf04:	e5933028 	ldr	r3, [r3, #40]	; 0x28
5000cf08:	e58d300c 	str	r3, [sp, #12]
5000cf0c:	e59d300c 	ldr	r3, [sp, #12]
5000cf10:	e3530000 	cmp	r3, #0
5000cf14:	0a000001 	beq	5000cf20 <OSTaskDel+0x190>
5000cf18:	e59d000c 	ldr	r0, [sp, #12]
5000cf1c:	ebfff02c 	bl	50008fd4 <OS_FlagUnlink>
5000cf20:	e59d3010 	ldr	r3, [sp, #16]
5000cf24:	e3a02000 	mov	r2, #0
5000cf28:	e5832030 	str	r2, [r3, #48]	; 0x30
5000cf2c:	e59d3010 	ldr	r3, [sp, #16]
5000cf30:	e3a02000 	mov	r2, #0
5000cf34:	e5c32034 	strb	r2, [r3, #52]	; 0x34
5000cf38:	e59d3010 	ldr	r3, [sp, #16]
5000cf3c:	e3a02000 	mov	r2, #0
5000cf40:	e5c32035 	strb	r2, [r3, #53]	; 0x35
5000cf44:	e59f3154 	ldr	r3, [pc, #340]	; 5000d0a0 <OSTaskDel+0x310>
5000cf48:	e5d33000 	ldrb	r3, [r3]
5000cf4c:	e35300ff 	cmp	r3, #255	; 0xff
5000cf50:	0a000005 	beq	5000cf6c <OSTaskDel+0x1dc>
5000cf54:	e59f3144 	ldr	r3, [pc, #324]	; 5000d0a0 <OSTaskDel+0x310>
5000cf58:	e5d33000 	ldrb	r3, [r3]
5000cf5c:	e2833001 	add	r3, r3, #1
5000cf60:	e20320ff 	and	r2, r3, #255	; 0xff
5000cf64:	e59f3134 	ldr	r3, [pc, #308]	; 5000d0a0 <OSTaskDel+0x310>
5000cf68:	e5c32000 	strb	r2, [r3]
5000cf6c:	e59d0014 	ldr	r0, [sp, #20]
5000cf70:	ebffdd73 	bl	50004544 <OS_CPU_SR_Restore>
5000cf74:	ebffe6b3 	bl	50006a48 <OS_Dummy>
5000cf78:	ebffdd69 	bl	50004524 <OS_CPU_SR_Save>
5000cf7c:	e58d0014 	str	r0, [sp, #20]
5000cf80:	e59f3118 	ldr	r3, [pc, #280]	; 5000d0a0 <OSTaskDel+0x310>
5000cf84:	e5d33000 	ldrb	r3, [r3]
5000cf88:	e3530000 	cmp	r3, #0
5000cf8c:	0a000005 	beq	5000cfa8 <OSTaskDel+0x218>
5000cf90:	e59f3108 	ldr	r3, [pc, #264]	; 5000d0a0 <OSTaskDel+0x310>
5000cf94:	e5d33000 	ldrb	r3, [r3]
5000cf98:	e2433001 	sub	r3, r3, #1
5000cf9c:	e20320ff 	and	r2, r3, #255	; 0xff
5000cfa0:	e59f30f8 	ldr	r3, [pc, #248]	; 5000d0a0 <OSTaskDel+0x310>
5000cfa4:	e5c32000 	strb	r2, [r3]
5000cfa8:	e59d0010 	ldr	r0, [sp, #16]
5000cfac:	ebffde2a 	bl	5000485c <OSTaskDelHook>
5000cfb0:	e59f30ec 	ldr	r3, [pc, #236]	; 5000d0a4 <OSTaskDel+0x314>
5000cfb4:	e5d33000 	ldrb	r3, [r3]
5000cfb8:	e2433001 	sub	r3, r3, #1
5000cfbc:	e20320ff 	and	r2, r3, #255	; 0xff
5000cfc0:	e59f30dc 	ldr	r3, [pc, #220]	; 5000d0a4 <OSTaskDel+0x314>
5000cfc4:	e5c32000 	strb	r2, [r3]
5000cfc8:	e5dd2007 	ldrb	r2, [sp, #7]
5000cfcc:	e59f30c0 	ldr	r3, [pc, #192]	; 5000d094 <OSTaskDel+0x304>
5000cfd0:	e3a01000 	mov	r1, #0
5000cfd4:	e7831102 	str	r1, [r3, r2, lsl #2]
5000cfd8:	e59d3010 	ldr	r3, [sp, #16]
5000cfdc:	e5933018 	ldr	r3, [r3, #24]
5000cfe0:	e3530000 	cmp	r3, #0
5000cfe4:	1a000008 	bne	5000d00c <OSTaskDel+0x27c>
5000cfe8:	e59d3010 	ldr	r3, [sp, #16]
5000cfec:	e5933014 	ldr	r3, [r3, #20]
5000cff0:	e3a02000 	mov	r2, #0
5000cff4:	e5832018 	str	r2, [r3, #24]
5000cff8:	e59d3010 	ldr	r3, [sp, #16]
5000cffc:	e5932014 	ldr	r2, [r3, #20]
5000d000:	e59f30a0 	ldr	r3, [pc, #160]	; 5000d0a8 <OSTaskDel+0x318>
5000d004:	e5832000 	str	r2, [r3]
5000d008:	ea000009 	b	5000d034 <OSTaskDel+0x2a4>
5000d00c:	e59d3010 	ldr	r3, [sp, #16]
5000d010:	e5933018 	ldr	r3, [r3, #24]
5000d014:	e59d2010 	ldr	r2, [sp, #16]
5000d018:	e5922014 	ldr	r2, [r2, #20]
5000d01c:	e5832014 	str	r2, [r3, #20]
5000d020:	e59d3010 	ldr	r3, [sp, #16]
5000d024:	e5933014 	ldr	r3, [r3, #20]
5000d028:	e59d2010 	ldr	r2, [sp, #16]
5000d02c:	e5922018 	ldr	r2, [r2, #24]
5000d030:	e5832018 	str	r2, [r3, #24]
5000d034:	e59f3070 	ldr	r3, [pc, #112]	; 5000d0ac <OSTaskDel+0x31c>
5000d038:	e5932000 	ldr	r2, [r3]
5000d03c:	e59d3010 	ldr	r3, [sp, #16]
5000d040:	e5832014 	str	r2, [r3, #20]
5000d044:	e59f3060 	ldr	r3, [pc, #96]	; 5000d0ac <OSTaskDel+0x31c>
5000d048:	e59d2010 	ldr	r2, [sp, #16]
5000d04c:	e5832000 	str	r2, [r3]
5000d050:	e59d3010 	ldr	r3, [sp, #16]
5000d054:	e59f2054 	ldr	r2, [pc, #84]	; 5000d0b0 <OSTaskDel+0x320>
5000d058:	e5832050 	str	r2, [r3, #80]	; 0x50
5000d05c:	e59d0014 	ldr	r0, [sp, #20]
5000d060:	ebffdd37 	bl	50004544 <OS_CPU_SR_Restore>
5000d064:	e59f3048 	ldr	r3, [pc, #72]	; 5000d0b4 <OSTaskDel+0x324>
5000d068:	e5d33000 	ldrb	r3, [r3]
5000d06c:	e3530001 	cmp	r3, #1
5000d070:	1a000000 	bne	5000d078 <OSTaskDel+0x2e8>
5000d074:	ebffe942 	bl	50007584 <OS_Sched>
5000d078:	e3a03000 	mov	r3, #0
5000d07c:	e1a00003 	mov	r0, r3
5000d080:	e28dd01c 	add	sp, sp, #28
5000d084:	e49de004 	pop	{lr}		; (ldr lr, [sp], #4)
5000d088:	e12fff1e 	bx	lr
5000d08c:	50012178 	andpl	r2, r1, r8, ror r1
5000d090:	5001217c 	andpl	r2, r1, ip, ror r1
5000d094:	50012c14 	andpl	r2, r1, r4, lsl ip
5000d098:	50011f6c 	andpl	r1, r1, ip, ror #30
5000d09c:	50011f68 	andpl	r1, r1, r8, ror #30
5000d0a0:	50011980 	andpl	r1, r1, r0, lsl #19
5000d0a4:	50011ef9 	strdpl	r1, [r1], -r9
5000d0a8:	50011c68 	andpl	r1, r1, r8, ror #24
5000d0ac:	50011ef4 	strdpl	r1, [r1], -r4
5000d0b0:	50010cb4 			; <UNDEFINED> instruction: 0x50010cb4
5000d0b4:	50011988 	andpl	r1, r1, r8, lsl #19

5000d0b8 <OSTaskDelReq>:
5000d0b8:	e52de004 	push	{lr}		; (str lr, [sp, #-4]!)
5000d0bc:	e24dd01c 	sub	sp, sp, #28
5000d0c0:	e1a03000 	mov	r3, r0
5000d0c4:	e5cd3007 	strb	r3, [sp, #7]
5000d0c8:	e3a03000 	mov	r3, #0
5000d0cc:	e58d3014 	str	r3, [sp, #20]
5000d0d0:	e5dd3007 	ldrb	r3, [sp, #7]
5000d0d4:	e353003f 	cmp	r3, #63	; 0x3f
5000d0d8:	1a000001 	bne	5000d0e4 <OSTaskDelReq+0x2c>
5000d0dc:	e3a0303e 	mov	r3, #62	; 0x3e
5000d0e0:	ea000026 	b	5000d180 <OSTaskDelReq+0xc8>
5000d0e4:	e5dd3007 	ldrb	r3, [sp, #7]
5000d0e8:	e35300ff 	cmp	r3, #255	; 0xff
5000d0ec:	1a000009 	bne	5000d118 <OSTaskDelReq+0x60>
5000d0f0:	ebffdd0b 	bl	50004524 <OS_CPU_SR_Save>
5000d0f4:	e58d0014 	str	r0, [sp, #20]
5000d0f8:	e59f3090 	ldr	r3, [pc, #144]	; 5000d190 <OSTaskDelReq+0xd8>
5000d0fc:	e5933000 	ldr	r3, [r3]
5000d100:	e5d3303b 	ldrb	r3, [r3, #59]	; 0x3b
5000d104:	e5cd3013 	strb	r3, [sp, #19]
5000d108:	e59d0014 	ldr	r0, [sp, #20]
5000d10c:	ebffdd0c 	bl	50004544 <OS_CPU_SR_Restore>
5000d110:	e5dd3013 	ldrb	r3, [sp, #19]
5000d114:	ea000019 	b	5000d180 <OSTaskDelReq+0xc8>
5000d118:	ebffdd01 	bl	50004524 <OS_CPU_SR_Save>
5000d11c:	e58d0014 	str	r0, [sp, #20]
5000d120:	e5dd2007 	ldrb	r2, [sp, #7]
5000d124:	e59f3068 	ldr	r3, [pc, #104]	; 5000d194 <OSTaskDelReq+0xdc>
5000d128:	e7933102 	ldr	r3, [r3, r2, lsl #2]
5000d12c:	e58d300c 	str	r3, [sp, #12]
5000d130:	e59d300c 	ldr	r3, [sp, #12]
5000d134:	e3530000 	cmp	r3, #0
5000d138:	1a000003 	bne	5000d14c <OSTaskDelReq+0x94>
5000d13c:	e59d0014 	ldr	r0, [sp, #20]
5000d140:	ebffdcff 	bl	50004544 <OS_CPU_SR_Restore>
5000d144:	e3a03043 	mov	r3, #67	; 0x43
5000d148:	ea00000c 	b	5000d180 <OSTaskDelReq+0xc8>
5000d14c:	e59d300c 	ldr	r3, [sp, #12]
5000d150:	e3530001 	cmp	r3, #1
5000d154:	1a000003 	bne	5000d168 <OSTaskDelReq+0xb0>
5000d158:	e59d0014 	ldr	r0, [sp, #20]
5000d15c:	ebffdcf8 	bl	50004544 <OS_CPU_SR_Restore>
5000d160:	e3a0303d 	mov	r3, #61	; 0x3d
5000d164:	ea000005 	b	5000d180 <OSTaskDelReq+0xc8>
5000d168:	e59d300c 	ldr	r3, [sp, #12]
5000d16c:	e3a0203f 	mov	r2, #63	; 0x3f
5000d170:	e5c3203b 	strb	r2, [r3, #59]	; 0x3b
5000d174:	e59d0014 	ldr	r0, [sp, #20]
5000d178:	ebffdcf1 	bl	50004544 <OS_CPU_SR_Restore>
5000d17c:	e3a03000 	mov	r3, #0
5000d180:	e1a00003 	mov	r0, r3
5000d184:	e28dd01c 	add	sp, sp, #28
5000d188:	e49de004 	pop	{lr}		; (ldr lr, [sp], #4)
5000d18c:	e12fff1e 	bx	lr
5000d190:	5001217c 	andpl	r2, r1, ip, ror r1
5000d194:	50012c14 	andpl	r2, r1, r4, lsl ip

5000d198 <OSTaskNameGet>:
5000d198:	e52de004 	push	{lr}		; (str lr, [sp, #-4]!)
5000d19c:	e24dd024 	sub	sp, sp, #36	; 0x24
5000d1a0:	e1a03000 	mov	r3, r0
5000d1a4:	e58d1008 	str	r1, [sp, #8]
5000d1a8:	e58d2004 	str	r2, [sp, #4]
5000d1ac:	e5cd300f 	strb	r3, [sp, #15]
5000d1b0:	e3a03000 	mov	r3, #0
5000d1b4:	e58d301c 	str	r3, [sp, #28]
5000d1b8:	e59f30f0 	ldr	r3, [pc, #240]	; 5000d2b0 <OSTaskNameGet+0x118>
5000d1bc:	e5d33000 	ldrb	r3, [r3]
5000d1c0:	e3530000 	cmp	r3, #0
5000d1c4:	0a000004 	beq	5000d1dc <OSTaskNameGet+0x44>
5000d1c8:	e59d3004 	ldr	r3, [sp, #4]
5000d1cc:	e3a02011 	mov	r2, #17
5000d1d0:	e5c32000 	strb	r2, [r3]
5000d1d4:	e3a03000 	mov	r3, #0
5000d1d8:	ea000030 	b	5000d2a0 <OSTaskNameGet+0x108>
5000d1dc:	ebffdcd0 	bl	50004524 <OS_CPU_SR_Save>
5000d1e0:	e58d001c 	str	r0, [sp, #28]
5000d1e4:	e5dd300f 	ldrb	r3, [sp, #15]
5000d1e8:	e35300ff 	cmp	r3, #255	; 0xff
5000d1ec:	1a000003 	bne	5000d200 <OSTaskNameGet+0x68>
5000d1f0:	e59f30bc 	ldr	r3, [pc, #188]	; 5000d2b4 <OSTaskNameGet+0x11c>
5000d1f4:	e5933000 	ldr	r3, [r3]
5000d1f8:	e5d33036 	ldrb	r3, [r3, #54]	; 0x36
5000d1fc:	e5cd300f 	strb	r3, [sp, #15]
5000d200:	e5dd200f 	ldrb	r2, [sp, #15]
5000d204:	e59f30ac 	ldr	r3, [pc, #172]	; 5000d2b8 <OSTaskNameGet+0x120>
5000d208:	e7933102 	ldr	r3, [r3, r2, lsl #2]
5000d20c:	e58d3018 	str	r3, [sp, #24]
5000d210:	e59d3018 	ldr	r3, [sp, #24]
5000d214:	e3530000 	cmp	r3, #0
5000d218:	1a000006 	bne	5000d238 <OSTaskNameGet+0xa0>
5000d21c:	e59d001c 	ldr	r0, [sp, #28]
5000d220:	ebffdcc7 	bl	50004544 <OS_CPU_SR_Restore>
5000d224:	e59d3004 	ldr	r3, [sp, #4]
5000d228:	e3a02043 	mov	r2, #67	; 0x43
5000d22c:	e5c32000 	strb	r2, [r3]
5000d230:	e3a03000 	mov	r3, #0
5000d234:	ea000019 	b	5000d2a0 <OSTaskNameGet+0x108>
5000d238:	e59d3018 	ldr	r3, [sp, #24]
5000d23c:	e3530001 	cmp	r3, #1
5000d240:	1a000006 	bne	5000d260 <OSTaskNameGet+0xc8>
5000d244:	e59d001c 	ldr	r0, [sp, #28]
5000d248:	ebffdcbd 	bl	50004544 <OS_CPU_SR_Restore>
5000d24c:	e59d3004 	ldr	r3, [sp, #4]
5000d250:	e3a02043 	mov	r2, #67	; 0x43
5000d254:	e5c32000 	strb	r2, [r3]
5000d258:	e3a03000 	mov	r3, #0
5000d25c:	ea00000f 	b	5000d2a0 <OSTaskNameGet+0x108>
5000d260:	e59d3018 	ldr	r3, [sp, #24]
5000d264:	e5932050 	ldr	r2, [r3, #80]	; 0x50
5000d268:	e59d3008 	ldr	r3, [sp, #8]
5000d26c:	e5832000 	str	r2, [r3]
5000d270:	e59d3008 	ldr	r3, [sp, #8]
5000d274:	e5933000 	ldr	r3, [r3]
5000d278:	e1a00003 	mov	r0, r3
5000d27c:	ebffe90b 	bl	500076b0 <OS_StrLen>
5000d280:	e1a03000 	mov	r3, r0
5000d284:	e5cd3017 	strb	r3, [sp, #23]
5000d288:	e59d001c 	ldr	r0, [sp, #28]
5000d28c:	ebffdcac 	bl	50004544 <OS_CPU_SR_Restore>
5000d290:	e59d3004 	ldr	r3, [sp, #4]
5000d294:	e3a02000 	mov	r2, #0
5000d298:	e5c32000 	strb	r2, [r3]
5000d29c:	e5dd3017 	ldrb	r3, [sp, #23]
5000d2a0:	e1a00003 	mov	r0, r3
5000d2a4:	e28dd024 	add	sp, sp, #36	; 0x24
5000d2a8:	e49de004 	pop	{lr}		; (ldr lr, [sp], #4)
5000d2ac:	e12fff1e 	bx	lr
5000d2b0:	50012178 	andpl	r2, r1, r8, ror r1
5000d2b4:	5001217c 	andpl	r2, r1, ip, ror r1
5000d2b8:	50012c14 	andpl	r2, r1, r4, lsl ip

5000d2bc <OSTaskNameSet>:
5000d2bc:	e52de004 	push	{lr}		; (str lr, [sp, #-4]!)
5000d2c0:	e24dd01c 	sub	sp, sp, #28
5000d2c4:	e1a03000 	mov	r3, r0
5000d2c8:	e58d1008 	str	r1, [sp, #8]
5000d2cc:	e58d2004 	str	r2, [sp, #4]
5000d2d0:	e5cd300f 	strb	r3, [sp, #15]
5000d2d4:	e3a03000 	mov	r3, #0
5000d2d8:	e58d3014 	str	r3, [sp, #20]
5000d2dc:	e59f30c0 	ldr	r3, [pc, #192]	; 5000d3a4 <OSTaskNameSet+0xe8>
5000d2e0:	e5d33000 	ldrb	r3, [r3]
5000d2e4:	e3530000 	cmp	r3, #0
5000d2e8:	0a000003 	beq	5000d2fc <OSTaskNameSet+0x40>
5000d2ec:	e59d3004 	ldr	r3, [sp, #4]
5000d2f0:	e3a02012 	mov	r2, #18
5000d2f4:	e5c32000 	strb	r2, [r3]
5000d2f8:	ea000026 	b	5000d398 <OSTaskNameSet+0xdc>
5000d2fc:	ebffdc88 	bl	50004524 <OS_CPU_SR_Save>
5000d300:	e58d0014 	str	r0, [sp, #20]
5000d304:	e5dd300f 	ldrb	r3, [sp, #15]
5000d308:	e35300ff 	cmp	r3, #255	; 0xff
5000d30c:	1a000003 	bne	5000d320 <OSTaskNameSet+0x64>
5000d310:	e59f3090 	ldr	r3, [pc, #144]	; 5000d3a8 <OSTaskNameSet+0xec>
5000d314:	e5933000 	ldr	r3, [r3]
5000d318:	e5d33036 	ldrb	r3, [r3, #54]	; 0x36
5000d31c:	e5cd300f 	strb	r3, [sp, #15]
5000d320:	e5dd200f 	ldrb	r2, [sp, #15]
5000d324:	e59f3080 	ldr	r3, [pc, #128]	; 5000d3ac <OSTaskNameSet+0xf0>
5000d328:	e7933102 	ldr	r3, [r3, r2, lsl #2]
5000d32c:	e58d3010 	str	r3, [sp, #16]
5000d330:	e59d3010 	ldr	r3, [sp, #16]
5000d334:	e3530000 	cmp	r3, #0
5000d338:	1a000005 	bne	5000d354 <OSTaskNameSet+0x98>
5000d33c:	e59d0014 	ldr	r0, [sp, #20]
5000d340:	ebffdc7f 	bl	50004544 <OS_CPU_SR_Restore>
5000d344:	e59d3004 	ldr	r3, [sp, #4]
5000d348:	e3a02043 	mov	r2, #67	; 0x43
5000d34c:	e5c32000 	strb	r2, [r3]
5000d350:	ea000010 	b	5000d398 <OSTaskNameSet+0xdc>
5000d354:	e59d3010 	ldr	r3, [sp, #16]
5000d358:	e3530001 	cmp	r3, #1
5000d35c:	1a000005 	bne	5000d378 <OSTaskNameSet+0xbc>
5000d360:	e59d0014 	ldr	r0, [sp, #20]
5000d364:	ebffdc76 	bl	50004544 <OS_CPU_SR_Restore>
5000d368:	e59d3004 	ldr	r3, [sp, #4]
5000d36c:	e3a02043 	mov	r2, #67	; 0x43
5000d370:	e5c32000 	strb	r2, [r3]
5000d374:	ea000007 	b	5000d398 <OSTaskNameSet+0xdc>
5000d378:	e59d3010 	ldr	r3, [sp, #16]
5000d37c:	e59d2008 	ldr	r2, [sp, #8]
5000d380:	e5832050 	str	r2, [r3, #80]	; 0x50
5000d384:	e59d0014 	ldr	r0, [sp, #20]
5000d388:	ebffdc6d 	bl	50004544 <OS_CPU_SR_Restore>
5000d38c:	e59d3004 	ldr	r3, [sp, #4]
5000d390:	e3a02000 	mov	r2, #0
5000d394:	e5c32000 	strb	r2, [r3]
5000d398:	e28dd01c 	add	sp, sp, #28
5000d39c:	e49de004 	pop	{lr}		; (ldr lr, [sp], #4)
5000d3a0:	e12fff1e 	bx	lr
5000d3a4:	50012178 	andpl	r2, r1, r8, ror r1
5000d3a8:	5001217c 	andpl	r2, r1, ip, ror r1
5000d3ac:	50012c14 	andpl	r2, r1, r4, lsl ip

5000d3b0 <OSTaskResume>:
5000d3b0:	e52de004 	push	{lr}		; (str lr, [sp, #-4]!)
5000d3b4:	e24dd014 	sub	sp, sp, #20
5000d3b8:	e1a03000 	mov	r3, r0
5000d3bc:	e5cd3007 	strb	r3, [sp, #7]
5000d3c0:	e3a03000 	mov	r3, #0
5000d3c4:	e58d300c 	str	r3, [sp, #12]
5000d3c8:	ebffdc55 	bl	50004524 <OS_CPU_SR_Save>
5000d3cc:	e58d000c 	str	r0, [sp, #12]
5000d3d0:	e5dd2007 	ldrb	r2, [sp, #7]
5000d3d4:	e59f3130 	ldr	r3, [pc, #304]	; 5000d50c <OSTaskResume+0x15c>
5000d3d8:	e7933102 	ldr	r3, [r3, r2, lsl #2]
5000d3dc:	e58d3008 	str	r3, [sp, #8]
5000d3e0:	e59d3008 	ldr	r3, [sp, #8]
5000d3e4:	e3530000 	cmp	r3, #0
5000d3e8:	1a000003 	bne	5000d3fc <OSTaskResume+0x4c>
5000d3ec:	e59d000c 	ldr	r0, [sp, #12]
5000d3f0:	ebffdc53 	bl	50004544 <OS_CPU_SR_Restore>
5000d3f4:	e3a03046 	mov	r3, #70	; 0x46
5000d3f8:	ea00003f 	b	5000d4fc <OSTaskResume+0x14c>
5000d3fc:	e59d3008 	ldr	r3, [sp, #8]
5000d400:	e3530001 	cmp	r3, #1
5000d404:	1a000003 	bne	5000d418 <OSTaskResume+0x68>
5000d408:	e59d000c 	ldr	r0, [sp, #12]
5000d40c:	ebffdc4c 	bl	50004544 <OS_CPU_SR_Restore>
5000d410:	e3a03043 	mov	r3, #67	; 0x43
5000d414:	ea000038 	b	5000d4fc <OSTaskResume+0x14c>
5000d418:	e59d3008 	ldr	r3, [sp, #8]
5000d41c:	e5d33034 	ldrb	r3, [r3, #52]	; 0x34
5000d420:	e2033008 	and	r3, r3, #8
5000d424:	e3530000 	cmp	r3, #0
5000d428:	0a000030 	beq	5000d4f0 <OSTaskResume+0x140>
5000d42c:	e59d3008 	ldr	r3, [sp, #8]
5000d430:	e5d33034 	ldrb	r3, [r3, #52]	; 0x34
5000d434:	e3c33008 	bic	r3, r3, #8
5000d438:	e20320ff 	and	r2, r3, #255	; 0xff
5000d43c:	e59d3008 	ldr	r3, [sp, #8]
5000d440:	e5c32034 	strb	r2, [r3, #52]	; 0x34
5000d444:	e59d3008 	ldr	r3, [sp, #8]
5000d448:	e5d33034 	ldrb	r3, [r3, #52]	; 0x34
5000d44c:	e3530000 	cmp	r3, #0
5000d450:	1a000022 	bne	5000d4e0 <OSTaskResume+0x130>
5000d454:	e59d3008 	ldr	r3, [sp, #8]
5000d458:	e5933030 	ldr	r3, [r3, #48]	; 0x30
5000d45c:	e3530000 	cmp	r3, #0
5000d460:	1a00001b 	bne	5000d4d4 <OSTaskResume+0x124>
5000d464:	e59d3008 	ldr	r3, [sp, #8]
5000d468:	e5d3203a 	ldrb	r2, [r3, #58]	; 0x3a
5000d46c:	e59f309c 	ldr	r3, [pc, #156]	; 5000d510 <OSTaskResume+0x160>
5000d470:	e5d33000 	ldrb	r3, [r3]
5000d474:	e1823003 	orr	r3, r2, r3
5000d478:	e20320ff 	and	r2, r3, #255	; 0xff
5000d47c:	e59f308c 	ldr	r3, [pc, #140]	; 5000d510 <OSTaskResume+0x160>
5000d480:	e5c32000 	strb	r2, [r3]
5000d484:	e59d3008 	ldr	r3, [sp, #8]
5000d488:	e5d33038 	ldrb	r3, [r3, #56]	; 0x38
5000d48c:	e59d2008 	ldr	r2, [sp, #8]
5000d490:	e5d22038 	ldrb	r2, [r2, #56]	; 0x38
5000d494:	e59f1078 	ldr	r1, [pc, #120]	; 5000d514 <OSTaskResume+0x164>
5000d498:	e7d11002 	ldrb	r1, [r1, r2]
5000d49c:	e59d2008 	ldr	r2, [sp, #8]
5000d4a0:	e5d22039 	ldrb	r2, [r2, #57]	; 0x39
5000d4a4:	e1812002 	orr	r2, r1, r2
5000d4a8:	e20210ff 	and	r1, r2, #255	; 0xff
5000d4ac:	e59f2060 	ldr	r2, [pc, #96]	; 5000d514 <OSTaskResume+0x164>
5000d4b0:	e7c21003 	strb	r1, [r2, r3]
5000d4b4:	e59d000c 	ldr	r0, [sp, #12]
5000d4b8:	ebffdc21 	bl	50004544 <OS_CPU_SR_Restore>
5000d4bc:	e59f3054 	ldr	r3, [pc, #84]	; 5000d518 <OSTaskResume+0x168>
5000d4c0:	e5d33000 	ldrb	r3, [r3]
5000d4c4:	e3530001 	cmp	r3, #1
5000d4c8:	1a000006 	bne	5000d4e8 <OSTaskResume+0x138>
5000d4cc:	ebffe82c 	bl	50007584 <OS_Sched>
5000d4d0:	ea000004 	b	5000d4e8 <OSTaskResume+0x138>
5000d4d4:	e59d000c 	ldr	r0, [sp, #12]
5000d4d8:	ebffdc19 	bl	50004544 <OS_CPU_SR_Restore>
5000d4dc:	ea000001 	b	5000d4e8 <OSTaskResume+0x138>
5000d4e0:	e59d000c 	ldr	r0, [sp, #12]
5000d4e4:	ebffdc16 	bl	50004544 <OS_CPU_SR_Restore>
5000d4e8:	e3a03000 	mov	r3, #0
5000d4ec:	ea000002 	b	5000d4fc <OSTaskResume+0x14c>
5000d4f0:	e59d000c 	ldr	r0, [sp, #12]
5000d4f4:	ebffdc12 	bl	50004544 <OS_CPU_SR_Restore>
5000d4f8:	e3a03044 	mov	r3, #68	; 0x44
5000d4fc:	e1a00003 	mov	r0, r3
5000d500:	e28dd014 	add	sp, sp, #20
5000d504:	e49de004 	pop	{lr}		; (ldr lr, [sp], #4)
5000d508:	e12fff1e 	bx	lr
5000d50c:	50012c14 	andpl	r2, r1, r4, lsl ip
5000d510:	50011f68 	andpl	r1, r1, r8, ror #30
5000d514:	50011f6c 	andpl	r1, r1, ip, ror #30
5000d518:	50011988 	andpl	r1, r1, r8, lsl #19

5000d51c <OSTaskStkChk>:
5000d51c:	e52de004 	push	{lr}		; (str lr, [sp, #-4]!)
5000d520:	e24dd024 	sub	sp, sp, #36	; 0x24
5000d524:	e1a03000 	mov	r3, r0
5000d528:	e58d1000 	str	r1, [sp]
5000d52c:	e5cd3007 	strb	r3, [sp, #7]
5000d530:	e3a03000 	mov	r3, #0
5000d534:	e58d3014 	str	r3, [sp, #20]
5000d538:	e59d3000 	ldr	r3, [sp]
5000d53c:	e3a02000 	mov	r2, #0
5000d540:	e5832000 	str	r2, [r3]
5000d544:	e59d3000 	ldr	r3, [sp]
5000d548:	e3a02000 	mov	r2, #0
5000d54c:	e5832004 	str	r2, [r3, #4]
5000d550:	ebffdbf3 	bl	50004524 <OS_CPU_SR_Save>
5000d554:	e58d0014 	str	r0, [sp, #20]
5000d558:	e5dd3007 	ldrb	r3, [sp, #7]
5000d55c:	e35300ff 	cmp	r3, #255	; 0xff
5000d560:	1a000003 	bne	5000d574 <OSTaskStkChk+0x58>
5000d564:	e59f3100 	ldr	r3, [pc, #256]	; 5000d66c <OSTaskStkChk+0x150>
5000d568:	e5933000 	ldr	r3, [r3]
5000d56c:	e5d33036 	ldrb	r3, [r3, #54]	; 0x36
5000d570:	e5cd3007 	strb	r3, [sp, #7]
5000d574:	e5dd2007 	ldrb	r2, [sp, #7]
5000d578:	e59f30f0 	ldr	r3, [pc, #240]	; 5000d670 <OSTaskStkChk+0x154>
5000d57c:	e7933102 	ldr	r3, [r3, r2, lsl #2]
5000d580:	e58d3010 	str	r3, [sp, #16]
5000d584:	e59d3010 	ldr	r3, [sp, #16]
5000d588:	e3530000 	cmp	r3, #0
5000d58c:	1a000003 	bne	5000d5a0 <OSTaskStkChk+0x84>
5000d590:	e59d0014 	ldr	r0, [sp, #20]
5000d594:	ebffdbea 	bl	50004544 <OS_CPU_SR_Restore>
5000d598:	e3a03043 	mov	r3, #67	; 0x43
5000d59c:	ea00002e 	b	5000d65c <OSTaskStkChk+0x140>
5000d5a0:	e59d3010 	ldr	r3, [sp, #16]
5000d5a4:	e3530001 	cmp	r3, #1
5000d5a8:	1a000003 	bne	5000d5bc <OSTaskStkChk+0xa0>
5000d5ac:	e59d0014 	ldr	r0, [sp, #20]
5000d5b0:	ebffdbe3 	bl	50004544 <OS_CPU_SR_Restore>
5000d5b4:	e3a03043 	mov	r3, #67	; 0x43
5000d5b8:	ea000027 	b	5000d65c <OSTaskStkChk+0x140>
5000d5bc:	e59d3010 	ldr	r3, [sp, #16]
5000d5c0:	e1d331b0 	ldrh	r3, [r3, #16]
5000d5c4:	e2033001 	and	r3, r3, #1
5000d5c8:	e3530000 	cmp	r3, #0
5000d5cc:	1a000003 	bne	5000d5e0 <OSTaskStkChk+0xc4>
5000d5d0:	e59d0014 	ldr	r0, [sp, #20]
5000d5d4:	ebffdbda 	bl	50004544 <OS_CPU_SR_Restore>
5000d5d8:	e3a03045 	mov	r3, #69	; 0x45
5000d5dc:	ea00001e 	b	5000d65c <OSTaskStkChk+0x140>
5000d5e0:	e3a03000 	mov	r3, #0
5000d5e4:	e58d3018 	str	r3, [sp, #24]
5000d5e8:	e59d3010 	ldr	r3, [sp, #16]
5000d5ec:	e593300c 	ldr	r3, [r3, #12]
5000d5f0:	e58d300c 	str	r3, [sp, #12]
5000d5f4:	e59d3010 	ldr	r3, [sp, #16]
5000d5f8:	e5933008 	ldr	r3, [r3, #8]
5000d5fc:	e58d301c 	str	r3, [sp, #28]
5000d600:	e59d0014 	ldr	r0, [sp, #20]
5000d604:	ebffdbce 	bl	50004544 <OS_CPU_SR_Restore>
5000d608:	ea000002 	b	5000d618 <OSTaskStkChk+0xfc>
5000d60c:	e59d3018 	ldr	r3, [sp, #24]
5000d610:	e2833001 	add	r3, r3, #1
5000d614:	e58d3018 	str	r3, [sp, #24]
5000d618:	e59d301c 	ldr	r3, [sp, #28]
5000d61c:	e2832004 	add	r2, r3, #4
5000d620:	e58d201c 	str	r2, [sp, #28]
5000d624:	e5933000 	ldr	r3, [r3]
5000d628:	e3530000 	cmp	r3, #0
5000d62c:	0afffff6 	beq	5000d60c <OSTaskStkChk+0xf0>
5000d630:	e59d3018 	ldr	r3, [sp, #24]
5000d634:	e1a02103 	lsl	r2, r3, #2
5000d638:	e59d3000 	ldr	r3, [sp]
5000d63c:	e5832000 	str	r2, [r3]
5000d640:	e59d200c 	ldr	r2, [sp, #12]
5000d644:	e59d3018 	ldr	r3, [sp, #24]
5000d648:	e0633002 	rsb	r3, r3, r2
5000d64c:	e1a02103 	lsl	r2, r3, #2
5000d650:	e59d3000 	ldr	r3, [sp]
5000d654:	e5832004 	str	r2, [r3, #4]
5000d658:	e3a03000 	mov	r3, #0
5000d65c:	e1a00003 	mov	r0, r3
5000d660:	e28dd024 	add	sp, sp, #36	; 0x24
5000d664:	e49de004 	pop	{lr}		; (ldr lr, [sp], #4)
5000d668:	e12fff1e 	bx	lr
5000d66c:	5001217c 	andpl	r2, r1, ip, ror r1
5000d670:	50012c14 	andpl	r2, r1, r4, lsl ip

5000d674 <OSTaskSuspend>:
5000d674:	e52de004 	push	{lr}		; (str lr, [sp, #-4]!)
5000d678:	e24dd01c 	sub	sp, sp, #28
5000d67c:	e1a03000 	mov	r3, r0
5000d680:	e5cd3007 	strb	r3, [sp, #7]
5000d684:	e3a03000 	mov	r3, #0
5000d688:	e58d3010 	str	r3, [sp, #16]
5000d68c:	ebffdba4 	bl	50004524 <OS_CPU_SR_Save>
5000d690:	e58d0010 	str	r0, [sp, #16]
5000d694:	e5dd3007 	ldrb	r3, [sp, #7]
5000d698:	e35300ff 	cmp	r3, #255	; 0xff
5000d69c:	1a000006 	bne	5000d6bc <OSTaskSuspend+0x48>
5000d6a0:	e59f3144 	ldr	r3, [pc, #324]	; 5000d7ec <OSTaskSuspend+0x178>
5000d6a4:	e5933000 	ldr	r3, [r3]
5000d6a8:	e5d33036 	ldrb	r3, [r3, #54]	; 0x36
5000d6ac:	e5cd3007 	strb	r3, [sp, #7]
5000d6b0:	e3a03001 	mov	r3, #1
5000d6b4:	e5cd3017 	strb	r3, [sp, #23]
5000d6b8:	ea00000a 	b	5000d6e8 <OSTaskSuspend+0x74>
5000d6bc:	e59f3128 	ldr	r3, [pc, #296]	; 5000d7ec <OSTaskSuspend+0x178>
5000d6c0:	e5933000 	ldr	r3, [r3]
5000d6c4:	e5d33036 	ldrb	r3, [r3, #54]	; 0x36
5000d6c8:	e5dd2007 	ldrb	r2, [sp, #7]
5000d6cc:	e1520003 	cmp	r2, r3
5000d6d0:	1a000002 	bne	5000d6e0 <OSTaskSuspend+0x6c>
5000d6d4:	e3a03001 	mov	r3, #1
5000d6d8:	e5cd3017 	strb	r3, [sp, #23]
5000d6dc:	ea000001 	b	5000d6e8 <OSTaskSuspend+0x74>
5000d6e0:	e3a03000 	mov	r3, #0
5000d6e4:	e5cd3017 	strb	r3, [sp, #23]
5000d6e8:	e5dd2007 	ldrb	r2, [sp, #7]
5000d6ec:	e59f30fc 	ldr	r3, [pc, #252]	; 5000d7f0 <OSTaskSuspend+0x17c>
5000d6f0:	e7933102 	ldr	r3, [r3, r2, lsl #2]
5000d6f4:	e58d300c 	str	r3, [sp, #12]
5000d6f8:	e59d300c 	ldr	r3, [sp, #12]
5000d6fc:	e3530000 	cmp	r3, #0
5000d700:	1a000003 	bne	5000d714 <OSTaskSuspend+0xa0>
5000d704:	e59d0010 	ldr	r0, [sp, #16]
5000d708:	ebffdb8d 	bl	50004544 <OS_CPU_SR_Restore>
5000d70c:	e3a03048 	mov	r3, #72	; 0x48
5000d710:	ea000031 	b	5000d7dc <OSTaskSuspend+0x168>
5000d714:	e59d300c 	ldr	r3, [sp, #12]
5000d718:	e3530001 	cmp	r3, #1
5000d71c:	1a000003 	bne	5000d730 <OSTaskSuspend+0xbc>
5000d720:	e59d0010 	ldr	r0, [sp, #16]
5000d724:	ebffdb86 	bl	50004544 <OS_CPU_SR_Restore>
5000d728:	e3a03043 	mov	r3, #67	; 0x43
5000d72c:	ea00002a 	b	5000d7dc <OSTaskSuspend+0x168>
5000d730:	e59d300c 	ldr	r3, [sp, #12]
5000d734:	e5d33038 	ldrb	r3, [r3, #56]	; 0x38
5000d738:	e5cd300b 	strb	r3, [sp, #11]
5000d73c:	e5dd300b 	ldrb	r3, [sp, #11]
5000d740:	e5dd200b 	ldrb	r2, [sp, #11]
5000d744:	e59f10a8 	ldr	r1, [pc, #168]	; 5000d7f4 <OSTaskSuspend+0x180>
5000d748:	e7d11002 	ldrb	r1, [r1, r2]
5000d74c:	e59d200c 	ldr	r2, [sp, #12]
5000d750:	e5d22039 	ldrb	r2, [r2, #57]	; 0x39
5000d754:	e1e02002 	mvn	r2, r2
5000d758:	e20220ff 	and	r2, r2, #255	; 0xff
5000d75c:	e0012002 	and	r2, r1, r2
5000d760:	e20210ff 	and	r1, r2, #255	; 0xff
5000d764:	e59f2088 	ldr	r2, [pc, #136]	; 5000d7f4 <OSTaskSuspend+0x180>
5000d768:	e7c21003 	strb	r1, [r2, r3]
5000d76c:	e5dd300b 	ldrb	r3, [sp, #11]
5000d770:	e59f207c 	ldr	r2, [pc, #124]	; 5000d7f4 <OSTaskSuspend+0x180>
5000d774:	e7d23003 	ldrb	r3, [r2, r3]
5000d778:	e3530000 	cmp	r3, #0
5000d77c:	1a000009 	bne	5000d7a8 <OSTaskSuspend+0x134>
5000d780:	e59d300c 	ldr	r3, [sp, #12]
5000d784:	e5d3303a 	ldrb	r3, [r3, #58]	; 0x3a
5000d788:	e1e03003 	mvn	r3, r3
5000d78c:	e20320ff 	and	r2, r3, #255	; 0xff
5000d790:	e59f3060 	ldr	r3, [pc, #96]	; 5000d7f8 <OSTaskSuspend+0x184>
5000d794:	e5d33000 	ldrb	r3, [r3]
5000d798:	e0023003 	and	r3, r2, r3
5000d79c:	e20320ff 	and	r2, r3, #255	; 0xff
5000d7a0:	e59f3050 	ldr	r3, [pc, #80]	; 5000d7f8 <OSTaskSuspend+0x184>
5000d7a4:	e5c32000 	strb	r2, [r3]
5000d7a8:	e59d300c 	ldr	r3, [sp, #12]
5000d7ac:	e5d33034 	ldrb	r3, [r3, #52]	; 0x34
5000d7b0:	e3833008 	orr	r3, r3, #8
5000d7b4:	e20320ff 	and	r2, r3, #255	; 0xff
5000d7b8:	e59d300c 	ldr	r3, [sp, #12]
5000d7bc:	e5c32034 	strb	r2, [r3, #52]	; 0x34
5000d7c0:	e59d0010 	ldr	r0, [sp, #16]
5000d7c4:	ebffdb5e 	bl	50004544 <OS_CPU_SR_Restore>
5000d7c8:	e5dd3017 	ldrb	r3, [sp, #23]
5000d7cc:	e3530001 	cmp	r3, #1
5000d7d0:	1a000000 	bne	5000d7d8 <OSTaskSuspend+0x164>
5000d7d4:	ebffe76a 	bl	50007584 <OS_Sched>
5000d7d8:	e3a03000 	mov	r3, #0
5000d7dc:	e1a00003 	mov	r0, r3
5000d7e0:	e28dd01c 	add	sp, sp, #28
5000d7e4:	e49de004 	pop	{lr}		; (ldr lr, [sp], #4)
5000d7e8:	e12fff1e 	bx	lr
5000d7ec:	5001217c 	andpl	r2, r1, ip, ror r1
5000d7f0:	50012c14 	andpl	r2, r1, r4, lsl ip
5000d7f4:	50011f6c 	andpl	r1, r1, ip, ror #30
5000d7f8:	50011f68 	andpl	r1, r1, r8, ror #30

5000d7fc <OSTaskQuery>:
5000d7fc:	e52de004 	push	{lr}		; (str lr, [sp, #-4]!)
5000d800:	e24dd014 	sub	sp, sp, #20
5000d804:	e1a03000 	mov	r3, r0
5000d808:	e58d1000 	str	r1, [sp]
5000d80c:	e5cd3007 	strb	r3, [sp, #7]
5000d810:	e3a03000 	mov	r3, #0
5000d814:	e58d300c 	str	r3, [sp, #12]
5000d818:	ebffdb41 	bl	50004524 <OS_CPU_SR_Save>
5000d81c:	e58d000c 	str	r0, [sp, #12]
5000d820:	e5dd3007 	ldrb	r3, [sp, #7]
5000d824:	e35300ff 	cmp	r3, #255	; 0xff
5000d828:	1a000003 	bne	5000d83c <OSTaskQuery+0x40>
5000d82c:	e59f307c 	ldr	r3, [pc, #124]	; 5000d8b0 <OSTaskQuery+0xb4>
5000d830:	e5933000 	ldr	r3, [r3]
5000d834:	e5d33036 	ldrb	r3, [r3, #54]	; 0x36
5000d838:	e5cd3007 	strb	r3, [sp, #7]
5000d83c:	e5dd2007 	ldrb	r2, [sp, #7]
5000d840:	e59f306c 	ldr	r3, [pc, #108]	; 5000d8b4 <OSTaskQuery+0xb8>
5000d844:	e7933102 	ldr	r3, [r3, r2, lsl #2]
5000d848:	e58d3008 	str	r3, [sp, #8]
5000d84c:	e59d3008 	ldr	r3, [sp, #8]
5000d850:	e3530000 	cmp	r3, #0
5000d854:	1a000003 	bne	5000d868 <OSTaskQuery+0x6c>
5000d858:	e59d000c 	ldr	r0, [sp, #12]
5000d85c:	ebffdb38 	bl	50004544 <OS_CPU_SR_Restore>
5000d860:	e3a03029 	mov	r3, #41	; 0x29
5000d864:	ea00000d 	b	5000d8a0 <OSTaskQuery+0xa4>
5000d868:	e59d3008 	ldr	r3, [sp, #8]
5000d86c:	e3530001 	cmp	r3, #1
5000d870:	1a000003 	bne	5000d884 <OSTaskQuery+0x88>
5000d874:	e59d000c 	ldr	r0, [sp, #12]
5000d878:	ebffdb31 	bl	50004544 <OS_CPU_SR_Restore>
5000d87c:	e3a03043 	mov	r3, #67	; 0x43
5000d880:	ea000006 	b	5000d8a0 <OSTaskQuery+0xa4>
5000d884:	e59d0000 	ldr	r0, [sp]
5000d888:	e59d1008 	ldr	r1, [sp, #8]
5000d88c:	e3a02058 	mov	r2, #88	; 0x58
5000d890:	ebffe725 	bl	5000752c <OS_MemCopy>
5000d894:	e59d000c 	ldr	r0, [sp, #12]
5000d898:	ebffdb29 	bl	50004544 <OS_CPU_SR_Restore>
5000d89c:	e3a03000 	mov	r3, #0
5000d8a0:	e1a00003 	mov	r0, r3
5000d8a4:	e28dd014 	add	sp, sp, #20
5000d8a8:	e49de004 	pop	{lr}		; (ldr lr, [sp], #4)
5000d8ac:	e12fff1e 	bx	lr
5000d8b0:	5001217c 	andpl	r2, r1, ip, ror r1
5000d8b4:	50012c14 	andpl	r2, r1, r4, lsl ip

5000d8b8 <OSTaskRegGet>:
5000d8b8:	e52de004 	push	{lr}		; (str lr, [sp, #-4]!)
5000d8bc:	e24dd01c 	sub	sp, sp, #28
5000d8c0:	e1a03001 	mov	r3, r1
5000d8c4:	e58d2000 	str	r2, [sp]
5000d8c8:	e1a02000 	mov	r2, r0
5000d8cc:	e5cd2007 	strb	r2, [sp, #7]
5000d8d0:	e5cd3006 	strb	r3, [sp, #6]
5000d8d4:	e3a03000 	mov	r3, #0
5000d8d8:	e58d3010 	str	r3, [sp, #16]
5000d8dc:	ebffdb10 	bl	50004524 <OS_CPU_SR_Save>
5000d8e0:	e58d0010 	str	r0, [sp, #16]
5000d8e4:	e5dd3007 	ldrb	r3, [sp, #7]
5000d8e8:	e35300ff 	cmp	r3, #255	; 0xff
5000d8ec:	1a000003 	bne	5000d900 <OSTaskRegGet+0x48>
5000d8f0:	e59f3064 	ldr	r3, [pc, #100]	; 5000d95c <OSTaskRegGet+0xa4>
5000d8f4:	e5933000 	ldr	r3, [r3]
5000d8f8:	e58d3014 	str	r3, [sp, #20]
5000d8fc:	ea000003 	b	5000d910 <OSTaskRegGet+0x58>
5000d900:	e5dd2007 	ldrb	r2, [sp, #7]
5000d904:	e59f3054 	ldr	r3, [pc, #84]	; 5000d960 <OSTaskRegGet+0xa8>
5000d908:	e7933102 	ldr	r3, [r3, r2, lsl #2]
5000d90c:	e58d3014 	str	r3, [sp, #20]
5000d910:	e5dd3006 	ldrb	r3, [sp, #6]
5000d914:	e59d1014 	ldr	r1, [sp, #20]
5000d918:	e2832014 	add	r2, r3, #20
5000d91c:	e3a03004 	mov	r3, #4
5000d920:	e1a02102 	lsl	r2, r2, #2
5000d924:	e0812002 	add	r2, r1, r2
5000d928:	e0823003 	add	r3, r2, r3
5000d92c:	e5933000 	ldr	r3, [r3]
5000d930:	e58d300c 	str	r3, [sp, #12]
5000d934:	e59d0010 	ldr	r0, [sp, #16]
5000d938:	ebffdb01 	bl	50004544 <OS_CPU_SR_Restore>
5000d93c:	e59d3000 	ldr	r3, [sp]
5000d940:	e3a02000 	mov	r2, #0
5000d944:	e5c32000 	strb	r2, [r3]
5000d948:	e59d300c 	ldr	r3, [sp, #12]
5000d94c:	e1a00003 	mov	r0, r3
5000d950:	e28dd01c 	add	sp, sp, #28
5000d954:	e49de004 	pop	{lr}		; (ldr lr, [sp], #4)
5000d958:	e12fff1e 	bx	lr
5000d95c:	5001217c 	andpl	r2, r1, ip, ror r1
5000d960:	50012c14 	andpl	r2, r1, r4, lsl ip

5000d964 <OSTaskRegSet>:
5000d964:	e52de004 	push	{lr}		; (str lr, [sp, #-4]!)
5000d968:	e24dd01c 	sub	sp, sp, #28
5000d96c:	e58d2008 	str	r2, [sp, #8]
5000d970:	e58d3004 	str	r3, [sp, #4]
5000d974:	e1a03000 	mov	r3, r0
5000d978:	e5cd300f 	strb	r3, [sp, #15]
5000d97c:	e1a03001 	mov	r3, r1
5000d980:	e5cd300e 	strb	r3, [sp, #14]
5000d984:	e3a03000 	mov	r3, #0
5000d988:	e58d3010 	str	r3, [sp, #16]
5000d98c:	ebffdae4 	bl	50004524 <OS_CPU_SR_Save>
5000d990:	e58d0010 	str	r0, [sp, #16]
5000d994:	e5dd300f 	ldrb	r3, [sp, #15]
5000d998:	e35300ff 	cmp	r3, #255	; 0xff
5000d99c:	1a000003 	bne	5000d9b0 <OSTaskRegSet+0x4c>
5000d9a0:	e59f305c 	ldr	r3, [pc, #92]	; 5000da04 <OSTaskRegSet+0xa0>
5000d9a4:	e5933000 	ldr	r3, [r3]
5000d9a8:	e58d3014 	str	r3, [sp, #20]
5000d9ac:	ea000003 	b	5000d9c0 <OSTaskRegSet+0x5c>
5000d9b0:	e5dd200f 	ldrb	r2, [sp, #15]
5000d9b4:	e59f304c 	ldr	r3, [pc, #76]	; 5000da08 <OSTaskRegSet+0xa4>
5000d9b8:	e7933102 	ldr	r3, [r3, r2, lsl #2]
5000d9bc:	e58d3014 	str	r3, [sp, #20]
5000d9c0:	e5dd300e 	ldrb	r3, [sp, #14]
5000d9c4:	e59d1014 	ldr	r1, [sp, #20]
5000d9c8:	e2832014 	add	r2, r3, #20
5000d9cc:	e3a03004 	mov	r3, #4
5000d9d0:	e1a02102 	lsl	r2, r2, #2
5000d9d4:	e0812002 	add	r2, r1, r2
5000d9d8:	e0823003 	add	r3, r2, r3
5000d9dc:	e59d2008 	ldr	r2, [sp, #8]
5000d9e0:	e5832000 	str	r2, [r3]
5000d9e4:	e59d0010 	ldr	r0, [sp, #16]
5000d9e8:	ebffdad5 	bl	50004544 <OS_CPU_SR_Restore>
5000d9ec:	e59d3004 	ldr	r3, [sp, #4]
5000d9f0:	e3a02000 	mov	r2, #0
5000d9f4:	e5c32000 	strb	r2, [r3]
5000d9f8:	e28dd01c 	add	sp, sp, #28
5000d9fc:	e49de004 	pop	{lr}		; (ldr lr, [sp], #4)
5000da00:	e12fff1e 	bx	lr
5000da04:	5001217c 	andpl	r2, r1, ip, ror r1
5000da08:	50012c14 	andpl	r2, r1, r4, lsl ip

5000da0c <OS_TaskReturn>:
5000da0c:	e92d4008 	push	{r3, lr}
5000da10:	e59f3018 	ldr	r3, [pc, #24]	; 5000da30 <OS_TaskReturn+0x24>
5000da14:	e5933000 	ldr	r3, [r3]
5000da18:	e1a00003 	mov	r0, r3
5000da1c:	ebffdc0f 	bl	50004a60 <OSTaskReturnHook>
5000da20:	e3a000ff 	mov	r0, #255	; 0xff
5000da24:	ebfffcd9 	bl	5000cd90 <OSTaskDel>
5000da28:	e8bd4008 	pop	{r3, lr}
5000da2c:	e12fff1e 	bx	lr
5000da30:	5001217c 	andpl	r2, r1, ip, ror r1

5000da34 <OS_TaskStkClr>:
5000da34:	e24dd010 	sub	sp, sp, #16
5000da38:	e58d000c 	str	r0, [sp, #12]
5000da3c:	e58d1008 	str	r1, [sp, #8]
5000da40:	e1a03002 	mov	r3, r2
5000da44:	e1cd30b6 	strh	r3, [sp, #6]
5000da48:	e1dd30b6 	ldrh	r3, [sp, #6]
5000da4c:	e2033001 	and	r3, r3, #1
5000da50:	e3530000 	cmp	r3, #0
5000da54:	0a00000f 	beq	5000da98 <OS_TaskStkClr+0x64>
5000da58:	e1dd30b6 	ldrh	r3, [sp, #6]
5000da5c:	e2033002 	and	r3, r3, #2
5000da60:	e3530000 	cmp	r3, #0
5000da64:	0a00000b 	beq	5000da98 <OS_TaskStkClr+0x64>
5000da68:	ea000007 	b	5000da8c <OS_TaskStkClr+0x58>
5000da6c:	e59d3008 	ldr	r3, [sp, #8]
5000da70:	e2433001 	sub	r3, r3, #1
5000da74:	e58d3008 	str	r3, [sp, #8]
5000da78:	e59d300c 	ldr	r3, [sp, #12]
5000da7c:	e2832004 	add	r2, r3, #4
5000da80:	e58d200c 	str	r2, [sp, #12]
5000da84:	e3a02000 	mov	r2, #0
5000da88:	e5832000 	str	r2, [r3]
5000da8c:	e59d3008 	ldr	r3, [sp, #8]
5000da90:	e3530000 	cmp	r3, #0
5000da94:	1afffff4 	bne	5000da6c <OS_TaskStkClr+0x38>
5000da98:	e28dd010 	add	sp, sp, #16
5000da9c:	e12fff1e 	bx	lr

5000daa0 <OSTimeDly>:
5000daa0:	e52de004 	push	{lr}		; (str lr, [sp, #-4]!)
5000daa4:	e24dd014 	sub	sp, sp, #20
5000daa8:	e58d0004 	str	r0, [sp, #4]
5000daac:	e3a03000 	mov	r3, #0
5000dab0:	e58d300c 	str	r3, [sp, #12]
5000dab4:	e59f30e0 	ldr	r3, [pc, #224]	; 5000db9c <OSTimeDly+0xfc>
5000dab8:	e5d33000 	ldrb	r3, [r3]
5000dabc:	e3530000 	cmp	r3, #0
5000dac0:	0a000000 	beq	5000dac8 <OSTimeDly+0x28>
5000dac4:	ea000031 	b	5000db90 <OSTimeDly+0xf0>
5000dac8:	e59f30d0 	ldr	r3, [pc, #208]	; 5000dba0 <OSTimeDly+0x100>
5000dacc:	e5d33000 	ldrb	r3, [r3]
5000dad0:	e3530000 	cmp	r3, #0
5000dad4:	0a000000 	beq	5000dadc <OSTimeDly+0x3c>
5000dad8:	ea00002c 	b	5000db90 <OSTimeDly+0xf0>
5000dadc:	e59d3004 	ldr	r3, [sp, #4]
5000dae0:	e3530000 	cmp	r3, #0
5000dae4:	0a000029 	beq	5000db90 <OSTimeDly+0xf0>
5000dae8:	ebffda8d 	bl	50004524 <OS_CPU_SR_Save>
5000daec:	e58d000c 	str	r0, [sp, #12]
5000daf0:	e59f30ac 	ldr	r3, [pc, #172]	; 5000dba4 <OSTimeDly+0x104>
5000daf4:	e5933000 	ldr	r3, [r3]
5000daf8:	e5d33038 	ldrb	r3, [r3, #56]	; 0x38
5000dafc:	e5cd300b 	strb	r3, [sp, #11]
5000db00:	e5dd300b 	ldrb	r3, [sp, #11]
5000db04:	e5dd200b 	ldrb	r2, [sp, #11]
5000db08:	e59f1098 	ldr	r1, [pc, #152]	; 5000dba8 <OSTimeDly+0x108>
5000db0c:	e7d11002 	ldrb	r1, [r1, r2]
5000db10:	e59f208c 	ldr	r2, [pc, #140]	; 5000dba4 <OSTimeDly+0x104>
5000db14:	e5922000 	ldr	r2, [r2]
5000db18:	e5d22039 	ldrb	r2, [r2, #57]	; 0x39
5000db1c:	e1e02002 	mvn	r2, r2
5000db20:	e20220ff 	and	r2, r2, #255	; 0xff
5000db24:	e0012002 	and	r2, r1, r2
5000db28:	e20210ff 	and	r1, r2, #255	; 0xff
5000db2c:	e59f2074 	ldr	r2, [pc, #116]	; 5000dba8 <OSTimeDly+0x108>
5000db30:	e7c21003 	strb	r1, [r2, r3]
5000db34:	e5dd300b 	ldrb	r3, [sp, #11]
5000db38:	e59f2068 	ldr	r2, [pc, #104]	; 5000dba8 <OSTimeDly+0x108>
5000db3c:	e7d23003 	ldrb	r3, [r2, r3]
5000db40:	e3530000 	cmp	r3, #0
5000db44:	1a00000a 	bne	5000db74 <OSTimeDly+0xd4>
5000db48:	e59f3054 	ldr	r3, [pc, #84]	; 5000dba4 <OSTimeDly+0x104>
5000db4c:	e5933000 	ldr	r3, [r3]
5000db50:	e5d3303a 	ldrb	r3, [r3, #58]	; 0x3a
5000db54:	e1e03003 	mvn	r3, r3
5000db58:	e20320ff 	and	r2, r3, #255	; 0xff
5000db5c:	e59f3048 	ldr	r3, [pc, #72]	; 5000dbac <OSTimeDly+0x10c>
5000db60:	e5d33000 	ldrb	r3, [r3]
5000db64:	e0023003 	and	r3, r2, r3
5000db68:	e20320ff 	and	r2, r3, #255	; 0xff
5000db6c:	e59f3038 	ldr	r3, [pc, #56]	; 5000dbac <OSTimeDly+0x10c>
5000db70:	e5c32000 	strb	r2, [r3]
5000db74:	e59f3028 	ldr	r3, [pc, #40]	; 5000dba4 <OSTimeDly+0x104>
5000db78:	e5933000 	ldr	r3, [r3]
5000db7c:	e59d2004 	ldr	r2, [sp, #4]
5000db80:	e5832030 	str	r2, [r3, #48]	; 0x30
5000db84:	e59d000c 	ldr	r0, [sp, #12]
5000db88:	ebffda6d 	bl	50004544 <OS_CPU_SR_Restore>
5000db8c:	ebffe67c 	bl	50007584 <OS_Sched>
5000db90:	e28dd014 	add	sp, sp, #20
5000db94:	e49de004 	pop	{lr}		; (ldr lr, [sp], #4)
5000db98:	e12fff1e 	bx	lr
5000db9c:	50012178 	andpl	r2, r1, r8, ror r1
5000dba0:	50011980 	andpl	r1, r1, r0, lsl #19
5000dba4:	5001217c 	andpl	r2, r1, ip, ror r1
5000dba8:	50011f6c 	andpl	r1, r1, ip, ror #30
5000dbac:	50011f68 	andpl	r1, r1, r8, ror #30

5000dbb0 <OSTimeDlyHMSM>:
5000dbb0:	e52de004 	push	{lr}		; (str lr, [sp, #-4]!)
5000dbb4:	e24dd014 	sub	sp, sp, #20
5000dbb8:	e5cd0007 	strb	r0, [sp, #7]
5000dbbc:	e5cd1006 	strb	r1, [sp, #6]
5000dbc0:	e5cd2005 	strb	r2, [sp, #5]
5000dbc4:	e1cd30b2 	strh	r3, [sp, #2]
5000dbc8:	e59f30d8 	ldr	r3, [pc, #216]	; 5000dca8 <OSTimeDlyHMSM+0xf8>
5000dbcc:	e5d33000 	ldrb	r3, [r3]
5000dbd0:	e3530000 	cmp	r3, #0
5000dbd4:	0a000001 	beq	5000dbe0 <OSTimeDlyHMSM+0x30>
5000dbd8:	e3a03055 	mov	r3, #85	; 0x55
5000dbdc:	ea00002d 	b	5000dc98 <OSTimeDlyHMSM+0xe8>
5000dbe0:	e59f30c4 	ldr	r3, [pc, #196]	; 5000dcac <OSTimeDlyHMSM+0xfc>
5000dbe4:	e5d33000 	ldrb	r3, [r3]
5000dbe8:	e3530000 	cmp	r3, #0
5000dbec:	0a000001 	beq	5000dbf8 <OSTimeDlyHMSM+0x48>
5000dbf0:	e3a03032 	mov	r3, #50	; 0x32
5000dbf4:	ea000027 	b	5000dc98 <OSTimeDlyHMSM+0xe8>
5000dbf8:	e5dd2007 	ldrb	r2, [sp, #7]
5000dbfc:	e1a03002 	mov	r3, r2
5000dc00:	e1a03203 	lsl	r3, r3, #4
5000dc04:	e0623003 	rsb	r3, r2, r3
5000dc08:	e1a02203 	lsl	r2, r3, #4
5000dc0c:	e0632002 	rsb	r2, r3, r2
5000dc10:	e1a03202 	lsl	r3, r2, #4
5000dc14:	e1a02003 	mov	r2, r3
5000dc18:	e1a01002 	mov	r1, r2
5000dc1c:	e5dd2006 	ldrb	r2, [sp, #6]
5000dc20:	e1a03002 	mov	r3, r2
5000dc24:	e1a03203 	lsl	r3, r3, #4
5000dc28:	e0623003 	rsb	r3, r2, r3
5000dc2c:	e1a03103 	lsl	r3, r3, #2
5000dc30:	e0812003 	add	r2, r1, r3
5000dc34:	e5dd3005 	ldrb	r3, [sp, #5]
5000dc38:	e0822003 	add	r2, r2, r3
5000dc3c:	e1a03002 	mov	r3, r2
5000dc40:	e1a03103 	lsl	r3, r3, #2
5000dc44:	e0833002 	add	r3, r3, r2
5000dc48:	e1a02103 	lsl	r2, r3, #2
5000dc4c:	e0833002 	add	r3, r3, r2
5000dc50:	e1a03103 	lsl	r3, r3, #2
5000dc54:	e1a01003 	mov	r1, r3
5000dc58:	e1dd20b2 	ldrh	r2, [sp, #2]
5000dc5c:	e1a03002 	mov	r3, r2
5000dc60:	e1a03103 	lsl	r3, r3, #2
5000dc64:	e0833002 	add	r3, r3, r2
5000dc68:	e1a02103 	lsl	r2, r3, #2
5000dc6c:	e0833002 	add	r3, r3, r2
5000dc70:	e1a03103 	lsl	r3, r3, #2
5000dc74:	e2832f7d 	add	r2, r3, #500	; 0x1f4
5000dc78:	e59f3030 	ldr	r3, [pc, #48]	; 5000dcb0 <OSTimeDlyHMSM+0x100>
5000dc7c:	e0830392 	umull	r0, r3, r2, r3
5000dc80:	e1a03323 	lsr	r3, r3, #6
5000dc84:	e0813003 	add	r3, r1, r3
5000dc88:	e58d300c 	str	r3, [sp, #12]
5000dc8c:	e59d000c 	ldr	r0, [sp, #12]
5000dc90:	ebffff82 	bl	5000daa0 <OSTimeDly>
5000dc94:	e3a03000 	mov	r3, #0
5000dc98:	e1a00003 	mov	r0, r3
5000dc9c:	e28dd014 	add	sp, sp, #20
5000dca0:	e49de004 	pop	{lr}		; (ldr lr, [sp], #4)
5000dca4:	e12fff1e 	bx	lr
5000dca8:	50012178 	andpl	r2, r1, r8, ror r1
5000dcac:	50011980 	andpl	r1, r1, r0, lsl #19
5000dcb0:	10624dd3 	ldrdne	r4, [r2], #-211	; 0xffffff2d	; <UNPREDICTABLE>

5000dcb4 <OSTimeDlyResume>:
5000dcb4:	e52de004 	push	{lr}		; (str lr, [sp, #-4]!)
5000dcb8:	e24dd014 	sub	sp, sp, #20
5000dcbc:	e1a03000 	mov	r3, r0
5000dcc0:	e5cd3007 	strb	r3, [sp, #7]
5000dcc4:	e3a03000 	mov	r3, #0
5000dcc8:	e58d300c 	str	r3, [sp, #12]
5000dccc:	e5dd3007 	ldrb	r3, [sp, #7]
5000dcd0:	e353003e 	cmp	r3, #62	; 0x3e
5000dcd4:	9a000001 	bls	5000dce0 <OSTimeDlyResume+0x2c>
5000dcd8:	e3a0302a 	mov	r3, #42	; 0x2a
5000dcdc:	ea000050 	b	5000de24 <OSTimeDlyResume+0x170>
5000dce0:	ebffda0f 	bl	50004524 <OS_CPU_SR_Save>
5000dce4:	e58d000c 	str	r0, [sp, #12]
5000dce8:	e5dd2007 	ldrb	r2, [sp, #7]
5000dcec:	e59f3140 	ldr	r3, [pc, #320]	; 5000de34 <OSTimeDlyResume+0x180>
5000dcf0:	e7933102 	ldr	r3, [r3, r2, lsl #2]
5000dcf4:	e58d3008 	str	r3, [sp, #8]
5000dcf8:	e59d3008 	ldr	r3, [sp, #8]
5000dcfc:	e3530000 	cmp	r3, #0
5000dd00:	1a000003 	bne	5000dd14 <OSTimeDlyResume+0x60>
5000dd04:	e59d000c 	ldr	r0, [sp, #12]
5000dd08:	ebffda0d 	bl	50004544 <OS_CPU_SR_Restore>
5000dd0c:	e3a03043 	mov	r3, #67	; 0x43
5000dd10:	ea000043 	b	5000de24 <OSTimeDlyResume+0x170>
5000dd14:	e59d3008 	ldr	r3, [sp, #8]
5000dd18:	e3530001 	cmp	r3, #1
5000dd1c:	1a000003 	bne	5000dd30 <OSTimeDlyResume+0x7c>
5000dd20:	e59d000c 	ldr	r0, [sp, #12]
5000dd24:	ebffda06 	bl	50004544 <OS_CPU_SR_Restore>
5000dd28:	e3a03043 	mov	r3, #67	; 0x43
5000dd2c:	ea00003c 	b	5000de24 <OSTimeDlyResume+0x170>
5000dd30:	e59d3008 	ldr	r3, [sp, #8]
5000dd34:	e5933030 	ldr	r3, [r3, #48]	; 0x30
5000dd38:	e3530000 	cmp	r3, #0
5000dd3c:	1a000003 	bne	5000dd50 <OSTimeDlyResume+0x9c>
5000dd40:	e59d000c 	ldr	r0, [sp, #12]
5000dd44:	ebffd9fe 	bl	50004544 <OS_CPU_SR_Restore>
5000dd48:	e3a03050 	mov	r3, #80	; 0x50
5000dd4c:	ea000034 	b	5000de24 <OSTimeDlyResume+0x170>
5000dd50:	e59d3008 	ldr	r3, [sp, #8]
5000dd54:	e3a02000 	mov	r2, #0
5000dd58:	e5832030 	str	r2, [r3, #48]	; 0x30
5000dd5c:	e59d3008 	ldr	r3, [sp, #8]
5000dd60:	e5d33034 	ldrb	r3, [r3, #52]	; 0x34
5000dd64:	e2033037 	and	r3, r3, #55	; 0x37
5000dd68:	e3530000 	cmp	r3, #0
5000dd6c:	0a000009 	beq	5000dd98 <OSTimeDlyResume+0xe4>
5000dd70:	e59d3008 	ldr	r3, [sp, #8]
5000dd74:	e5d33034 	ldrb	r3, [r3, #52]	; 0x34
5000dd78:	e3c33037 	bic	r3, r3, #55	; 0x37
5000dd7c:	e20320ff 	and	r2, r3, #255	; 0xff
5000dd80:	e59d3008 	ldr	r3, [sp, #8]
5000dd84:	e5c32034 	strb	r2, [r3, #52]	; 0x34
5000dd88:	e59d3008 	ldr	r3, [sp, #8]
5000dd8c:	e3a02001 	mov	r2, #1
5000dd90:	e5c32035 	strb	r2, [r3, #53]	; 0x35
5000dd94:	ea000002 	b	5000dda4 <OSTimeDlyResume+0xf0>
5000dd98:	e59d3008 	ldr	r3, [sp, #8]
5000dd9c:	e3a02000 	mov	r2, #0
5000dda0:	e5c32035 	strb	r2, [r3, #53]	; 0x35
5000dda4:	e59d3008 	ldr	r3, [sp, #8]
5000dda8:	e5d33034 	ldrb	r3, [r3, #52]	; 0x34
5000ddac:	e2033008 	and	r3, r3, #8
5000ddb0:	e3530000 	cmp	r3, #0
5000ddb4:	1a000017 	bne	5000de18 <OSTimeDlyResume+0x164>
5000ddb8:	e59d3008 	ldr	r3, [sp, #8]
5000ddbc:	e5d3203a 	ldrb	r2, [r3, #58]	; 0x3a
5000ddc0:	e59f3070 	ldr	r3, [pc, #112]	; 5000de38 <OSTimeDlyResume+0x184>
5000ddc4:	e5d33000 	ldrb	r3, [r3]
5000ddc8:	e1823003 	orr	r3, r2, r3
5000ddcc:	e20320ff 	and	r2, r3, #255	; 0xff
5000ddd0:	e59f3060 	ldr	r3, [pc, #96]	; 5000de38 <OSTimeDlyResume+0x184>
5000ddd4:	e5c32000 	strb	r2, [r3]
5000ddd8:	e59d3008 	ldr	r3, [sp, #8]
5000dddc:	e5d33038 	ldrb	r3, [r3, #56]	; 0x38
5000dde0:	e59d2008 	ldr	r2, [sp, #8]
5000dde4:	e5d22038 	ldrb	r2, [r2, #56]	; 0x38
5000dde8:	e59f104c 	ldr	r1, [pc, #76]	; 5000de3c <OSTimeDlyResume+0x188>
5000ddec:	e7d11002 	ldrb	r1, [r1, r2]
5000ddf0:	e59d2008 	ldr	r2, [sp, #8]
5000ddf4:	e5d22039 	ldrb	r2, [r2, #57]	; 0x39
5000ddf8:	e1812002 	orr	r2, r1, r2
5000ddfc:	e20210ff 	and	r1, r2, #255	; 0xff
5000de00:	e59f2034 	ldr	r2, [pc, #52]	; 5000de3c <OSTimeDlyResume+0x188>
5000de04:	e7c21003 	strb	r1, [r2, r3]
5000de08:	e59d000c 	ldr	r0, [sp, #12]
5000de0c:	ebffd9cc 	bl	50004544 <OS_CPU_SR_Restore>
5000de10:	ebffe5db 	bl	50007584 <OS_Sched>
5000de14:	ea000001 	b	5000de20 <OSTimeDlyResume+0x16c>
5000de18:	e59d000c 	ldr	r0, [sp, #12]
5000de1c:	ebffd9c8 	bl	50004544 <OS_CPU_SR_Restore>
5000de20:	e3a03000 	mov	r3, #0
5000de24:	e1a00003 	mov	r0, r3
5000de28:	e28dd014 	add	sp, sp, #20
5000de2c:	e49de004 	pop	{lr}		; (ldr lr, [sp], #4)
5000de30:	e12fff1e 	bx	lr
5000de34:	50012c14 	andpl	r2, r1, r4, lsl ip
5000de38:	50011f68 	andpl	r1, r1, r8, ror #30
5000de3c:	50011f6c 	andpl	r1, r1, ip, ror #30

5000de40 <OSTimeGet>:
5000de40:	e52de004 	push	{lr}		; (str lr, [sp, #-4]!)
5000de44:	e24dd00c 	sub	sp, sp, #12
5000de48:	e3a03000 	mov	r3, #0
5000de4c:	e58d3004 	str	r3, [sp, #4]
5000de50:	ebffd9b3 	bl	50004524 <OS_CPU_SR_Save>
5000de54:	e58d0004 	str	r0, [sp, #4]
5000de58:	e59f3020 	ldr	r3, [pc, #32]	; 5000de80 <OSTimeGet+0x40>
5000de5c:	e5933000 	ldr	r3, [r3]
5000de60:	e58d3000 	str	r3, [sp]
5000de64:	e59d0004 	ldr	r0, [sp, #4]
5000de68:	ebffd9b5 	bl	50004544 <OS_CPU_SR_Restore>
5000de6c:	e59d3000 	ldr	r3, [sp]
5000de70:	e1a00003 	mov	r0, r3
5000de74:	e28dd00c 	add	sp, sp, #12
5000de78:	e49de004 	pop	{lr}		; (ldr lr, [sp], #4)
5000de7c:	e12fff1e 	bx	lr
5000de80:	50012184 	andpl	r2, r1, r4, lsl #3

5000de84 <OSTimeSet>:
5000de84:	e52de004 	push	{lr}		; (str lr, [sp, #-4]!)
5000de88:	e24dd014 	sub	sp, sp, #20
5000de8c:	e58d0004 	str	r0, [sp, #4]
5000de90:	e3a03000 	mov	r3, #0
5000de94:	e58d300c 	str	r3, [sp, #12]
5000de98:	ebffd9a1 	bl	50004524 <OS_CPU_SR_Save>
5000de9c:	e58d000c 	str	r0, [sp, #12]
5000dea0:	e59f3018 	ldr	r3, [pc, #24]	; 5000dec0 <OSTimeSet+0x3c>
5000dea4:	e59d2004 	ldr	r2, [sp, #4]
5000dea8:	e5832000 	str	r2, [r3]
5000deac:	e59d000c 	ldr	r0, [sp, #12]
5000deb0:	ebffd9a3 	bl	50004544 <OS_CPU_SR_Restore>
5000deb4:	e28dd014 	add	sp, sp, #20
5000deb8:	e49de004 	pop	{lr}		; (ldr lr, [sp], #4)
5000debc:	e12fff1e 	bx	lr
5000dec0:	50012184 	andpl	r2, r1, r4, lsl #3

5000dec4 <OSTmrCreate>:
5000dec4:	e52de004 	push	{lr}		; (str lr, [sp, #-4]!)
5000dec8:	e24dd01c 	sub	sp, sp, #28
5000decc:	e58d000c 	str	r0, [sp, #12]
5000ded0:	e58d1008 	str	r1, [sp, #8]
5000ded4:	e58d3000 	str	r3, [sp]
5000ded8:	e1a03002 	mov	r3, r2
5000dedc:	e5cd3007 	strb	r3, [sp, #7]
5000dee0:	e59f30c4 	ldr	r3, [pc, #196]	; 5000dfac <OSTmrCreate+0xe8>
5000dee4:	e5d33000 	ldrb	r3, [r3]
5000dee8:	e3530000 	cmp	r3, #0
5000deec:	0a000004 	beq	5000df04 <OSTmrCreate+0x40>
5000def0:	e59d3028 	ldr	r3, [sp, #40]	; 0x28
5000def4:	e3e02074 	mvn	r2, #116	; 0x74
5000def8:	e5c32000 	strb	r2, [r3]
5000defc:	e3a03000 	mov	r3, #0
5000df00:	ea000025 	b	5000df9c <OSTmrCreate+0xd8>
5000df04:	ebffe1bf 	bl	50006608 <OSSchedLock>
5000df08:	eb0001fa 	bl	5000e6f8 <OSTmr_Alloc>
5000df0c:	e58d0014 	str	r0, [sp, #20]
5000df10:	e59d3014 	ldr	r3, [sp, #20]
5000df14:	e3530000 	cmp	r3, #0
5000df18:	1a000005 	bne	5000df34 <OSTmrCreate+0x70>
5000df1c:	ebffe1d9 	bl	50006688 <OSSchedUnlock>
5000df20:	e59d3028 	ldr	r3, [sp, #40]	; 0x28
5000df24:	e3e02079 	mvn	r2, #121	; 0x79
5000df28:	e5c32000 	strb	r2, [r3]
5000df2c:	e3a03000 	mov	r3, #0
5000df30:	ea000019 	b	5000df9c <OSTmrCreate+0xd8>
5000df34:	e59d3014 	ldr	r3, [sp, #20]
5000df38:	e3a02001 	mov	r2, #1
5000df3c:	e5c32025 	strb	r2, [r3, #37]	; 0x25
5000df40:	e59d3014 	ldr	r3, [sp, #20]
5000df44:	e59d200c 	ldr	r2, [sp, #12]
5000df48:	e5832018 	str	r2, [r3, #24]
5000df4c:	e59d3014 	ldr	r3, [sp, #20]
5000df50:	e59d2008 	ldr	r2, [sp, #8]
5000df54:	e583201c 	str	r2, [r3, #28]
5000df58:	e59d3014 	ldr	r3, [sp, #20]
5000df5c:	e5dd2007 	ldrb	r2, [sp, #7]
5000df60:	e5c32024 	strb	r2, [r3, #36]	; 0x24
5000df64:	e59d3014 	ldr	r3, [sp, #20]
5000df68:	e59d2000 	ldr	r2, [sp]
5000df6c:	e5832004 	str	r2, [r3, #4]
5000df70:	e59d3014 	ldr	r3, [sp, #20]
5000df74:	e59d2020 	ldr	r2, [sp, #32]
5000df78:	e5832008 	str	r2, [r3, #8]
5000df7c:	e59d3014 	ldr	r3, [sp, #20]
5000df80:	e59d2024 	ldr	r2, [sp, #36]	; 0x24
5000df84:	e5832020 	str	r2, [r3, #32]
5000df88:	ebffe1be 	bl	50006688 <OSSchedUnlock>
5000df8c:	e59d3028 	ldr	r3, [sp, #40]	; 0x28
5000df90:	e3a02000 	mov	r2, #0
5000df94:	e5c32000 	strb	r2, [r3]
5000df98:	e59d3014 	ldr	r3, [sp, #20]
5000df9c:	e1a00003 	mov	r0, r3
5000dfa0:	e28dd01c 	add	sp, sp, #28
5000dfa4:	e49de004 	pop	{lr}		; (ldr lr, [sp], #4)
5000dfa8:	e12fff1e 	bx	lr
5000dfac:	50012178 	andpl	r2, r1, r8, ror r1

5000dfb0 <OSTmrDel>:
5000dfb0:	e52de004 	push	{lr}		; (str lr, [sp, #-4]!)
5000dfb4:	e24dd00c 	sub	sp, sp, #12
5000dfb8:	e58d0004 	str	r0, [sp, #4]
5000dfbc:	e58d1000 	str	r1, [sp]
5000dfc0:	e59d3004 	ldr	r3, [sp, #4]
5000dfc4:	e5d33000 	ldrb	r3, [r3]
5000dfc8:	e3530064 	cmp	r3, #100	; 0x64
5000dfcc:	0a000004 	beq	5000dfe4 <OSTmrDel+0x34>
5000dfd0:	e59d3000 	ldr	r3, [sp]
5000dfd4:	e3e02076 	mvn	r2, #118	; 0x76
5000dfd8:	e5c32000 	strb	r2, [r3]
5000dfdc:	e3a03000 	mov	r3, #0
5000dfe0:	ea00002f 	b	5000e0a4 <OSTmrDel+0xf4>
5000dfe4:	e59f30c8 	ldr	r3, [pc, #200]	; 5000e0b4 <OSTmrDel+0x104>
5000dfe8:	e5d33000 	ldrb	r3, [r3]
5000dfec:	e3530000 	cmp	r3, #0
5000dff0:	0a000004 	beq	5000e008 <OSTmrDel+0x58>
5000dff4:	e59d3000 	ldr	r3, [sp]
5000dff8:	e3e02074 	mvn	r2, #116	; 0x74
5000dffc:	e5c32000 	strb	r2, [r3]
5000e000:	e3a03000 	mov	r3, #0
5000e004:	ea000026 	b	5000e0a4 <OSTmrDel+0xf4>
5000e008:	ebffe17e 	bl	50006608 <OSSchedLock>
5000e00c:	e59d3004 	ldr	r3, [sp, #4]
5000e010:	e5d33025 	ldrb	r3, [r3, #37]	; 0x25
5000e014:	e3530003 	cmp	r3, #3
5000e018:	979ff103 	ldrls	pc, [pc, r3, lsl #2]
5000e01c:	ea00001b 	b	5000e090 <OSTmrDel+0xe0>
5000e020:	5000e078 	andpl	lr, r0, r8, ror r0
5000e024:	5000e058 	andpl	lr, r0, r8, asr r0
5000e028:	5000e058 	andpl	lr, r0, r8, asr r0
5000e02c:	5000e030 	andpl	lr, r0, r0, lsr r0
5000e030:	e59d0004 	ldr	r0, [sp, #4]
5000e034:	eb0002fa 	bl	5000ec24 <OSTmr_Unlink>
5000e038:	e59d0004 	ldr	r0, [sp, #4]
5000e03c:	eb0001d6 	bl	5000e79c <OSTmr_Free>
5000e040:	ebffe190 	bl	50006688 <OSSchedUnlock>
5000e044:	e59d3000 	ldr	r3, [sp]
5000e048:	e3a02000 	mov	r2, #0
5000e04c:	e5c32000 	strb	r2, [r3]
5000e050:	e3a03001 	mov	r3, #1
5000e054:	ea000012 	b	5000e0a4 <OSTmrDel+0xf4>
5000e058:	e59d0004 	ldr	r0, [sp, #4]
5000e05c:	eb0001ce 	bl	5000e79c <OSTmr_Free>
5000e060:	ebffe188 	bl	50006688 <OSSchedUnlock>
5000e064:	e59d3000 	ldr	r3, [sp]
5000e068:	e3a02000 	mov	r2, #0
5000e06c:	e5c32000 	strb	r2, [r3]
5000e070:	e3a03001 	mov	r3, #1
5000e074:	ea00000a 	b	5000e0a4 <OSTmrDel+0xf4>
5000e078:	ebffe182 	bl	50006688 <OSSchedUnlock>
5000e07c:	e59d3000 	ldr	r3, [sp]
5000e080:	e3e02078 	mvn	r2, #120	; 0x78
5000e084:	e5c32000 	strb	r2, [r3]
5000e088:	e3a03000 	mov	r3, #0
5000e08c:	ea000004 	b	5000e0a4 <OSTmrDel+0xf4>
5000e090:	ebffe17c 	bl	50006688 <OSSchedUnlock>
5000e094:	e59d3000 	ldr	r3, [sp]
5000e098:	e3e02072 	mvn	r2, #114	; 0x72
5000e09c:	e5c32000 	strb	r2, [r3]
5000e0a0:	e3a03000 	mov	r3, #0
5000e0a4:	e1a00003 	mov	r0, r3
5000e0a8:	e28dd00c 	add	sp, sp, #12
5000e0ac:	e49de004 	pop	{lr}		; (ldr lr, [sp], #4)
5000e0b0:	e12fff1e 	bx	lr
5000e0b4:	50012178 	andpl	r2, r1, r8, ror r1

5000e0b8 <OSTmrNameGet>:
5000e0b8:	e52de004 	push	{lr}		; (str lr, [sp, #-4]!)
5000e0bc:	e24dd01c 	sub	sp, sp, #28
5000e0c0:	e58d000c 	str	r0, [sp, #12]
5000e0c4:	e58d1008 	str	r1, [sp, #8]
5000e0c8:	e58d2004 	str	r2, [sp, #4]
5000e0cc:	e59d300c 	ldr	r3, [sp, #12]
5000e0d0:	e5d33000 	ldrb	r3, [r3]
5000e0d4:	e3530064 	cmp	r3, #100	; 0x64
5000e0d8:	0a000004 	beq	5000e0f0 <OSTmrNameGet+0x38>
5000e0dc:	e59d3004 	ldr	r3, [sp, #4]
5000e0e0:	e3e02076 	mvn	r2, #118	; 0x76
5000e0e4:	e5c32000 	strb	r2, [r3]
5000e0e8:	e3a03000 	mov	r3, #0
5000e0ec:	ea00002c 	b	5000e1a4 <OSTmrNameGet+0xec>
5000e0f0:	e59f30bc 	ldr	r3, [pc, #188]	; 5000e1b4 <OSTmrNameGet+0xfc>
5000e0f4:	e5d33000 	ldrb	r3, [r3]
5000e0f8:	e3530000 	cmp	r3, #0
5000e0fc:	0a000004 	beq	5000e114 <OSTmrNameGet+0x5c>
5000e100:	e59d3004 	ldr	r3, [sp, #4]
5000e104:	e3a02011 	mov	r2, #17
5000e108:	e5c32000 	strb	r2, [r3]
5000e10c:	e3a03000 	mov	r3, #0
5000e110:	ea000023 	b	5000e1a4 <OSTmrNameGet+0xec>
5000e114:	ebffe13b 	bl	50006608 <OSSchedLock>
5000e118:	e59d300c 	ldr	r3, [sp, #12]
5000e11c:	e5d33025 	ldrb	r3, [r3, #37]	; 0x25
5000e120:	e3530000 	cmp	r3, #0
5000e124:	0a000013 	beq	5000e178 <OSTmrNameGet+0xc0>
5000e128:	e3530000 	cmp	r3, #0
5000e12c:	ba000017 	blt	5000e190 <OSTmrNameGet+0xd8>
5000e130:	e3530003 	cmp	r3, #3
5000e134:	ca000015 	bgt	5000e190 <OSTmrNameGet+0xd8>
5000e138:	e59d300c 	ldr	r3, [sp, #12]
5000e13c:	e5932020 	ldr	r2, [r3, #32]
5000e140:	e59d3008 	ldr	r3, [sp, #8]
5000e144:	e5832000 	str	r2, [r3]
5000e148:	e59d3008 	ldr	r3, [sp, #8]
5000e14c:	e5933000 	ldr	r3, [r3]
5000e150:	e1a00003 	mov	r0, r3
5000e154:	ebffe555 	bl	500076b0 <OS_StrLen>
5000e158:	e1a03000 	mov	r3, r0
5000e15c:	e5cd3017 	strb	r3, [sp, #23]
5000e160:	ebffe148 	bl	50006688 <OSSchedUnlock>
5000e164:	e59d3004 	ldr	r3, [sp, #4]
5000e168:	e3a02000 	mov	r2, #0
5000e16c:	e5c32000 	strb	r2, [r3]
5000e170:	e5dd3017 	ldrb	r3, [sp, #23]
5000e174:	ea00000a 	b	5000e1a4 <OSTmrNameGet+0xec>
5000e178:	ebffe142 	bl	50006688 <OSSchedUnlock>
5000e17c:	e59d3004 	ldr	r3, [sp, #4]
5000e180:	e3e02078 	mvn	r2, #120	; 0x78
5000e184:	e5c32000 	strb	r2, [r3]
5000e188:	e3a03000 	mov	r3, #0
5000e18c:	ea000004 	b	5000e1a4 <OSTmrNameGet+0xec>
5000e190:	ebffe13c 	bl	50006688 <OSSchedUnlock>
5000e194:	e59d3004 	ldr	r3, [sp, #4]
5000e198:	e3e02072 	mvn	r2, #114	; 0x72
5000e19c:	e5c32000 	strb	r2, [r3]
5000e1a0:	e3a03000 	mov	r3, #0
5000e1a4:	e1a00003 	mov	r0, r3
5000e1a8:	e28dd01c 	add	sp, sp, #28
5000e1ac:	e49de004 	pop	{lr}		; (ldr lr, [sp], #4)
5000e1b0:	e12fff1e 	bx	lr
5000e1b4:	50012178 	andpl	r2, r1, r8, ror r1

5000e1b8 <OSTmrRemainGet>:
5000e1b8:	e52de004 	push	{lr}		; (str lr, [sp, #-4]!)
5000e1bc:	e24dd014 	sub	sp, sp, #20
5000e1c0:	e58d0004 	str	r0, [sp, #4]
5000e1c4:	e58d1000 	str	r1, [sp]
5000e1c8:	e59d3004 	ldr	r3, [sp, #4]
5000e1cc:	e5d33000 	ldrb	r3, [r3]
5000e1d0:	e3530064 	cmp	r3, #100	; 0x64
5000e1d4:	0a000004 	beq	5000e1ec <OSTmrRemainGet+0x34>
5000e1d8:	e59d3000 	ldr	r3, [sp]
5000e1dc:	e3e02076 	mvn	r2, #118	; 0x76
5000e1e0:	e5c32000 	strb	r2, [r3]
5000e1e4:	e3a03000 	mov	r3, #0
5000e1e8:	ea00004d 	b	5000e324 <OSTmrRemainGet+0x16c>
5000e1ec:	e59f3140 	ldr	r3, [pc, #320]	; 5000e334 <OSTmrRemainGet+0x17c>
5000e1f0:	e5d33000 	ldrb	r3, [r3]
5000e1f4:	e3530000 	cmp	r3, #0
5000e1f8:	0a000004 	beq	5000e210 <OSTmrRemainGet+0x58>
5000e1fc:	e59d3000 	ldr	r3, [sp]
5000e200:	e3e02074 	mvn	r2, #116	; 0x74
5000e204:	e5c32000 	strb	r2, [r3]
5000e208:	e3a03000 	mov	r3, #0
5000e20c:	ea000044 	b	5000e324 <OSTmrRemainGet+0x16c>
5000e210:	ebffe0fc 	bl	50006608 <OSSchedLock>
5000e214:	e59d3004 	ldr	r3, [sp, #4]
5000e218:	e5d33025 	ldrb	r3, [r3, #37]	; 0x25
5000e21c:	e3530003 	cmp	r3, #3
5000e220:	979ff103 	ldrls	pc, [pc, r3, lsl #2]
5000e224:	ea000039 	b	5000e310 <OSTmrRemainGet+0x158>
5000e228:	5000e2f8 	strdpl	lr, [r0], -r8
5000e22c:	5000e268 	andpl	lr, r0, r8, ror #4
5000e230:	5000e2e0 	andpl	lr, r0, r0, ror #5
5000e234:	5000e238 	andpl	lr, r0, r8, lsr r2
5000e238:	e59d3004 	ldr	r3, [sp, #4]
5000e23c:	e5932014 	ldr	r2, [r3, #20]
5000e240:	e59f30f0 	ldr	r3, [pc, #240]	; 5000e338 <OSTmrRemainGet+0x180>
5000e244:	e5933000 	ldr	r3, [r3]
5000e248:	e0633002 	rsb	r3, r3, r2
5000e24c:	e58d300c 	str	r3, [sp, #12]
5000e250:	ebffe10c 	bl	50006688 <OSSchedUnlock>
5000e254:	e59d3000 	ldr	r3, [sp]
5000e258:	e3a02000 	mov	r2, #0
5000e25c:	e5c32000 	strb	r2, [r3]
5000e260:	e59d300c 	ldr	r3, [sp, #12]
5000e264:	ea00002e 	b	5000e324 <OSTmrRemainGet+0x16c>
5000e268:	e59d3004 	ldr	r3, [sp, #4]
5000e26c:	e5d33024 	ldrb	r3, [r3, #36]	; 0x24
5000e270:	e3530002 	cmp	r3, #2
5000e274:	1a00000f 	bne	5000e2b8 <OSTmrRemainGet+0x100>
5000e278:	e59d3004 	ldr	r3, [sp, #4]
5000e27c:	e5933018 	ldr	r3, [r3, #24]
5000e280:	e3530000 	cmp	r3, #0
5000e284:	1a000003 	bne	5000e298 <OSTmrRemainGet+0xe0>
5000e288:	e59d3004 	ldr	r3, [sp, #4]
5000e28c:	e593301c 	ldr	r3, [r3, #28]
5000e290:	e58d300c 	str	r3, [sp, #12]
5000e294:	ea000002 	b	5000e2a4 <OSTmrRemainGet+0xec>
5000e298:	e59d3004 	ldr	r3, [sp, #4]
5000e29c:	e5933018 	ldr	r3, [r3, #24]
5000e2a0:	e58d300c 	str	r3, [sp, #12]
5000e2a4:	ebffe0f7 	bl	50006688 <OSSchedUnlock>
5000e2a8:	e59d3000 	ldr	r3, [sp]
5000e2ac:	e3a02000 	mov	r2, #0
5000e2b0:	e5c32000 	strb	r2, [r3]
5000e2b4:	ea000007 	b	5000e2d8 <OSTmrRemainGet+0x120>
5000e2b8:	e59d3004 	ldr	r3, [sp, #4]
5000e2bc:	e5933018 	ldr	r3, [r3, #24]
5000e2c0:	e58d300c 	str	r3, [sp, #12]
5000e2c4:	ebffe0ef 	bl	50006688 <OSSchedUnlock>
5000e2c8:	e59d3000 	ldr	r3, [sp]
5000e2cc:	e3a02000 	mov	r2, #0
5000e2d0:	e5c32000 	strb	r2, [r3]
5000e2d4:	e1a00000 	nop			; (mov r0, r0)
5000e2d8:	e59d300c 	ldr	r3, [sp, #12]
5000e2dc:	ea000010 	b	5000e324 <OSTmrRemainGet+0x16c>
5000e2e0:	ebffe0e8 	bl	50006688 <OSSchedUnlock>
5000e2e4:	e59d3000 	ldr	r3, [sp]
5000e2e8:	e3a02000 	mov	r2, #0
5000e2ec:	e5c32000 	strb	r2, [r3]
5000e2f0:	e3a03000 	mov	r3, #0
5000e2f4:	ea00000a 	b	5000e324 <OSTmrRemainGet+0x16c>
5000e2f8:	ebffe0e2 	bl	50006688 <OSSchedUnlock>
5000e2fc:	e59d3000 	ldr	r3, [sp]
5000e300:	e3e02078 	mvn	r2, #120	; 0x78
5000e304:	e5c32000 	strb	r2, [r3]
5000e308:	e3a03000 	mov	r3, #0
5000e30c:	ea000004 	b	5000e324 <OSTmrRemainGet+0x16c>
5000e310:	ebffe0dc 	bl	50006688 <OSSchedUnlock>
5000e314:	e59d3000 	ldr	r3, [sp]
5000e318:	e3e02072 	mvn	r2, #114	; 0x72
5000e31c:	e5c32000 	strb	r2, [r3]
5000e320:	e3a03000 	mov	r3, #0
5000e324:	e1a00003 	mov	r0, r3
5000e328:	e28dd014 	add	sp, sp, #20
5000e32c:	e49de004 	pop	{lr}		; (ldr lr, [sp], #4)
5000e330:	e12fff1e 	bx	lr
5000e334:	50012178 	andpl	r2, r1, r8, ror r1
5000e338:	50012180 	andpl	r2, r1, r0, lsl #3

5000e33c <OSTmrStateGet>:
5000e33c:	e52de004 	push	{lr}		; (str lr, [sp, #-4]!)
5000e340:	e24dd014 	sub	sp, sp, #20
5000e344:	e58d0004 	str	r0, [sp, #4]
5000e348:	e58d1000 	str	r1, [sp]
5000e34c:	e59d3004 	ldr	r3, [sp, #4]
5000e350:	e5d33000 	ldrb	r3, [r3]
5000e354:	e3530064 	cmp	r3, #100	; 0x64
5000e358:	0a000004 	beq	5000e370 <OSTmrStateGet+0x34>
5000e35c:	e59d3000 	ldr	r3, [sp]
5000e360:	e3e02076 	mvn	r2, #118	; 0x76
5000e364:	e5c32000 	strb	r2, [r3]
5000e368:	e3a03000 	mov	r3, #0
5000e36c:	ea00001a 	b	5000e3dc <OSTmrStateGet+0xa0>
5000e370:	e59f3074 	ldr	r3, [pc, #116]	; 5000e3ec <OSTmrStateGet+0xb0>
5000e374:	e5d33000 	ldrb	r3, [r3]
5000e378:	e3530000 	cmp	r3, #0
5000e37c:	0a000004 	beq	5000e394 <OSTmrStateGet+0x58>
5000e380:	e59d3000 	ldr	r3, [sp]
5000e384:	e3e02074 	mvn	r2, #116	; 0x74
5000e388:	e5c32000 	strb	r2, [r3]
5000e38c:	e3a03000 	mov	r3, #0
5000e390:	ea000011 	b	5000e3dc <OSTmrStateGet+0xa0>
5000e394:	ebffe09b 	bl	50006608 <OSSchedLock>
5000e398:	e59d3004 	ldr	r3, [sp, #4]
5000e39c:	e5d33025 	ldrb	r3, [r3, #37]	; 0x25
5000e3a0:	e5cd300f 	strb	r3, [sp, #15]
5000e3a4:	e5dd300f 	ldrb	r3, [sp, #15]
5000e3a8:	e2833000 	add	r3, r3, #0
5000e3ac:	e3530003 	cmp	r3, #3
5000e3b0:	8a000003 	bhi	5000e3c4 <OSTmrStateGet+0x88>
5000e3b4:	e59d3000 	ldr	r3, [sp]
5000e3b8:	e3a02000 	mov	r2, #0
5000e3bc:	e5c32000 	strb	r2, [r3]
5000e3c0:	ea000003 	b	5000e3d4 <OSTmrStateGet+0x98>
5000e3c4:	e59d3000 	ldr	r3, [sp]
5000e3c8:	e3e02072 	mvn	r2, #114	; 0x72
5000e3cc:	e5c32000 	strb	r2, [r3]
5000e3d0:	e1a00000 	nop			; (mov r0, r0)
5000e3d4:	ebffe0ab 	bl	50006688 <OSSchedUnlock>
5000e3d8:	e5dd300f 	ldrb	r3, [sp, #15]
5000e3dc:	e1a00003 	mov	r0, r3
5000e3e0:	e28dd014 	add	sp, sp, #20
5000e3e4:	e49de004 	pop	{lr}		; (ldr lr, [sp], #4)
5000e3e8:	e12fff1e 	bx	lr
5000e3ec:	50012178 	andpl	r2, r1, r8, ror r1

5000e3f0 <OSTmrStart>:
5000e3f0:	e52de004 	push	{lr}		; (str lr, [sp, #-4]!)
5000e3f4:	e24dd00c 	sub	sp, sp, #12
5000e3f8:	e58d0004 	str	r0, [sp, #4]
5000e3fc:	e58d1000 	str	r1, [sp]
5000e400:	e59d3004 	ldr	r3, [sp, #4]
5000e404:	e5d33000 	ldrb	r3, [r3]
5000e408:	e3530064 	cmp	r3, #100	; 0x64
5000e40c:	0a000004 	beq	5000e424 <OSTmrStart+0x34>
5000e410:	e59d3000 	ldr	r3, [sp]
5000e414:	e3e02076 	mvn	r2, #118	; 0x76
5000e418:	e5c32000 	strb	r2, [r3]
5000e41c:	e3a03000 	mov	r3, #0
5000e420:	ea000031 	b	5000e4ec <OSTmrStart+0xfc>
5000e424:	e59f30d0 	ldr	r3, [pc, #208]	; 5000e4fc <OSTmrStart+0x10c>
5000e428:	e5d33000 	ldrb	r3, [r3]
5000e42c:	e3530000 	cmp	r3, #0
5000e430:	0a000004 	beq	5000e448 <OSTmrStart+0x58>
5000e434:	e59d3000 	ldr	r3, [sp]
5000e438:	e3e02074 	mvn	r2, #116	; 0x74
5000e43c:	e5c32000 	strb	r2, [r3]
5000e440:	e3a03000 	mov	r3, #0
5000e444:	ea000028 	b	5000e4ec <OSTmrStart+0xfc>
5000e448:	ebffe06e 	bl	50006608 <OSSchedLock>
5000e44c:	e59d3004 	ldr	r3, [sp, #4]
5000e450:	e5d33025 	ldrb	r3, [r3, #37]	; 0x25
5000e454:	e3530003 	cmp	r3, #3
5000e458:	979ff103 	ldrls	pc, [pc, r3, lsl #2]
5000e45c:	ea00001d 	b	5000e4d8 <OSTmrStart+0xe8>
5000e460:	5000e4c0 	andpl	lr, r0, r0, asr #9
5000e464:	5000e49c 	mulpl	r0, ip, r4
5000e468:	5000e49c 	mulpl	r0, ip, r4
5000e46c:	5000e470 	andpl	lr, r0, r0, ror r4
5000e470:	e59d0004 	ldr	r0, [sp, #4]
5000e474:	eb0001ea 	bl	5000ec24 <OSTmr_Unlink>
5000e478:	e59d0004 	ldr	r0, [sp, #4]
5000e47c:	e3a01000 	mov	r1, #0
5000e480:	eb00018f 	bl	5000eac4 <OSTmr_Link>
5000e484:	ebffe07f 	bl	50006688 <OSSchedUnlock>
5000e488:	e59d3000 	ldr	r3, [sp]
5000e48c:	e3a02000 	mov	r2, #0
5000e490:	e5c32000 	strb	r2, [r3]
5000e494:	e3a03001 	mov	r3, #1
5000e498:	ea000013 	b	5000e4ec <OSTmrStart+0xfc>
5000e49c:	e59d0004 	ldr	r0, [sp, #4]
5000e4a0:	e3a01000 	mov	r1, #0
5000e4a4:	eb000186 	bl	5000eac4 <OSTmr_Link>
5000e4a8:	ebffe076 	bl	50006688 <OSSchedUnlock>
5000e4ac:	e59d3000 	ldr	r3, [sp]
5000e4b0:	e3a02000 	mov	r2, #0
5000e4b4:	e5c32000 	strb	r2, [r3]
5000e4b8:	e3a03001 	mov	r3, #1
5000e4bc:	ea00000a 	b	5000e4ec <OSTmrStart+0xfc>
5000e4c0:	ebffe070 	bl	50006688 <OSSchedUnlock>
5000e4c4:	e59d3000 	ldr	r3, [sp]
5000e4c8:	e3e02078 	mvn	r2, #120	; 0x78
5000e4cc:	e5c32000 	strb	r2, [r3]
5000e4d0:	e3a03000 	mov	r3, #0
5000e4d4:	ea000004 	b	5000e4ec <OSTmrStart+0xfc>
5000e4d8:	ebffe06a 	bl	50006688 <OSSchedUnlock>
5000e4dc:	e59d3000 	ldr	r3, [sp]
5000e4e0:	e3e02072 	mvn	r2, #114	; 0x72
5000e4e4:	e5c32000 	strb	r2, [r3]
5000e4e8:	e3a03000 	mov	r3, #0
5000e4ec:	e1a00003 	mov	r0, r3
5000e4f0:	e28dd00c 	add	sp, sp, #12
5000e4f4:	e49de004 	pop	{lr}		; (ldr lr, [sp], #4)
5000e4f8:	e12fff1e 	bx	lr
5000e4fc:	50012178 	andpl	r2, r1, r8, ror r1

5000e500 <OSTmrStop>:
5000e500:	e52de004 	push	{lr}		; (str lr, [sp, #-4]!)
5000e504:	e24dd01c 	sub	sp, sp, #28
5000e508:	e58d000c 	str	r0, [sp, #12]
5000e50c:	e58d2004 	str	r2, [sp, #4]
5000e510:	e58d3000 	str	r3, [sp]
5000e514:	e1a03001 	mov	r3, r1
5000e518:	e5cd300b 	strb	r3, [sp, #11]
5000e51c:	e59d300c 	ldr	r3, [sp, #12]
5000e520:	e5d33000 	ldrb	r3, [r3]
5000e524:	e3530064 	cmp	r3, #100	; 0x64
5000e528:	0a000004 	beq	5000e540 <OSTmrStop+0x40>
5000e52c:	e59d3000 	ldr	r3, [sp]
5000e530:	e3e02076 	mvn	r2, #118	; 0x76
5000e534:	e5c32000 	strb	r2, [r3]
5000e538:	e3a03000 	mov	r3, #0
5000e53c:	ea00005a 	b	5000e6ac <OSTmrStop+0x1ac>
5000e540:	e59f3174 	ldr	r3, [pc, #372]	; 5000e6bc <OSTmrStop+0x1bc>
5000e544:	e5d33000 	ldrb	r3, [r3]
5000e548:	e3530000 	cmp	r3, #0
5000e54c:	0a000004 	beq	5000e564 <OSTmrStop+0x64>
5000e550:	e59d3000 	ldr	r3, [sp]
5000e554:	e3e02074 	mvn	r2, #116	; 0x74
5000e558:	e5c32000 	strb	r2, [r3]
5000e55c:	e3a03000 	mov	r3, #0
5000e560:	ea000051 	b	5000e6ac <OSTmrStop+0x1ac>
5000e564:	ebffe027 	bl	50006608 <OSSchedLock>
5000e568:	e59d300c 	ldr	r3, [sp, #12]
5000e56c:	e5d33025 	ldrb	r3, [r3, #37]	; 0x25
5000e570:	e3530003 	cmp	r3, #3
5000e574:	979ff103 	ldrls	pc, [pc, r3, lsl #2]
5000e578:	ea000046 	b	5000e698 <OSTmrStop+0x198>
5000e57c:	5000e680 	andpl	lr, r0, r0, lsl #13
5000e580:	5000e668 	andpl	lr, r0, r8, ror #12
5000e584:	5000e668 	andpl	lr, r0, r8, ror #12
5000e588:	5000e58c 	andpl	lr, r0, ip, lsl #11
5000e58c:	e59d000c 	ldr	r0, [sp, #12]
5000e590:	eb0001a3 	bl	5000ec24 <OSTmr_Unlink>
5000e594:	e59d3000 	ldr	r3, [sp]
5000e598:	e3a02000 	mov	r2, #0
5000e59c:	e5c32000 	strb	r2, [r3]
5000e5a0:	e5dd300b 	ldrb	r3, [sp, #11]
5000e5a4:	e3530003 	cmp	r3, #3
5000e5a8:	0a000004 	beq	5000e5c0 <OSTmrStop+0xc0>
5000e5ac:	e3530004 	cmp	r3, #4
5000e5b0:	0a000014 	beq	5000e608 <OSTmrStop+0x108>
5000e5b4:	e3530000 	cmp	r3, #0
5000e5b8:	0a000026 	beq	5000e658 <OSTmrStop+0x158>
5000e5bc:	ea000021 	b	5000e648 <OSTmrStop+0x148>
5000e5c0:	e59d300c 	ldr	r3, [sp, #12]
5000e5c4:	e5933004 	ldr	r3, [r3, #4]
5000e5c8:	e58d3014 	str	r3, [sp, #20]
5000e5cc:	e59d3014 	ldr	r3, [sp, #20]
5000e5d0:	e3530000 	cmp	r3, #0
5000e5d4:	0a000007 	beq	5000e5f8 <OSTmrStop+0xf8>
5000e5d8:	e59d300c 	ldr	r3, [sp, #12]
5000e5dc:	e5932008 	ldr	r2, [r3, #8]
5000e5e0:	e59d3014 	ldr	r3, [sp, #20]
5000e5e4:	e59d000c 	ldr	r0, [sp, #12]
5000e5e8:	e1a01002 	mov	r1, r2
5000e5ec:	e1a0e00f 	mov	lr, pc
5000e5f0:	e12fff13 	bx	r3
5000e5f4:	ea000018 	b	5000e65c <OSTmrStop+0x15c>
5000e5f8:	e59d3000 	ldr	r3, [sp]
5000e5fc:	e3e02070 	mvn	r2, #112	; 0x70
5000e600:	e5c32000 	strb	r2, [r3]
5000e604:	ea000014 	b	5000e65c <OSTmrStop+0x15c>
5000e608:	e59d300c 	ldr	r3, [sp, #12]
5000e60c:	e5933004 	ldr	r3, [r3, #4]
5000e610:	e58d3014 	str	r3, [sp, #20]
5000e614:	e59d3014 	ldr	r3, [sp, #20]
5000e618:	e3530000 	cmp	r3, #0
5000e61c:	0a000005 	beq	5000e638 <OSTmrStop+0x138>
5000e620:	e59d3014 	ldr	r3, [sp, #20]
5000e624:	e59d000c 	ldr	r0, [sp, #12]
5000e628:	e59d1004 	ldr	r1, [sp, #4]
5000e62c:	e1a0e00f 	mov	lr, pc
5000e630:	e12fff13 	bx	r3
5000e634:	ea000008 	b	5000e65c <OSTmrStop+0x15c>
5000e638:	e59d3000 	ldr	r3, [sp]
5000e63c:	e3e02070 	mvn	r2, #112	; 0x70
5000e640:	e5c32000 	strb	r2, [r3]
5000e644:	ea000004 	b	5000e65c <OSTmrStop+0x15c>
5000e648:	e59d3000 	ldr	r3, [sp]
5000e64c:	e3e0207b 	mvn	r2, #123	; 0x7b
5000e650:	e5c32000 	strb	r2, [r3]
5000e654:	ea000000 	b	5000e65c <OSTmrStop+0x15c>
5000e658:	e1a00000 	nop			; (mov r0, r0)
5000e65c:	ebffe009 	bl	50006688 <OSSchedUnlock>
5000e660:	e3a03001 	mov	r3, #1
5000e664:	ea000010 	b	5000e6ac <OSTmrStop+0x1ac>
5000e668:	ebffe006 	bl	50006688 <OSSchedUnlock>
5000e66c:	e59d3000 	ldr	r3, [sp]
5000e670:	e3e02071 	mvn	r2, #113	; 0x71
5000e674:	e5c32000 	strb	r2, [r3]
5000e678:	e3a03001 	mov	r3, #1
5000e67c:	ea00000a 	b	5000e6ac <OSTmrStop+0x1ac>
5000e680:	ebffe000 	bl	50006688 <OSSchedUnlock>
5000e684:	e59d3000 	ldr	r3, [sp]
5000e688:	e3e02078 	mvn	r2, #120	; 0x78
5000e68c:	e5c32000 	strb	r2, [r3]
5000e690:	e3a03000 	mov	r3, #0
5000e694:	ea000004 	b	5000e6ac <OSTmrStop+0x1ac>
5000e698:	ebffdffa 	bl	50006688 <OSSchedUnlock>
5000e69c:	e59d3000 	ldr	r3, [sp]
5000e6a0:	e3e02072 	mvn	r2, #114	; 0x72
5000e6a4:	e5c32000 	strb	r2, [r3]
5000e6a8:	e3a03000 	mov	r3, #0
5000e6ac:	e1a00003 	mov	r0, r3
5000e6b0:	e28dd01c 	add	sp, sp, #28
5000e6b4:	e49de004 	pop	{lr}		; (ldr lr, [sp], #4)
5000e6b8:	e12fff1e 	bx	lr
5000e6bc:	50012178 	andpl	r2, r1, r8, ror r1

5000e6c0 <OSTmrSignal>:
5000e6c0:	e52de004 	push	{lr}		; (str lr, [sp, #-4]!)
5000e6c4:	e24dd00c 	sub	sp, sp, #12
5000e6c8:	e59f3024 	ldr	r3, [pc, #36]	; 5000e6f4 <OSTmrSignal+0x34>
5000e6cc:	e5933000 	ldr	r3, [r3]
5000e6d0:	e1a00003 	mov	r0, r3
5000e6d4:	ebfff752 	bl	5000c424 <OSSemPost>
5000e6d8:	e1a03000 	mov	r3, r0
5000e6dc:	e5cd3007 	strb	r3, [sp, #7]
5000e6e0:	e5dd3007 	ldrb	r3, [sp, #7]
5000e6e4:	e1a00003 	mov	r0, r3
5000e6e8:	e28dd00c 	add	sp, sp, #12
5000e6ec:	e49de004 	pop	{lr}		; (ldr lr, [sp], #4)
5000e6f0:	e12fff1e 	bx	lr
5000e6f4:	50011984 	andpl	r1, r1, r4, lsl #19

5000e6f8 <OSTmr_Alloc>:
5000e6f8:	e24dd008 	sub	sp, sp, #8
5000e6fc:	e59f308c 	ldr	r3, [pc, #140]	; 5000e790 <OSTmr_Alloc+0x98>
5000e700:	e5933000 	ldr	r3, [r3]
5000e704:	e3530000 	cmp	r3, #0
5000e708:	1a000001 	bne	5000e714 <OSTmr_Alloc+0x1c>
5000e70c:	e3a03000 	mov	r3, #0
5000e710:	ea00001b 	b	5000e784 <OSTmr_Alloc+0x8c>
5000e714:	e59f3074 	ldr	r3, [pc, #116]	; 5000e790 <OSTmr_Alloc+0x98>
5000e718:	e5933000 	ldr	r3, [r3]
5000e71c:	e58d3004 	str	r3, [sp, #4]
5000e720:	e59d3004 	ldr	r3, [sp, #4]
5000e724:	e593200c 	ldr	r2, [r3, #12]
5000e728:	e59f3060 	ldr	r3, [pc, #96]	; 5000e790 <OSTmr_Alloc+0x98>
5000e72c:	e5832000 	str	r2, [r3]
5000e730:	e59d3004 	ldr	r3, [sp, #4]
5000e734:	e3a02000 	mov	r2, #0
5000e738:	e583200c 	str	r2, [r3, #12]
5000e73c:	e59d3004 	ldr	r3, [sp, #4]
5000e740:	e3a02000 	mov	r2, #0
5000e744:	e5832010 	str	r2, [r3, #16]
5000e748:	e59f3044 	ldr	r3, [pc, #68]	; 5000e794 <OSTmr_Alloc+0x9c>
5000e74c:	e1d330b0 	ldrh	r3, [r3]
5000e750:	e2833001 	add	r3, r3, #1
5000e754:	e1a03803 	lsl	r3, r3, #16
5000e758:	e1a02823 	lsr	r2, r3, #16
5000e75c:	e59f3030 	ldr	r3, [pc, #48]	; 5000e794 <OSTmr_Alloc+0x9c>
5000e760:	e1c320b0 	strh	r2, [r3]
5000e764:	e59f302c 	ldr	r3, [pc, #44]	; 5000e798 <OSTmr_Alloc+0xa0>
5000e768:	e1d330b0 	ldrh	r3, [r3]
5000e76c:	e2433001 	sub	r3, r3, #1
5000e770:	e1a03803 	lsl	r3, r3, #16
5000e774:	e1a02823 	lsr	r2, r3, #16
5000e778:	e59f3018 	ldr	r3, [pc, #24]	; 5000e798 <OSTmr_Alloc+0xa0>
5000e77c:	e1c320b0 	strh	r2, [r3]
5000e780:	e59d3004 	ldr	r3, [sp, #4]
5000e784:	e1a00003 	mov	r0, r3
5000e788:	e28dd008 	add	sp, sp, #8
5000e78c:	e12fff1e 	bx	lr
5000e790:	5001193c 	andpl	r1, r1, ip, lsr r9
5000e794:	50011990 	mulpl	r1, r0, r9
5000e798:	50011eec 	andpl	r1, r1, ip, ror #29

5000e79c <OSTmr_Free>:
5000e79c:	e24dd008 	sub	sp, sp, #8
5000e7a0:	e58d0004 	str	r0, [sp, #4]
5000e7a4:	e59d3004 	ldr	r3, [sp, #4]
5000e7a8:	e3a02000 	mov	r2, #0
5000e7ac:	e5c32025 	strb	r2, [r3, #37]	; 0x25
5000e7b0:	e59d3004 	ldr	r3, [sp, #4]
5000e7b4:	e3a02000 	mov	r2, #0
5000e7b8:	e5c32024 	strb	r2, [r3, #36]	; 0x24
5000e7bc:	e59d3004 	ldr	r3, [sp, #4]
5000e7c0:	e3a02000 	mov	r2, #0
5000e7c4:	e583201c 	str	r2, [r3, #28]
5000e7c8:	e59d3004 	ldr	r3, [sp, #4]
5000e7cc:	e3a02000 	mov	r2, #0
5000e7d0:	e5832014 	str	r2, [r3, #20]
5000e7d4:	e59d3004 	ldr	r3, [sp, #4]
5000e7d8:	e3a02000 	mov	r2, #0
5000e7dc:	e5832004 	str	r2, [r3, #4]
5000e7e0:	e59d3004 	ldr	r3, [sp, #4]
5000e7e4:	e3a02000 	mov	r2, #0
5000e7e8:	e5832008 	str	r2, [r3, #8]
5000e7ec:	e59d3004 	ldr	r3, [sp, #4]
5000e7f0:	e59f2068 	ldr	r2, [pc, #104]	; 5000e860 <OSTmr_Free+0xc4>
5000e7f4:	e5832020 	str	r2, [r3, #32]
5000e7f8:	e59d3004 	ldr	r3, [sp, #4]
5000e7fc:	e3a02000 	mov	r2, #0
5000e800:	e5832010 	str	r2, [r3, #16]
5000e804:	e59f3058 	ldr	r3, [pc, #88]	; 5000e864 <OSTmr_Free+0xc8>
5000e808:	e5932000 	ldr	r2, [r3]
5000e80c:	e59d3004 	ldr	r3, [sp, #4]
5000e810:	e583200c 	str	r2, [r3, #12]
5000e814:	e59f3048 	ldr	r3, [pc, #72]	; 5000e864 <OSTmr_Free+0xc8>
5000e818:	e59d2004 	ldr	r2, [sp, #4]
5000e81c:	e5832000 	str	r2, [r3]
5000e820:	e59f3040 	ldr	r3, [pc, #64]	; 5000e868 <OSTmr_Free+0xcc>
5000e824:	e1d330b0 	ldrh	r3, [r3]
5000e828:	e2433001 	sub	r3, r3, #1
5000e82c:	e1a03803 	lsl	r3, r3, #16
5000e830:	e1a02823 	lsr	r2, r3, #16
5000e834:	e59f302c 	ldr	r3, [pc, #44]	; 5000e868 <OSTmr_Free+0xcc>
5000e838:	e1c320b0 	strh	r2, [r3]
5000e83c:	e59f3028 	ldr	r3, [pc, #40]	; 5000e86c <OSTmr_Free+0xd0>
5000e840:	e1d330b0 	ldrh	r3, [r3]
5000e844:	e2833001 	add	r3, r3, #1
5000e848:	e1a03803 	lsl	r3, r3, #16
5000e84c:	e1a02823 	lsr	r2, r3, #16
5000e850:	e59f3014 	ldr	r3, [pc, #20]	; 5000e86c <OSTmr_Free+0xd0>
5000e854:	e1c320b0 	strh	r2, [r3]
5000e858:	e28dd008 	add	sp, sp, #8
5000e85c:	e12fff1e 	bx	lr
5000e860:	50010cb4 			; <UNDEFINED> instruction: 0x50010cb4
5000e864:	5001193c 	andpl	r1, r1, ip, lsr r9
5000e868:	50011990 	mulpl	r1, r0, r9
5000e86c:	50011eec 	andpl	r1, r1, ip, ror #29

5000e870 <OSTmr_Init>:
5000e870:	e52de004 	push	{lr}		; (str lr, [sp, #-4]!)
5000e874:	e24dd014 	sub	sp, sp, #20
5000e878:	e59f01a0 	ldr	r0, [pc, #416]	; 5000ea20 <OSTmr_Init+0x1b0>
5000e87c:	e3a01d0a 	mov	r1, #640	; 0x280
5000e880:	ebffe317 	bl	500074e4 <OS_MemClr>
5000e884:	e59f0198 	ldr	r0, [pc, #408]	; 5000ea24 <OSTmr_Init+0x1b4>
5000e888:	e3a01040 	mov	r1, #64	; 0x40
5000e88c:	ebffe314 	bl	500074e4 <OS_MemClr>
5000e890:	e3a03000 	mov	r3, #0
5000e894:	e1cd30be 	strh	r3, [sp, #14]
5000e898:	ea000021 	b	5000e924 <OSTmr_Init+0xb4>
5000e89c:	e1dd30be 	ldrh	r3, [sp, #14]
5000e8a0:	e2833001 	add	r3, r3, #1
5000e8a4:	e1cd30bc 	strh	r3, [sp, #12]
5000e8a8:	e1dd20be 	ldrh	r2, [sp, #14]
5000e8ac:	e1a03002 	mov	r3, r2
5000e8b0:	e1a03103 	lsl	r3, r3, #2
5000e8b4:	e0833002 	add	r3, r3, r2
5000e8b8:	e1a03183 	lsl	r3, r3, #3
5000e8bc:	e59f215c 	ldr	r2, [pc, #348]	; 5000ea20 <OSTmr_Init+0x1b0>
5000e8c0:	e0833002 	add	r3, r3, r2
5000e8c4:	e58d3008 	str	r3, [sp, #8]
5000e8c8:	e1dd20bc 	ldrh	r2, [sp, #12]
5000e8cc:	e1a03002 	mov	r3, r2
5000e8d0:	e1a03103 	lsl	r3, r3, #2
5000e8d4:	e0833002 	add	r3, r3, r2
5000e8d8:	e1a03183 	lsl	r3, r3, #3
5000e8dc:	e59f213c 	ldr	r2, [pc, #316]	; 5000ea20 <OSTmr_Init+0x1b0>
5000e8e0:	e0833002 	add	r3, r3, r2
5000e8e4:	e58d3004 	str	r3, [sp, #4]
5000e8e8:	e59d3008 	ldr	r3, [sp, #8]
5000e8ec:	e3a02064 	mov	r2, #100	; 0x64
5000e8f0:	e5c32000 	strb	r2, [r3]
5000e8f4:	e59d3008 	ldr	r3, [sp, #8]
5000e8f8:	e3a02000 	mov	r2, #0
5000e8fc:	e5c32025 	strb	r2, [r3, #37]	; 0x25
5000e900:	e59d3008 	ldr	r3, [sp, #8]
5000e904:	e59d2004 	ldr	r2, [sp, #4]
5000e908:	e583200c 	str	r2, [r3, #12]
5000e90c:	e59d3008 	ldr	r3, [sp, #8]
5000e910:	e59f2110 	ldr	r2, [pc, #272]	; 5000ea28 <OSTmr_Init+0x1b8>
5000e914:	e5832020 	str	r2, [r3, #32]
5000e918:	e1dd30be 	ldrh	r3, [sp, #14]
5000e91c:	e2833001 	add	r3, r3, #1
5000e920:	e1cd30be 	strh	r3, [sp, #14]
5000e924:	e1dd30be 	ldrh	r3, [sp, #14]
5000e928:	e353000e 	cmp	r3, #14
5000e92c:	9affffda 	bls	5000e89c <OSTmr_Init+0x2c>
5000e930:	e1dd20be 	ldrh	r2, [sp, #14]
5000e934:	e1a03002 	mov	r3, r2
5000e938:	e1a03103 	lsl	r3, r3, #2
5000e93c:	e0833002 	add	r3, r3, r2
5000e940:	e1a03183 	lsl	r3, r3, #3
5000e944:	e59f20d4 	ldr	r2, [pc, #212]	; 5000ea20 <OSTmr_Init+0x1b0>
5000e948:	e0833002 	add	r3, r3, r2
5000e94c:	e58d3008 	str	r3, [sp, #8]
5000e950:	e59d3008 	ldr	r3, [sp, #8]
5000e954:	e3a02064 	mov	r2, #100	; 0x64
5000e958:	e5c32000 	strb	r2, [r3]
5000e95c:	e59d3008 	ldr	r3, [sp, #8]
5000e960:	e3a02000 	mov	r2, #0
5000e964:	e5c32025 	strb	r2, [r3, #37]	; 0x25
5000e968:	e59d3008 	ldr	r3, [sp, #8]
5000e96c:	e3a02000 	mov	r2, #0
5000e970:	e583200c 	str	r2, [r3, #12]
5000e974:	e59d3008 	ldr	r3, [sp, #8]
5000e978:	e59f20a8 	ldr	r2, [pc, #168]	; 5000ea28 <OSTmr_Init+0x1b8>
5000e97c:	e5832020 	str	r2, [r3, #32]
5000e980:	e59f30a4 	ldr	r3, [pc, #164]	; 5000ea2c <OSTmr_Init+0x1bc>
5000e984:	e3a02000 	mov	r2, #0
5000e988:	e5832000 	str	r2, [r3]
5000e98c:	e59f309c 	ldr	r3, [pc, #156]	; 5000ea30 <OSTmr_Init+0x1c0>
5000e990:	e3a02000 	mov	r2, #0
5000e994:	e1c320b0 	strh	r2, [r3]
5000e998:	e59f3094 	ldr	r3, [pc, #148]	; 5000ea34 <OSTmr_Init+0x1c4>
5000e99c:	e3a02010 	mov	r2, #16
5000e9a0:	e1c320b0 	strh	r2, [r3]
5000e9a4:	e59f308c 	ldr	r3, [pc, #140]	; 5000ea38 <OSTmr_Init+0x1c8>
5000e9a8:	e59f2070 	ldr	r2, [pc, #112]	; 5000ea20 <OSTmr_Init+0x1b0>
5000e9ac:	e5832000 	str	r2, [r3]
5000e9b0:	e3a00001 	mov	r0, #1
5000e9b4:	ebfff51f 	bl	5000be38 <OSSemCreate>
5000e9b8:	e1a02000 	mov	r2, r0
5000e9bc:	e59f3078 	ldr	r3, [pc, #120]	; 5000ea3c <OSTmr_Init+0x1cc>
5000e9c0:	e5832000 	str	r2, [r3]
5000e9c4:	e3a00000 	mov	r0, #0
5000e9c8:	ebfff51a 	bl	5000be38 <OSSemCreate>
5000e9cc:	e1a02000 	mov	r2, r0
5000e9d0:	e59f3068 	ldr	r3, [pc, #104]	; 5000ea40 <OSTmr_Init+0x1d0>
5000e9d4:	e5832000 	str	r2, [r3]
5000e9d8:	e59f305c 	ldr	r3, [pc, #92]	; 5000ea3c <OSTmr_Init+0x1cc>
5000e9dc:	e5932000 	ldr	r2, [r3]
5000e9e0:	e28d3003 	add	r3, sp, #3
5000e9e4:	e1a00002 	mov	r0, r2
5000e9e8:	e59f1054 	ldr	r1, [pc, #84]	; 5000ea44 <OSTmr_Init+0x1d4>
5000e9ec:	e1a02003 	mov	r2, r3
5000e9f0:	ebffdcf8 	bl	50005dd8 <OSEventNameSet>
5000e9f4:	e59f3044 	ldr	r3, [pc, #68]	; 5000ea40 <OSTmr_Init+0x1d0>
5000e9f8:	e5932000 	ldr	r2, [r3]
5000e9fc:	e28d3003 	add	r3, sp, #3
5000ea00:	e1a00002 	mov	r0, r2
5000ea04:	e59f103c 	ldr	r1, [pc, #60]	; 5000ea48 <OSTmr_Init+0x1d8>
5000ea08:	e1a02003 	mov	r2, r3
5000ea0c:	ebffdcf1 	bl	50005dd8 <OSEventNameSet>
5000ea10:	eb00000d 	bl	5000ea4c <OSTmr_InitTask>
5000ea14:	e28dd014 	add	sp, sp, #20
5000ea18:	e49de004 	pop	{lr}		; (ldr lr, [sp], #4)
5000ea1c:	e12fff1e 	bx	lr
5000ea20:	500119e4 	andpl	r1, r1, r4, ror #19
5000ea24:	50011940 	andpl	r1, r1, r0, asr #18
5000ea28:	50010cb4 			; <UNDEFINED> instruction: 0x50010cb4
5000ea2c:	50012180 	andpl	r2, r1, r0, lsl #3
5000ea30:	50011990 	mulpl	r1, r0, r9
5000ea34:	50011eec 	andpl	r1, r1, ip, ror #29
5000ea38:	5001193c 	andpl	r1, r1, ip, lsr r9
5000ea3c:	50012188 	andpl	r2, r1, r8, lsl #3
5000ea40:	50011984 	andpl	r1, r1, r4, lsl #19
5000ea44:	50010cd8 	ldrdpl	r0, [r1], -r8
5000ea48:	50010cec 	andpl	r0, r1, ip, ror #25

5000ea4c <OSTmr_InitTask>:
5000ea4c:	e52de004 	push	{lr}		; (str lr, [sp, #-4]!)
5000ea50:	e24dd024 	sub	sp, sp, #36	; 0x24
5000ea54:	e59f3054 	ldr	r3, [pc, #84]	; 5000eab0 <OSTmr_InitTask+0x64>
5000ea58:	e58d3000 	str	r3, [sp]
5000ea5c:	e59f3050 	ldr	r3, [pc, #80]	; 5000eab4 <OSTmr_InitTask+0x68>
5000ea60:	e58d3004 	str	r3, [sp, #4]
5000ea64:	e3a03080 	mov	r3, #128	; 0x80
5000ea68:	e58d3008 	str	r3, [sp, #8]
5000ea6c:	e3a03000 	mov	r3, #0
5000ea70:	e58d300c 	str	r3, [sp, #12]
5000ea74:	e3a03003 	mov	r3, #3
5000ea78:	e58d3010 	str	r3, [sp, #16]
5000ea7c:	e59f0034 	ldr	r0, [pc, #52]	; 5000eab8 <OSTmr_InitTask+0x6c>
5000ea80:	e3a01000 	mov	r1, #0
5000ea84:	e59f2030 	ldr	r2, [pc, #48]	; 5000eabc <OSTmr_InitTask+0x70>
5000ea88:	e3a0303c 	mov	r3, #60	; 0x3c
5000ea8c:	ebfff86c 	bl	5000cc44 <OSTaskCreateExt>
5000ea90:	e28d301f 	add	r3, sp, #31
5000ea94:	e3a0003c 	mov	r0, #60	; 0x3c
5000ea98:	e59f1020 	ldr	r1, [pc, #32]	; 5000eac0 <OSTmr_InitTask+0x74>
5000ea9c:	e1a02003 	mov	r2, r3
5000eaa0:	ebfffa05 	bl	5000d2bc <OSTaskNameSet>
5000eaa4:	e28dd024 	add	sp, sp, #36	; 0x24
5000eaa8:	e49de004 	pop	{lr}		; (ldr lr, [sp], #4)
5000eaac:	e12fff1e 	bx	lr
5000eab0:	0000fffd 	strdeq	pc, [r0], -sp
5000eab4:	50011f74 	andpl	r1, r1, r4, ror pc
5000eab8:	5000ed28 	andpl	lr, r0, r8, lsr #26
5000eabc:	50012170 	andpl	r2, r1, r0, ror r1
5000eac0:	50010d00 	andpl	r0, r1, r0, lsl #26

5000eac4 <OSTmr_Link>:
5000eac4:	e24dd018 	sub	sp, sp, #24
5000eac8:	e58d0004 	str	r0, [sp, #4]
5000eacc:	e1a03001 	mov	r3, r1
5000ead0:	e5cd3003 	strb	r3, [sp, #3]
5000ead4:	e59d3004 	ldr	r3, [sp, #4]
5000ead8:	e3a02003 	mov	r2, #3
5000eadc:	e5c32025 	strb	r2, [r3, #37]	; 0x25
5000eae0:	e5dd3003 	ldrb	r3, [sp, #3]
5000eae4:	e3530001 	cmp	r3, #1
5000eae8:	1a000007 	bne	5000eb0c <OSTmr_Link+0x48>
5000eaec:	e59d3004 	ldr	r3, [sp, #4]
5000eaf0:	e593201c 	ldr	r2, [r3, #28]
5000eaf4:	e59f3120 	ldr	r3, [pc, #288]	; 5000ec1c <OSTmr_Link+0x158>
5000eaf8:	e5933000 	ldr	r3, [r3]
5000eafc:	e0822003 	add	r2, r2, r3
5000eb00:	e59d3004 	ldr	r3, [sp, #4]
5000eb04:	e5832014 	str	r2, [r3, #20]
5000eb08:	ea000012 	b	5000eb58 <OSTmr_Link+0x94>
5000eb0c:	e59d3004 	ldr	r3, [sp, #4]
5000eb10:	e5933018 	ldr	r3, [r3, #24]
5000eb14:	e3530000 	cmp	r3, #0
5000eb18:	1a000007 	bne	5000eb3c <OSTmr_Link+0x78>
5000eb1c:	e59d3004 	ldr	r3, [sp, #4]
5000eb20:	e593201c 	ldr	r2, [r3, #28]
5000eb24:	e59f30f0 	ldr	r3, [pc, #240]	; 5000ec1c <OSTmr_Link+0x158>
5000eb28:	e5933000 	ldr	r3, [r3]
5000eb2c:	e0822003 	add	r2, r2, r3
5000eb30:	e59d3004 	ldr	r3, [sp, #4]
5000eb34:	e5832014 	str	r2, [r3, #20]
5000eb38:	ea000006 	b	5000eb58 <OSTmr_Link+0x94>
5000eb3c:	e59d3004 	ldr	r3, [sp, #4]
5000eb40:	e5932018 	ldr	r2, [r3, #24]
5000eb44:	e59f30d0 	ldr	r3, [pc, #208]	; 5000ec1c <OSTmr_Link+0x158>
5000eb48:	e5933000 	ldr	r3, [r3]
5000eb4c:	e0822003 	add	r2, r2, r3
5000eb50:	e59d3004 	ldr	r3, [sp, #4]
5000eb54:	e5832014 	str	r2, [r3, #20]
5000eb58:	e59d3004 	ldr	r3, [sp, #4]
5000eb5c:	e5933014 	ldr	r3, [r3, #20]
5000eb60:	e1a03803 	lsl	r3, r3, #16
5000eb64:	e1a03823 	lsr	r3, r3, #16
5000eb68:	e2033007 	and	r3, r3, #7
5000eb6c:	e1cd31b6 	strh	r3, [sp, #22]
5000eb70:	e1dd31b6 	ldrh	r3, [sp, #22]
5000eb74:	e1a02183 	lsl	r2, r3, #3
5000eb78:	e59f30a0 	ldr	r3, [pc, #160]	; 5000ec20 <OSTmr_Link+0x15c>
5000eb7c:	e0823003 	add	r3, r2, r3
5000eb80:	e58d3010 	str	r3, [sp, #16]
5000eb84:	e59d3010 	ldr	r3, [sp, #16]
5000eb88:	e5933000 	ldr	r3, [r3]
5000eb8c:	e3530000 	cmp	r3, #0
5000eb90:	1a000009 	bne	5000ebbc <OSTmr_Link+0xf8>
5000eb94:	e59d3010 	ldr	r3, [sp, #16]
5000eb98:	e59d2004 	ldr	r2, [sp, #4]
5000eb9c:	e5832000 	str	r2, [r3]
5000eba0:	e59d3004 	ldr	r3, [sp, #4]
5000eba4:	e3a02000 	mov	r2, #0
5000eba8:	e583200c 	str	r2, [r3, #12]
5000ebac:	e59d3010 	ldr	r3, [sp, #16]
5000ebb0:	e3a02001 	mov	r2, #1
5000ebb4:	e1c320b4 	strh	r2, [r3, #4]
5000ebb8:	ea000012 	b	5000ec08 <OSTmr_Link+0x144>
5000ebbc:	e59d3010 	ldr	r3, [sp, #16]
5000ebc0:	e5933000 	ldr	r3, [r3]
5000ebc4:	e58d300c 	str	r3, [sp, #12]
5000ebc8:	e59d3010 	ldr	r3, [sp, #16]
5000ebcc:	e59d2004 	ldr	r2, [sp, #4]
5000ebd0:	e5832000 	str	r2, [r3]
5000ebd4:	e59d3004 	ldr	r3, [sp, #4]
5000ebd8:	e59d200c 	ldr	r2, [sp, #12]
5000ebdc:	e583200c 	str	r2, [r3, #12]
5000ebe0:	e59d300c 	ldr	r3, [sp, #12]
5000ebe4:	e59d2004 	ldr	r2, [sp, #4]
5000ebe8:	e5832010 	str	r2, [r3, #16]
5000ebec:	e59d3010 	ldr	r3, [sp, #16]
5000ebf0:	e1d330b4 	ldrh	r3, [r3, #4]
5000ebf4:	e2833001 	add	r3, r3, #1
5000ebf8:	e1a03803 	lsl	r3, r3, #16
5000ebfc:	e1a02823 	lsr	r2, r3, #16
5000ec00:	e59d3010 	ldr	r3, [sp, #16]
5000ec04:	e1c320b4 	strh	r2, [r3, #4]
5000ec08:	e59d3004 	ldr	r3, [sp, #4]
5000ec0c:	e3a02000 	mov	r2, #0
5000ec10:	e5832010 	str	r2, [r3, #16]
5000ec14:	e28dd018 	add	sp, sp, #24
5000ec18:	e12fff1e 	bx	lr
5000ec1c:	50012180 	andpl	r2, r1, r0, lsl #3
5000ec20:	50011940 	andpl	r1, r1, r0, asr #18

5000ec24 <OSTmr_Unlink>:
5000ec24:	e24dd018 	sub	sp, sp, #24
5000ec28:	e58d0004 	str	r0, [sp, #4]
5000ec2c:	e59d3004 	ldr	r3, [sp, #4]
5000ec30:	e5933014 	ldr	r3, [r3, #20]
5000ec34:	e1a03803 	lsl	r3, r3, #16
5000ec38:	e1a03823 	lsr	r3, r3, #16
5000ec3c:	e2033007 	and	r3, r3, #7
5000ec40:	e1cd31b6 	strh	r3, [sp, #22]
5000ec44:	e1dd31b6 	ldrh	r3, [sp, #22]
5000ec48:	e1a02183 	lsl	r2, r3, #3
5000ec4c:	e59f30d0 	ldr	r3, [pc, #208]	; 5000ed24 <OSTmr_Unlink+0x100>
5000ec50:	e0823003 	add	r3, r2, r3
5000ec54:	e58d3010 	str	r3, [sp, #16]
5000ec58:	e59d3010 	ldr	r3, [sp, #16]
5000ec5c:	e5932000 	ldr	r2, [r3]
5000ec60:	e59d3004 	ldr	r3, [sp, #4]
5000ec64:	e1520003 	cmp	r2, r3
5000ec68:	1a00000c 	bne	5000eca0 <OSTmr_Unlink+0x7c>
5000ec6c:	e59d3004 	ldr	r3, [sp, #4]
5000ec70:	e593300c 	ldr	r3, [r3, #12]
5000ec74:	e58d300c 	str	r3, [sp, #12]
5000ec78:	e59d3010 	ldr	r3, [sp, #16]
5000ec7c:	e59d200c 	ldr	r2, [sp, #12]
5000ec80:	e5832000 	str	r2, [r3]
5000ec84:	e59d300c 	ldr	r3, [sp, #12]
5000ec88:	e3530000 	cmp	r3, #0
5000ec8c:	0a000012 	beq	5000ecdc <OSTmr_Unlink+0xb8>
5000ec90:	e59d300c 	ldr	r3, [sp, #12]
5000ec94:	e3a02000 	mov	r2, #0
5000ec98:	e5832010 	str	r2, [r3, #16]
5000ec9c:	ea00000e 	b	5000ecdc <OSTmr_Unlink+0xb8>
5000eca0:	e59d3004 	ldr	r3, [sp, #4]
5000eca4:	e5933010 	ldr	r3, [r3, #16]
5000eca8:	e58d300c 	str	r3, [sp, #12]
5000ecac:	e59d3004 	ldr	r3, [sp, #4]
5000ecb0:	e593300c 	ldr	r3, [r3, #12]
5000ecb4:	e58d3008 	str	r3, [sp, #8]
5000ecb8:	e59d300c 	ldr	r3, [sp, #12]
5000ecbc:	e59d2008 	ldr	r2, [sp, #8]
5000ecc0:	e583200c 	str	r2, [r3, #12]
5000ecc4:	e59d3008 	ldr	r3, [sp, #8]
5000ecc8:	e3530000 	cmp	r3, #0
5000eccc:	0a000002 	beq	5000ecdc <OSTmr_Unlink+0xb8>
5000ecd0:	e59d3008 	ldr	r3, [sp, #8]
5000ecd4:	e59d200c 	ldr	r2, [sp, #12]
5000ecd8:	e5832010 	str	r2, [r3, #16]
5000ecdc:	e59d3004 	ldr	r3, [sp, #4]
5000ece0:	e3a02001 	mov	r2, #1
5000ece4:	e5c32025 	strb	r2, [r3, #37]	; 0x25
5000ece8:	e59d3004 	ldr	r3, [sp, #4]
5000ecec:	e3a02000 	mov	r2, #0
5000ecf0:	e583200c 	str	r2, [r3, #12]
5000ecf4:	e59d3004 	ldr	r3, [sp, #4]
5000ecf8:	e3a02000 	mov	r2, #0
5000ecfc:	e5832010 	str	r2, [r3, #16]
5000ed00:	e59d3010 	ldr	r3, [sp, #16]
5000ed04:	e1d330b4 	ldrh	r3, [r3, #4]
5000ed08:	e2433001 	sub	r3, r3, #1
5000ed0c:	e1a03803 	lsl	r3, r3, #16
5000ed10:	e1a02823 	lsr	r2, r3, #16
5000ed14:	e59d3010 	ldr	r3, [sp, #16]
5000ed18:	e1c320b4 	strh	r2, [r3, #4]
5000ed1c:	e28dd018 	add	sp, sp, #24
5000ed20:	e12fff1e 	bx	lr
5000ed24:	50011940 	andpl	r1, r1, r0, asr #18

5000ed28 <OSTmr_Task>:
5000ed28:	e52de004 	push	{lr}		; (str lr, [sp, #-4]!)
5000ed2c:	e24dd024 	sub	sp, sp, #36	; 0x24
5000ed30:	e58d0004 	str	r0, [sp, #4]
5000ed34:	e59f3110 	ldr	r3, [pc, #272]	; 5000ee4c <OSTmr_Task+0x124>
5000ed38:	e5932000 	ldr	r2, [r3]
5000ed3c:	e28d300b 	add	r3, sp, #11
5000ed40:	e1a00002 	mov	r0, r2
5000ed44:	e3a01000 	mov	r1, #0
5000ed48:	e1a02003 	mov	r2, r3
5000ed4c:	ebfff4f3 	bl	5000c120 <OSSemPend>
5000ed50:	ebffde2c 	bl	50006608 <OSSchedLock>
5000ed54:	e59f30f4 	ldr	r3, [pc, #244]	; 5000ee50 <OSTmr_Task+0x128>
5000ed58:	e5933000 	ldr	r3, [r3]
5000ed5c:	e2832001 	add	r2, r3, #1
5000ed60:	e59f30e8 	ldr	r3, [pc, #232]	; 5000ee50 <OSTmr_Task+0x128>
5000ed64:	e5832000 	str	r2, [r3]
5000ed68:	e59f30e0 	ldr	r3, [pc, #224]	; 5000ee50 <OSTmr_Task+0x128>
5000ed6c:	e5933000 	ldr	r3, [r3]
5000ed70:	e1a03803 	lsl	r3, r3, #16
5000ed74:	e1a03823 	lsr	r3, r3, #16
5000ed78:	e2033007 	and	r3, r3, #7
5000ed7c:	e1cd31ba 	strh	r3, [sp, #26]
5000ed80:	e1dd31ba 	ldrh	r3, [sp, #26]
5000ed84:	e1a02183 	lsl	r2, r3, #3
5000ed88:	e59f30c4 	ldr	r3, [pc, #196]	; 5000ee54 <OSTmr_Task+0x12c>
5000ed8c:	e0823003 	add	r3, r2, r3
5000ed90:	e58d3014 	str	r3, [sp, #20]
5000ed94:	e59d3014 	ldr	r3, [sp, #20]
5000ed98:	e5933000 	ldr	r3, [r3]
5000ed9c:	e58d301c 	str	r3, [sp, #28]
5000eda0:	ea000024 	b	5000ee38 <OSTmr_Task+0x110>
5000eda4:	e59d301c 	ldr	r3, [sp, #28]
5000eda8:	e593300c 	ldr	r3, [r3, #12]
5000edac:	e58d3010 	str	r3, [sp, #16]
5000edb0:	e59d301c 	ldr	r3, [sp, #28]
5000edb4:	e5932014 	ldr	r2, [r3, #20]
5000edb8:	e59f3090 	ldr	r3, [pc, #144]	; 5000ee50 <OSTmr_Task+0x128>
5000edbc:	e5933000 	ldr	r3, [r3]
5000edc0:	e1520003 	cmp	r2, r3
5000edc4:	1a000019 	bne	5000ee30 <OSTmr_Task+0x108>
5000edc8:	e59d001c 	ldr	r0, [sp, #28]
5000edcc:	ebffff94 	bl	5000ec24 <OSTmr_Unlink>
5000edd0:	e59d301c 	ldr	r3, [sp, #28]
5000edd4:	e5d33024 	ldrb	r3, [r3, #36]	; 0x24
5000edd8:	e3530002 	cmp	r3, #2
5000eddc:	1a000003 	bne	5000edf0 <OSTmr_Task+0xc8>
5000ede0:	e59d001c 	ldr	r0, [sp, #28]
5000ede4:	e3a01001 	mov	r1, #1
5000ede8:	ebffff35 	bl	5000eac4 <OSTmr_Link>
5000edec:	ea000002 	b	5000edfc <OSTmr_Task+0xd4>
5000edf0:	e59d301c 	ldr	r3, [sp, #28]
5000edf4:	e3a02002 	mov	r2, #2
5000edf8:	e5c32025 	strb	r2, [r3, #37]	; 0x25
5000edfc:	e59d301c 	ldr	r3, [sp, #28]
5000ee00:	e5933004 	ldr	r3, [r3, #4]
5000ee04:	e58d300c 	str	r3, [sp, #12]
5000ee08:	e59d300c 	ldr	r3, [sp, #12]
5000ee0c:	e3530000 	cmp	r3, #0
5000ee10:	0a000006 	beq	5000ee30 <OSTmr_Task+0x108>
5000ee14:	e59d301c 	ldr	r3, [sp, #28]
5000ee18:	e5932008 	ldr	r2, [r3, #8]
5000ee1c:	e59d300c 	ldr	r3, [sp, #12]
5000ee20:	e59d001c 	ldr	r0, [sp, #28]
5000ee24:	e1a01002 	mov	r1, r2
5000ee28:	e1a0e00f 	mov	lr, pc
5000ee2c:	e12fff13 	bx	r3
5000ee30:	e59d3010 	ldr	r3, [sp, #16]
5000ee34:	e58d301c 	str	r3, [sp, #28]
5000ee38:	e59d301c 	ldr	r3, [sp, #28]
5000ee3c:	e3530000 	cmp	r3, #0
5000ee40:	1affffd7 	bne	5000eda4 <OSTmr_Task+0x7c>
5000ee44:	ebffde0f 	bl	50006688 <OSSchedUnlock>
5000ee48:	eaffffb9 	b	5000ed34 <OSTmr_Task+0xc>
5000ee4c:	50011984 	andpl	r1, r1, r4, lsl #19
5000ee50:	50012180 	andpl	r2, r1, r0, lsl #3
5000ee54:	50011940 	andpl	r1, r1, r0, asr #18

5000ee58 <__aeabi_uidiv>:
5000ee58:	e2512001 	subs	r2, r1, #1
5000ee5c:	012fff1e 	bxeq	lr
5000ee60:	3a000036 	bcc	5000ef40 <__aeabi_uidiv+0xe8>
5000ee64:	e1500001 	cmp	r0, r1
5000ee68:	9a000022 	bls	5000eef8 <__aeabi_uidiv+0xa0>
5000ee6c:	e1110002 	tst	r1, r2
5000ee70:	0a000023 	beq	5000ef04 <__aeabi_uidiv+0xac>
5000ee74:	e311020e 	tst	r1, #-536870912	; 0xe0000000
5000ee78:	01a01181 	lsleq	r1, r1, #3
5000ee7c:	03a03008 	moveq	r3, #8
5000ee80:	13a03001 	movne	r3, #1
5000ee84:	e3510201 	cmp	r1, #268435456	; 0x10000000
5000ee88:	31510000 	cmpcc	r1, r0
5000ee8c:	31a01201 	lslcc	r1, r1, #4
5000ee90:	31a03203 	lslcc	r3, r3, #4
5000ee94:	3afffffa 	bcc	5000ee84 <__aeabi_uidiv+0x2c>
5000ee98:	e3510102 	cmp	r1, #-2147483648	; 0x80000000
5000ee9c:	31510000 	cmpcc	r1, r0
5000eea0:	31a01081 	lslcc	r1, r1, #1
5000eea4:	31a03083 	lslcc	r3, r3, #1
5000eea8:	3afffffa 	bcc	5000ee98 <__aeabi_uidiv+0x40>
5000eeac:	e3a02000 	mov	r2, #0
5000eeb0:	e1500001 	cmp	r0, r1
5000eeb4:	20400001 	subcs	r0, r0, r1
5000eeb8:	21822003 	orrcs	r2, r2, r3
5000eebc:	e15000a1 	cmp	r0, r1, lsr #1
5000eec0:	204000a1 	subcs	r0, r0, r1, lsr #1
5000eec4:	218220a3 	orrcs	r2, r2, r3, lsr #1
5000eec8:	e1500121 	cmp	r0, r1, lsr #2
5000eecc:	20400121 	subcs	r0, r0, r1, lsr #2
5000eed0:	21822123 	orrcs	r2, r2, r3, lsr #2
5000eed4:	e15001a1 	cmp	r0, r1, lsr #3
5000eed8:	204001a1 	subcs	r0, r0, r1, lsr #3
5000eedc:	218221a3 	orrcs	r2, r2, r3, lsr #3
5000eee0:	e3500000 	cmp	r0, #0
5000eee4:	11b03223 	lsrsne	r3, r3, #4
5000eee8:	11a01221 	lsrne	r1, r1, #4
5000eeec:	1affffef 	bne	5000eeb0 <__aeabi_uidiv+0x58>
5000eef0:	e1a00002 	mov	r0, r2
5000eef4:	e12fff1e 	bx	lr
5000eef8:	03a00001 	moveq	r0, #1
5000eefc:	13a00000 	movne	r0, #0
5000ef00:	e12fff1e 	bx	lr
5000ef04:	e3510801 	cmp	r1, #65536	; 0x10000
5000ef08:	21a01821 	lsrcs	r1, r1, #16
5000ef0c:	23a02010 	movcs	r2, #16
5000ef10:	33a02000 	movcc	r2, #0
5000ef14:	e3510c01 	cmp	r1, #256	; 0x100
5000ef18:	21a01421 	lsrcs	r1, r1, #8
5000ef1c:	22822008 	addcs	r2, r2, #8
5000ef20:	e3510010 	cmp	r1, #16
5000ef24:	21a01221 	lsrcs	r1, r1, #4
5000ef28:	22822004 	addcs	r2, r2, #4
5000ef2c:	e3510004 	cmp	r1, #4
5000ef30:	82822003 	addhi	r2, r2, #3
5000ef34:	908220a1 	addls	r2, r2, r1, lsr #1
5000ef38:	e1a00230 	lsr	r0, r0, r2
5000ef3c:	e12fff1e 	bx	lr
5000ef40:	e3500000 	cmp	r0, #0
5000ef44:	13e00000 	mvnne	r0, #0
5000ef48:	ea000007 	b	5000ef6c <__aeabi_idiv0>

5000ef4c <__aeabi_uidivmod>:
5000ef4c:	e3510000 	cmp	r1, #0
5000ef50:	0afffffa 	beq	5000ef40 <__aeabi_uidiv+0xe8>
5000ef54:	e92d4003 	push	{r0, r1, lr}
5000ef58:	ebffffbe 	bl	5000ee58 <__aeabi_uidiv>
5000ef5c:	e8bd4006 	pop	{r1, r2, lr}
5000ef60:	e0030092 	mul	r3, r2, r0
5000ef64:	e0411003 	sub	r1, r1, r3
5000ef68:	e12fff1e 	bx	lr

5000ef6c <__aeabi_idiv0>:
5000ef6c:	e12fff1e 	bx	lr

5000ef70 <__aeabi_drsub>:
5000ef70:	e2211102 	eor	r1, r1, #-2147483648	; 0x80000000
5000ef74:	ea000000 	b	5000ef7c <__adddf3>

5000ef78 <__aeabi_dsub>:
5000ef78:	e2233102 	eor	r3, r3, #-2147483648	; 0x80000000

5000ef7c <__adddf3>:
5000ef7c:	e92d4030 	push	{r4, r5, lr}
5000ef80:	e1a04081 	lsl	r4, r1, #1
5000ef84:	e1a05083 	lsl	r5, r3, #1
5000ef88:	e1340005 	teq	r4, r5
5000ef8c:	01300002 	teqeq	r0, r2
5000ef90:	1194c000 	orrsne	ip, r4, r0
5000ef94:	1195c002 	orrsne	ip, r5, r2
5000ef98:	11f0cac4 	mvnsne	ip, r4, asr #21
5000ef9c:	11f0cac5 	mvnsne	ip, r5, asr #21
5000efa0:	0a00008c 	beq	5000f1d8 <__adddf3+0x25c>
5000efa4:	e1a04aa4 	lsr	r4, r4, #21
5000efa8:	e0745aa5 	rsbs	r5, r4, r5, lsr #21
5000efac:	b2655000 	rsblt	r5, r5, #0
5000efb0:	da000006 	ble	5000efd0 <__adddf3+0x54>
5000efb4:	e0844005 	add	r4, r4, r5
5000efb8:	e0202002 	eor	r2, r0, r2
5000efbc:	e0213003 	eor	r3, r1, r3
5000efc0:	e0220000 	eor	r0, r2, r0
5000efc4:	e0231001 	eor	r1, r3, r1
5000efc8:	e0202002 	eor	r2, r0, r2
5000efcc:	e0213003 	eor	r3, r1, r3
5000efd0:	e3550036 	cmp	r5, #54	; 0x36
5000efd4:	88bd4030 	pophi	{r4, r5, lr}
5000efd8:	812fff1e 	bxhi	lr
5000efdc:	e3110102 	tst	r1, #-2147483648	; 0x80000000
5000efe0:	e1a01601 	lsl	r1, r1, #12
5000efe4:	e3a0c601 	mov	ip, #1048576	; 0x100000
5000efe8:	e18c1621 	orr	r1, ip, r1, lsr #12
5000efec:	0a000001 	beq	5000eff8 <__adddf3+0x7c>
5000eff0:	e2700000 	rsbs	r0, r0, #0
5000eff4:	e2e11000 	rsc	r1, r1, #0
5000eff8:	e3130102 	tst	r3, #-2147483648	; 0x80000000
5000effc:	e1a03603 	lsl	r3, r3, #12
5000f000:	e18c3623 	orr	r3, ip, r3, lsr #12
5000f004:	0a000001 	beq	5000f010 <__adddf3+0x94>
5000f008:	e2722000 	rsbs	r2, r2, #0
5000f00c:	e2e33000 	rsc	r3, r3, #0
5000f010:	e1340005 	teq	r4, r5
5000f014:	0a000069 	beq	5000f1c0 <__adddf3+0x244>
5000f018:	e2444001 	sub	r4, r4, #1
5000f01c:	e275e020 	rsbs	lr, r5, #32
5000f020:	ba000005 	blt	5000f03c <__adddf3+0xc0>
5000f024:	e1a0ce12 	lsl	ip, r2, lr
5000f028:	e0900532 	adds	r0, r0, r2, lsr r5
5000f02c:	e2a11000 	adc	r1, r1, #0
5000f030:	e0900e13 	adds	r0, r0, r3, lsl lr
5000f034:	e0b11553 	adcs	r1, r1, r3, asr r5
5000f038:	ea000006 	b	5000f058 <__adddf3+0xdc>
5000f03c:	e2455020 	sub	r5, r5, #32
5000f040:	e28ee020 	add	lr, lr, #32
5000f044:	e3520001 	cmp	r2, #1
5000f048:	e1a0ce13 	lsl	ip, r3, lr
5000f04c:	238cc002 	orrcs	ip, ip, #2
5000f050:	e0900553 	adds	r0, r0, r3, asr r5
5000f054:	e0b11fc3 	adcs	r1, r1, r3, asr #31
5000f058:	e2015102 	and	r5, r1, #-2147483648	; 0x80000000
5000f05c:	5a000002 	bpl	5000f06c <__adddf3+0xf0>
5000f060:	e27cc000 	rsbs	ip, ip, #0
5000f064:	e2f00000 	rscs	r0, r0, #0
5000f068:	e2e11000 	rsc	r1, r1, #0
5000f06c:	e3510601 	cmp	r1, #1048576	; 0x100000
5000f070:	3a00000f 	bcc	5000f0b4 <__adddf3+0x138>
5000f074:	e3510602 	cmp	r1, #2097152	; 0x200000
5000f078:	3a000006 	bcc	5000f098 <__adddf3+0x11c>
5000f07c:	e1b010a1 	lsrs	r1, r1, #1
5000f080:	e1b00060 	rrxs	r0, r0
5000f084:	e1a0c06c 	rrx	ip, ip
5000f088:	e2844001 	add	r4, r4, #1
5000f08c:	e1a02a84 	lsl	r2, r4, #21
5000f090:	e3720501 	cmn	r2, #4194304	; 0x400000
5000f094:	2a00006b 	bcs	5000f248 <__adddf3+0x2cc>
5000f098:	e35c0102 	cmp	ip, #-2147483648	; 0x80000000
5000f09c:	01b0c0a0 	lsrseq	ip, r0, #1
5000f0a0:	e2b00000 	adcs	r0, r0, #0
5000f0a4:	e0a11a04 	adc	r1, r1, r4, lsl #20
5000f0a8:	e1811005 	orr	r1, r1, r5
5000f0ac:	e8bd4030 	pop	{r4, r5, lr}
5000f0b0:	e12fff1e 	bx	lr
5000f0b4:	e1b0c08c 	lsls	ip, ip, #1
5000f0b8:	e0b00000 	adcs	r0, r0, r0
5000f0bc:	e0a11001 	adc	r1, r1, r1
5000f0c0:	e3110601 	tst	r1, #1048576	; 0x100000
5000f0c4:	e2444001 	sub	r4, r4, #1
5000f0c8:	1afffff2 	bne	5000f098 <__adddf3+0x11c>
5000f0cc:	e3310000 	teq	r1, #0
5000f0d0:	13a03014 	movne	r3, #20
5000f0d4:	03a03034 	moveq	r3, #52	; 0x34
5000f0d8:	01a01000 	moveq	r1, r0
5000f0dc:	03a00000 	moveq	r0, #0
5000f0e0:	e1a02001 	mov	r2, r1
5000f0e4:	e3520801 	cmp	r2, #65536	; 0x10000
5000f0e8:	21a02822 	lsrcs	r2, r2, #16
5000f0ec:	22433010 	subcs	r3, r3, #16
5000f0f0:	e3520c01 	cmp	r2, #256	; 0x100
5000f0f4:	21a02422 	lsrcs	r2, r2, #8
5000f0f8:	22433008 	subcs	r3, r3, #8
5000f0fc:	e3520010 	cmp	r2, #16
5000f100:	21a02222 	lsrcs	r2, r2, #4
5000f104:	22433004 	subcs	r3, r3, #4
5000f108:	e3520004 	cmp	r2, #4
5000f10c:	22433002 	subcs	r3, r3, #2
5000f110:	304330a2 	subcc	r3, r3, r2, lsr #1
5000f114:	e04331a2 	sub	r3, r3, r2, lsr #3
5000f118:	e2532020 	subs	r2, r3, #32
5000f11c:	aa000007 	bge	5000f140 <__adddf3+0x1c4>
5000f120:	e292200c 	adds	r2, r2, #12
5000f124:	da000004 	ble	5000f13c <__adddf3+0x1c0>
5000f128:	e282c014 	add	ip, r2, #20
5000f12c:	e262200c 	rsb	r2, r2, #12
5000f130:	e1a00c11 	lsl	r0, r1, ip
5000f134:	e1a01231 	lsr	r1, r1, r2
5000f138:	ea000004 	b	5000f150 <__adddf3+0x1d4>
5000f13c:	e2822014 	add	r2, r2, #20
5000f140:	d262c020 	rsble	ip, r2, #32
5000f144:	e1a01211 	lsl	r1, r1, r2
5000f148:	d1811c30 	orrle	r1, r1, r0, lsr ip
5000f14c:	d1a00210 	lslle	r0, r0, r2
5000f150:	e0544003 	subs	r4, r4, r3
5000f154:	a0811a04 	addge	r1, r1, r4, lsl #20
5000f158:	a1811005 	orrge	r1, r1, r5
5000f15c:	a8bd4030 	popge	{r4, r5, lr}
5000f160:	a12fff1e 	bxge	lr
5000f164:	e1e04004 	mvn	r4, r4
5000f168:	e254401f 	subs	r4, r4, #31
5000f16c:	aa00000f 	bge	5000f1b0 <__adddf3+0x234>
5000f170:	e294400c 	adds	r4, r4, #12
5000f174:	ca000006 	bgt	5000f194 <__adddf3+0x218>
5000f178:	e2844014 	add	r4, r4, #20
5000f17c:	e2642020 	rsb	r2, r4, #32
5000f180:	e1a00430 	lsr	r0, r0, r4
5000f184:	e1800211 	orr	r0, r0, r1, lsl r2
5000f188:	e1851431 	orr	r1, r5, r1, lsr r4
5000f18c:	e8bd4030 	pop	{r4, r5, lr}
5000f190:	e12fff1e 	bx	lr
5000f194:	e264400c 	rsb	r4, r4, #12
5000f198:	e2642020 	rsb	r2, r4, #32
5000f19c:	e1a00230 	lsr	r0, r0, r2
5000f1a0:	e1800411 	orr	r0, r0, r1, lsl r4
5000f1a4:	e1a01005 	mov	r1, r5
5000f1a8:	e8bd4030 	pop	{r4, r5, lr}
5000f1ac:	e12fff1e 	bx	lr
5000f1b0:	e1a00431 	lsr	r0, r1, r4
5000f1b4:	e1a01005 	mov	r1, r5
5000f1b8:	e8bd4030 	pop	{r4, r5, lr}
5000f1bc:	e12fff1e 	bx	lr
5000f1c0:	e3340000 	teq	r4, #0
5000f1c4:	e2233601 	eor	r3, r3, #1048576	; 0x100000
5000f1c8:	02211601 	eoreq	r1, r1, #1048576	; 0x100000
5000f1cc:	02844001 	addeq	r4, r4, #1
5000f1d0:	12455001 	subne	r5, r5, #1
5000f1d4:	eaffff8f 	b	5000f018 <__adddf3+0x9c>
5000f1d8:	e1f0cac4 	mvns	ip, r4, asr #21
5000f1dc:	11f0cac5 	mvnsne	ip, r5, asr #21
5000f1e0:	0a00001d 	beq	5000f25c <__adddf3+0x2e0>
5000f1e4:	e1340005 	teq	r4, r5
5000f1e8:	01300002 	teqeq	r0, r2
5000f1ec:	0a000004 	beq	5000f204 <__adddf3+0x288>
5000f1f0:	e194c000 	orrs	ip, r4, r0
5000f1f4:	01a01003 	moveq	r1, r3
5000f1f8:	01a00002 	moveq	r0, r2
5000f1fc:	e8bd4030 	pop	{r4, r5, lr}
5000f200:	e12fff1e 	bx	lr
5000f204:	e1310003 	teq	r1, r3
5000f208:	13a01000 	movne	r1, #0
5000f20c:	13a00000 	movne	r0, #0
5000f210:	18bd4030 	popne	{r4, r5, lr}
5000f214:	112fff1e 	bxne	lr
5000f218:	e1b0caa4 	lsrs	ip, r4, #21
5000f21c:	1a000004 	bne	5000f234 <__adddf3+0x2b8>
5000f220:	e1b00080 	lsls	r0, r0, #1
5000f224:	e0b11001 	adcs	r1, r1, r1
5000f228:	23811102 	orrcs	r1, r1, #-2147483648	; 0x80000000
5000f22c:	e8bd4030 	pop	{r4, r5, lr}
5000f230:	e12fff1e 	bx	lr
5000f234:	e2944501 	adds	r4, r4, #4194304	; 0x400000
5000f238:	32811601 	addcc	r1, r1, #1048576	; 0x100000
5000f23c:	38bd4030 	popcc	{r4, r5, lr}
5000f240:	312fff1e 	bxcc	lr
5000f244:	e2015102 	and	r5, r1, #-2147483648	; 0x80000000
5000f248:	e385147f 	orr	r1, r5, #2130706432	; 0x7f000000
5000f24c:	e381160f 	orr	r1, r1, #15728640	; 0xf00000
5000f250:	e3a00000 	mov	r0, #0
5000f254:	e8bd4030 	pop	{r4, r5, lr}
5000f258:	e12fff1e 	bx	lr
5000f25c:	e1f0cac4 	mvns	ip, r4, asr #21
5000f260:	11a01003 	movne	r1, r3
5000f264:	11a00002 	movne	r0, r2
5000f268:	01f0cac5 	mvnseq	ip, r5, asr #21
5000f26c:	11a03001 	movne	r3, r1
5000f270:	11a02000 	movne	r2, r0
5000f274:	e1904601 	orrs	r4, r0, r1, lsl #12
5000f278:	01925603 	orrseq	r5, r2, r3, lsl #12
5000f27c:	01310003 	teqeq	r1, r3
5000f280:	13811702 	orrne	r1, r1, #524288	; 0x80000
5000f284:	e8bd4030 	pop	{r4, r5, lr}
5000f288:	e12fff1e 	bx	lr

5000f28c <__aeabi_ui2d>:
5000f28c:	e3300000 	teq	r0, #0
5000f290:	03a01000 	moveq	r1, #0
5000f294:	012fff1e 	bxeq	lr
5000f298:	e92d4030 	push	{r4, r5, lr}
5000f29c:	e3a04b01 	mov	r4, #1024	; 0x400
5000f2a0:	e2844032 	add	r4, r4, #50	; 0x32
5000f2a4:	e3a05000 	mov	r5, #0
5000f2a8:	e3a01000 	mov	r1, #0
5000f2ac:	eaffff86 	b	5000f0cc <__adddf3+0x150>

5000f2b0 <__aeabi_i2d>:
5000f2b0:	e3300000 	teq	r0, #0
5000f2b4:	03a01000 	moveq	r1, #0
5000f2b8:	012fff1e 	bxeq	lr
5000f2bc:	e92d4030 	push	{r4, r5, lr}
5000f2c0:	e3a04b01 	mov	r4, #1024	; 0x400
5000f2c4:	e2844032 	add	r4, r4, #50	; 0x32
5000f2c8:	e2105102 	ands	r5, r0, #-2147483648	; 0x80000000
5000f2cc:	42600000 	rsbmi	r0, r0, #0
5000f2d0:	e3a01000 	mov	r1, #0
5000f2d4:	eaffff7c 	b	5000f0cc <__adddf3+0x150>

5000f2d8 <__aeabi_f2d>:
5000f2d8:	e1b02080 	lsls	r2, r0, #1
5000f2dc:	e1a011c2 	asr	r1, r2, #3
5000f2e0:	e1a01061 	rrx	r1, r1
5000f2e4:	e1a00e02 	lsl	r0, r2, #28
5000f2e8:	121234ff 	andsne	r3, r2, #-16777216	; 0xff000000
5000f2ec:	133304ff 	teqne	r3, #-16777216	; 0xff000000
5000f2f0:	1221130e 	eorne	r1, r1, #939524096	; 0x38000000
5000f2f4:	112fff1e 	bxne	lr
5000f2f8:	e3320000 	teq	r2, #0
5000f2fc:	133304ff 	teqne	r3, #-16777216	; 0xff000000
5000f300:	012fff1e 	bxeq	lr
5000f304:	e92d4030 	push	{r4, r5, lr}
5000f308:	e3a04d0e 	mov	r4, #896	; 0x380
5000f30c:	e2015102 	and	r5, r1, #-2147483648	; 0x80000000
5000f310:	e3c11102 	bic	r1, r1, #-2147483648	; 0x80000000
5000f314:	eaffff6c 	b	5000f0cc <__adddf3+0x150>

5000f318 <__aeabi_ul2d>:
5000f318:	e1902001 	orrs	r2, r0, r1
5000f31c:	012fff1e 	bxeq	lr
5000f320:	e92d4030 	push	{r4, r5, lr}
5000f324:	e3a05000 	mov	r5, #0
5000f328:	ea000006 	b	5000f348 <__aeabi_l2d+0x1c>

5000f32c <__aeabi_l2d>:
5000f32c:	e1902001 	orrs	r2, r0, r1
5000f330:	012fff1e 	bxeq	lr
5000f334:	e92d4030 	push	{r4, r5, lr}
5000f338:	e2115102 	ands	r5, r1, #-2147483648	; 0x80000000
5000f33c:	5a000001 	bpl	5000f348 <__aeabi_l2d+0x1c>
5000f340:	e2700000 	rsbs	r0, r0, #0
5000f344:	e2e11000 	rsc	r1, r1, #0
5000f348:	e3a04b01 	mov	r4, #1024	; 0x400
5000f34c:	e2844032 	add	r4, r4, #50	; 0x32
5000f350:	e1b0cb21 	lsrs	ip, r1, #22
5000f354:	0affff44 	beq	5000f06c <__adddf3+0xf0>
5000f358:	e3a02003 	mov	r2, #3
5000f35c:	e1b0c1ac 	lsrs	ip, ip, #3
5000f360:	12822003 	addne	r2, r2, #3
5000f364:	e1b0c1ac 	lsrs	ip, ip, #3
5000f368:	12822003 	addne	r2, r2, #3
5000f36c:	e08221ac 	add	r2, r2, ip, lsr #3
5000f370:	e2623020 	rsb	r3, r2, #32
5000f374:	e1a0c310 	lsl	ip, r0, r3
5000f378:	e1a00230 	lsr	r0, r0, r2
5000f37c:	e1800311 	orr	r0, r0, r1, lsl r3
5000f380:	e1a01231 	lsr	r1, r1, r2
5000f384:	e0844002 	add	r4, r4, r2
5000f388:	eaffff37 	b	5000f06c <__adddf3+0xf0>

5000f38c <__aeabi_dmul>:
5000f38c:	e92d4070 	push	{r4, r5, r6, lr}
5000f390:	e3a0c0ff 	mov	ip, #255	; 0xff
5000f394:	e38ccc07 	orr	ip, ip, #1792	; 0x700
5000f398:	e01c4a21 	ands	r4, ip, r1, lsr #20
5000f39c:	101c5a23 	andsne	r5, ip, r3, lsr #20
5000f3a0:	1134000c 	teqne	r4, ip
5000f3a4:	1135000c 	teqne	r5, ip
5000f3a8:	0b000075 	bleq	5000f584 <__aeabi_dmul+0x1f8>
5000f3ac:	e0844005 	add	r4, r4, r5
5000f3b0:	e0216003 	eor	r6, r1, r3
5000f3b4:	e1c11a8c 	bic	r1, r1, ip, lsl #21
5000f3b8:	e1c33a8c 	bic	r3, r3, ip, lsl #21
5000f3bc:	e1905601 	orrs	r5, r0, r1, lsl #12
5000f3c0:	11925603 	orrsne	r5, r2, r3, lsl #12
5000f3c4:	e3811601 	orr	r1, r1, #1048576	; 0x100000
5000f3c8:	e3833601 	orr	r3, r3, #1048576	; 0x100000
5000f3cc:	0a00001d 	beq	5000f448 <__aeabi_dmul+0xbc>
5000f3d0:	e08ec290 	umull	ip, lr, r0, r2
5000f3d4:	e3a05000 	mov	r5, #0
5000f3d8:	e0a5e291 	umlal	lr, r5, r1, r2
5000f3dc:	e2062102 	and	r2, r6, #-2147483648	; 0x80000000
5000f3e0:	e0a5e390 	umlal	lr, r5, r0, r3
5000f3e4:	e3a06000 	mov	r6, #0
5000f3e8:	e0a65391 	umlal	r5, r6, r1, r3
5000f3ec:	e33c0000 	teq	ip, #0
5000f3f0:	138ee001 	orrne	lr, lr, #1
5000f3f4:	e24440ff 	sub	r4, r4, #255	; 0xff
5000f3f8:	e3560c02 	cmp	r6, #512	; 0x200
5000f3fc:	e2c44c03 	sbc	r4, r4, #768	; 0x300
5000f400:	2a000002 	bcs	5000f410 <__aeabi_dmul+0x84>
5000f404:	e1b0e08e 	lsls	lr, lr, #1
5000f408:	e0b55005 	adcs	r5, r5, r5
5000f40c:	e0a66006 	adc	r6, r6, r6
5000f410:	e1821586 	orr	r1, r2, r6, lsl #11
5000f414:	e1811aa5 	orr	r1, r1, r5, lsr #21
5000f418:	e1a00585 	lsl	r0, r5, #11
5000f41c:	e1800aae 	orr	r0, r0, lr, lsr #21
5000f420:	e1a0e58e 	lsl	lr, lr, #11
5000f424:	e254c0fd 	subs	ip, r4, #253	; 0xfd
5000f428:	835c0c07 	cmphi	ip, #1792	; 0x700
5000f42c:	8a000011 	bhi	5000f478 <__aeabi_dmul+0xec>
5000f430:	e35e0102 	cmp	lr, #-2147483648	; 0x80000000
5000f434:	01b0e0a0 	lsrseq	lr, r0, #1
5000f438:	e2b00000 	adcs	r0, r0, #0
5000f43c:	e0a11a04 	adc	r1, r1, r4, lsl #20
5000f440:	e8bd4070 	pop	{r4, r5, r6, lr}
5000f444:	e12fff1e 	bx	lr
5000f448:	e2066102 	and	r6, r6, #-2147483648	; 0x80000000
5000f44c:	e1861001 	orr	r1, r6, r1
5000f450:	e1800002 	orr	r0, r0, r2
5000f454:	e0211003 	eor	r1, r1, r3
5000f458:	e05440ac 	subs	r4, r4, ip, lsr #1
5000f45c:	c074500c 	rsbsgt	r5, r4, ip
5000f460:	c1811a04 	orrgt	r1, r1, r4, lsl #20
5000f464:	c8bd4070 	popgt	{r4, r5, r6, lr}
5000f468:	c12fff1e 	bxgt	lr
5000f46c:	e3811601 	orr	r1, r1, #1048576	; 0x100000
5000f470:	e3a0e000 	mov	lr, #0
5000f474:	e2544001 	subs	r4, r4, #1
5000f478:	ca00005d 	bgt	5000f5f4 <__aeabi_dmul+0x268>
5000f47c:	e3740036 	cmn	r4, #54	; 0x36
5000f480:	d3a00000 	movle	r0, #0
5000f484:	d2011102 	andle	r1, r1, #-2147483648	; 0x80000000
5000f488:	d8bd4070 	pople	{r4, r5, r6, lr}
5000f48c:	d12fff1e 	bxle	lr
5000f490:	e2644000 	rsb	r4, r4, #0
5000f494:	e2544020 	subs	r4, r4, #32
5000f498:	aa00001a 	bge	5000f508 <__aeabi_dmul+0x17c>
5000f49c:	e294400c 	adds	r4, r4, #12
5000f4a0:	ca00000c 	bgt	5000f4d8 <__aeabi_dmul+0x14c>
5000f4a4:	e2844014 	add	r4, r4, #20
5000f4a8:	e2645020 	rsb	r5, r4, #32
5000f4ac:	e1a03510 	lsl	r3, r0, r5
5000f4b0:	e1a00430 	lsr	r0, r0, r4
5000f4b4:	e1800511 	orr	r0, r0, r1, lsl r5
5000f4b8:	e2012102 	and	r2, r1, #-2147483648	; 0x80000000
5000f4bc:	e3c11102 	bic	r1, r1, #-2147483648	; 0x80000000
5000f4c0:	e0900fa3 	adds	r0, r0, r3, lsr #31
5000f4c4:	e0a21431 	adc	r1, r2, r1, lsr r4
5000f4c8:	e19ee083 	orrs	lr, lr, r3, lsl #1
5000f4cc:	01c00fa3 	biceq	r0, r0, r3, lsr #31
5000f4d0:	e8bd4070 	pop	{r4, r5, r6, lr}
5000f4d4:	e12fff1e 	bx	lr
5000f4d8:	e264400c 	rsb	r4, r4, #12
5000f4dc:	e2645020 	rsb	r5, r4, #32
5000f4e0:	e1a03410 	lsl	r3, r0, r4
5000f4e4:	e1a00530 	lsr	r0, r0, r5
5000f4e8:	e1800411 	orr	r0, r0, r1, lsl r4
5000f4ec:	e2011102 	and	r1, r1, #-2147483648	; 0x80000000
5000f4f0:	e0900fa3 	adds	r0, r0, r3, lsr #31
5000f4f4:	e2a11000 	adc	r1, r1, #0
5000f4f8:	e19ee083 	orrs	lr, lr, r3, lsl #1
5000f4fc:	01c00fa3 	biceq	r0, r0, r3, lsr #31
5000f500:	e8bd4070 	pop	{r4, r5, r6, lr}
5000f504:	e12fff1e 	bx	lr
5000f508:	e2645020 	rsb	r5, r4, #32
5000f50c:	e18ee510 	orr	lr, lr, r0, lsl r5
5000f510:	e1a03430 	lsr	r3, r0, r4
5000f514:	e1833511 	orr	r3, r3, r1, lsl r5
5000f518:	e1a00431 	lsr	r0, r1, r4
5000f51c:	e2011102 	and	r1, r1, #-2147483648	; 0x80000000
5000f520:	e1c00431 	bic	r0, r0, r1, lsr r4
5000f524:	e0800fa3 	add	r0, r0, r3, lsr #31
5000f528:	e19ee083 	orrs	lr, lr, r3, lsl #1
5000f52c:	01c00fa3 	biceq	r0, r0, r3, lsr #31
5000f530:	e8bd4070 	pop	{r4, r5, r6, lr}
5000f534:	e12fff1e 	bx	lr
5000f538:	e3340000 	teq	r4, #0
5000f53c:	1a000008 	bne	5000f564 <__aeabi_dmul+0x1d8>
5000f540:	e2016102 	and	r6, r1, #-2147483648	; 0x80000000
5000f544:	e1b00080 	lsls	r0, r0, #1
5000f548:	e0a11001 	adc	r1, r1, r1
5000f54c:	e3110601 	tst	r1, #1048576	; 0x100000
5000f550:	02444001 	subeq	r4, r4, #1
5000f554:	0afffffa 	beq	5000f544 <__aeabi_dmul+0x1b8>
5000f558:	e1811006 	orr	r1, r1, r6
5000f55c:	e3350000 	teq	r5, #0
5000f560:	112fff1e 	bxne	lr
5000f564:	e2036102 	and	r6, r3, #-2147483648	; 0x80000000
5000f568:	e1b02082 	lsls	r2, r2, #1
5000f56c:	e0a33003 	adc	r3, r3, r3
5000f570:	e3130601 	tst	r3, #1048576	; 0x100000
5000f574:	02455001 	subeq	r5, r5, #1
5000f578:	0afffffa 	beq	5000f568 <__aeabi_dmul+0x1dc>
5000f57c:	e1833006 	orr	r3, r3, r6
5000f580:	e12fff1e 	bx	lr
5000f584:	e134000c 	teq	r4, ip
5000f588:	e00c5a23 	and	r5, ip, r3, lsr #20
5000f58c:	1135000c 	teqne	r5, ip
5000f590:	0a000007 	beq	5000f5b4 <__aeabi_dmul+0x228>
5000f594:	e1906081 	orrs	r6, r0, r1, lsl #1
5000f598:	11926083 	orrsne	r6, r2, r3, lsl #1
5000f59c:	1affffe5 	bne	5000f538 <__aeabi_dmul+0x1ac>
5000f5a0:	e0211003 	eor	r1, r1, r3
5000f5a4:	e2011102 	and	r1, r1, #-2147483648	; 0x80000000
5000f5a8:	e3a00000 	mov	r0, #0
5000f5ac:	e8bd4070 	pop	{r4, r5, r6, lr}
5000f5b0:	e12fff1e 	bx	lr
5000f5b4:	e1906081 	orrs	r6, r0, r1, lsl #1
5000f5b8:	01a00002 	moveq	r0, r2
5000f5bc:	01a01003 	moveq	r1, r3
5000f5c0:	11926083 	orrsne	r6, r2, r3, lsl #1
5000f5c4:	0a000010 	beq	5000f60c <__aeabi_dmul+0x280>
5000f5c8:	e134000c 	teq	r4, ip
5000f5cc:	1a000001 	bne	5000f5d8 <__aeabi_dmul+0x24c>
5000f5d0:	e1906601 	orrs	r6, r0, r1, lsl #12
5000f5d4:	1a00000c 	bne	5000f60c <__aeabi_dmul+0x280>
5000f5d8:	e135000c 	teq	r5, ip
5000f5dc:	1a000003 	bne	5000f5f0 <__aeabi_dmul+0x264>
5000f5e0:	e1926603 	orrs	r6, r2, r3, lsl #12
5000f5e4:	11a00002 	movne	r0, r2
5000f5e8:	11a01003 	movne	r1, r3
5000f5ec:	1a000006 	bne	5000f60c <__aeabi_dmul+0x280>
5000f5f0:	e0211003 	eor	r1, r1, r3
5000f5f4:	e2011102 	and	r1, r1, #-2147483648	; 0x80000000
5000f5f8:	e381147f 	orr	r1, r1, #2130706432	; 0x7f000000
5000f5fc:	e381160f 	orr	r1, r1, #15728640	; 0xf00000
5000f600:	e3a00000 	mov	r0, #0
5000f604:	e8bd4070 	pop	{r4, r5, r6, lr}
5000f608:	e12fff1e 	bx	lr
5000f60c:	e381147f 	orr	r1, r1, #2130706432	; 0x7f000000
5000f610:	e381173e 	orr	r1, r1, #16252928	; 0xf80000
5000f614:	e8bd4070 	pop	{r4, r5, r6, lr}
5000f618:	e12fff1e 	bx	lr

5000f61c <__aeabi_ddiv>:
5000f61c:	e92d4070 	push	{r4, r5, r6, lr}
5000f620:	e3a0c0ff 	mov	ip, #255	; 0xff
5000f624:	e38ccc07 	orr	ip, ip, #1792	; 0x700
5000f628:	e01c4a21 	ands	r4, ip, r1, lsr #20
5000f62c:	101c5a23 	andsne	r5, ip, r3, lsr #20
5000f630:	1134000c 	teqne	r4, ip
5000f634:	1135000c 	teqne	r5, ip
5000f638:	0b00005e 	bleq	5000f7b8 <__aeabi_ddiv+0x19c>
5000f63c:	e0444005 	sub	r4, r4, r5
5000f640:	e021e003 	eor	lr, r1, r3
5000f644:	e1925603 	orrs	r5, r2, r3, lsl #12
5000f648:	e1a01601 	lsl	r1, r1, #12
5000f64c:	0a00004c 	beq	5000f784 <__aeabi_ddiv+0x168>
5000f650:	e1a03603 	lsl	r3, r3, #12
5000f654:	e3a05201 	mov	r5, #268435456	; 0x10000000
5000f658:	e1853223 	orr	r3, r5, r3, lsr #4
5000f65c:	e1833c22 	orr	r3, r3, r2, lsr #24
5000f660:	e1a02402 	lsl	r2, r2, #8
5000f664:	e1855221 	orr	r5, r5, r1, lsr #4
5000f668:	e1855c20 	orr	r5, r5, r0, lsr #24
5000f66c:	e1a06400 	lsl	r6, r0, #8
5000f670:	e20e1102 	and	r1, lr, #-2147483648	; 0x80000000
5000f674:	e1550003 	cmp	r5, r3
5000f678:	01560002 	cmpeq	r6, r2
5000f67c:	e2a440fd 	adc	r4, r4, #253	; 0xfd
5000f680:	e2844c03 	add	r4, r4, #768	; 0x300
5000f684:	2a000001 	bcs	5000f690 <__aeabi_ddiv+0x74>
5000f688:	e1b030a3 	lsrs	r3, r3, #1
5000f68c:	e1a02062 	rrx	r2, r2
5000f690:	e0566002 	subs	r6, r6, r2
5000f694:	e0c55003 	sbc	r5, r5, r3
5000f698:	e1b030a3 	lsrs	r3, r3, #1
5000f69c:	e1a02062 	rrx	r2, r2
5000f6a0:	e3a00601 	mov	r0, #1048576	; 0x100000
5000f6a4:	e3a0c702 	mov	ip, #524288	; 0x80000
5000f6a8:	e056e002 	subs	lr, r6, r2
5000f6ac:	e0d5e003 	sbcs	lr, r5, r3
5000f6b0:	20466002 	subcs	r6, r6, r2
5000f6b4:	21a0500e 	movcs	r5, lr
5000f6b8:	2180000c 	orrcs	r0, r0, ip
5000f6bc:	e1b030a3 	lsrs	r3, r3, #1
5000f6c0:	e1a02062 	rrx	r2, r2
5000f6c4:	e056e002 	subs	lr, r6, r2
5000f6c8:	e0d5e003 	sbcs	lr, r5, r3
5000f6cc:	20466002 	subcs	r6, r6, r2
5000f6d0:	21a0500e 	movcs	r5, lr
5000f6d4:	218000ac 	orrcs	r0, r0, ip, lsr #1
5000f6d8:	e1b030a3 	lsrs	r3, r3, #1
5000f6dc:	e1a02062 	rrx	r2, r2
5000f6e0:	e056e002 	subs	lr, r6, r2
5000f6e4:	e0d5e003 	sbcs	lr, r5, r3
5000f6e8:	20466002 	subcs	r6, r6, r2
5000f6ec:	21a0500e 	movcs	r5, lr
5000f6f0:	2180012c 	orrcs	r0, r0, ip, lsr #2
5000f6f4:	e1b030a3 	lsrs	r3, r3, #1
5000f6f8:	e1a02062 	rrx	r2, r2
5000f6fc:	e056e002 	subs	lr, r6, r2
5000f700:	e0d5e003 	sbcs	lr, r5, r3
5000f704:	20466002 	subcs	r6, r6, r2
5000f708:	21a0500e 	movcs	r5, lr
5000f70c:	218001ac 	orrcs	r0, r0, ip, lsr #3
5000f710:	e195e006 	orrs	lr, r5, r6
5000f714:	0a00000d 	beq	5000f750 <__aeabi_ddiv+0x134>
5000f718:	e1a05205 	lsl	r5, r5, #4
5000f71c:	e1855e26 	orr	r5, r5, r6, lsr #28
5000f720:	e1a06206 	lsl	r6, r6, #4
5000f724:	e1a03183 	lsl	r3, r3, #3
5000f728:	e1833ea2 	orr	r3, r3, r2, lsr #29
5000f72c:	e1a02182 	lsl	r2, r2, #3
5000f730:	e1b0c22c 	lsrs	ip, ip, #4
5000f734:	1affffdb 	bne	5000f6a8 <__aeabi_ddiv+0x8c>
5000f738:	e3110601 	tst	r1, #1048576	; 0x100000
5000f73c:	1a000006 	bne	5000f75c <__aeabi_ddiv+0x140>
5000f740:	e1811000 	orr	r1, r1, r0
5000f744:	e3a00000 	mov	r0, #0
5000f748:	e3a0c102 	mov	ip, #-2147483648	; 0x80000000
5000f74c:	eaffffd5 	b	5000f6a8 <__aeabi_ddiv+0x8c>
5000f750:	e3110601 	tst	r1, #1048576	; 0x100000
5000f754:	01811000 	orreq	r1, r1, r0
5000f758:	03a00000 	moveq	r0, #0
5000f75c:	e254c0fd 	subs	ip, r4, #253	; 0xfd
5000f760:	835c0c07 	cmphi	ip, #1792	; 0x700
5000f764:	8affff43 	bhi	5000f478 <__aeabi_dmul+0xec>
5000f768:	e055c003 	subs	ip, r5, r3
5000f76c:	0056c002 	subseq	ip, r6, r2
5000f770:	01b0c0a0 	lsrseq	ip, r0, #1
5000f774:	e2b00000 	adcs	r0, r0, #0
5000f778:	e0a11a04 	adc	r1, r1, r4, lsl #20
5000f77c:	e8bd4070 	pop	{r4, r5, r6, lr}
5000f780:	e12fff1e 	bx	lr
5000f784:	e20ee102 	and	lr, lr, #-2147483648	; 0x80000000
5000f788:	e18e1621 	orr	r1, lr, r1, lsr #12
5000f78c:	e09440ac 	adds	r4, r4, ip, lsr #1
5000f790:	c074500c 	rsbsgt	r5, r4, ip
5000f794:	c1811a04 	orrgt	r1, r1, r4, lsl #20
5000f798:	c8bd4070 	popgt	{r4, r5, r6, lr}
5000f79c:	c12fff1e 	bxgt	lr
5000f7a0:	e3811601 	orr	r1, r1, #1048576	; 0x100000
5000f7a4:	e3a0e000 	mov	lr, #0
5000f7a8:	e2544001 	subs	r4, r4, #1
5000f7ac:	eaffff31 	b	5000f478 <__aeabi_dmul+0xec>
5000f7b0:	e185e006 	orr	lr, r5, r6
5000f7b4:	eaffff2f 	b	5000f478 <__aeabi_dmul+0xec>
5000f7b8:	e00c5a23 	and	r5, ip, r3, lsr #20
5000f7bc:	e134000c 	teq	r4, ip
5000f7c0:	0135000c 	teqeq	r5, ip
5000f7c4:	0affff90 	beq	5000f60c <__aeabi_dmul+0x280>
5000f7c8:	e134000c 	teq	r4, ip
5000f7cc:	1a000006 	bne	5000f7ec <__aeabi_ddiv+0x1d0>
5000f7d0:	e1904601 	orrs	r4, r0, r1, lsl #12
5000f7d4:	1affff8c 	bne	5000f60c <__aeabi_dmul+0x280>
5000f7d8:	e135000c 	teq	r5, ip
5000f7dc:	1affff83 	bne	5000f5f0 <__aeabi_dmul+0x264>
5000f7e0:	e1a00002 	mov	r0, r2
5000f7e4:	e1a01003 	mov	r1, r3
5000f7e8:	eaffff87 	b	5000f60c <__aeabi_dmul+0x280>
5000f7ec:	e135000c 	teq	r5, ip
5000f7f0:	1a000004 	bne	5000f808 <__aeabi_ddiv+0x1ec>
5000f7f4:	e1925603 	orrs	r5, r2, r3, lsl #12
5000f7f8:	0affff68 	beq	5000f5a0 <__aeabi_dmul+0x214>
5000f7fc:	e1a00002 	mov	r0, r2
5000f800:	e1a01003 	mov	r1, r3
5000f804:	eaffff80 	b	5000f60c <__aeabi_dmul+0x280>
5000f808:	e1906081 	orrs	r6, r0, r1, lsl #1
5000f80c:	11926083 	orrsne	r6, r2, r3, lsl #1
5000f810:	1affff48 	bne	5000f538 <__aeabi_dmul+0x1ac>
5000f814:	e1904081 	orrs	r4, r0, r1, lsl #1
5000f818:	1affff74 	bne	5000f5f0 <__aeabi_dmul+0x264>
5000f81c:	e1925083 	orrs	r5, r2, r3, lsl #1
5000f820:	1affff5e 	bne	5000f5a0 <__aeabi_dmul+0x214>
5000f824:	eaffff78 	b	5000f60c <__aeabi_dmul+0x280>

5000f828 <__gedf2>:
5000f828:	e3e0c000 	mvn	ip, #0
5000f82c:	ea000002 	b	5000f83c <__cmpdf2+0x4>

5000f830 <__ledf2>:
5000f830:	e3a0c001 	mov	ip, #1
5000f834:	ea000000 	b	5000f83c <__cmpdf2+0x4>

5000f838 <__cmpdf2>:
5000f838:	e3a0c001 	mov	ip, #1
5000f83c:	e52dc004 	push	{ip}		; (str ip, [sp, #-4]!)
5000f840:	e1a0c081 	lsl	ip, r1, #1
5000f844:	e1f0cacc 	mvns	ip, ip, asr #21
5000f848:	e1a0c083 	lsl	ip, r3, #1
5000f84c:	11f0cacc 	mvnsne	ip, ip, asr #21
5000f850:	0a00000e 	beq	5000f890 <__cmpdf2+0x58>
5000f854:	e28dd004 	add	sp, sp, #4
5000f858:	e190c081 	orrs	ip, r0, r1, lsl #1
5000f85c:	0192c083 	orrseq	ip, r2, r3, lsl #1
5000f860:	11310003 	teqne	r1, r3
5000f864:	01300002 	teqeq	r0, r2
5000f868:	03a00000 	moveq	r0, #0
5000f86c:	012fff1e 	bxeq	lr
5000f870:	e3700000 	cmn	r0, #0
5000f874:	e1310003 	teq	r1, r3
5000f878:	51510003 	cmppl	r1, r3
5000f87c:	01500002 	cmpeq	r0, r2
5000f880:	21a00fc3 	asrcs	r0, r3, #31
5000f884:	31e00fc3 	mvncc	r0, r3, asr #31
5000f888:	e3800001 	orr	r0, r0, #1
5000f88c:	e12fff1e 	bx	lr
5000f890:	e1a0c081 	lsl	ip, r1, #1
5000f894:	e1f0cacc 	mvns	ip, ip, asr #21
5000f898:	1a000001 	bne	5000f8a4 <__cmpdf2+0x6c>
5000f89c:	e190c601 	orrs	ip, r0, r1, lsl #12
5000f8a0:	1a000004 	bne	5000f8b8 <__cmpdf2+0x80>
5000f8a4:	e1a0c083 	lsl	ip, r3, #1
5000f8a8:	e1f0cacc 	mvns	ip, ip, asr #21
5000f8ac:	1affffe8 	bne	5000f854 <__cmpdf2+0x1c>
5000f8b0:	e192c603 	orrs	ip, r2, r3, lsl #12
5000f8b4:	0affffe6 	beq	5000f854 <__cmpdf2+0x1c>
5000f8b8:	e49d0004 	pop	{r0}		; (ldr r0, [sp], #4)
5000f8bc:	e12fff1e 	bx	lr

5000f8c0 <__aeabi_cdrcmple>:
5000f8c0:	e1a0c000 	mov	ip, r0
5000f8c4:	e1a00002 	mov	r0, r2
5000f8c8:	e1a0200c 	mov	r2, ip
5000f8cc:	e1a0c001 	mov	ip, r1
5000f8d0:	e1a01003 	mov	r1, r3
5000f8d4:	e1a0300c 	mov	r3, ip
5000f8d8:	eaffffff 	b	5000f8dc <__aeabi_cdcmpeq>

5000f8dc <__aeabi_cdcmpeq>:
5000f8dc:	e92d4001 	push	{r0, lr}
5000f8e0:	ebffffd4 	bl	5000f838 <__cmpdf2>
5000f8e4:	e3500000 	cmp	r0, #0
5000f8e8:	43700000 	cmnmi	r0, #0
5000f8ec:	e8bd4001 	pop	{r0, lr}
5000f8f0:	e12fff1e 	bx	lr

5000f8f4 <__aeabi_dcmpeq>:
5000f8f4:	e52de008 	str	lr, [sp, #-8]!
5000f8f8:	ebfffff7 	bl	5000f8dc <__aeabi_cdcmpeq>
5000f8fc:	03a00001 	moveq	r0, #1
5000f900:	13a00000 	movne	r0, #0
5000f904:	e49de008 	ldr	lr, [sp], #8
5000f908:	e12fff1e 	bx	lr

5000f90c <__aeabi_dcmplt>:
5000f90c:	e52de008 	str	lr, [sp, #-8]!
5000f910:	ebfffff1 	bl	5000f8dc <__aeabi_cdcmpeq>
5000f914:	33a00001 	movcc	r0, #1
5000f918:	23a00000 	movcs	r0, #0
5000f91c:	e49de008 	ldr	lr, [sp], #8
5000f920:	e12fff1e 	bx	lr

5000f924 <__aeabi_dcmple>:
5000f924:	e52de008 	str	lr, [sp, #-8]!
5000f928:	ebffffeb 	bl	5000f8dc <__aeabi_cdcmpeq>
5000f92c:	93a00001 	movls	r0, #1
5000f930:	83a00000 	movhi	r0, #0
5000f934:	e49de008 	ldr	lr, [sp], #8
5000f938:	e12fff1e 	bx	lr

5000f93c <__aeabi_dcmpge>:
5000f93c:	e52de008 	str	lr, [sp, #-8]!
5000f940:	ebffffde 	bl	5000f8c0 <__aeabi_cdrcmple>
5000f944:	93a00001 	movls	r0, #1
5000f948:	83a00000 	movhi	r0, #0
5000f94c:	e49de008 	ldr	lr, [sp], #8
5000f950:	e12fff1e 	bx	lr

5000f954 <__aeabi_dcmpgt>:
5000f954:	e52de008 	str	lr, [sp, #-8]!
5000f958:	ebffffd8 	bl	5000f8c0 <__aeabi_cdrcmple>
5000f95c:	33a00001 	movcc	r0, #1
5000f960:	23a00000 	movcs	r0, #0
5000f964:	e49de008 	ldr	lr, [sp], #8
5000f968:	e12fff1e 	bx	lr

5000f96c <__aeabi_d2iz>:
5000f96c:	e1a02081 	lsl	r2, r1, #1
5000f970:	e2922602 	adds	r2, r2, #2097152	; 0x200000
5000f974:	2a00000c 	bcs	5000f9ac <__aeabi_d2iz+0x40>
5000f978:	5a000009 	bpl	5000f9a4 <__aeabi_d2iz+0x38>
5000f97c:	e3e03e3e 	mvn	r3, #992	; 0x3e0
5000f980:	e0532ac2 	subs	r2, r3, r2, asr #21
5000f984:	9a00000a 	bls	5000f9b4 <__aeabi_d2iz+0x48>
5000f988:	e1a03581 	lsl	r3, r1, #11
5000f98c:	e3833102 	orr	r3, r3, #-2147483648	; 0x80000000
5000f990:	e1833aa0 	orr	r3, r3, r0, lsr #21
5000f994:	e3110102 	tst	r1, #-2147483648	; 0x80000000
5000f998:	e1a00233 	lsr	r0, r3, r2
5000f99c:	12600000 	rsbne	r0, r0, #0
5000f9a0:	e12fff1e 	bx	lr
5000f9a4:	e3a00000 	mov	r0, #0
5000f9a8:	e12fff1e 	bx	lr
5000f9ac:	e1900601 	orrs	r0, r0, r1, lsl #12
5000f9b0:	1a000002 	bne	5000f9c0 <__aeabi_d2iz+0x54>
5000f9b4:	e2110102 	ands	r0, r1, #-2147483648	; 0x80000000
5000f9b8:	03e00102 	mvneq	r0, #-2147483648	; 0x80000000
5000f9bc:	e12fff1e 	bx	lr
5000f9c0:	e3a00000 	mov	r0, #0
5000f9c4:	e12fff1e 	bx	lr

5000f9c8 <__aeabi_frsub>:
5000f9c8:	e2200102 	eor	r0, r0, #-2147483648	; 0x80000000
5000f9cc:	ea000000 	b	5000f9d4 <__addsf3>

5000f9d0 <__aeabi_fsub>:
5000f9d0:	e2211102 	eor	r1, r1, #-2147483648	; 0x80000000

5000f9d4 <__addsf3>:
5000f9d4:	e1b02080 	lsls	r2, r0, #1
5000f9d8:	11b03081 	lslsne	r3, r1, #1
5000f9dc:	11320003 	teqne	r2, r3
5000f9e0:	11f0cc42 	mvnsne	ip, r2, asr #24
5000f9e4:	11f0cc43 	mvnsne	ip, r3, asr #24
5000f9e8:	0a000047 	beq	5000fb0c <__addsf3+0x138>
5000f9ec:	e1a02c22 	lsr	r2, r2, #24
5000f9f0:	e0723c23 	rsbs	r3, r2, r3, lsr #24
5000f9f4:	c0822003 	addgt	r2, r2, r3
5000f9f8:	c0201001 	eorgt	r1, r0, r1
5000f9fc:	c0210000 	eorgt	r0, r1, r0
5000fa00:	c0201001 	eorgt	r1, r0, r1
5000fa04:	b2633000 	rsblt	r3, r3, #0
5000fa08:	e3530019 	cmp	r3, #25
5000fa0c:	812fff1e 	bxhi	lr
5000fa10:	e3100102 	tst	r0, #-2147483648	; 0x80000000
5000fa14:	e3800502 	orr	r0, r0, #8388608	; 0x800000
5000fa18:	e3c004ff 	bic	r0, r0, #-16777216	; 0xff000000
5000fa1c:	12600000 	rsbne	r0, r0, #0
5000fa20:	e3110102 	tst	r1, #-2147483648	; 0x80000000
5000fa24:	e3811502 	orr	r1, r1, #8388608	; 0x800000
5000fa28:	e3c114ff 	bic	r1, r1, #-16777216	; 0xff000000
5000fa2c:	12611000 	rsbne	r1, r1, #0
5000fa30:	e1320003 	teq	r2, r3
5000fa34:	0a00002e 	beq	5000faf4 <__addsf3+0x120>
5000fa38:	e2422001 	sub	r2, r2, #1
5000fa3c:	e0900351 	adds	r0, r0, r1, asr r3
5000fa40:	e2633020 	rsb	r3, r3, #32
5000fa44:	e1a01311 	lsl	r1, r1, r3
5000fa48:	e2003102 	and	r3, r0, #-2147483648	; 0x80000000
5000fa4c:	5a000001 	bpl	5000fa58 <__addsf3+0x84>
5000fa50:	e2711000 	rsbs	r1, r1, #0
5000fa54:	e2e00000 	rsc	r0, r0, #0
5000fa58:	e3500502 	cmp	r0, #8388608	; 0x800000
5000fa5c:	3a00000b 	bcc	5000fa90 <__addsf3+0xbc>
5000fa60:	e3500401 	cmp	r0, #16777216	; 0x1000000
5000fa64:	3a000004 	bcc	5000fa7c <__addsf3+0xa8>
5000fa68:	e1b000a0 	lsrs	r0, r0, #1
5000fa6c:	e1a01061 	rrx	r1, r1
5000fa70:	e2822001 	add	r2, r2, #1
5000fa74:	e35200fe 	cmp	r2, #254	; 0xfe
5000fa78:	2a000038 	bcs	5000fb60 <__addsf3+0x18c>
5000fa7c:	e3510102 	cmp	r1, #-2147483648	; 0x80000000
5000fa80:	e0a00b82 	adc	r0, r0, r2, lsl #23
5000fa84:	03c00001 	biceq	r0, r0, #1
5000fa88:	e1800003 	orr	r0, r0, r3
5000fa8c:	e12fff1e 	bx	lr
5000fa90:	e1b01081 	lsls	r1, r1, #1
5000fa94:	e0a00000 	adc	r0, r0, r0
5000fa98:	e3100502 	tst	r0, #8388608	; 0x800000
5000fa9c:	e2422001 	sub	r2, r2, #1
5000faa0:	1afffff5 	bne	5000fa7c <__addsf3+0xa8>
5000faa4:	e1b0c620 	lsrs	ip, r0, #12
5000faa8:	01a00600 	lsleq	r0, r0, #12
5000faac:	0242200c 	subeq	r2, r2, #12
5000fab0:	e31008ff 	tst	r0, #16711680	; 0xff0000
5000fab4:	01a00400 	lsleq	r0, r0, #8
5000fab8:	02422008 	subeq	r2, r2, #8
5000fabc:	e310060f 	tst	r0, #15728640	; 0xf00000
5000fac0:	01a00200 	lsleq	r0, r0, #4
5000fac4:	02422004 	subeq	r2, r2, #4
5000fac8:	e3100503 	tst	r0, #12582912	; 0xc00000
5000facc:	01a00100 	lsleq	r0, r0, #2
5000fad0:	02422002 	subeq	r2, r2, #2
5000fad4:	e3500502 	cmp	r0, #8388608	; 0x800000
5000fad8:	31a00080 	lslcc	r0, r0, #1
5000fadc:	e2d22000 	sbcs	r2, r2, #0
5000fae0:	a0800b82 	addge	r0, r0, r2, lsl #23
5000fae4:	b2622000 	rsblt	r2, r2, #0
5000fae8:	a1800003 	orrge	r0, r0, r3
5000faec:	b1830230 	orrlt	r0, r3, r0, lsr r2
5000faf0:	e12fff1e 	bx	lr
5000faf4:	e3320000 	teq	r2, #0
5000faf8:	e2211502 	eor	r1, r1, #8388608	; 0x800000
5000fafc:	02200502 	eoreq	r0, r0, #8388608	; 0x800000
5000fb00:	02822001 	addeq	r2, r2, #1
5000fb04:	12433001 	subne	r3, r3, #1
5000fb08:	eaffffca 	b	5000fa38 <__addsf3+0x64>
5000fb0c:	e1a03081 	lsl	r3, r1, #1
5000fb10:	e1f0cc42 	mvns	ip, r2, asr #24
5000fb14:	11f0cc43 	mvnsne	ip, r3, asr #24
5000fb18:	0a000013 	beq	5000fb6c <__addsf3+0x198>
5000fb1c:	e1320003 	teq	r2, r3
5000fb20:	0a000002 	beq	5000fb30 <__addsf3+0x15c>
5000fb24:	e3320000 	teq	r2, #0
5000fb28:	01a00001 	moveq	r0, r1
5000fb2c:	e12fff1e 	bx	lr
5000fb30:	e1300001 	teq	r0, r1
5000fb34:	13a00000 	movne	r0, #0
5000fb38:	112fff1e 	bxne	lr
5000fb3c:	e31204ff 	tst	r2, #-16777216	; 0xff000000
5000fb40:	1a000002 	bne	5000fb50 <__addsf3+0x17c>
5000fb44:	e1b00080 	lsls	r0, r0, #1
5000fb48:	23800102 	orrcs	r0, r0, #-2147483648	; 0x80000000
5000fb4c:	e12fff1e 	bx	lr
5000fb50:	e2922402 	adds	r2, r2, #33554432	; 0x2000000
5000fb54:	32800502 	addcc	r0, r0, #8388608	; 0x800000
5000fb58:	312fff1e 	bxcc	lr
5000fb5c:	e2003102 	and	r3, r0, #-2147483648	; 0x80000000
5000fb60:	e383047f 	orr	r0, r3, #2130706432	; 0x7f000000
5000fb64:	e3800502 	orr	r0, r0, #8388608	; 0x800000
5000fb68:	e12fff1e 	bx	lr
5000fb6c:	e1f02c42 	mvns	r2, r2, asr #24
5000fb70:	11a00001 	movne	r0, r1
5000fb74:	01f03c43 	mvnseq	r3, r3, asr #24
5000fb78:	11a01000 	movne	r1, r0
5000fb7c:	e1b02480 	lsls	r2, r0, #9
5000fb80:	01b03481 	lslseq	r3, r1, #9
5000fb84:	01300001 	teqeq	r0, r1
5000fb88:	13800501 	orrne	r0, r0, #4194304	; 0x400000
5000fb8c:	e12fff1e 	bx	lr

5000fb90 <__aeabi_ui2f>:
5000fb90:	e3a03000 	mov	r3, #0
5000fb94:	ea000001 	b	5000fba0 <__aeabi_i2f+0x8>

5000fb98 <__aeabi_i2f>:
5000fb98:	e2103102 	ands	r3, r0, #-2147483648	; 0x80000000
5000fb9c:	42600000 	rsbmi	r0, r0, #0
5000fba0:	e1b0c000 	movs	ip, r0
5000fba4:	012fff1e 	bxeq	lr
5000fba8:	e383344b 	orr	r3, r3, #1258291200	; 0x4b000000
5000fbac:	e1a01000 	mov	r1, r0
5000fbb0:	e3a00000 	mov	r0, #0
5000fbb4:	ea00000f 	b	5000fbf8 <__aeabi_l2f+0x30>

5000fbb8 <__aeabi_ul2f>:
5000fbb8:	e1902001 	orrs	r2, r0, r1
5000fbbc:	012fff1e 	bxeq	lr
5000fbc0:	e3a03000 	mov	r3, #0
5000fbc4:	ea000005 	b	5000fbe0 <__aeabi_l2f+0x18>

5000fbc8 <__aeabi_l2f>:
5000fbc8:	e1902001 	orrs	r2, r0, r1
5000fbcc:	012fff1e 	bxeq	lr
5000fbd0:	e2113102 	ands	r3, r1, #-2147483648	; 0x80000000
5000fbd4:	5a000001 	bpl	5000fbe0 <__aeabi_l2f+0x18>
5000fbd8:	e2700000 	rsbs	r0, r0, #0
5000fbdc:	e2e11000 	rsc	r1, r1, #0
5000fbe0:	e1b0c001 	movs	ip, r1
5000fbe4:	01a0c000 	moveq	ip, r0
5000fbe8:	01a01000 	moveq	r1, r0
5000fbec:	03a00000 	moveq	r0, #0
5000fbf0:	e383345b 	orr	r3, r3, #1526726656	; 0x5b000000
5000fbf4:	02433201 	subeq	r3, r3, #268435456	; 0x10000000
5000fbf8:	e2433502 	sub	r3, r3, #8388608	; 0x800000
5000fbfc:	e3a02017 	mov	r2, #23
5000fc00:	e35c0801 	cmp	ip, #65536	; 0x10000
5000fc04:	21a0c82c 	lsrcs	ip, ip, #16
5000fc08:	22422010 	subcs	r2, r2, #16
5000fc0c:	e35c0c01 	cmp	ip, #256	; 0x100
5000fc10:	21a0c42c 	lsrcs	ip, ip, #8
5000fc14:	22422008 	subcs	r2, r2, #8
5000fc18:	e35c0010 	cmp	ip, #16
5000fc1c:	21a0c22c 	lsrcs	ip, ip, #4
5000fc20:	22422004 	subcs	r2, r2, #4
5000fc24:	e35c0004 	cmp	ip, #4
5000fc28:	22422002 	subcs	r2, r2, #2
5000fc2c:	304220ac 	subcc	r2, r2, ip, lsr #1
5000fc30:	e05221ac 	subs	r2, r2, ip, lsr #3
5000fc34:	e0433b82 	sub	r3, r3, r2, lsl #23
5000fc38:	ba000006 	blt	5000fc58 <__aeabi_l2f+0x90>
5000fc3c:	e0833211 	add	r3, r3, r1, lsl r2
5000fc40:	e1a0c210 	lsl	ip, r0, r2
5000fc44:	e2622020 	rsb	r2, r2, #32
5000fc48:	e35c0102 	cmp	ip, #-2147483648	; 0x80000000
5000fc4c:	e0a30230 	adc	r0, r3, r0, lsr r2
5000fc50:	03c00001 	biceq	r0, r0, #1
5000fc54:	e12fff1e 	bx	lr
5000fc58:	e2822020 	add	r2, r2, #32
5000fc5c:	e1a0c211 	lsl	ip, r1, r2
5000fc60:	e2622020 	rsb	r2, r2, #32
5000fc64:	e190008c 	orrs	r0, r0, ip, lsl #1
5000fc68:	e0a30231 	adc	r0, r3, r1, lsr r2
5000fc6c:	01c00fac 	biceq	r0, r0, ip, lsr #31
5000fc70:	e12fff1e 	bx	lr

5000fc74 <__aeabi_fmul>:
5000fc74:	e3a0c0ff 	mov	ip, #255	; 0xff
5000fc78:	e01c2ba0 	ands	r2, ip, r0, lsr #23
5000fc7c:	101c3ba1 	andsne	r3, ip, r1, lsr #23
5000fc80:	1132000c 	teqne	r2, ip
5000fc84:	1133000c 	teqne	r3, ip
5000fc88:	0a00003e 	beq	5000fd88 <__aeabi_fmul+0x114>
5000fc8c:	e0822003 	add	r2, r2, r3
5000fc90:	e020c001 	eor	ip, r0, r1
5000fc94:	e1b00480 	lsls	r0, r0, #9
5000fc98:	11b01481 	lslsne	r1, r1, #9
5000fc9c:	0a000010 	beq	5000fce4 <__aeabi_fmul+0x70>
5000fca0:	e3a03302 	mov	r3, #134217728	; 0x8000000
5000fca4:	e18302a0 	orr	r0, r3, r0, lsr #5
5000fca8:	e18312a1 	orr	r1, r3, r1, lsr #5
5000fcac:	e0813190 	umull	r3, r1, r0, r1
5000fcb0:	e20c0102 	and	r0, ip, #-2147483648	; 0x80000000
5000fcb4:	e3510502 	cmp	r1, #8388608	; 0x800000
5000fcb8:	31a01081 	lslcc	r1, r1, #1
5000fcbc:	31811fa3 	orrcc	r1, r1, r3, lsr #31
5000fcc0:	31a03083 	lslcc	r3, r3, #1
5000fcc4:	e1800001 	orr	r0, r0, r1
5000fcc8:	e2c2207f 	sbc	r2, r2, #127	; 0x7f
5000fccc:	e35200fd 	cmp	r2, #253	; 0xfd
5000fcd0:	8a00000f 	bhi	5000fd14 <__aeabi_fmul+0xa0>
5000fcd4:	e3530102 	cmp	r3, #-2147483648	; 0x80000000
5000fcd8:	e0a00b82 	adc	r0, r0, r2, lsl #23
5000fcdc:	03c00001 	biceq	r0, r0, #1
5000fce0:	e12fff1e 	bx	lr
5000fce4:	e3300000 	teq	r0, #0
5000fce8:	e20cc102 	and	ip, ip, #-2147483648	; 0x80000000
5000fcec:	01a01481 	lsleq	r1, r1, #9
5000fcf0:	e18c04a0 	orr	r0, ip, r0, lsr #9
5000fcf4:	e18004a1 	orr	r0, r0, r1, lsr #9
5000fcf8:	e252207f 	subs	r2, r2, #127	; 0x7f
5000fcfc:	c27230ff 	rsbsgt	r3, r2, #255	; 0xff
5000fd00:	c1800b82 	orrgt	r0, r0, r2, lsl #23
5000fd04:	c12fff1e 	bxgt	lr
5000fd08:	e3800502 	orr	r0, r0, #8388608	; 0x800000
5000fd0c:	e3a03000 	mov	r3, #0
5000fd10:	e2522001 	subs	r2, r2, #1
5000fd14:	ca000035 	bgt	5000fdf0 <__aeabi_fmul+0x17c>
5000fd18:	e3720019 	cmn	r2, #25
5000fd1c:	d2000102 	andle	r0, r0, #-2147483648	; 0x80000000
5000fd20:	d12fff1e 	bxle	lr
5000fd24:	e2622000 	rsb	r2, r2, #0
5000fd28:	e1b01080 	lsls	r1, r0, #1
5000fd2c:	e1a01231 	lsr	r1, r1, r2
5000fd30:	e2622020 	rsb	r2, r2, #32
5000fd34:	e1a0c210 	lsl	ip, r0, r2
5000fd38:	e1b00061 	rrxs	r0, r1
5000fd3c:	e2a00000 	adc	r0, r0, #0
5000fd40:	e193308c 	orrs	r3, r3, ip, lsl #1
5000fd44:	01c00fac 	biceq	r0, r0, ip, lsr #31
5000fd48:	e12fff1e 	bx	lr
5000fd4c:	e3320000 	teq	r2, #0
5000fd50:	e200c102 	and	ip, r0, #-2147483648	; 0x80000000
5000fd54:	01a00080 	lsleq	r0, r0, #1
5000fd58:	03100502 	tsteq	r0, #8388608	; 0x800000
5000fd5c:	02422001 	subeq	r2, r2, #1
5000fd60:	0afffffb 	beq	5000fd54 <__aeabi_fmul+0xe0>
5000fd64:	e180000c 	orr	r0, r0, ip
5000fd68:	e3330000 	teq	r3, #0
5000fd6c:	e201c102 	and	ip, r1, #-2147483648	; 0x80000000
5000fd70:	01a01081 	lsleq	r1, r1, #1
5000fd74:	03110502 	tsteq	r1, #8388608	; 0x800000
5000fd78:	02433001 	subeq	r3, r3, #1
5000fd7c:	0afffffb 	beq	5000fd70 <__aeabi_fmul+0xfc>
5000fd80:	e181100c 	orr	r1, r1, ip
5000fd84:	eaffffc0 	b	5000fc8c <__aeabi_fmul+0x18>
5000fd88:	e00c3ba1 	and	r3, ip, r1, lsr #23
5000fd8c:	e132000c 	teq	r2, ip
5000fd90:	1133000c 	teqne	r3, ip
5000fd94:	0a000005 	beq	5000fdb0 <__aeabi_fmul+0x13c>
5000fd98:	e3d0c102 	bics	ip, r0, #-2147483648	; 0x80000000
5000fd9c:	13d1c102 	bicsne	ip, r1, #-2147483648	; 0x80000000
5000fda0:	1affffe9 	bne	5000fd4c <__aeabi_fmul+0xd8>
5000fda4:	e0200001 	eor	r0, r0, r1
5000fda8:	e2000102 	and	r0, r0, #-2147483648	; 0x80000000
5000fdac:	e12fff1e 	bx	lr
5000fdb0:	e3300000 	teq	r0, #0
5000fdb4:	13300102 	teqne	r0, #-2147483648	; 0x80000000
5000fdb8:	01a00001 	moveq	r0, r1
5000fdbc:	13310000 	teqne	r1, #0
5000fdc0:	13310102 	teqne	r1, #-2147483648	; 0x80000000
5000fdc4:	0a00000d 	beq	5000fe00 <__aeabi_fmul+0x18c>
5000fdc8:	e132000c 	teq	r2, ip
5000fdcc:	1a000001 	bne	5000fdd8 <__aeabi_fmul+0x164>
5000fdd0:	e1b02480 	lsls	r2, r0, #9
5000fdd4:	1a000009 	bne	5000fe00 <__aeabi_fmul+0x18c>
5000fdd8:	e133000c 	teq	r3, ip
5000fddc:	1a000002 	bne	5000fdec <__aeabi_fmul+0x178>
5000fde0:	e1b03481 	lsls	r3, r1, #9
5000fde4:	11a00001 	movne	r0, r1
5000fde8:	1a000004 	bne	5000fe00 <__aeabi_fmul+0x18c>
5000fdec:	e0200001 	eor	r0, r0, r1
5000fdf0:	e2000102 	and	r0, r0, #-2147483648	; 0x80000000
5000fdf4:	e380047f 	orr	r0, r0, #2130706432	; 0x7f000000
5000fdf8:	e3800502 	orr	r0, r0, #8388608	; 0x800000
5000fdfc:	e12fff1e 	bx	lr
5000fe00:	e380047f 	orr	r0, r0, #2130706432	; 0x7f000000
5000fe04:	e3800503 	orr	r0, r0, #12582912	; 0xc00000
5000fe08:	e12fff1e 	bx	lr

5000fe0c <__aeabi_fdiv>:
5000fe0c:	e3a0c0ff 	mov	ip, #255	; 0xff
5000fe10:	e01c2ba0 	ands	r2, ip, r0, lsr #23
5000fe14:	101c3ba1 	andsne	r3, ip, r1, lsr #23
5000fe18:	1132000c 	teqne	r2, ip
5000fe1c:	1133000c 	teqne	r3, ip
5000fe20:	0a00003a 	beq	5000ff10 <__aeabi_fdiv+0x104>
5000fe24:	e0422003 	sub	r2, r2, r3
5000fe28:	e020c001 	eor	ip, r0, r1
5000fe2c:	e1b01481 	lsls	r1, r1, #9
5000fe30:	e1a00480 	lsl	r0, r0, #9
5000fe34:	0a00001c 	beq	5000feac <__aeabi_fdiv+0xa0>
5000fe38:	e3a03201 	mov	r3, #268435456	; 0x10000000
5000fe3c:	e1831221 	orr	r1, r3, r1, lsr #4
5000fe40:	e1833220 	orr	r3, r3, r0, lsr #4
5000fe44:	e20c0102 	and	r0, ip, #-2147483648	; 0x80000000
5000fe48:	e1530001 	cmp	r3, r1
5000fe4c:	31a03083 	lslcc	r3, r3, #1
5000fe50:	e2a2207d 	adc	r2, r2, #125	; 0x7d
5000fe54:	e3a0c502 	mov	ip, #8388608	; 0x800000
5000fe58:	e1530001 	cmp	r3, r1
5000fe5c:	20433001 	subcs	r3, r3, r1
5000fe60:	2180000c 	orrcs	r0, r0, ip
5000fe64:	e15300a1 	cmp	r3, r1, lsr #1
5000fe68:	204330a1 	subcs	r3, r3, r1, lsr #1
5000fe6c:	218000ac 	orrcs	r0, r0, ip, lsr #1
5000fe70:	e1530121 	cmp	r3, r1, lsr #2
5000fe74:	20433121 	subcs	r3, r3, r1, lsr #2
5000fe78:	2180012c 	orrcs	r0, r0, ip, lsr #2
5000fe7c:	e15301a1 	cmp	r3, r1, lsr #3
5000fe80:	204331a1 	subcs	r3, r3, r1, lsr #3
5000fe84:	218001ac 	orrcs	r0, r0, ip, lsr #3
5000fe88:	e1b03203 	lsls	r3, r3, #4
5000fe8c:	11b0c22c 	lsrsne	ip, ip, #4
5000fe90:	1afffff0 	bne	5000fe58 <__aeabi_fdiv+0x4c>
5000fe94:	e35200fd 	cmp	r2, #253	; 0xfd
5000fe98:	8affff9d 	bhi	5000fd14 <__aeabi_fmul+0xa0>
5000fe9c:	e1530001 	cmp	r3, r1
5000fea0:	e0a00b82 	adc	r0, r0, r2, lsl #23
5000fea4:	03c00001 	biceq	r0, r0, #1
5000fea8:	e12fff1e 	bx	lr
5000feac:	e20cc102 	and	ip, ip, #-2147483648	; 0x80000000
5000feb0:	e18c04a0 	orr	r0, ip, r0, lsr #9
5000feb4:	e292207f 	adds	r2, r2, #127	; 0x7f
5000feb8:	c27230ff 	rsbsgt	r3, r2, #255	; 0xff
5000febc:	c1800b82 	orrgt	r0, r0, r2, lsl #23
5000fec0:	c12fff1e 	bxgt	lr
5000fec4:	e3800502 	orr	r0, r0, #8388608	; 0x800000
5000fec8:	e3a03000 	mov	r3, #0
5000fecc:	e2522001 	subs	r2, r2, #1
5000fed0:	eaffff8f 	b	5000fd14 <__aeabi_fmul+0xa0>
5000fed4:	e3320000 	teq	r2, #0
5000fed8:	e200c102 	and	ip, r0, #-2147483648	; 0x80000000
5000fedc:	01a00080 	lsleq	r0, r0, #1
5000fee0:	03100502 	tsteq	r0, #8388608	; 0x800000
5000fee4:	02422001 	subeq	r2, r2, #1
5000fee8:	0afffffb 	beq	5000fedc <__aeabi_fdiv+0xd0>
5000feec:	e180000c 	orr	r0, r0, ip
5000fef0:	e3330000 	teq	r3, #0
5000fef4:	e201c102 	and	ip, r1, #-2147483648	; 0x80000000
5000fef8:	01a01081 	lsleq	r1, r1, #1
5000fefc:	03110502 	tsteq	r1, #8388608	; 0x800000
5000ff00:	02433001 	subeq	r3, r3, #1
5000ff04:	0afffffb 	beq	5000fef8 <__aeabi_fdiv+0xec>
5000ff08:	e181100c 	orr	r1, r1, ip
5000ff0c:	eaffffc4 	b	5000fe24 <__aeabi_fdiv+0x18>
5000ff10:	e00c3ba1 	and	r3, ip, r1, lsr #23
5000ff14:	e132000c 	teq	r2, ip
5000ff18:	1a000005 	bne	5000ff34 <__aeabi_fdiv+0x128>
5000ff1c:	e1b02480 	lsls	r2, r0, #9
5000ff20:	1affffb6 	bne	5000fe00 <__aeabi_fmul+0x18c>
5000ff24:	e133000c 	teq	r3, ip
5000ff28:	1affffaf 	bne	5000fdec <__aeabi_fmul+0x178>
5000ff2c:	e1a00001 	mov	r0, r1
5000ff30:	eaffffb2 	b	5000fe00 <__aeabi_fmul+0x18c>
5000ff34:	e133000c 	teq	r3, ip
5000ff38:	1a000003 	bne	5000ff4c <__aeabi_fdiv+0x140>
5000ff3c:	e1b03481 	lsls	r3, r1, #9
5000ff40:	0affff97 	beq	5000fda4 <__aeabi_fmul+0x130>
5000ff44:	e1a00001 	mov	r0, r1
5000ff48:	eaffffac 	b	5000fe00 <__aeabi_fmul+0x18c>
5000ff4c:	e3d0c102 	bics	ip, r0, #-2147483648	; 0x80000000
5000ff50:	13d1c102 	bicsne	ip, r1, #-2147483648	; 0x80000000
5000ff54:	1affffde 	bne	5000fed4 <__aeabi_fdiv+0xc8>
5000ff58:	e3d02102 	bics	r2, r0, #-2147483648	; 0x80000000
5000ff5c:	1affffa2 	bne	5000fdec <__aeabi_fmul+0x178>
5000ff60:	e3d13102 	bics	r3, r1, #-2147483648	; 0x80000000
5000ff64:	1affff8e 	bne	5000fda4 <__aeabi_fmul+0x130>
5000ff68:	eaffffa4 	b	5000fe00 <__aeabi_fmul+0x18c>

5000ff6c <__aeabi_f2iz>:
5000ff6c:	e1a02080 	lsl	r2, r0, #1
5000ff70:	e352047f 	cmp	r2, #2130706432	; 0x7f000000
5000ff74:	3a000008 	bcc	5000ff9c <__aeabi_f2iz+0x30>
5000ff78:	e3a0309e 	mov	r3, #158	; 0x9e
5000ff7c:	e0532c22 	subs	r2, r3, r2, lsr #24
5000ff80:	9a000007 	bls	5000ffa4 <__aeabi_f2iz+0x38>
5000ff84:	e1a03400 	lsl	r3, r0, #8
5000ff88:	e3833102 	orr	r3, r3, #-2147483648	; 0x80000000
5000ff8c:	e3100102 	tst	r0, #-2147483648	; 0x80000000
5000ff90:	e1a00233 	lsr	r0, r3, r2
5000ff94:	12600000 	rsbne	r0, r0, #0
5000ff98:	e12fff1e 	bx	lr
5000ff9c:	e3a00000 	mov	r0, #0
5000ffa0:	e12fff1e 	bx	lr
5000ffa4:	e3720061 	cmn	r2, #97	; 0x61
5000ffa8:	1a000001 	bne	5000ffb4 <__aeabi_f2iz+0x48>
5000ffac:	e1b02480 	lsls	r2, r0, #9
5000ffb0:	1a000002 	bne	5000ffc0 <__aeabi_f2iz+0x54>
5000ffb4:	e2100102 	ands	r0, r0, #-2147483648	; 0x80000000
5000ffb8:	03e00102 	mvneq	r0, #-2147483648	; 0x80000000
5000ffbc:	e12fff1e 	bx	lr
5000ffc0:	e3a00000 	mov	r0, #0
5000ffc4:	e12fff1e 	bx	lr

Disassembly of section .rodata:

5000ffc8 <courier_font-0x160>:
5000ffc8:	74206e49 	strtvc	r6, [r0], #-3657	; 0xfffff1b7
5000ffcc:	6d206568 	cfstr32vs	mvfx6, [r0, #-416]!	; 0xfffffe60
5000ffd0:	0a6e6961 	beq	51baa55c <bss_end+0x1b97844>
5000ffd4:	00000000 	andeq	r0, r0, r0
5000ffd8:	63617473 	cmnvs	r1, #1929379840	; 0x73000000
5000ffdc:	39395b6b 	ldmdbcc	r9!, {r0, r1, r3, r5, r6, r8, r9, fp, ip, lr}
5000ffe0:	6461205d 	strbtvs	r2, [r1], #-93	; 0xffffffa3
5000ffe4:	203a7264 	eorscs	r7, sl, r4, ror #4
5000ffe8:	00000000 	andeq	r0, r0, r0
5000ffec:	0000000a 	andeq	r0, r0, sl
5000fff0:	63617473 	cmnvs	r1, #1929379840	; 0x73000000
5000fff4:	5d305b6b 	fldmdbxpl	r0!, {d5-d57}	;@ Deprecated
5000fff8:	64646120 	strbtvs	r6, [r4], #-288	; 0xfffffee0
5000fffc:	00203a72 	eoreq	r3, r0, r2, ror sl
50010000:	34364b4f 	ldrtcc	r4, [r6], #-2895	; 0xfffff4b1
50010004:	69203031 	stmdbvs	r0!, {r0, r4, r5, ip, sp}
50010008:	6f522073 	svcvs	0x00522073
5001000c:	64656b63 	strbtvs	r6, [r5], #-2915	; 0xfffff49d
50010010:	00000021 	andeq	r0, r0, r1, lsr #32
50010014:	00000000 	andeq	r0, r0, r0
50010018:	756c6176 	strbvc	r6, [ip, #-374]!	; 0xfffffe8a
5001001c:	203d2065 	eorscs	r2, sp, r5, rrx
50010020:	00000000 	andeq	r0, r0, r0
50010024:	522b5441 	eorpl	r5, fp, #1090519040	; 0x41000000
50010028:	54455345 	strbpl	r5, [r5], #-837	; 0xfffffcbb
5001002c:	00000a0d 	andeq	r0, r0, sp, lsl #20
50010030:	0a0d5441 	beq	5036513c <bss_end+0x352424>
50010034:	00000000 	andeq	r0, r0, r0
50010038:	656c500a 	strbvs	r5, [ip, #-10]!
5001003c:	20657361 	rsbcs	r7, r5, r1, ror #6
50010040:	75706e69 	ldrbvc	r6, [r0, #-3689]!	; 0xfffff197
50010044:	6f632074 	svcvs	0x00632074
50010048:	6e616d6d 	cdpvs	13, 6, cr6, cr1, cr13, {3}
5001004c:	65282064 	strvs	r2, [r8, #-100]!	; 0xffffff9c
50010050:	7974706d 	ldmdbvc	r4!, {r0, r2, r3, r5, r6, ip, sp, lr}^
50010054:	206f7420 	rsbcs	r7, pc, r0, lsr #8
50010058:	75746572 	ldrbvc	r6, [r4, #-1394]!	; 0xfffffa8e
5001005c:	42206e72 	eormi	r6, r0, #1824	; 0x720
50010060:	6c746f6f 	ldclvs	15, cr6, [r4], #-444	; 0xfffffe44
50010064:	6564616f 	strbvs	r6, [r4, #-367]!	; 0xfffffe91
50010068:	654d2072 	strbvs	r2, [sp, #-114]	; 0xffffff8e
5001006c:	0029756e 	eoreq	r7, r9, lr, ror #10
50010070:	203e3e20 	eorscs	r3, lr, r0, lsr #28
	...
5001007c:	35304348 	ldrcc	r4, [r0, #-840]!	; 0xfffffcb8
50010080:	00203a20 	eoreq	r3, r0, r0, lsr #20
50010084:	646e550a 	strbtvs	r5, [lr], #-1290	; 0xfffffaf6
50010088:	6e696665 	cdpvs	6, 6, cr6, cr9, cr5, {3}
5001008c:	49206465 	stmdbmi	r0!, {r0, r2, r5, r6, sl, sp, lr}
50010090:	7274736e 	rsbsvc	r7, r4, #-1207959551	; 0xb8000001
50010094:	69746375 	ldmdbvs	r4!, {r0, r2, r4, r5, r6, r8, r9, sp, lr}^
50010098:	00006e6f 	andeq	r6, r0, pc, ror #28
5001009c:	6572500a 	ldrbvs	r5, [r2, #-10]!
500100a0:	63746566 	cmnvs	r4, #427819008	; 0x19800000
500100a4:	62412068 	subvs	r2, r1, #104	; 0x68
500100a8:	0074726f 	rsbseq	r7, r4, pc, ror #4
500100ac:	7461440a 	strbtvc	r4, [r1], #-1034	; 0xfffffbf6
500100b0:	62412061 	subvs	r2, r1, #97	; 0x61
500100b4:	0074726f 	rsbseq	r7, r4, pc, ror #4
500100b8:	5152490a 	cmppl	r2, sl, lsl #18
500100bc:	00000000 	andeq	r0, r0, r0
500100c0:	5149460a 	cmppl	r9, sl, lsl #12
500100c4:	00000000 	andeq	r0, r0, r0
500100c8:	79656b0a 	stmdbvc	r5!, {r1, r3, r8, r9, fp, sp, lr}^
500100cc:	685f315f 	ldmdavs	pc, {r0, r1, r2, r3, r4, r6, r8, ip, sp}^	; <UNPREDICTABLE>
500100d0:	6c646e61 	stclvs	14, cr6, [r4], #-388	; 0xfffffe7c
500100d4:	00007265 	andeq	r7, r0, r5, ror #4
500100d8:	79656b0a 	stmdbvc	r5!, {r1, r3, r8, r9, fp, sp, lr}^
500100dc:	685f325f 	ldmdavs	pc, {r0, r1, r2, r3, r4, r6, r9, ip, sp}^	; <UNPREDICTABLE>
500100e0:	6c646e61 	stclvs	14, cr6, [r4], #-388	; 0xfffffe7c
500100e4:	00007265 	andeq	r7, r0, r5, ror #4
500100e8:	79656b0a 	stmdbvc	r5!, {r1, r3, r8, r9, fp, sp, lr}^
500100ec:	685f335f 	ldmdavs	pc, {r0, r1, r2, r3, r4, r6, r8, r9, ip, sp}^	; <UNPREDICTABLE>
500100f0:	6c646e61 	stclvs	14, cr6, [r4], #-388	; 0xfffffe7c
500100f4:	00007265 	andeq	r7, r0, r5, ror #4
500100f8:	79656b0a 	stmdbvc	r5!, {r1, r3, r8, r9, fp, sp, lr}^
500100fc:	685f345f 	ldmdavs	pc, {r0, r1, r2, r3, r4, r6, sl, ip, sp}^	; <UNPREDICTABLE>
50010100:	6c646e61 	stclvs	14, cr6, [r4], #-388	; 0xfffffe7c
50010104:	00007265 	andeq	r7, r0, r5, ror #4
50010108:	79656b0a 	stmdbvc	r5!, {r1, r3, r8, r9, fp, sp, lr}^
5001010c:	685f355f 	ldmdavs	pc, {r0, r1, r2, r3, r4, r6, r8, sl, ip, sp}^	; <UNPREDICTABLE>
50010110:	6c646e61 	stclvs	14, cr6, [r4], #-388	; 0xfffffe7c
50010114:	00007265 	andeq	r7, r0, r5, ror #4
50010118:	79656b0a 	stmdbvc	r5!, {r1, r3, r8, r9, fp, sp, lr}^
5001011c:	685f365f 	ldmdavs	pc, {r0, r1, r2, r3, r4, r6, r9, sl, ip, sp}^	; <UNPREDICTABLE>
50010120:	6c646e61 	stclvs	14, cr6, [r4], #-388	; 0xfffffe7c
50010124:	00007265 	andeq	r7, r0, r5, ror #4

50010128 <courier_font>:
50010128:	3c3c0000 	ldccc	0, cr0, [ip], #-0
5001012c:	3c3c3c3c 	ldccc	12, cr3, [ip], #-240	; 0xffffff10
50010130:	3c3c3c3c 	ldccc	12, cr3, [ip], #-240	; 0xffffff10
50010134:	00003c3c 	andeq	r3, r0, ip, lsr ip
50010138:	3c3c0000 	ldccc	0, cr0, [ip], #-0
5001013c:	3c3c3c3c 	ldccc	12, cr3, [ip], #-240	; 0xffffff10
50010140:	3c3c3c3c 	ldccc	12, cr3, [ip], #-240	; 0xffffff10
50010144:	00003c3c 	andeq	r3, r0, ip, lsr ip
50010148:	3c3c0000 	ldccc	0, cr0, [ip], #-0
5001014c:	3c3c3c3c 	ldccc	12, cr3, [ip], #-240	; 0xffffff10
50010150:	3c3c3c3c 	ldccc	12, cr3, [ip], #-240	; 0xffffff10
50010154:	00003c3c 	andeq	r3, r0, ip, lsr ip
50010158:	3c3c0000 	ldccc	0, cr0, [ip], #-0
5001015c:	3c3c3c3c 	ldccc	12, cr3, [ip], #-240	; 0xffffff10
50010160:	3c3c3c3c 	ldccc	12, cr3, [ip], #-240	; 0xffffff10
50010164:	00003c3c 	andeq	r3, r0, ip, lsr ip
50010168:	3c3c0000 	ldccc	0, cr0, [ip], #-0
5001016c:	3c3c3c3c 	ldccc	12, cr3, [ip], #-240	; 0xffffff10
50010170:	3c3c3c3c 	ldccc	12, cr3, [ip], #-240	; 0xffffff10
50010174:	00003c3c 	andeq	r3, r0, ip, lsr ip
50010178:	3c3c0000 	ldccc	0, cr0, [ip], #-0
5001017c:	3c3c3c3c 	ldccc	12, cr3, [ip], #-240	; 0xffffff10
50010180:	3c3c3c3c 	ldccc	12, cr3, [ip], #-240	; 0xffffff10
50010184:	00003c3c 	andeq	r3, r0, ip, lsr ip
50010188:	3c3c0000 	ldccc	0, cr0, [ip], #-0
5001018c:	3c3c3c3c 	ldccc	12, cr3, [ip], #-240	; 0xffffff10
50010190:	3c3c3c3c 	ldccc	12, cr3, [ip], #-240	; 0xffffff10
50010194:	00003c3c 	andeq	r3, r0, ip, lsr ip
50010198:	3c3c0000 	ldccc	0, cr0, [ip], #-0
5001019c:	3c3c3c3c 	ldccc	12, cr3, [ip], #-240	; 0xffffff10
500101a0:	3c3c3c3c 	ldccc	12, cr3, [ip], #-240	; 0xffffff10
500101a4:	00003c3c 	andeq	r3, r0, ip, lsr ip
500101a8:	3c3c0000 	ldccc	0, cr0, [ip], #-0
500101ac:	3c3c3c3c 	ldccc	12, cr3, [ip], #-240	; 0xffffff10
500101b0:	3c3c3c3c 	ldccc	12, cr3, [ip], #-240	; 0xffffff10
500101b4:	00003c3c 	andeq	r3, r0, ip, lsr ip
500101b8:	3c3c0000 	ldccc	0, cr0, [ip], #-0
500101bc:	3c3c3c3c 	ldccc	12, cr3, [ip], #-240	; 0xffffff10
500101c0:	3c3c3c3c 	ldccc	12, cr3, [ip], #-240	; 0xffffff10
500101c4:	00003c3c 	andeq	r3, r0, ip, lsr ip
500101c8:	3c3c0000 	ldccc	0, cr0, [ip], #-0
500101cc:	3c3c3c3c 	ldccc	12, cr3, [ip], #-240	; 0xffffff10
500101d0:	3c3c3c3c 	ldccc	12, cr3, [ip], #-240	; 0xffffff10
500101d4:	00003c3c 	andeq	r3, r0, ip, lsr ip
500101d8:	3c3c0000 	ldccc	0, cr0, [ip], #-0
500101dc:	3c3c3c3c 	ldccc	12, cr3, [ip], #-240	; 0xffffff10
500101e0:	3c3c3c3c 	ldccc	12, cr3, [ip], #-240	; 0xffffff10
500101e4:	00003c3c 	andeq	r3, r0, ip, lsr ip
500101e8:	3c3c0000 	ldccc	0, cr0, [ip], #-0
500101ec:	3c3c3c3c 	ldccc	12, cr3, [ip], #-240	; 0xffffff10
500101f0:	3c3c3c3c 	ldccc	12, cr3, [ip], #-240	; 0xffffff10
500101f4:	00003c3c 	andeq	r3, r0, ip, lsr ip
500101f8:	3c3c0000 	ldccc	0, cr0, [ip], #-0
500101fc:	3c3c3c3c 	ldccc	12, cr3, [ip], #-240	; 0xffffff10
50010200:	3c3c3c3c 	ldccc	12, cr3, [ip], #-240	; 0xffffff10
50010204:	00003c3c 	andeq	r3, r0, ip, lsr ip
50010208:	3c3c0000 	ldccc	0, cr0, [ip], #-0
5001020c:	3c3c3c3c 	ldccc	12, cr3, [ip], #-240	; 0xffffff10
50010210:	3c3c3c3c 	ldccc	12, cr3, [ip], #-240	; 0xffffff10
50010214:	00003c3c 	andeq	r3, r0, ip, lsr ip
50010218:	3c3c0000 	ldccc	0, cr0, [ip], #-0
5001021c:	3c3c3c3c 	ldccc	12, cr3, [ip], #-240	; 0xffffff10
50010220:	3c3c3c3c 	ldccc	12, cr3, [ip], #-240	; 0xffffff10
50010224:	00003c3c 	andeq	r3, r0, ip, lsr ip
50010228:	3c3c0000 	ldccc	0, cr0, [ip], #-0
5001022c:	3c3c3c3c 	ldccc	12, cr3, [ip], #-240	; 0xffffff10
50010230:	3c3c3c3c 	ldccc	12, cr3, [ip], #-240	; 0xffffff10
50010234:	00003c3c 	andeq	r3, r0, ip, lsr ip
50010238:	3c3c0000 	ldccc	0, cr0, [ip], #-0
5001023c:	3c3c3c3c 	ldccc	12, cr3, [ip], #-240	; 0xffffff10
50010240:	3c3c3c3c 	ldccc	12, cr3, [ip], #-240	; 0xffffff10
50010244:	00003c3c 	andeq	r3, r0, ip, lsr ip
50010248:	3c3c0000 	ldccc	0, cr0, [ip], #-0
5001024c:	3c3c3c3c 	ldccc	12, cr3, [ip], #-240	; 0xffffff10
50010250:	3c3c3c3c 	ldccc	12, cr3, [ip], #-240	; 0xffffff10
50010254:	00003c3c 	andeq	r3, r0, ip, lsr ip
50010258:	3c3c0000 	ldccc	0, cr0, [ip], #-0
5001025c:	3c3c3c3c 	ldccc	12, cr3, [ip], #-240	; 0xffffff10
50010260:	3c3c3c3c 	ldccc	12, cr3, [ip], #-240	; 0xffffff10
50010264:	00003c3c 	andeq	r3, r0, ip, lsr ip
50010268:	3c3c0000 	ldccc	0, cr0, [ip], #-0
5001026c:	3c3c3c3c 	ldccc	12, cr3, [ip], #-240	; 0xffffff10
50010270:	3c3c3c3c 	ldccc	12, cr3, [ip], #-240	; 0xffffff10
50010274:	00003c3c 	andeq	r3, r0, ip, lsr ip
50010278:	3c3c0000 	ldccc	0, cr0, [ip], #-0
5001027c:	3c3c3c3c 	ldccc	12, cr3, [ip], #-240	; 0xffffff10
50010280:	3c3c3c3c 	ldccc	12, cr3, [ip], #-240	; 0xffffff10
50010284:	00003c3c 	andeq	r3, r0, ip, lsr ip
50010288:	3c3c0000 	ldccc	0, cr0, [ip], #-0
5001028c:	3c3c3c3c 	ldccc	12, cr3, [ip], #-240	; 0xffffff10
50010290:	3c3c3c3c 	ldccc	12, cr3, [ip], #-240	; 0xffffff10
50010294:	00003c3c 	andeq	r3, r0, ip, lsr ip
50010298:	3c3c0000 	ldccc	0, cr0, [ip], #-0
5001029c:	3c3c3c3c 	ldccc	12, cr3, [ip], #-240	; 0xffffff10
500102a0:	3c3c3c3c 	ldccc	12, cr3, [ip], #-240	; 0xffffff10
500102a4:	00003c3c 	andeq	r3, r0, ip, lsr ip
500102a8:	3c3c0000 	ldccc	0, cr0, [ip], #-0
500102ac:	3c3c3c3c 	ldccc	12, cr3, [ip], #-240	; 0xffffff10
500102b0:	3c3c3c3c 	ldccc	12, cr3, [ip], #-240	; 0xffffff10
500102b4:	00003c3c 	andeq	r3, r0, ip, lsr ip
500102b8:	3c3c0000 	ldccc	0, cr0, [ip], #-0
500102bc:	3c3c3c3c 	ldccc	12, cr3, [ip], #-240	; 0xffffff10
500102c0:	3c3c3c3c 	ldccc	12, cr3, [ip], #-240	; 0xffffff10
500102c4:	00003c3c 	andeq	r3, r0, ip, lsr ip
500102c8:	3c3c0000 	ldccc	0, cr0, [ip], #-0
500102cc:	3c3c3c3c 	ldccc	12, cr3, [ip], #-240	; 0xffffff10
500102d0:	3c3c3c3c 	ldccc	12, cr3, [ip], #-240	; 0xffffff10
500102d4:	00003c3c 	andeq	r3, r0, ip, lsr ip
500102d8:	3c3c0000 	ldccc	0, cr0, [ip], #-0
500102dc:	3c3c3c3c 	ldccc	12, cr3, [ip], #-240	; 0xffffff10
500102e0:	3c3c3c3c 	ldccc	12, cr3, [ip], #-240	; 0xffffff10
500102e4:	00003c3c 	andeq	r3, r0, ip, lsr ip
500102e8:	3c3c0000 	ldccc	0, cr0, [ip], #-0
500102ec:	3c3c3c3c 	ldccc	12, cr3, [ip], #-240	; 0xffffff10
500102f0:	3c3c3c3c 	ldccc	12, cr3, [ip], #-240	; 0xffffff10
500102f4:	00003c3c 	andeq	r3, r0, ip, lsr ip
500102f8:	3c3c0000 	ldccc	0, cr0, [ip], #-0
500102fc:	3c3c3c3c 	ldccc	12, cr3, [ip], #-240	; 0xffffff10
50010300:	3c3c3c3c 	ldccc	12, cr3, [ip], #-240	; 0xffffff10
50010304:	00003c3c 	andeq	r3, r0, ip, lsr ip
50010308:	3c3c0000 	ldccc	0, cr0, [ip], #-0
5001030c:	3c3c3c3c 	ldccc	12, cr3, [ip], #-240	; 0xffffff10
50010310:	3c3c3c3c 	ldccc	12, cr3, [ip], #-240	; 0xffffff10
50010314:	00003c3c 	andeq	r3, r0, ip, lsr ip
50010318:	3c3c0000 	ldccc	0, cr0, [ip], #-0
5001031c:	3c3c3c3c 	ldccc	12, cr3, [ip], #-240	; 0xffffff10
50010320:	3c3c3c3c 	ldccc	12, cr3, [ip], #-240	; 0xffffff10
50010324:	00003c3c 	andeq	r3, r0, ip, lsr ip
	...
50010338:	08000000 	stmdaeq	r0, {}	; <UNPREDICTABLE>
5001033c:	08080808 	stmdaeq	r8, {r3, fp}
50010340:	00080808 	andeq	r0, r8, r8, lsl #16
50010344:	00000008 	andeq	r0, r0, r8
50010348:	12000000 	andne	r0, r0, #0
5001034c:	00121212 	andseq	r1, r2, r2, lsl r2
	...
50010358:	09000000 	stmdbeq	r0, {}	; <UNPREDICTABLE>
5001035c:	123f0909 	eorsne	r0, pc, #147456	; 0x24000
50010360:	24247f12 	strtcs	r7, [r4], #-3858	; 0xfffff0ee
50010364:	00000024 	andeq	r0, r0, r4, lsr #32
50010368:	08000000 	stmdaeq	r0, {}	; <UNPREDICTABLE>
5001036c:	4040413e 	submi	r4, r0, lr, lsr r1
50010370:	4101013e 	tstmi	r1, lr, lsr r1
50010374:	0008083e 	andeq	r0, r8, lr, lsr r8
50010378:	30000000 	andcc	r0, r0, r0
5001037c:	04023148 	streq	r3, [r2], #-328	; 0xfffffeb8
50010380:	44231008 	strtmi	r1, [r3], #-8
50010384:	00000003 	andeq	r0, r0, r3
50010388:	1c000000 	stcne	0, cr0, [r0], {-0}
5001038c:	10202022 	eorne	r2, r0, r2, lsr #32
50010390:	43434428 	movtmi	r4, #13352	; 0x3428
50010394:	0000003c 	andeq	r0, r0, ip, lsr r0
50010398:	08000000 	stmdaeq	r0, {}	; <UNPREDICTABLE>
5001039c:	00080808 	andeq	r0, r8, r8, lsl #16
	...
500103a8:	02000000 	andeq	r0, r0, #0
500103ac:	08080404 	stmdaeq	r8, {r2, sl}
500103b0:	08080808 	stmdaeq	r8, {r3, fp}
500103b4:	02040408 	andeq	r0, r4, #8, 8	; 0x8000000
500103b8:	10000000 	andne	r0, r0, r0
500103bc:	04040808 	streq	r0, [r4], #-2056	; 0xfffff7f8
500103c0:	04040404 	streq	r0, [r4], #-1028	; 0xfffffbfc
500103c4:	10080804 	andne	r0, r8, r4, lsl #16
500103c8:	00000000 	andeq	r0, r0, r0
500103cc:	7f1c3600 	svcvc	0x001c3600
500103d0:	0000361c 	andeq	r3, r0, ip, lsl r6
	...
500103dc:	08080800 	stmdaeq	r8, {fp}
500103e0:	0808087f 	stmdaeq	r8, {r0, r1, r2, r3, r4, r5, r6, fp}
	...
500103f0:	0e000000 	cdpeq	0, 0, cr0, cr0, cr0, {0}
500103f4:	0000180c 	andeq	r1, r0, ip, lsl #16
	...
50010400:	0000003f 	andeq	r0, r0, pc, lsr r0
	...
50010410:	0c000000 	stceq	0, cr0, [r0], {-0}
50010414:	0000000c 	andeq	r0, r0, ip
50010418:	00000000 	andeq	r0, r0, r0
5001041c:	04020100 	streq	r0, [r2], #-256	; 0xffffff00
50010420:	40201008 	eormi	r1, r0, r8
50010424:	00000000 	andeq	r0, r0, r0
50010428:	1e000000 	cdpne	0, 0, cr0, cr0, cr0, {0}
5001042c:	21212121 	teqcs	r1, r1, lsr #2
50010430:	21212121 	teqcs	r1, r1, lsr #2
50010434:	0000001e 	andeq	r0, r0, lr, lsl r0
50010438:	04000000 	streq	r0, [r0], #-0
5001043c:	0404041c 	streq	r0, [r4], #-1052	; 0xfffffbe4
50010440:	04040404 	streq	r0, [r4], #-1028	; 0xfffffbfc
50010444:	0000001f 	andeq	r0, r0, pc, lsl r0
50010448:	1e000000 	cdpne	0, 0, cr0, cr0, cr0, {0}
5001044c:	02010121 	andeq	r0, r1, #1073741832	; 0x40000008
50010450:	20100804 	andscs	r0, r0, r4, lsl #16
50010454:	0000003f 	andeq	r0, r0, pc, lsr r0
50010458:	1e000000 	cdpne	0, 0, cr0, cr0, cr0, {0}
5001045c:	0e010121 	adfeqsp	f0, f1, f1
50010460:	21010101 	tstcs	r1, r1, lsl #2
50010464:	0000001e 	andeq	r0, r0, lr, lsl r0
50010468:	02000000 	andeq	r0, r0, #0
5001046c:	120a0a06 	andne	r0, sl, #24576	; 0x6000
50010470:	02023f22 	andeq	r3, r2, #34, 30	; 0x88
50010474:	00000007 	andeq	r0, r0, r7
50010478:	3f000000 	svccc	0x00000000
5001047c:	3e202020 	cdpcc	0, 2, cr2, cr0, cr0, {1}
50010480:	21010101 	tstcs	r1, r1, lsl #2
50010484:	0000001e 	andeq	r0, r0, lr, lsl r0
50010488:	0e000000 	cdpeq	0, 0, cr0, cr0, cr0, {0}
5001048c:	2e202010 	miacs	acc0, r0, r2
50010490:	21212131 	teqcs	r1, r1, lsr r1
50010494:	0000001e 	andeq	r0, r0, lr, lsl r0
50010498:	3f000000 	svccc	0x00000000
5001049c:	04020221 	streq	r0, [r2], #-545	; 0xfffffddf
500104a0:	10080804 	andne	r0, r8, r4, lsl #16
500104a4:	00000010 	andeq	r0, r0, r0, lsl r0
500104a8:	1e000000 	cdpne	0, 0, cr0, cr0, cr0, {0}
500104ac:	1e212121 	sufnesp	f2, f1, f1
500104b0:	21212121 	teqcs	r1, r1, lsr #2
500104b4:	0000001e 	andeq	r0, r0, lr, lsl r0
500104b8:	1e000000 	cdpne	0, 0, cr0, cr0, cr0, {0}
500104bc:	23212121 	teqcs	r1, #1073741832	; 0x40000008
500104c0:	0201011d 	andeq	r0, r1, #1073741831	; 0x40000007
500104c4:	0000001c 	andeq	r0, r0, ip, lsl r0
500104c8:	00000000 	andeq	r0, r0, r0
500104cc:	0c0c0000 	stceq	0, cr0, [ip], {-0}
500104d0:	0c000000 	stceq	0, cr0, [r0], {-0}
500104d4:	0000000c 	andeq	r0, r0, ip
500104d8:	00000000 	andeq	r0, r0, r0
500104dc:	0c0c0000 	stceq	0, cr0, [ip], {-0}
500104e0:	0e000000 	cdpeq	0, 0, cr0, cr0, cr0, {0}
500104e4:	0000180c 	andeq	r1, r0, ip, lsl #16
500104e8:	00000000 	andeq	r0, r0, r0
500104ec:	10080402 	andne	r0, r8, r2, lsl #8
500104f0:	04081020 	streq	r1, [r8], #-32	; 0xffffffe0
500104f4:	00000002 	andeq	r0, r0, r2
500104f8:	00000000 	andeq	r0, r0, r0
500104fc:	3f000000 	svccc	0x00000000
50010500:	00003f00 	andeq	r3, r0, r0, lsl #30
	...
5001050c:	04081020 	streq	r1, [r8], #-32	; 0xffffffe0
50010510:	10080402 	andne	r0, r8, r2, lsl #8
50010514:	00000020 	andeq	r0, r0, r0, lsr #32
50010518:	1e000000 	cdpne	0, 0, cr0, cr0, cr0, {0}
5001051c:	02010121 	andeq	r0, r1, #1073741832	; 0x40000008
50010520:	00080804 	andeq	r0, r8, r4, lsl #16
50010524:	00000008 	andeq	r0, r0, r8
50010528:	1e000000 	cdpne	0, 0, cr0, cr0, cr0, {0}
5001052c:	524e4021 	subpl	r4, lr, #33	; 0x21
50010530:	404d5252 	submi	r5, sp, r2, asr r2
50010534:	00001f20 	andeq	r1, r0, r0, lsr #30
50010538:	38000000 	stmdacc	r0, {}	; <UNPREDICTABLE>
5001053c:	22141408 	andscs	r1, r4, #8, 8	; 0x8000000
50010540:	41413e22 	cmpmi	r1, r2, lsr #28
50010544:	000000e3 	andeq	r0, r0, r3, ror #1
50010548:	7e000000 	cdpvc	0, 0, cr0, cr0, cr0, {0}
5001054c:	3e212121 	sufccsp	f2, f1, f1
50010550:	21212121 	teqcs	r1, r1, lsr #2
50010554:	0000007e 	andeq	r0, r0, lr, ror r0
50010558:	1d000000 	stcne	0, cr0, [r0, #-0]
5001055c:	40414123 	submi	r4, r1, r3, lsr #2
50010560:	21404040 	cmpcs	r0, r0, asr #32
50010564:	0000001e 	andeq	r0, r0, lr, lsl r0
50010568:	7c000000 	stcvc	0, cr0, [r0], {-0}
5001056c:	21212122 	teqcs	r1, r2, lsr #2
50010570:	22212121 	eorcs	r2, r1, #1073741832	; 0x40000008
50010574:	0000007c 	andeq	r0, r0, ip, ror r0
50010578:	7f000000 	svcvc	0x00000000
5001057c:	3c242021 	stccc	0, cr2, [r4], #-132	; 0xffffff7c
50010580:	21202024 	teqcs	r0, r4, lsr #32
50010584:	0000007f 	andeq	r0, r0, pc, ror r0
50010588:	7f000000 	svcvc	0x00000000
5001058c:	3c242021 	stccc	0, cr2, [r4], #-132	; 0xffffff7c
50010590:	20202024 	eorcs	r2, r0, r4, lsr #32
50010594:	00000078 	andeq	r0, r0, r8, ror r0
50010598:	1d000000 	stcne	0, cr0, [r0, #-0]
5001059c:	40414123 	submi	r4, r1, r3, lsr #2
500105a0:	21414147 	cmpcs	r1, r7, asr #2
500105a4:	0000001e 	andeq	r0, r0, lr, lsl r0
500105a8:	e3000000 	movw	r0, #0
500105ac:	7f414141 	svcvc	0x00414141
500105b0:	41414141 	cmpmi	r1, r1, asr #2
500105b4:	000000e3 	andeq	r0, r0, r3, ror #1
500105b8:	3e000000 	cdpcc	0, 0, cr0, cr0, cr0, {0}
500105bc:	08080808 	stmdaeq	r8, {r3, fp}
500105c0:	08080808 	stmdaeq	r8, {r3, fp}
500105c4:	0000003e 	andeq	r0, r0, lr, lsr r0
500105c8:	0f000000 	svceq	0x00000000
500105cc:	02020202 	andeq	r0, r2, #536870912	; 0x20000000
500105d0:	42420202 	submi	r0, r2, #536870912	; 0x20000000
500105d4:	0000003c 	andeq	r0, r0, ip, lsr r0
500105d8:	77000000 	strvc	r0, [r0, -r0]
500105dc:	28242422 	stmdacs	r4!, {r1, r5, sl, sp}
500105e0:	21222438 	teqcs	r2, r8, lsr r4
500105e4:	00000071 	andeq	r0, r0, r1, ror r0
500105e8:	78000000 	stmdavc	r0, {}	; <UNPREDICTABLE>
500105ec:	20202020 	eorcs	r2, r0, r0, lsr #32
500105f0:	21202020 	teqcs	r0, r0, lsr #32
500105f4:	0000007f 	andeq	r0, r0, pc, ror r0
500105f8:	c1000000 	mrsgt	r0, (UNDEF: 0)
500105fc:	55636341 	strbpl	r6, [r3, #-833]!	; 0xfffffcbf
50010600:	41494955 	cmpmi	r9, r5, asr r9
50010604:	000000e3 	andeq	r0, r0, r3, ror #1
50010608:	c7000000 	strgt	r0, [r0, -r0]
5001060c:	51516141 	cmppl	r1, r1, asr #2
50010610:	43454549 	movtmi	r4, #21833	; 0x5549
50010614:	000000f1 	strdeq	r0, [r0], -r1
50010618:	1c000000 	stcne	0, cr0, [r0], {-0}
5001061c:	41414122 	cmpmi	r1, r2, lsr #2
50010620:	22414141 	subcs	r4, r1, #1073741840	; 0x40000010
50010624:	0000001c 	andeq	r0, r0, ip, lsl r0
50010628:	7e000000 	cdpvc	0, 0, cr0, cr0, cr0, {0}
5001062c:	21212121 	teqcs	r1, r1, lsr #2
50010630:	2020203e 	eorcs	r2, r0, lr, lsr r0
50010634:	00000078 	andeq	r0, r0, r8, ror r0
50010638:	1c000000 	stcne	0, cr0, [r0], {-0}
5001063c:	41414122 	cmpmi	r1, r2, lsr #2
50010640:	22414141 	subcs	r4, r1, #1073741840	; 0x40000010
50010644:	00330c1c 	eorseq	r0, r3, ip, lsl ip
50010648:	7e000000 	cdpvc	0, 0, cr0, cr0, cr0, {0}
5001064c:	21212121 	teqcs	r1, r1, lsr #2
50010650:	2122243e 	teqcs	r2, lr, lsr r4
50010654:	00000071 	andeq	r0, r0, r1, ror r0
50010658:	3d000000 	stccc	0, cr0, [r0, #-0]
5001065c:	38404143 	stmdacc	r0, {r0, r1, r6, r8, lr}^
50010660:	61410106 	cmpvs	r1, r6, lsl #2
50010664:	0000005e 	andeq	r0, r0, lr, asr r0
50010668:	ff000000 			; <UNDEFINED> instruction: 0xff000000
5001066c:	08080888 	stmdaeq	r8, {r3, r7, fp}
50010670:	08080808 	stmdaeq	r8, {r3, fp}
50010674:	0000003e 	andeq	r0, r0, lr, lsr r0
50010678:	e3000000 	movw	r0, #0
5001067c:	41414141 	cmpmi	r1, r1, asr #2
50010680:	63414141 	movtvs	r4, #4417	; 0x1141
50010684:	0000001c 	andeq	r0, r0, ip, lsl r0
50010688:	e3000000 	movw	r0, #0
5001068c:	22224141 	eorcs	r4, r2, #1073741840	; 0x40000010
50010690:	08141422 	ldmdaeq	r4, {r1, r5, sl, ip}
50010694:	00000008 	andeq	r0, r0, r8
50010698:	c1000000 	mrsgt	r0, (UNDEF: 0)
5001069c:	55888880 	strpl	r8, [r8, #2176]	; 0x880
500106a0:	22225555 	eorcs	r5, r2, #356515840	; 0x15400000
500106a4:	00000022 	andeq	r0, r0, r2, lsr #32
500106a8:	e3000000 	movw	r0, #0
500106ac:	08142241 	ldmdaeq	r4, {r0, r6, r9, sp}
500106b0:	41221408 	teqmi	r2, r8, lsl #8
500106b4:	000000e3 	andeq	r0, r0, r3, ror #1
500106b8:	e3000000 	movw	r0, #0
500106bc:	14222241 	strtne	r2, [r2], #-577	; 0xfffffdbf
500106c0:	08080808 	stmdaeq	r8, {r3, fp}
500106c4:	0000003e 	andeq	r0, r0, lr, lsr r0
500106c8:	7f000000 	svcvc	0x00000000
500106cc:	08040241 	stmdaeq	r4, {r0, r6, r9}
500106d0:	41201008 	teqmi	r0, r8
500106d4:	0000007f 	andeq	r0, r0, pc, ror r0
500106d8:	0e000000 	cdpeq	0, 0, cr0, cr0, cr0, {0}
500106dc:	08080808 	stmdaeq	r8, {r3, fp}
500106e0:	08080808 	stmdaeq	r8, {r3, fp}
500106e4:	0e080808 	cdpeq	8, 0, cr0, cr8, cr8, {0}
500106e8:	00000000 	andeq	r0, r0, r0
500106ec:	08102040 	ldmdaeq	r0, {r6, sp}
500106f0:	00010204 	andeq	r0, r1, r4, lsl #4
500106f4:	00000000 	andeq	r0, r0, r0
500106f8:	1c000000 	stcne	0, cr0, [r0], {-0}
500106fc:	04040404 	streq	r0, [r4], #-1028	; 0xfffffbfc
50010700:	04040404 	streq	r0, [r4], #-1028	; 0xfffffbfc
50010704:	1c040404 	cfstrsne	mvf0, [r4], {4}
50010708:	08000000 	stmdaeq	r0, {}	; <UNPREDICTABLE>
5001070c:	00412214 	subeq	r2, r1, r4, lsl r2
	...
50010724:	00ff0000 	rscseq	r0, pc, r0
50010728:	10000000 	andne	r0, r0, r0
5001072c:	00000008 	andeq	r0, r0, r8
	...
5001073c:	023c0000 	eorseq	r0, ip, #0
50010740:	4242423e 	submi	r4, r2, #-536870909	; 0xe0000003
50010744:	0000003d 	andeq	r0, r0, sp, lsr r0
50010748:	60000000 	andvs	r0, r0, r0
5001074c:	332c2020 	teqcc	ip, #32
50010750:	33212121 	teqcc	r1, #1073741832	; 0x40000008
50010754:	0000006c 	andeq	r0, r0, ip, rrx
50010758:	00000000 	andeq	r0, r0, r0
5001075c:	631d0000 	tstvs	sp, #0
50010760:	63404040 	movtvs	r4, #64	; 0x40
50010764:	0000001c 	andeq	r0, r0, ip, lsl r0
50010768:	06000000 	streq	r0, [r0], -r0
5001076c:	661a0202 	ldrvs	r0, [sl], -r2, lsl #4
50010770:	66424242 	strbvs	r4, [r2], -r2, asr #4
50010774:	0000001b 	andeq	r0, r0, fp, lsl r0
50010778:	00000000 	andeq	r0, r0, r0
5001077c:	631c0000 	tstvs	ip, #0
50010780:	63407f41 	movtvs	r7, #3905	; 0xf41
50010784:	0000001c 	andeq	r0, r0, ip, lsl r0
50010788:	0e000000 	cdpeq	0, 0, cr0, cr0, cr0, {0}
5001078c:	3c101011 	ldccc	0, cr1, [r0], {17}
50010790:	10101010 	andsne	r1, r0, r0, lsl r0
50010794:	0000003c 	andeq	r0, r0, ip, lsr r0
50010798:	00000000 	andeq	r0, r0, r0
5001079c:	661b0000 	ldrvs	r0, [fp], -r0
500107a0:	1a664242 	bne	519a10b0 <bss_end+0x198e398>
500107a4:	3c424202 	sfmcc	f4, 2, [r2], {2}
500107a8:	60000000 	andvs	r0, r0, r0
500107ac:	322c2020 	eorcc	r2, ip, #32
500107b0:	22222222 	eorcs	r2, r2, #536870914	; 0x20000002
500107b4:	00000077 	andeq	r0, r0, r7, ror r0
500107b8:	08000000 	stmdaeq	r0, {}	; <UNPREDICTABLE>
500107bc:	08380000 	ldmdaeq	r8!, {}	; <UNPREDICTABLE>
500107c0:	08080808 	stmdaeq	r8, {r3, fp}
500107c4:	0000003e 	andeq	r0, r0, lr, lsr r0
500107c8:	04000000 	streq	r0, [r0], #-0
500107cc:	041c0000 	ldreq	r0, [ip], #-0
500107d0:	04040404 	streq	r0, [r4], #-1028	; 0xfffffbfc
500107d4:	38440404 	stmdacc	r4, {r2, sl}^
500107d8:	60000000 	andvs	r0, r0, r0
500107dc:	24272020 	strtcs	r2, [r7], #-32	; 0xffffffe0
500107e0:	22243828 	eorcs	r3, r4, #40, 16	; 0x280000
500107e4:	00000077 	andeq	r0, r0, r7, ror r0
500107e8:	38000000 	stmdacc	r0, {}	; <UNPREDICTABLE>
500107ec:	08080808 	stmdaeq	r8, {r3, fp}
500107f0:	08080808 	stmdaeq	r8, {r3, fp}
500107f4:	0000003e 	andeq	r0, r0, lr, lsr r0
500107f8:	00000000 	andeq	r0, r0, r0
500107fc:	6ddb0000 	ldclvs	0, cr0, [fp]
50010800:	49494949 	stmdbmi	r9, {r0, r3, r6, r8, fp, lr}^
50010804:	000000ed 	andeq	r0, r0, sp, ror #1
50010808:	00000000 	andeq	r0, r0, r0
5001080c:	326c0000 	rsbcc	r0, ip, #0
50010810:	22222222 	eorcs	r2, r2, #536870914	; 0x20000002
50010814:	00000077 	andeq	r0, r0, r7, ror r0
50010818:	00000000 	andeq	r0, r0, r0
5001081c:	631c0000 	tstvs	ip, #0
50010820:	63414141 	movtvs	r4, #4417	; 0x1141
50010824:	0000001c 	andeq	r0, r0, ip, lsl r0
50010828:	00000000 	andeq	r0, r0, r0
5001082c:	336c0000 	cmncc	ip, #0
50010830:	33212121 	teqcc	r1, #1073741832	; 0x40000008
50010834:	7820202c 	stmdavc	r0!, {r2, r3, r5, sp}
50010838:	00000000 	andeq	r0, r0, r0
5001083c:	661b0000 	ldrvs	r0, [fp], -r0
50010840:	66424242 	strbvs	r4, [r2], -r2, asr #4
50010844:	0f02021a 	svceq	0x0002021a
50010848:	00000000 	andeq	r0, r0, r0
5001084c:	18770000 	ldmdane	r7!, {}^	; <UNPREDICTABLE>
50010850:	10101010 	andsne	r1, r0, r0, lsl r0
50010854:	0000007c 	andeq	r0, r0, ip, ror r0
50010858:	00000000 	andeq	r0, r0, r0
5001085c:	413e0000 	teqmi	lr, r0
50010860:	41013e40 	tstmi	r1, r0, asr #28
50010864:	0000003e 	andeq	r0, r0, lr, lsr r0
50010868:	00000000 	andeq	r0, r0, r0
5001086c:	107e1010 	rsbsne	r1, lr, r0, lsl r0
50010870:	11101010 	tstne	r0, r0, lsl r0
50010874:	0000000e 	andeq	r0, r0, lr
50010878:	00000000 	andeq	r0, r0, r0
5001087c:	22660000 	rsbcs	r0, r6, #0
50010880:	26222222 	strtcs	r2, [r2], -r2, lsr #4
50010884:	0000001b 	andeq	r0, r0, fp, lsl r0
50010888:	00000000 	andeq	r0, r0, r0
5001088c:	41e30000 	mvnmi	r0, r0
50010890:	14142222 	ldrne	r2, [r4], #-546	; 0xfffffdde
50010894:	00000008 	andeq	r0, r0, r8
50010898:	00000000 	andeq	r0, r0, r0
5001089c:	49eb0000 	stmibmi	fp!, {}^	; <UNPREDICTABLE>
500108a0:	22555555 	subscs	r5, r5, #356515840	; 0x15400000
500108a4:	00000022 	andeq	r0, r0, r2, lsr #32
500108a8:	00000000 	andeq	r0, r0, r0
500108ac:	22770000 	rsbscs	r0, r7, #0
500108b0:	22140814 	andscs	r0, r4, #20, 16	; 0x140000
500108b4:	00000077 	andeq	r0, r0, r7, ror r0
500108b8:	00000000 	andeq	r0, r0, r0
500108bc:	41e30000 	mvnmi	r0, r0
500108c0:	14142222 	ldrne	r2, [r4], #-546	; 0xfffffdde
500108c4:	60100808 	andsvs	r0, r0, r8, lsl #16
500108c8:	00000000 	andeq	r0, r0, r0
500108cc:	427f0000 	rsbsmi	r0, pc, #0
500108d0:	21100804 	tstcs	r0, r4, lsl #16
500108d4:	0000007f 	andeq	r0, r0, pc, ror r0
500108d8:	06000000 	streq	r0, [r0], -r0
500108dc:	08080808 	stmdaeq	r8, {r3, fp}
500108e0:	08083008 	stmdaeq	r8, {r3, ip, sp}
500108e4:	06080808 	streq	r0, [r8], -r8, lsl #16
500108e8:	08000000 	stmdaeq	r0, {}	; <UNPREDICTABLE>
500108ec:	08080808 	stmdaeq	r8, {r3, fp}
500108f0:	08080808 	stmdaeq	r8, {r3, fp}
500108f4:	08080808 	stmdaeq	r8, {r3, fp}
500108f8:	18000000 	stmdane	r0, {}	; <UNPREDICTABLE>
500108fc:	04040404 	streq	r0, [r4], #-1028	; 0xfffffbfc
50010900:	04040304 	streq	r0, [r4], #-772	; 0xfffffcfc
50010904:	18040404 	stmdane	r4, {r2, sl}
50010908:	31000000 	mrscc	r0, (UNDEF: 0)
5001090c:	00004649 	andeq	r4, r0, r9, asr #12
	...
50010918:	3c3c0000 	ldccc	0, cr0, [ip], #-0
5001091c:	3c3c3c3c 	ldccc	12, cr3, [ip], #-240	; 0xffffff10
50010920:	3c3c3c3c 	ldccc	12, cr3, [ip], #-240	; 0xffffff10
50010924:	00003c3c 	andeq	r3, r0, ip, lsr ip
50010928:	00000000 	andeq	r0, r0, r0
5001092c:	00ffffff 	ldrshteq	pc, [pc], #255	; <UNPREDICTABLE>
50010930:	00ff0000 	rscseq	r0, pc, r0
50010934:	0000ff00 	andeq	pc, r0, r0, lsl #30
50010938:	000000ff 	strdeq	r0, [r0], -pc	; <UNPREDICTABLE>

5001093c <OSDebugEn>:
5001093c:	00000001 	andeq	r0, r0, r1

50010940 <OSEndiannessTest>:
50010940:	12345678 	eorsne	r5, r4, #120, 12	; 0x7800000

50010944 <OSEventEn>:
50010944:	000a0001 	andeq	r0, sl, r1

50010946 <OSEventMax>:
50010946:	0001000a 	andeq	r0, r1, sl

50010948 <OSEventNameEn>:
50010948:	00180001 	andseq	r0, r8, r1

5001094a <OSEventSize>:
5001094a:	00f00018 	rscseq	r0, r0, r8, lsl r0

5001094c <OSEventTblSize>:
5001094c:	000100f0 	strdeq	r0, [r1], -r0	; <UNPREDICTABLE>

5001094e <OSEventMultiEn>:
5001094e:	00010001 	andeq	r0, r1, r1

50010950 <OSFlagEn>:
50010950:	00100001 	andseq	r0, r0, r1

50010952 <OSFlagGrpSize>:
50010952:	00140010 	andseq	r0, r4, r0, lsl r0

50010954 <OSFlagNodeSize>:
50010954:	00020014 	andeq	r0, r2, r4, lsl r0

50010956 <OSFlagWidth>:
50010956:	00050002 	andeq	r0, r5, r2

50010958 <OSFlagMax>:
50010958:	00010005 	andeq	r0, r1, r5

5001095a <OSFlagNameEn>:
5001095a:	003f0001 	eorseq	r0, pc, r1

5001095c <OSLowestPrio>:
5001095c:	0001003f 	andeq	r0, r1, pc, lsr r0

5001095e <OSMboxEn>:
5001095e:	00010001 	andeq	r0, r1, r1

50010960 <OSMemEn>:
50010960:	00050001 	andeq	r0, r5, r1

50010962 <OSMemMax>:
50010962:	00010005 	andeq	r0, r1, r5

50010964 <OSMemNameEn>:
50010964:	00180001 	andseq	r0, r8, r1

50010966 <OSMemSize>:
50010966:	00780018 	rsbseq	r0, r8, r8, lsl r0

50010968 <OSMemTblSize>:
50010968:	00010078 	andeq	r0, r1, r8, ror r0

5001096a <OSMutexEn>:
5001096a:	00040001 	andeq	r0, r4, r1

5001096c <OSPtrSize>:
5001096c:	00010004 	andeq	r0, r1, r4

5001096e <OSQEn>:
5001096e:	00040001 	andeq	r0, r4, r1

50010970 <OSQMax>:
50010970:	00180004 	andseq	r0, r8, r4

50010972 <OSQSize>:
50010972:	00080018 	andeq	r0, r8, r8, lsl r0

50010974 <OSRdyTblSize>:
50010974:	00010008 	andeq	r0, r1, r8

50010976 <OSSemEn>:
50010976:	00040001 	andeq	r0, r4, r1

50010978 <OSStkWidth>:
50010978:	00010004 	andeq	r0, r1, r4

5001097a <OSTaskCreateEn>:
5001097a:	00010001 	andeq	r0, r1, r1

5001097c <OSTaskCreateExtEn>:
5001097c:	00010001 	andeq	r0, r1, r1

5001097e <OSTaskDelEn>:
5001097e:	00800001 	addeq	r0, r0, r1

50010980 <OSTaskIdleStkSize>:
50010980:	00010080 	andeq	r0, r1, r0, lsl #1

50010982 <OSTaskProfileEn>:
50010982:	00160001 	andseq	r0, r6, r1

50010984 <OSTaskMax>:
50010984:	00010016 	andeq	r0, r1, r6, lsl r0

50010986 <OSTaskNameEn>:
50010986:	00010001 	andeq	r0, r1, r1

50010988 <OSTaskStatEn>:
50010988:	00800001 	addeq	r0, r0, r1

5001098a <OSTaskStatStkSize>:
5001098a:	00010080 	andeq	r0, r1, r0, lsl #1

5001098c <OSTaskStatStkChkEn>:
5001098c:	00010001 	andeq	r0, r1, r1

5001098e <OSTaskSwHookEn>:
5001098e:	00010001 	andeq	r0, r1, r1

50010990 <OSTaskRegTblSize>:
50010990:	00400001 	subeq	r0, r0, r1

50010992 <OSTCBPrioTblMax>:
50010992:	00580040 	subseq	r0, r8, r0, asr #32

50010994 <OSTCBSize>:
50010994:	00640058 	rsbeq	r0, r4, r8, asr r0

50010996 <OSTicksPerSec>:
50010996:	00010064 	andeq	r0, r1, r4, rrx

50010998 <OSTimeTickHookEn>:
50010998:	01230001 	teqeq	r3, r1

5001099a <OSVersionNbr>:
5001099a:	00010123 	andeq	r0, r1, r3, lsr #2

5001099c <OSTmrEn>:
5001099c:	00100001 	andseq	r0, r0, r1

5001099e <OSTmrCfgMax>:
5001099e:	00010010 	andeq	r0, r1, r0, lsl r0

500109a0 <OSTmrCfgNameEn>:
500109a0:	00080001 	andeq	r0, r8, r1

500109a2 <OSTmrCfgWheelSize>:
500109a2:	000a0008 	andeq	r0, sl, r8

500109a4 <OSTmrCfgTicksPerSec>:
500109a4:	0028000a 	eoreq	r0, r8, sl

500109a6 <OSTmrSize>:
500109a6:	02800028 	addeq	r0, r0, #40	; 0x28

500109a8 <OSTmrTblSize>:
500109a8:	00080280 	andeq	r0, r8, r0, lsl #5

500109aa <OSTmrWheelSize>:
500109aa:	00400008 	subeq	r0, r0, r8

500109ac <OSTmrWheelTblSize>:
500109ac:	13c20040 	bicne	r0, r2, #64	; 0x40

500109ae <OSDataSize>:
500109ae:	657013c2 	ldrbvs	r1, [r0, #-962]!	; 0xfffffc3e
500109b2:	6e656372 	mcrvs	3, 3, r6, cr5, cr2, {3}
500109b6:	65676174 	strbvs	r6, [r7, #-372]!	; 0xfffffe8c
500109ba:	00203d20 	eoreq	r3, r0, r0, lsr #26
500109be:	00250000 	eoreq	r0, r5, r0
500109c2:	00000000 	andeq	r0, r0, r0
500109c6:	6c500000 	mravs	r0, r0, acc0
500109ca:	65736165 	ldrbvs	r6, [r3, #-357]!	; 0xfffffe9b
500109ce:	706e6920 	rsbvc	r6, lr, r0, lsr #18
500109d2:	79207475 	stmdbvc	r0!, {r0, r2, r4, r5, r6, sl, ip, sp, lr}
500109d6:	3a726165 	bcc	51ca8f72 <bss_end+0x1c9625a>
500109da:	30302820 	eorscc	r2, r0, r0, lsr #16
500109de:	39207e20 	stmdbcc	r0!, {r5, r9, sl, fp, ip, sp, lr}
500109e2:	00002939 	andeq	r2, r0, r9, lsr r9
500109e6:	3e200000 	cdpcc	0, 2, cr0, cr0, cr0, {0}
500109ea:	0000203e 	andeq	r2, r0, lr, lsr r0
500109ee:	6c500000 	mravs	r0, r0, acc0
500109f2:	65736165 	ldrbvs	r6, [r3, #-357]!	; 0xfffffe9b
500109f6:	706e6920 	rsbvc	r6, lr, r0, lsr #18
500109fa:	6d207475 	cfstrsvs	mvf7, [r0, #-468]!	; 0xfffffe2c
500109fe:	68746e6f 	ldmdavs	r4!, {r0, r1, r2, r3, r5, r6, r9, sl, fp, sp, lr}^
50010a02:	3128203a 	teqcc	r8, sl, lsr r0
50010a06:	31207e20 	teqcc	r0, r0, lsr #28
50010a0a:	00002932 	andeq	r2, r0, r2, lsr r9
50010a0e:	6c500000 	mravs	r0, r0, acc0
50010a12:	65736165 	ldrbvs	r6, [r3, #-357]!	; 0xfffffe9b
50010a16:	706e6920 	rsbvc	r6, lr, r0, lsr #18
50010a1a:	64207475 	strtvs	r7, [r0], #-1141	; 0xfffffb8b
50010a1e:	3a657461 	bcc	5196dbaa <bss_end+0x195ae92>
50010a22:	20312820 	eorscs	r2, r1, r0, lsr #16
50010a26:	3133207e 	teqcc	r3, lr, ror r0
50010a2a:	6c500029 	mrrcvs	0, 2, r0, r0, cr9	; <UNPREDICTABLE>
50010a2e:	65736165 	ldrbvs	r6, [r3, #-357]!	; 0xfffffe9b
50010a32:	706e6920 	rsbvc	r6, lr, r0, lsr #18
50010a36:	64207475 	strtvs	r7, [r0], #-1141	; 0xfffffb8b
50010a3a:	203a7961 	eorscs	r7, sl, r1, ror #18
50010a3e:	7e203128 	sufvcsp	f3, f0, #0.0
50010a42:	00293720 	eoreq	r3, r9, r0, lsr #14
50010a46:	6c500000 	mravs	r0, r0, acc0
50010a4a:	65736165 	ldrbvs	r6, [r3, #-357]!	; 0xfffffe9b
50010a4e:	706e6920 	rsbvc	r6, lr, r0, lsr #18
50010a52:	68207475 	stmdavs	r0!, {r0, r2, r4, r5, r6, sl, ip, sp, lr}
50010a56:	3a72756f 	bcc	51cae01a <bss_end+0x1c9b302>
50010a5a:	20302820 	eorscs	r2, r0, r0, lsr #16
50010a5e:	3332207e 	teqcc	r2, #126	; 0x7e
50010a62:	6c500029 	mrrcvs	0, 2, r0, r0, cr9	; <UNPREDICTABLE>
50010a66:	65736165 	ldrbvs	r6, [r3, #-357]!	; 0xfffffe9b
50010a6a:	706e6920 	rsbvc	r6, lr, r0, lsr #18
50010a6e:	6d207475 	cfstrsvs	mvf7, [r0, #-468]!	; 0xfffffe2c
50010a72:	74756e69 	ldrbtvc	r6, [r5], #-3689	; 0xfffff197
50010a76:	28203a65 	stmdacs	r0!, {r0, r2, r5, r6, r9, fp, ip, sp}
50010a7a:	207e2030 	rsbscs	r2, lr, r0, lsr r0
50010a7e:	00293935 	eoreq	r3, r9, r5, lsr r9
50010a82:	6c500000 	mravs	r0, r0, acc0
50010a86:	65736165 	ldrbvs	r6, [r3, #-357]!	; 0xfffffe9b
50010a8a:	706e6920 	rsbvc	r6, lr, r0, lsr #18
50010a8e:	73207475 	teqvc	r0, #1962934272	; 0x75000000
50010a92:	6e6f6365 	cdpvs	3, 6, cr6, cr15, cr5, {3}
50010a96:	28203a64 	stmdacs	r0!, {r2, r5, r6, r9, fp, ip, sp}
50010a9a:	207e2030 	rsbscs	r2, lr, r0, lsr r0
50010a9e:	00293935 	eoreq	r3, r9, r5, lsr r9
50010aa2:	540a0000 	strpl	r0, [sl], #-0
50010aa6:	20656d69 	rsbcs	r6, r5, r9, ror #26
50010aaa:	003a7369 	eorseq	r7, sl, r9, ror #6
50010aae:	450a0000 	strmi	r0, [sl, #-0]
50010ab2:	726f7272 	rsbvc	r7, pc, #536870919	; 0x20000007
50010ab6:	6559203a 	ldrbvs	r2, [r9, #-58]	; 0xffffffc6
50010aba:	6d207261 	sfmvs	f7, 4, [r0, #-388]!	; 0xfffffe7c
50010abe:	20747375 	rsbscs	r7, r4, r5, ror r3
50010ac2:	77746562 	ldrbvc	r6, [r4, -r2, ror #10]!
50010ac6:	206e6565 	rsbcs	r6, lr, r5, ror #10
50010aca:	6f742030 	svcvs	0x00742030
50010ace:	21393920 	teqcs	r9, r0, lsr #18
50010ad2:	450a0000 	strmi	r0, [sl, #-0]
50010ad6:	726f7272 	rsbvc	r7, pc, #536870919	; 0x20000007
50010ada:	6f4d203a 	svcvs	0x004d203a
50010ade:	2068746e 	rsbcs	r7, r8, lr, ror #8
50010ae2:	7473756d 	ldrbtvc	r7, [r3], #-1389	; 0xfffffa93
50010ae6:	74656220 	strbtvc	r6, [r5], #-544	; 0xfffffde0
50010aea:	6e656577 	mcrvs	5, 3, r6, cr5, cr7, {3}
50010aee:	74203120 	strtvc	r3, [r0], #-288	; 0xfffffee0
50010af2:	3231206f 	eorscc	r2, r1, #111	; 0x6f
50010af6:	450a0021 	strmi	r0, [sl, #-33]	; 0xffffffdf
50010afa:	726f7272 	rsbvc	r7, pc, #536870919	; 0x20000007
50010afe:	6144203a 	cmpvs	r4, sl, lsr r0
50010b02:	6d206574 	cfstr32vs	mvfx6, [r0, #-464]!	; 0xfffffe30
50010b06:	20747375 	rsbscs	r7, r4, r5, ror r3
50010b0a:	77746562 	ldrbvc	r6, [r4, -r2, ror #10]!
50010b0e:	206e6565 	rsbcs	r6, lr, r5, ror #10
50010b12:	6f742031 	svcvs	0x00742031
50010b16:	21313320 	teqcs	r1, r0, lsr #6
50010b1a:	450a0000 	strmi	r0, [sl, #-0]
50010b1e:	726f7272 	rsbvc	r7, pc, #536870919	; 0x20000007
50010b22:	6144203a 	cmpvs	r4, sl, lsr r0
50010b26:	756d2079 	strbvc	r2, [sp, #-121]!	; 0xffffff87
50010b2a:	62207473 	eorvs	r7, r0, #1929379840	; 0x73000000
50010b2e:	65777465 	ldrbvs	r7, [r7, #-1125]!	; 0xfffffb9b
50010b32:	31206e65 	teqcc	r0, r5, ror #28
50010b36:	206f7420 	rsbcs	r7, pc, r0, lsr #8
50010b3a:	00213133 	eoreq	r3, r1, r3, lsr r1
50010b3e:	450a0000 	strmi	r0, [sl, #-0]
50010b42:	726f7272 	rsbvc	r7, pc, #536870919	; 0x20000007
50010b46:	6f48203a 	svcvs	0x0048203a
50010b4a:	6d207275 	sfmvs	f7, 4, [r0, #-468]!	; 0xfffffe2c
50010b4e:	20747375 	rsbscs	r7, r4, r5, ror r3
50010b52:	77746562 	ldrbvc	r6, [r4, -r2, ror #10]!
50010b56:	206e6565 	rsbcs	r6, lr, r5, ror #10
50010b5a:	6f742030 	svcvs	0x00742030
50010b5e:	21333220 	teqcs	r3, r0, lsr #4
50010b62:	450a0000 	strmi	r0, [sl, #-0]
50010b66:	726f7272 	rsbvc	r7, pc, #536870919	; 0x20000007
50010b6a:	694d203a 	stmdbvs	sp, {r1, r3, r4, r5, sp}^
50010b6e:	6574756e 	ldrbvs	r7, [r4, #-1390]!	; 0xfffffa92
50010b72:	73756d20 	cmnvc	r5, #32, 26	; 0x800
50010b76:	65622074 	strbvs	r2, [r2, #-116]!	; 0xffffff8c
50010b7a:	65657774 	strbvs	r7, [r5, #-1908]!	; 0xfffff88c
50010b7e:	2030206e 	eorscs	r2, r0, lr, rrx
50010b82:	35206f74 	strcc	r6, [r0, #-3956]!	; 0xfffff08c
50010b86:	00002139 	andeq	r2, r0, r9, lsr r1
50010b8a:	450a0000 	strmi	r0, [sl, #-0]
50010b8e:	726f7272 	rsbvc	r7, pc, #536870919	; 0x20000007
50010b92:	6553203a 	ldrbvs	r2, [r3, #-58]	; 0xffffffc6
50010b96:	646e6f63 	strbtvs	r6, [lr], #-3939	; 0xfffff09d
50010b9a:	73756d20 	cmnvc	r5, #32, 26	; 0x800
50010b9e:	65622074 	strbvs	r2, [r2, #-116]!	; 0xffffff8c
50010ba2:	65657774 	strbvs	r7, [r5, #-1908]!	; 0xfffff88c
50010ba6:	2030206e 	eorscs	r2, r0, lr, rrx
50010baa:	35206f74 	strcc	r6, [r0, #-3956]!	; 0xfffff08c
50010bae:	00002139 	andeq	r2, r0, r9, lsr r1
	...

50010bb4 <OSUnMapTbl>:
50010bb4:	00010000 	andeq	r0, r1, r0
50010bb8:	00010002 	andeq	r0, r1, r2
50010bbc:	00010003 	andeq	r0, r1, r3
50010bc0:	00010002 	andeq	r0, r1, r2
50010bc4:	00010004 	andeq	r0, r1, r4
50010bc8:	00010002 	andeq	r0, r1, r2
50010bcc:	00010003 	andeq	r0, r1, r3
50010bd0:	00010002 	andeq	r0, r1, r2
50010bd4:	00010005 	andeq	r0, r1, r5
50010bd8:	00010002 	andeq	r0, r1, r2
50010bdc:	00010003 	andeq	r0, r1, r3
50010be0:	00010002 	andeq	r0, r1, r2
50010be4:	00010004 	andeq	r0, r1, r4
50010be8:	00010002 	andeq	r0, r1, r2
50010bec:	00010003 	andeq	r0, r1, r3
50010bf0:	00010002 	andeq	r0, r1, r2
50010bf4:	00010006 	andeq	r0, r1, r6
50010bf8:	00010002 	andeq	r0, r1, r2
50010bfc:	00010003 	andeq	r0, r1, r3
50010c00:	00010002 	andeq	r0, r1, r2
50010c04:	00010004 	andeq	r0, r1, r4
50010c08:	00010002 	andeq	r0, r1, r2
50010c0c:	00010003 	andeq	r0, r1, r3
50010c10:	00010002 	andeq	r0, r1, r2
50010c14:	00010005 	andeq	r0, r1, r5
50010c18:	00010002 	andeq	r0, r1, r2
50010c1c:	00010003 	andeq	r0, r1, r3
50010c20:	00010002 	andeq	r0, r1, r2
50010c24:	00010004 	andeq	r0, r1, r4
50010c28:	00010002 	andeq	r0, r1, r2
50010c2c:	00010003 	andeq	r0, r1, r3
50010c30:	00010002 	andeq	r0, r1, r2
50010c34:	00010007 	andeq	r0, r1, r7
50010c38:	00010002 	andeq	r0, r1, r2
50010c3c:	00010003 	andeq	r0, r1, r3
50010c40:	00010002 	andeq	r0, r1, r2
50010c44:	00010004 	andeq	r0, r1, r4
50010c48:	00010002 	andeq	r0, r1, r2
50010c4c:	00010003 	andeq	r0, r1, r3
50010c50:	00010002 	andeq	r0, r1, r2
50010c54:	00010005 	andeq	r0, r1, r5
50010c58:	00010002 	andeq	r0, r1, r2
50010c5c:	00010003 	andeq	r0, r1, r3
50010c60:	00010002 	andeq	r0, r1, r2
50010c64:	00010004 	andeq	r0, r1, r4
50010c68:	00010002 	andeq	r0, r1, r2
50010c6c:	00010003 	andeq	r0, r1, r3
50010c70:	00010002 	andeq	r0, r1, r2
50010c74:	00010006 	andeq	r0, r1, r6
50010c78:	00010002 	andeq	r0, r1, r2
50010c7c:	00010003 	andeq	r0, r1, r3
50010c80:	00010002 	andeq	r0, r1, r2
50010c84:	00010004 	andeq	r0, r1, r4
50010c88:	00010002 	andeq	r0, r1, r2
50010c8c:	00010003 	andeq	r0, r1, r3
50010c90:	00010002 	andeq	r0, r1, r2
50010c94:	00010005 	andeq	r0, r1, r5
50010c98:	00010002 	andeq	r0, r1, r2
50010c9c:	00010003 	andeq	r0, r1, r3
50010ca0:	00010002 	andeq	r0, r1, r2
50010ca4:	00010004 	andeq	r0, r1, r4
50010ca8:	00010002 	andeq	r0, r1, r2
50010cac:	00010003 	andeq	r0, r1, r3
50010cb0:	00010002 	andeq	r0, r1, r2
50010cb4:	0000003f 	andeq	r0, r0, pc, lsr r0
50010cb8:	4f2f4375 	svcmi	0x002f4375
50010cbc:	49492d53 	stmdbmi	r9, {r0, r1, r4, r6, r8, sl, fp, sp}^
50010cc0:	6c644920 	stclvs	9, cr4, [r4], #-128	; 0xffffff80
50010cc4:	00000065 	andeq	r0, r0, r5, rrx
50010cc8:	4f2f4375 	svcmi	0x002f4375
50010ccc:	49492d53 	stmdbmi	r9, {r0, r1, r4, r6, r8, sl, fp, sp}^
50010cd0:	61745320 	cmnvs	r4, r0, lsr #6
50010cd4:	00000074 	andeq	r0, r0, r4, ror r0
50010cd8:	4f2f4375 	svcmi	0x002f4375
50010cdc:	49492d53 	stmdbmi	r9, {r0, r1, r4, r6, r8, sl, fp, sp}^
50010ce0:	726d5420 	rsbvc	r5, sp, #32, 8	; 0x20000000
50010ce4:	6b636f4c 	blvs	518eca1c <bss_end+0x18d9d04>
50010ce8:	00000000 	andeq	r0, r0, r0
50010cec:	4f2f4375 	svcmi	0x002f4375
50010cf0:	49492d53 	stmdbmi	r9, {r0, r1, r4, r6, r8, sl, fp, sp}^
50010cf4:	726d5420 	rsbvc	r5, sp, #32, 8	; 0x20000000
50010cf8:	6e676953 	mcrvs	9, 3, r6, cr7, cr3, {2}
50010cfc:	00006c61 	andeq	r6, r0, r1, ror #24
50010d00:	4f2f4375 	svcmi	0x002f4375
50010d04:	49492d53 	stmdbmi	r9, {r0, r1, r4, r6, r8, sl, fp, sp}^
50010d08:	726d5420 	rsbvc	r5, sp, #32, 8	; 0x20000000
50010d0c:	00000000 	andeq	r0, r0, r0

Disassembly of section .data:

50010d10 <time>:
50010d10:	00000001 	andeq	r0, r0, r1

50010d14 <screen_width>:
50010d14:	000001e0 	andeq	r0, r0, r0, ror #3

50010d18 <screen_height>:
50010d18:	00000110 	andeq	r0, r0, r0, lsl r1

50010d1c <pwm_frequency>:
50010d1c:	49435000 	stmdbmi	r3, {ip, lr}^

50010d20 <percentage>:
50010d20:	41200000 	teqmi	r0, r0

50010d24 <positive>:
50010d24:	00000001 	andeq	r0, r0, r1

Disassembly of section .bss:

50010d28 <bss_start>:
50010d28:	00000000 	andeq	r0, r0, r0

50010d2c <receive_over>:
50010d2c:	00000000 	andeq	r0, r0, r0

50010d30 <AT_MODE>:
50010d30:	00000000 	andeq	r0, r0, r0

50010d34 <index.4828>:
50010d34:	00000000 	andeq	r0, r0, r0

50010d38 <int_time>:
50010d38:	00000000 	andeq	r0, r0, r0

50010d3c <HighTaskStk>:
	...

50010f3c <MidTaskStk>:
	...

5001113c <MainTaskStk>:
	...

5001133c <LowTaskStk>:
	...

5001153c <uart1_buffer>:
	...

5001193c <OSTmrFreeList>:
5001193c:	00000000 	andeq	r0, r0, r0

50011940 <OSTmrWheelTbl>:
	...

50011980 <OSLockNesting>:
50011980:	00000000 	andeq	r0, r0, r0

50011984 <OSTmrSemSignal>:
50011984:	00000000 	andeq	r0, r0, r0

50011988 <OSRunning>:
50011988:	00000000 	andeq	r0, r0, r0

5001198c <OSIdleCtr>:
5001198c:	00000000 	andeq	r0, r0, r0

50011990 <OSTmrUsed>:
	...

50011992 <OSPrioHighRdy>:
	...

50011994 <OSFlagTbl>:
	...

500119e4 <OSTmrTbl>:
	...

50011c64 <OSPrioCur>:
50011c64:	00000000 	andeq	r0, r0, r0

50011c68 <OSTCBList>:
50011c68:	00000000 	andeq	r0, r0, r0

50011c6c <OSMemTbl>:
	...

50011ce4 <OSTickStepState>:
50011ce4:	00000000 	andeq	r0, r0, r0

50011ce8 <OSTaskStatStk>:
	...

50011ee8 <OSCtxSwCtr>:
50011ee8:	00000000 	andeq	r0, r0, r0

50011eec <OSTmrFree>:
50011eec:	00000000 	andeq	r0, r0, r0

50011ef0 <OSIdleCtrMax>:
50011ef0:	00000000 	andeq	r0, r0, r0

50011ef4 <OSTCBFreeList>:
50011ef4:	00000000 	andeq	r0, r0, r0

50011ef8 <OSCPUUsage>:
	...

50011ef9 <OSTaskCtr>:
50011ef9:	00000000 	andeq	r0, r0, r0

50011efc <OSMemFreeList>:
50011efc:	00000000 	andeq	r0, r0, r0

50011f00 <OSQTbl>:
	...

50011f60 <OSTCBHighRdy>:
50011f60:	00000000 	andeq	r0, r0, r0

50011f64 <OSQFreeList>:
50011f64:	00000000 	andeq	r0, r0, r0

50011f68 <OSRdyGrp>:
50011f68:	00000000 	andeq	r0, r0, r0

50011f6c <OSRdyTbl>:
	...

50011f74 <OSTmrTaskStk>:
	...

50012174 <OSEventFreeList>:
50012174:	00000000 	andeq	r0, r0, r0

50012178 <OSIntNesting>:
50012178:	00000000 	andeq	r0, r0, r0

5001217c <OSTCBCur>:
5001217c:	00000000 	andeq	r0, r0, r0

50012180 <OSTmrTime>:
50012180:	00000000 	andeq	r0, r0, r0

50012184 <OSTime>:
50012184:	00000000 	andeq	r0, r0, r0

50012188 <OSTmrSem>:
50012188:	00000000 	andeq	r0, r0, r0

5001218c <OSTaskIdleStk>:
	...

5001238c <OSEventTbl>:
	...

5001247c <OSTCBTbl>:
	...

50012c0c <OSFlagFreeList>:
50012c0c:	00000000 	andeq	r0, r0, r0

50012c10 <OSStatRdy>:
50012c10:	00000000 	andeq	r0, r0, r0

50012c14 <OSTCBPrioTbl>:
	...

50012d14 <OSIdleCtrRun>:
50012d14:	00000000 	andeq	r0, r0, r0

Disassembly of section .comment:

00000000 <.comment>:
   0:	3a434347 	bcc	10d0d24 <IRQ_STACK_SIZE+0x10c8d24>
   4:	6f532820 	svcvs	0x00532820
   8:	65637275 	strbvs	r7, [r3, #-629]!	; 0xfffffd8b
   c:	43207972 	teqmi	r0, #1867776	; 0x1c8000
  10:	4265646f 	rsbmi	r6, r5, #1862270976	; 0x6f000000
  14:	68636e65 	stmdavs	r3!, {r0, r2, r5, r6, r9, sl, fp, sp, lr}^
  18:	74694c20 	strbtvc	r4, [r9], #-3104	; 0xfffff3e0
  1c:	30322065 	eorscc	r2, r2, r5, rrx
  20:	312e3331 	teqcc	lr, r1, lsr r3
  24:	34322d31 	ldrtcc	r2, [r2], #-3377	; 0xfffff2cf
  28:	2e342029 	cdpcs	0, 3, cr2, cr4, cr9, {1}
  2c:	00312e38 	eorseq	r2, r1, r8, lsr lr

Disassembly of section .ARM.attributes:

00000000 <.ARM.attributes>:
   0:	00003341 	andeq	r3, r0, r1, asr #6
   4:	61656100 	cmnvs	r5, r0, lsl #2
   8:	01006962 	tsteq	r0, r2, ror #18
   c:	00000029 	andeq	r0, r0, r9, lsr #32
  10:	4d524105 	ldfmie	f4, [r2, #-20]	; 0xffffffec
  14:	36373131 			; <UNDEFINED> instruction: 0x36373131
  18:	2d465a4a 	vstrcs	s11, [r6, #-296]	; 0xfffffed8
  1c:	07060053 	smlsdeq	r6, r3, r0, r0
  20:	01090108 	tsteq	r9, r8, lsl #2
  24:	01140412 	tsteq	r4, r2, lsl r4
  28:	03170115 	tsteq	r7, #1073741829	; 0x40000005
  2c:	011a0118 	tsteq	sl, r8, lsl r1
  30:	01440122 	cmpeq	r4, r2, lsr #2

Disassembly of section .debug_frame:

00000000 <.debug_frame>:
   0:	0000000c 	andeq	r0, r0, ip
   4:	ffffffff 			; <UNDEFINED> instruction: 0xffffffff
   8:	7c010001 	stcvc	0, cr0, [r1], {1}
   c:	000d0c0e 	andeq	r0, sp, lr, lsl #24
  10:	0000000c 	andeq	r0, r0, ip
  14:	00000000 	andeq	r0, r0, r0
  18:	5000ee58 	andpl	lr, r0, r8, asr lr
  1c:	000000f4 	strdeq	r0, [r0], -r4
